 bin2coff

 Timestamp is 674c0ffe (Sun Dec  1 12:57:58 2024)

 Preferred load address is 0000000140000000

 Start         Length     Name                   Class
 0001:00000000 0007f9b0H .text$mn                CODE
 0001:0007f9b0 00001040H .text$mn$00             CODE
 0001:000809f0 00001e50H .text$mn$21             CODE
 0001:00082840 00002037H .text$x                 CODE
 0002:00000000 00000110H .CRT$XCA                DATA
 0002:00000110 00000110H .CRT$XCAA               DATA
 0002:00000220 00000110H .CRT$XCZ                DATA
 0002:00000330 00000110H .CRT$XIA                DATA
 0002:00000440 00000110H .CRT$XIAA               DATA
 0002:00000550 00000110H .CRT$XIAC               DATA
 0002:00000660 00000140H .CRT$XIC                DATA
 0002:000007a0 00000110H .CRT$XIZ                DATA
 0002:000008b0 00000110H .CRT$XPA                DATA
 0002:000009c0 00000120H .CRT$XPX                DATA
 0002:00000ae0 00000110H .CRT$XPXA               DATA
 0002:00000bf0 00000110H .CRT$XPZ                DATA
 0002:00000d00 00000110H .CRT$XTA                DATA
 0002:00000e10 00000110H .CRT$XTZ                DATA
 0002:00000f20 0000c9f0H .rdata                  DATA
 0002:0000d910 000002f0H .rdata$00               DATA
 0002:0000dc00 00000200H .rdata$CastGuardVftablesA DATA
 0002:0000de00 000001a0H .rdata$CastGuardVftablesC DATA
 0002:0000dfa0 0000060cH .rdata$r                DATA
 0002:0000e5ac 00000184H .rdata$zzzdbg           DATA
 0002:0000e730 00000110H .rtc$IAA                DATA
 0002:0000e840 00000110H .rtc$IZZ                DATA
 0002:0000e950 00000110H .rtc$TAA                DATA
 0002:0000ea60 00000110H .rtc$TZZ                DATA
 0002:0000eb70 00007660H .xdata                  DATA
 0002:000161d0 00000196H .xdata$x                DATA
 0002:00016366 00000000H .edata                  DATA
 0003:00000000 000013e8H .data                   DATA
 0003:000013e8 00000190H .data$r                 DATA
 0003:00001578 00000228H .data$rs                DATA
 0003:000017a0 00002061H .bss                    DATA
 0004:00000000 00005418H .pdata                  DATA
 0005:00000000 000003b8H .idata$5                DATA
 0005:000003b8 00000014H .idata$2                DATA
 0005:000003cc 00000014H .idata$3                DATA
 0005:000003e0 000003b8H .idata$4                DATA
 0005:00000798 0000083aH .idata$6                DATA
 0006:00000000 00000175H .00cfg                  DATA
 0007:00000000 00000170H .rsrc$01                DATA
 0007:00000170 000002ccH .rsrc$02                DATA

  Address         Publics by Value              Rva+Base               Lib:Object

 0000:00000000       __AbsoluteZero             0000000000000000     <absolute>
 0000:00000000       ___safe_se_handler_count   0000000000000000     <absolute>
 0000:00000000       ___safe_se_handler_table   0000000000000000     <absolute>
 0000:00000000       __arm64x_extra_rfe_table   0000000000000000     <absolute>
 0000:00000000       __arm64x_extra_rfe_table_size 0000000000000000     <absolute>
 0000:00000000       __arm64x_native_entrypoint 0000000000000000     <absolute>
 0000:00000000       __arm64x_redirection_metadata 0000000000000000     <absolute>
 0000:00000000       __arm64x_redirection_metadata_count 0000000000000000     <absolute>
 0000:00000000       __dynamic_value_reloc_table 0000000000000000     <absolute>
 0000:00000000       __enclave_config           0000000000000000     <absolute>
 0000:00000000       __guard_check_icall_a64n_fptr 0000000000000000     <absolute>
 0000:00000000       __guard_eh_cont_count      0000000000000000     <absolute>
 0000:00000000       __guard_eh_cont_table      0000000000000000     <absolute>
 0000:00000000       __guard_fids_count         0000000000000000     <absolute>
 0000:00000000       __guard_fids_table         0000000000000000     <absolute>
 0000:00000000       __guard_iat_count          0000000000000000     <absolute>
 0000:00000000       __guard_iat_table          0000000000000000     <absolute>
 0000:00000000       __guard_longjmp_count      0000000000000000     <absolute>
 0000:00000000       __guard_longjmp_table      0000000000000000     <absolute>
 0000:00000000       __hybrid_auxiliary_delayload_iat 0000000000000000     <absolute>
 0000:00000000       __hybrid_auxiliary_delayload_iat_copy 0000000000000000     <absolute>
 0000:00000000       __hybrid_auxiliary_iat     0000000000000000     <absolute>
 0000:00000000       __hybrid_auxiliary_iat_copy 0000000000000000     <absolute>
 0000:00000000       __hybrid_code_map          0000000000000000     <absolute>
 0000:00000000       __hybrid_code_map_count    0000000000000000     <absolute>
 0000:00000000       __hybrid_image_info_bitfield 0000000000000000     <absolute>
 0000:00000000       __volatile_metadata        0000000000000000     <absolute>
 0000:00000000       __x64_code_ranges_to_entry_points 0000000000000000     <absolute>
 0000:00000000       __x64_code_ranges_to_entry_points_count 0000000000000000     <absolute>
 0000:00000100       __guard_flags              0000000000000100     <absolute>
 0000:00000000       __ImageBase                0000000140000000     <linker-defined>
 0001:000065f0       main                       00000001400075f0 f   bin2coff.obj
 0001:000074e0       __local_stdio_printf_options 00000001400084e0 f i bin2coff.obj
 0001:000074f0       _vfprintf_l                00000001400084f0 f i bin2coff.obj
 0001:00007550       fprintf                    0000000140008550 f i bin2coff.obj
 0001:000075c0       printf                     00000001400085c0 f i bin2coff.obj
 0001:00007938       ?configure_argv@__scrt_narrow_argv_policy@@SAHXZ 0000000140008938 f i LIBCMT:exe_main.obj
 0001:00007954       ?initialize_environment@__scrt_narrow_environment_policy@@SAHXZ 0000000140008954 f i LIBCMT:exe_main.obj
 0001:000079a0       ?set_app_type@__scrt_main_policy@@SAXXZ 00000001400089a0 f i LIBCMT:exe_main.obj
 0001:000079ac       ?set_commode@__scrt_file_policy@@SAXXZ 00000001400089ac f i LIBCMT:exe_main.obj
 0001:000079cc       ?set_fmode@__scrt_file_policy@@SAXXZ 00000001400089cc f i LIBCMT:exe_main.obj
 0001:000079e8       mainCRTStartup             00000001400089e8 f   LIBCMT:exe_main.obj
 0001:00007a98       NtCurrentTeb               0000000140008a98 f i LIBCMT:utility.obj
 0001:00007aa4       __scrt_acquire_startup_lock 0000000140008aa4 f   LIBCMT:utility.obj
 0001:00007aec       __scrt_dllmain_after_initialize_c 0000000140008aec f   LIBCMT:utility.obj
 0001:00007b30       __scrt_dllmain_before_initialize_c 0000000140008b30 f   LIBCMT:utility.obj
 0001:00007b4c       __scrt_dllmain_crt_thread_attach 0000000140008b4c f   LIBCMT:utility.obj
 0001:00007b80       __scrt_dllmain_crt_thread_detach 0000000140008b80 f   LIBCMT:utility.obj
 0001:00007b9c       __scrt_dllmain_exception_filter 0000000140008b9c f   LIBCMT:utility.obj
 0001:00007c14       __scrt_dllmain_uninitialize_c 0000000140008c14 f   LIBCMT:utility.obj
 0001:00007c50       __scrt_dllmain_uninitialize_critical 0000000140008c50 f   LIBCMT:utility.obj
 0001:00007c6c       __scrt_initialize_crt      0000000140008c6c f   LIBCMT:utility.obj
 0001:00007cb4       __scrt_initialize_onexit_tables 0000000140008cb4 f   LIBCMT:utility.obj
 0001:00007d64       __scrt_is_nonwritable_in_current_image 0000000140008d64 f   LIBCMT:utility.obj
 0001:00007e24       __scrt_release_startup_lock 0000000140008e24 f   LIBCMT:utility.obj
 0001:00007e54       __scrt_uninitialize_crt    0000000140008e54 f   LIBCMT:utility.obj
 0001:00007e88       _onexit                    0000000140008e88 f   LIBCMT:utility.obj
 0001:00007ed0       at_quick_exit              0000000140008ed0 f   LIBCMT:utility.obj
 0001:00007ef4       atexit                     0000000140008ef4 f   LIBCMT:utility.obj
 0001:00007f98       __security_init_cookie     0000000140008f98 f   LIBCMT:gs_support.obj
 0001:00008070       _matherr                   0000000140009070 f   LIBCMT:matherr.obj
 0001:00008074       _get_startup_argv_mode     0000000140009074 f   LIBCMT:argv_mode.obj
 0001:0000807c       _get_startup_commit_mode   000000014000907c f   LIBCMT:commit_mode.obj
 0001:00008080       _get_startup_file_mode     0000000140009080 f   LIBCMT:file_mode.obj
 0001:00008088       _get_startup_new_mode      0000000140009088 f   LIBCMT:new_mode.obj
 0001:0000808c       _get_startup_thread_locale_mode 000000014000908c f   LIBCMT:thread_locale.obj
 0001:00008090       ?__scrt_initialize_type_info@@YAXXZ 0000000140009090 f   LIBCMT:tncleanup.obj
 0001:000080a4       ?__scrt_uninitialize_type_info@@YAXXZ 00000001400090a4 f   LIBCMT:tncleanup.obj
 0001:000080b4       _should_initialize_environment 00000001400090b4 f   LIBCMT:env_mode.obj
 0001:000080b8       _initialize_invalid_parameter_handler 00000001400090b8 f   LIBCMT:invalid_parameter_handler.obj
 0001:000080bc       _initialize_denormal_control 00000001400090bc f   LIBCMT:denormal_control.obj
 0001:000080c0       __local_stdio_scanf_options 00000001400090c0 f i LIBCMT:default_local_stdio_options.obj
 0001:000080cc       __scrt_initialize_default_local_stdio_options 00000001400090cc f   LIBCMT:default_local_stdio_options.obj
 0001:000080f0       __scrt_is_user_matherr_present 00000001400090f0 f   LIBCMT:matherr_detection.obj
 0001:00008100       __scrt_get_dyn_tls_init_callback 0000000140009100 f   LIBCMT:dyn_tls_init.obj
 0001:0000810c       __scrt_get_dyn_tls_dtor_callback 000000014000910c f   LIBCMT:dyn_tls_dtor.obj
 0001:00008118       __crt_debugger_hook        0000000140009118 f   LIBCMT:utility_desktop.obj
 0001:00008124       __scrt_fastfail            0000000140009124 f   LIBCMT:utility_desktop.obj
 0001:000082c0       __scrt_get_show_window_mode 00000001400092c0 f   LIBCMT:utility_desktop.obj
 0001:00008308       __scrt_initialize_mta      0000000140009308 f   LIBCMT:utility_desktop.obj
 0001:00008310       __scrt_initialize_winrt    0000000140009310 f   LIBCMT:utility_desktop.obj
 0001:00008314       __scrt_is_managed_app      0000000140009314 f   LIBCMT:utility_desktop.obj
 0001:0000837c       __scrt_set_unhandled_exception_filter 000000014000937c f   LIBCMT:utility_desktop.obj
 0001:00008390       __scrt_exe_initialize_mta  0000000140009390 f   LIBCMT:utility_desktop.obj
 0001:00008390       __scrt_stub_for_initialize_mta 0000000140009390 f   LIBCMT:utility_desktop.obj
 0001:00008394       __scrt_unhandled_exception_filter 0000000140009394 f   LIBCMT:utility_desktop.obj
 0001:00008408       _RTC_Initialize            0000000140009408 f   LIBCMT:initsect.obj
 0001:00008454       _RTC_Terminate             0000000140009454 f   LIBCMT:initsect.obj
 0001:000084a0       _guard_check_icall_nop     00000001400094a0 f i LIBCMT:guard_support.obj
 0001:000084a4       ReadNoFence64              00000001400094a4 f i LIBCMT:guard_support.obj
 0001:000084a8       ReadPointerNoFence         00000001400094a8 f i LIBCMT:guard_support.obj
 0001:000084ac       __castguard_check_failure_debugbreak 00000001400094ac f i LIBCMT:guard_support.obj
 0001:000084d0       __castguard_check_failure_fastfail 00000001400094d0 f i LIBCMT:guard_support.obj
 0001:000084fc       __castguard_check_failure_nop 00000001400094fc f i LIBCMT:guard_support.obj
 0001:00008500       __castguard_check_failure_os_handled 0000000140009500 f i LIBCMT:guard_support.obj
 0001:0000855c       __castguard_check_failure_user_handled 000000014000955c f i LIBCMT:guard_support.obj
 0001:000085e8       __castguard_set_user_handler 00000001400095e8 f i LIBCMT:guard_support.obj
 0001:000085f8       __castguard_slow_path_check_debugbreak 00000001400095f8 f i LIBCMT:guard_support.obj
 0001:0000863c       __castguard_slow_path_check_fastfail 000000014000963c f i LIBCMT:guard_support.obj
 0001:00008684       __castguard_slow_path_check_nop 0000000140009684 f i LIBCMT:guard_support.obj
 0001:00008688       __castguard_slow_path_check_os_handled 0000000140009688 f i LIBCMT:guard_support.obj
 0001:000086e8       __castguard_slow_path_check_user_handled 00000001400096e8 f i LIBCMT:guard_support.obj
 0001:0000876c       _guard_icall_checks_enforced 000000014000976c f i LIBCMT:guard_support.obj
 0001:00008788       _guard_rf_checks_enforced  0000000140009788 f i LIBCMT:guard_support.obj
 0001:0000878c       __isa_available_init       000000014000978c f   LIBCMT:cpu_disp.obj
 0001:00008b08       __scrt_is_ucrt_dll_in_use  0000000140009b08 f   LIBCMT:ucrt_detection.obj
 0001:00008b20       __C_specific_handler       0000000140009b20 f   libvcruntime:riscchandler.obj
 0001:00008dbc       __vcrt_initialize          0000000140009dbc f   libvcruntime:initialization.obj
 0001:00008df0       __vcrt_thread_attach       0000000140009df0 f   libvcruntime:initialization.obj
 0001:00008e0c       __vcrt_thread_detach       0000000140009e0c f   libvcruntime:initialization.obj
 0001:00008e20       __vcrt_uninitialize        0000000140009e20 f   libvcruntime:initialization.obj
 0001:00008e40       __vcrt_uninitialize_critical 0000000140009e40 f   libvcruntime:initialization.obj
 0001:00008e68       ??$?RD@__crt_internal_free_policy@@QEBAXQEBD@Z 0000000140009e68 f i libvcruntime:std_type_info.obj
 0001:00008e74       ??$?RX@__crt_internal_free_policy@@QEBAXQEBX@Z 0000000140009e74 f i libvcruntime:std_type_info.obj
 0001:00008e80       ??$__crt_interlocked_compare_exchange_pointer@$$CBDPEAD$$T@@YAPEBDPEDSEBDQEAD$$T@Z 0000000140009e80 f i libvcruntime:std_type_info.obj
 0001:00008e8c       ??$__crt_interlocked_read_pointer@$$CBD@@YAPEBDPEDSEBD@Z 0000000140009e8c f i libvcruntime:std_type_info.obj
 0001:00008e94       ??0?$__crt_unique_heap_ptr@DU__crt_internal_free_policy@@@@QEAA@QEAD@Z 0000000140009e94 f i libvcruntime:std_type_info.obj
 0001:00008e9c       ??0?$__crt_unique_heap_ptr@XU__crt_internal_free_policy@@@@QEAA@QEAX@Z 0000000140009e9c f i libvcruntime:std_type_info.obj
 0001:00008ea4       ??1?$__crt_unique_heap_ptr@DU__crt_internal_free_policy@@@@QEAA@XZ 0000000140009ea4 f i libvcruntime:std_type_info.obj
 0001:00008ec8       ??1?$__crt_unique_heap_ptr@XU__crt_internal_free_policy@@@@QEAA@XZ 0000000140009ec8 f i libvcruntime:std_type_info.obj
 0001:00008eec       ??B?$__crt_unique_heap_ptr@DU__crt_internal_free_policy@@@@QEBA_NXZ 0000000140009eec f i libvcruntime:std_type_info.obj
 0001:00008ef8       ??B?$__crt_unique_heap_ptr@XU__crt_internal_free_policy@@@@QEBA_NXZ 0000000140009ef8 f i libvcruntime:std_type_info.obj
 0001:00008f1c       ?__crt_interlocked_read_64@@YA_JPED_J@Z 0000000140009f1c f i libvcruntime:std_type_info.obj
 0001:00008f24       ?detach@?$__crt_unique_heap_ptr@XU__crt_internal_free_policy@@@@QEAAPEAXXZ 0000000140009f24 f i libvcruntime:std_type_info.obj
 0001:00008f30       ?get@?$__crt_unique_heap_ptr@DU__crt_internal_free_policy@@@@QEBAPEADXZ 0000000140009f30 f i libvcruntime:std_type_info.obj
 0001:00008f34       ?get@?$__crt_unique_heap_ptr@XU__crt_internal_free_policy@@@@QEBAPEAXXZ 0000000140009f34 f i libvcruntime:std_type_info.obj
 0001:00008f38       ?is_valid@?$__crt_unique_heap_ptr@DU__crt_internal_free_policy@@@@QEBA_NXZ 0000000140009f38 f i libvcruntime:std_type_info.obj
 0001:00008f44       ?is_valid@?$__crt_unique_heap_ptr@XU__crt_internal_free_policy@@@@QEBA_NXZ 0000000140009f44 f i libvcruntime:std_type_info.obj
 0001:00008f50       ?release@?$__crt_unique_heap_ptr@DU__crt_internal_free_policy@@@@QEAAXXZ 0000000140009f50 f i libvcruntime:std_type_info.obj
 0001:00008f74       ?release@?$__crt_unique_heap_ptr@XU__crt_internal_free_policy@@@@QEAAXXZ 0000000140009f74 f i libvcruntime:std_type_info.obj
 0001:00008f98       __std_type_info_compare    0000000140009f98 f   libvcruntime:std_type_info.obj
 0001:00008fc8       __std_type_info_destroy_list 0000000140009fc8 f   libvcruntime:std_type_info.obj
 0001:00008ffc       __std_type_info_hash       0000000140009ffc f   libvcruntime:std_type_info.obj
 0001:00009044       __std_type_info_name       000000014000a044 f   libvcruntime:std_type_info.obj
 0001:000091a0       __DestructExceptionObject  000000014000a1a0 f   libvcruntime:ehhelpers.obj
 0001:00009228       ?_CallMemberFunction0@@YAXQEAX0@Z 000000014000a228 f i libvcruntime:ehhelpers.obj
 0001:0000929c       ?raw_name@type_info@@QEBAPEBDXZ 000000014000a29c f i libvcruntime:ehhelpers.obj
 0001:000092a4       _IsExceptionObjectToBeDestroyed 000000014000a2a4 f   libvcruntime:ehhelpers.obj
 0001:000092e0       _SetWinRTOutOfMemoryExceptionCallback 000000014000a2e0 f   libvcruntime:ehhelpers.obj
 0001:000092ec       __AdjustPointer            000000014000a2ec f   libvcruntime:ehhelpers.obj
 0001:00009318       __FrameUnwindFilter        000000014000a318 f   libvcruntime:ehhelpers.obj
 0001:00009398       __GetPlatformExceptionInfo 000000014000a398 f   libvcruntime:ehhelpers.obj
 0001:0000940c       __current_exception        000000014000a40c f   libvcruntime:ehhelpers.obj
 0001:00009424       __current_exception_context 000000014000a424 f   libvcruntime:ehhelpers.obj
 0001:0000943c       __processing_throw         000000014000a43c f   libvcruntime:ehhelpers.obj
 0001:00009454       __std_terminate            000000014000a454 f   libvcruntime:ehhelpers.obj
 0001:00009460       _is_exception_typeof       000000014000a460 f   libvcruntime:ehhelpers.obj
 0001:00009570       _NLG_Notify                000000014000a570 f   libvcruntime:notify.obj
 0001:000095a0       __NLG_Dispatch2            000000014000a5a0 f   libvcruntime:notify.obj
 0001:000095b0       __NLG_Return2              000000014000a5b0 f   libvcruntime:notify.obj
 0001:000095bc       __except_validate_context_record 000000014000a5bc f   libvcruntime:jbcxrval.obj
 0001:00009600       __except_validate_jump_buffer 000000014000a600 f   libvcruntime:jbcxrval.obj
 0001:00009650       __except_validate_jump_buffer_common 000000014000a650 f i libvcruntime:jbcxrval.obj
 0001:000096c4       ??$?RU__vcrt_ptd@@@__crt_internal_free_policy@@QEBAXQEBU__vcrt_ptd@@@Z 000000014000a6c4 f i libvcruntime:per_thread_data.obj
 0001:000096d0       ??0?$__crt_unique_heap_ptr@U__vcrt_ptd@@U__crt_internal_free_policy@@@@QEAA@QEAU__vcrt_ptd@@@Z 000000014000a6d0 f i libvcruntime:per_thread_data.obj
 0001:000096f8       ??1?$__crt_unique_heap_ptr@U__vcrt_ptd@@U__crt_internal_free_policy@@@@QEAA@XZ 000000014000a6f8 f i libvcruntime:per_thread_data.obj
 0001:00009728       ??B?$__crt_unique_heap_ptr@U__vcrt_ptd@@U__crt_internal_free_policy@@@@QEBA_NXZ 000000014000a728 f i libvcruntime:per_thread_data.obj
 0001:00009734       ?detach@?$__crt_unique_heap_ptr@U__vcrt_ptd@@U__crt_internal_free_policy@@@@QEAAPEAU__vcrt_ptd@@XZ 000000014000a734 f i libvcruntime:per_thread_data.obj
 0001:00009740       ?get@?$__crt_unique_heap_ptr@U__vcrt_ptd@@U__crt_internal_free_policy@@@@QEBAPEAU__vcrt_ptd@@XZ 000000014000a740 f i libvcruntime:per_thread_data.obj
 0001:00009744       ?is_valid@?$__crt_unique_heap_ptr@U__vcrt_ptd@@U__crt_internal_free_policy@@@@QEBA_NXZ 000000014000a744 f i libvcruntime:per_thread_data.obj
 0001:00009750       ?release@?$__crt_unique_heap_ptr@U__vcrt_ptd@@U__crt_internal_free_policy@@@@QEAAXXZ 000000014000a750 f i libvcruntime:per_thread_data.obj
 0001:000097a8       __vcrt_freefls             000000014000a7a8 f   libvcruntime:per_thread_data.obj
 0001:000097d0       __vcrt_freeptd_for_this_thread 000000014000a7d0 f   libvcruntime:per_thread_data.obj
 0001:00009828       __vcrt_getptd              000000014000a828 f   libvcruntime:per_thread_data.obj
 0001:00009848       __vcrt_getptd_noexit       000000014000a848 f   libvcruntime:per_thread_data.obj
 0001:00009938       __vcrt_getptd_noinit       000000014000a938 f   libvcruntime:per_thread_data.obj
 0001:00009998       __vcrt_initialize_ptd      000000014000a998 f   libvcruntime:per_thread_data.obj
 0001:000099f0       __vcrt_uninitialize_ptd    000000014000a9f0 f   libvcruntime:per_thread_data.obj
 0001:00009a1c       __vcrt_initialize_locks    000000014000aa1c f   libvcruntime:locks.obj
 0001:00009a74       __vcrt_lock                000000014000aa74 f   libvcruntime:locks.obj
 0001:00009a94       __vcrt_uninitialize_locks  000000014000aa94 f   libvcruntime:locks.obj
 0001:00009ad8       __vcrt_unlock              000000014000aad8 f   libvcruntime:locks.obj
 0001:00009af8       ??$?0$00@DName@@QEAA@PEBDU?$StringLifeSelector@$00@@@Z 000000014000aaf8 f i libvcruntime:undname.obj
 0001:00009b48       ??$?0$00@pcharNode@@QEAA@PEBDHU?$StringLifeSelector@$00@@@Z 000000014000ab48 f i libvcruntime:undname.obj
 0001:00009b64       ??$?0$01@DName@@QEAA@PEBDU?$StringLifeSelector@$01@@@Z 000000014000ab64 f i libvcruntime:undname.obj
 0001:00009bb4       ??$?0$01@pcharNode@@QEAA@PEBDHU?$StringLifeSelector@$01@@@Z 000000014000abb4 f i libvcruntime:undname.obj
 0001:00009c44       ??$?0$0A@@DName@@QEAA@PEBDU?$StringLifeSelector@$0A@@@@Z 000000014000ac44 f i libvcruntime:undname.obj
 0001:00009c94       ??$?0$0A@@pcharNode@@QEAA@PEBDHU?$StringLifeSelector@$0A@@@@Z 000000014000ac94 f i libvcruntime:undname.obj
 0001:00009d24       ??$?0_K$0A@@?$optional@_K@std@@QEAA@$$QEA_K@Z 000000014000ad24 f i libvcruntime:undname.obj
 0001:00009d38       ??$?0_K@?$_Optional_construct_base@_K@std@@QEAA@Uin_place_t@1@$$QEA_K@Z 000000014000ad38 f i libvcruntime:undname.obj
 0001:00009d4c       ??$?0_K@?$_Optional_destruct_base@_K$00@std@@QEAA@Uin_place_t@1@$$QEA_K@Z 000000014000ad4c f i libvcruntime:undname.obj
 0001:00009d60       ??$append@VDNameNode@@@DName@@AEAAXPEBVDNameNode@@@Z 000000014000ad60 f i libvcruntime:undname.obj
 0001:00009ddc       ??$append@VDNameStatusNode@@@DName@@AEAAXPEBVDNameStatusNode@@@Z 000000014000addc f i libvcruntime:undname.obj
 0001:00009e58       ??$append@VcharNode@@@DName@@AEAAXPEBVcharNode@@@Z 000000014000ae58 f i libvcruntime:undname.obj
 0001:00009ed4       ??$append@VpDNameNode@@@DName@@AEAAXPEBVpDNameNode@@@Z 000000014000aed4 f i libvcruntime:undname.obj
 0001:00009f50       ??$append@VpcharNode@@@DName@@AEAAXPEBVpcharNode@@@Z 000000014000af50 f i libvcruntime:undname.obj
 0001:00009fcc       ??$doPchar@$00@DName@@AEAAXPEBDH@Z 000000014000afcc f i libvcruntime:undname.obj
 0001:0000a088       ??$doPchar@$01@DName@@AEAAXPEBDH@Z 000000014000b088 f i libvcruntime:undname.obj
 0001:0000a144       ??$doPchar@$0A@@DName@@AEAAXPEBDH@Z 000000014000b144 f i libvcruntime:undname.obj
 0001:0000a200       ??$forward@_K@std@@YA$$QEA_KAEA_K@Z 000000014000b200 f i libvcruntime:undname.obj
 0001:0000a364       ??0?$_Optional_construct_base@_K@std@@QEAA@XZ 000000014000b364 f i libvcruntime:undname.obj
 0001:0000a370       ??0?$_Optional_destruct_base@_K$00@std@@QEAA@XZ 000000014000b370 f i libvcruntime:undname.obj
 0001:0000a37c       ??0?$optional@_K@std@@QEAA@XZ 000000014000b37c f i libvcruntime:undname.obj
 0001:0000a388       ??0Block@_HeapManager@@QEAA@XZ 000000014000b388 f i libvcruntime:undname.obj
 0001:0000a394       ??0DName@@QEAA@AEAPEBDD@Z  000000014000b394 f   libvcruntime:undname.obj
 0001:0000a474       ??0DName@@QEAA@AEBUStringLiteral@@@Z 000000014000b474 f   libvcruntime:undname.obj
 0001:0000a4ac       ??0DName@@QEAA@AEBV0@@Z    000000014000b4ac f i libvcruntime:undname.obj
 0001:0000a4c0       ??0DName@@QEAA@D@Z         000000014000b4c0 f   libvcruntime:undname.obj
 0001:0000a4e8       ??0DName@@QEAA@PEAV0@@Z    000000014000b4e8 f   libvcruntime:undname.obj
 0001:0000a58c       ??0DName@@QEAA@W4DNameStatus@@@Z 000000014000b58c f   libvcruntime:undname.obj
 0001:0000a5c8       ??0DName@@QEAA@XZ          000000014000b5c8 f i libvcruntime:undname.obj
 0001:0000a5d8       ??0DName@@QEAA@_J@Z        000000014000b5d8 f   libvcruntime:undname.obj
 0001:0000a6a4       ??0DName@@QEAA@_K@Z        000000014000b6a4 f   libvcruntime:undname.obj
 0001:0000a750       ??0DNameNode@@IEAA@XZ      000000014000b750 f i libvcruntime:undname.obj
 0001:0000a764       ??0Replicator@@QEAA@XZ     000000014000b764 f i libvcruntime:undname.obj
 0001:0000a7a0       ??0UnDecorator@@QEAA@PEBDP6APEADJ@ZK@Z 000000014000b7a0 f i libvcruntime:undname.obj
 0001:0000a874       ??0_Nontrivial_dummy_type@std@@QEAA@XZ 000000014000b874 f i libvcruntime:undname.obj
 0001:0000a878       ??0charNode@@QEAA@D@Z      000000014000b878 f i libvcruntime:undname.obj
 0001:0000a890       ??0pDNameNode@@QEAA@PEAVDName@@@Z 000000014000b890 f   libvcruntime:undname.obj
 0001:0000a8c0       ??0pairNode@@QEAA@PEBVDNameNode@@0@Z 000000014000b8c0 f i libvcruntime:undname.obj
 0001:0000a8e8       ??2@YAPEAX_KAEAV_HeapManager@@H@Z 000000014000b8e8 f   libvcruntime:undname.obj
 0001:0000a91c       ??4DName@@QEAAAEAV0@AEBUStringLiteral@@@Z 000000014000b91c f   libvcruntime:undname.obj
 0001:0000a94c       ??4DName@@QEAAAEAV0@AEBV0@@Z 000000014000b94c f   libvcruntime:undname.obj
 0001:0000a960       ??4DName@@QEAAAEAV0@D@Z    000000014000b960 f i libvcruntime:undname.obj
 0001:0000a988       ??4DName@@QEAAAEAV0@PEAV0@@Z 000000014000b988 f   libvcruntime:undname.obj
 0001:0000aa1c       ??4DName@@QEAAAEAV0@W4DNameStatus@@@Z 000000014000ba1c f   libvcruntime:undname.obj
 0001:0000aa44       ??AReplicator@@QEBA?AVDName@@H@Z 000000014000ba44 f   libvcruntime:undname.obj
 0001:0000aa94       ??B?$optional@_K@std@@QEBA_NXZ 000000014000ba94 f i libvcruntime:undname.obj
 0001:0000aa98       ??D?$_Optional_construct_base@_K@std@@QEGAAAEA_KXZ 000000014000ba98 f i libvcruntime:undname.obj
 0001:0000aa9c       ??H@YA?AVDName@@AEBUStringLiteral@@AEBV0@@Z 000000014000ba9c f i libvcruntime:undname.obj
 0001:0000aae0       ??H@YA?AVDName@@DAEBV0@@Z  000000014000bae0 f i libvcruntime:undname.obj
 0001:0000ab34       ??H@YA?AVDName@@W4DNameStatus@@AEBV0@@Z 000000014000bb34 f i libvcruntime:undname.obj
 0001:0000ab78       ??HDName@@QEBA?AV0@AEBUStringLiteral@@@Z 000000014000bb78 f   libvcruntime:undname.obj
 0001:0000abac       ??HDName@@QEBA?AV0@AEBV0@@Z 000000014000bbac f   libvcruntime:undname.obj
 0001:0000abe0       ??HDName@@QEBA?AV0@D@Z     000000014000bbe0 f   libvcruntime:undname.obj
 0001:0000ac14       ??HDName@@QEBA?AV0@PEAV0@@Z 000000014000bc14 f   libvcruntime:undname.obj
 0001:0000ac48       ??HDName@@QEBA?AV0@W4DNameStatus@@@Z 000000014000bc48 f   libvcruntime:undname.obj
 0001:0000ac7c       ??HStringLiteral@@QEBA?AU0@H@Z 000000014000bc7c f i libvcruntime:undname.obj
 0001:0000ac98       ??YDName@@QEAAAEAV0@AEBUStringLiteral@@@Z 000000014000bc98 f   libvcruntime:undname.obj
 0001:0000ad38       ??YDName@@QEAAAEAV0@AEBV0@@Z 000000014000bd38 f   libvcruntime:undname.obj
 0001:0000ae18       ??YDName@@QEAAAEAV0@D@Z    000000014000be18 f   libvcruntime:undname.obj
 0001:0000aea0       ??YDName@@QEAAAEAV0@PEAV0@@Z 000000014000bea0 f   libvcruntime:undname.obj
 0001:0000af58       ??YDName@@QEAAAEAV0@W4DNameStatus@@@Z 000000014000bf58 f   libvcruntime:undname.obj
 0001:0000afe0       ??YReplicator@@QEAAAEAV0@AEBVDName@@@Z 000000014000bfe0 f   libvcruntime:undname.obj
 0001:0000b050       ??_5DName@@QEAAAEAV0@AEBV0@@Z 000000014000c050 f   libvcruntime:undname.obj
 0001:0000b070       ??__K_l@@YA?AUStringLiteral@@PEBD_K@Z 000000014000c070 f i libvcruntime:undname.obj
 0001:0000b080       ?Constructor@_HeapManager@@QEAAXP6APEAX_K@ZP6AXPEAX@Z@Z 000000014000c080 f i libvcruntime:undname.obj
 0001:0000b09c       ?Destructor@_HeapManager@@QEAAXXZ 000000014000c09c f i libvcruntime:undname.obj
 0001:0000b0f8       ?UScore@UnDecorator@@SA?AUStringLiteral@@W4Tokens@@@Z 000000014000c0f8 f   libvcruntime:undname.obj
 0001:0000b158       ?composeDeclaration@UnDecorator@@CA?AVDName@@AEBV2@@Z 000000014000c158 f i libvcruntime:undname.obj
 0001:0000c50c       ?doAccessSpecifiers@UnDecorator@@SAHXZ 000000014000d50c f i libvcruntime:undname.obj
 0001:0000c520       ?doAllocationLanguage@UnDecorator@@SAHXZ 000000014000d520 f i libvcruntime:undname.obj
 0001:0000c534       ?doAllocationModel@UnDecorator@@SAHXZ 000000014000d534 f i libvcruntime:undname.obj
 0001:0000c548       ?doEcsu@UnDecorator@@SAHXZ 000000014000d548 f i libvcruntime:undname.obj
 0001:0000c55c       ?doEllipsis@UnDecorator@@SAHXZ 000000014000d55c f i libvcruntime:undname.obj
 0001:0000c570       ?doFunctionReturns@UnDecorator@@SAHXZ 000000014000d570 f i libvcruntime:undname.obj
 0001:0000c584       ?doMSKeywords@UnDecorator@@SAHXZ 000000014000d584 f i libvcruntime:undname.obj
 0001:0000c598       ?doMemberTypes@UnDecorator@@SAHXZ 000000014000d598 f i libvcruntime:undname.obj
 0001:0000c5ac       ?doNameOnly@UnDecorator@@SAHXZ 000000014000d5ac f i libvcruntime:undname.obj
 0001:0000c5bc       ?doNoIdentCharCheck@UnDecorator@@SAHXZ 000000014000d5bc f i libvcruntime:undname.obj
 0001:0000c5cc       ?doPchar@DName@@AEAAXD@Z   000000014000d5cc f   libvcruntime:undname.obj
 0001:0000c630       ?doPtr64@UnDecorator@@SAHXZ 000000014000d630 f i libvcruntime:undname.obj
 0001:0000c644       ?doRestrictionSpec@UnDecorator@@SAHXZ 000000014000d644 f i libvcruntime:undname.obj
 0001:0000c658       ?doThisTypes@UnDecorator@@SAHXZ 000000014000d658 f i libvcruntime:undname.obj
 0001:0000c670       ?doThrowTypes@UnDecorator@@SAHXZ 000000014000d670 f i libvcruntime:undname.obj
 0001:0000c684       ?doTypeOnly@UnDecorator@@SAHXZ 000000014000d684 f i libvcruntime:undname.obj
 0001:0000c694       ?doUnderScore@UnDecorator@@SAHXZ 000000014000d694 f i libvcruntime:undname.obj
 0001:0000c6a4       ?getAddressOf@UnDecorator@@CA?AVDName@@XZ 000000014000d6a4 f   libvcruntime:undname.obj
 0001:0000c758       ?getArgumentList@UnDecorator@@CA?AVDName@@XZ 000000014000d758 f   libvcruntime:undname.obj
 0001:0000c950       ?getArgumentTypes@UnDecorator@@CA?AVDName@@XZ 000000014000d950 f   libvcruntime:undname.obj
 0001:0000caf0       ?getArrayAccess@UnDecorator@@CA?AVDName@@XZ 000000014000daf0 f   libvcruntime:undname.obj
 0001:0000cbb0       ?getArrayObject@UnDecorator@@CA?AVDName@@XZ 000000014000dbb0 f   libvcruntime:undname.obj
 0001:0000ccb4       ?getArrayType@UnDecorator@@CA?AVDName@@AEBV2@@Z 000000014000dcb4 f i libvcruntime:undname.obj
 0001:0000cfa8       ?getBasedType@UnDecorator@@CA?AVDName@@XZ 000000014000dfa8 f   libvcruntime:undname.obj
 0001:0000d0dc       ?getBasicDataType@UnDecorator@@CA?AVDName@@AEBV2@@Z 000000014000e0dc f   libvcruntime:undname.obj
 0001:0000d860       ?getCHPEName@UnDecorator@@QEAAPEADPEADH@Z 000000014000e860 f i libvcruntime:undname.obj
 0001:0000d9c4       ?getCallIndex@UnDecorator@@CA?AVDName@@XZ 000000014000e9c4 f i libvcruntime:undname.obj
 0001:0000d9e4       ?getCallingConvention@UnDecorator@@CA?AVDName@@XZ 000000014000e9e4 f   libvcruntime:undname.obj
 0001:0000db4c       ?getDataIndirectType@UnDecorator@@CA?AVDName@@AEBV2@W4IndirectionKind@@0H@Z 000000014000eb4c f   libvcruntime:undname.obj
 0001:0000e8ac       ?getDataIndirectType@UnDecorator@@CA?AVDName@@XZ 000000014000f8ac f i libvcruntime:undname.obj
 0001:0000e8f4       ?getDataType@UnDecorator@@CA?AVDName@@PEAV2@@Z 000000014000f8f4 f   libvcruntime:undname.obj
 0001:0000ea4c       ?getDecoratedName@UnDecorator@@CA?AVDName@@XZ 000000014000fa4c f   libvcruntime:undname.obj
 0001:0000edec       ?getDimension@UnDecorator@@CA?AVDName@@_N@Z 000000014000fdec f   libvcruntime:undname.obj
 0001:0000ef88       ?getDispatchTarget@UnDecorator@@CA?AVDName@@XZ 000000014000ff88 f   libvcruntime:undname.obj
 0001:0000effc       ?getDisplacement@UnDecorator@@CA?AVDName@@XZ 000000014000fffc f i libvcruntime:undname.obj
 0001:0000f01c       ?getECSUDataType@UnDecorator@@CA?AVDName@@XZ 000000014001001c f   libvcruntime:undname.obj
 0001:0000f294       ?getECSUName@UnDecorator@@CA?AVDName@@XZ 0000000140010294 f i libvcruntime:undname.obj
 0001:0000f2b0       ?getEnumType@UnDecorator@@CA?AVDName@@XZ 00000001400102b0 f i libvcruntime:undname.obj
 0001:0000f420       ?getExtendedDataIndirectType@UnDecorator@@CA?AVDName@@AEAW4IndirectionKind@@AEA_NH@Z 0000000140010420 f   libvcruntime:undname.obj
 0001:0000f72c       ?getExternalDataType@UnDecorator@@CA?AVDName@@AEBV2@@Z 000000014001072c f i libvcruntime:undname.obj
 0001:0000f81c       ?getFloatingPoint@UnDecorator@@CA?AVDName@@H@Z 000000014001081c f   libvcruntime:undname.obj
 0001:0000f9dc       ?getFunctionIndirectType@UnDecorator@@CA?AVDName@@AEBV2@@Z 00000001400109dc f   libvcruntime:undname.obj
 0001:00010060       ?getGuardNumber@UnDecorator@@CA?AVDName@@XZ 0000000140011060 f i libvcruntime:undname.obj
 0001:00010080       ?getLastChar@DName@@QEBADXZ 0000000140011080 f i libvcruntime:undname.obj
 0001:000100a0       ?getLastChar@DNameStatusNode@@UEBADXZ 00000001400110a0 f i libvcruntime:undname.obj
 0001:000100b0       ?getLastChar@charNode@@UEBADXZ 00000001400110b0 f i libvcruntime:undname.obj
 0001:000100b4       ?getLastChar@pDNameNode@@UEBADXZ 00000001400110b4 f i libvcruntime:undname.obj
 0001:000100e8       ?getLastChar@pairNode@@UEBADXZ 00000001400110e8 f i libvcruntime:undname.obj
 0001:0001012c       ?getLastChar@pcharNode@@UEBADXZ 000000014001112c f i libvcruntime:undname.obj
 0001:00010148       ?getLexicalFrame@UnDecorator@@CA?AVDName@@XZ 0000000140011148 f i libvcruntime:undname.obj
 0001:000101c4       ?getMemberAccess@UnDecorator@@CA?AVDName@@XZ 00000001400111c4 f   libvcruntime:undname.obj
 0001:0001027c       ?getMemoryWithBuffer@_HeapManager@@QEAAPEAX_K@Z 000000014001127c f   libvcruntime:undname.obj
 0001:00010330       ?getMemoryWithoutBuffer@_HeapManager@@QEAAPEAX_K@Z 0000000140011330 f   libvcruntime:undname.obj
 0001:00010348       ?getNoexcept@UnDecorator@@CA?AVDName@@XZ 0000000140011348 f   libvcruntime:undname.obj
 0001:000103c4       ?getNumberOfDimensions@UnDecorator@@CAHXZ 00000001400113c4 f   libvcruntime:undname.obj
 0001:00010434       ?getOperatorName@UnDecorator@@CA?AVDName@@_NPEA_N@Z 0000000140011434 f i libvcruntime:undname.obj
 0001:00011038       ?getPointerToMember@UnDecorator@@CA?AVDName@@XZ 0000000140012038 f   libvcruntime:undname.obj
 0001:0001116c       ?getPointerType@UnDecorator@@CA?AVDName@@AEBV2@0@Z 000000014001216c f i libvcruntime:undname.obj
 0001:00011190       ?getPointerTypeArray@UnDecorator@@CA?AVDName@@AEBV2@0@Z 0000000140012190 f i libvcruntime:undname.obj
 0001:000111b0       ?getPrimaryDataType@UnDecorator@@CA?AVDName@@AEBV2@@Z 00000001400121b0 f   libvcruntime:undname.obj
 0001:00011518       ?getPtrRefDataType@UnDecorator@@CA?AVDName@@AEBV2@H@Z 0000000140012518 f   libvcruntime:undname.obj
 0001:00011758       ?getPtrRefType@UnDecorator@@CA?AVDName@@AEBV2@0W4IndirectionKind@@@Z 0000000140012758 f   libvcruntime:undname.obj
 0001:000119b8       ?getReferenceType@UnDecorator@@CA?AVDName@@AEBV2@0W4IndirectionKind@@@Z 00000001400129b8 f i libvcruntime:undname.obj
 0001:000119d4       ?getRestrictionSpec@UnDecorator@@CA?AVDName@@XZ 00000001400129d4 f   libvcruntime:undname.obj
 0001:00011c24       ?getReturnType@UnDecorator@@CA?AVDName@@PEAV2@@Z 0000000140012c24 f   libvcruntime:undname.obj
 0001:00011c68       ?getScope@UnDecorator@@CA?AVDName@@XZ 0000000140012c68 f   libvcruntime:undname.obj
 0001:0001224c       ?getScopedName@UnDecorator@@CA?AVDName@@XZ 000000014001324c f   libvcruntime:undname.obj
 0001:000123dc       ?getSignedDimension@UnDecorator@@CA?AVDName@@XZ 00000001400133dc f   libvcruntime:undname.obj
 0001:00012484       ?getStorageConvention@UnDecorator@@CA?AVDName@@XZ 0000000140013484 f i libvcruntime:undname.obj
 0001:000124cc       ?getString@DName@@QEBAPEADPEAD0@Z 00000001400134cc f i libvcruntime:undname.obj
 0001:000124ec       ?getString@DName@@QEBAPEADPEADH@Z 00000001400134ec f i libvcruntime:undname.obj
 0001:000125a4       ?getString@DNameStatusNode@@UEBAPEADPEAD0@Z 00000001400135a4 f i libvcruntime:undname.obj
 0001:000125fc       ?getString@charNode@@UEBAPEADPEAD0@Z 00000001400135fc f i libvcruntime:undname.obj
 0001:00012614       ?getString@pDNameNode@@UEBAPEADPEAD0@Z 0000000140013614 f i libvcruntime:undname.obj
 0001:0001264c       ?getString@pairNode@@UEBAPEADPEAD0@Z 000000014001364c f i libvcruntime:undname.obj
 0001:000126ac       ?getString@pcharNode@@UEBAPEADPEAD0@Z 00000001400136ac f i libvcruntime:undname.obj
 0001:000126f0       ?getStringEncoding@UnDecorator@@CA?AVDName@@W4PrefixKind@@H@Z 00000001400136f0 f   libvcruntime:undname.obj
 0001:00012840       ?getStringHelper@@YAPEADPEADPEBD1H@Z 0000000140013840 f i libvcruntime:undname.obj
 0001:00012878       ?getStringObject@UnDecorator@@CA?AVDName@@XZ 0000000140013878 f   libvcruntime:undname.obj
 0001:0001292c       ?getSymbolName@UnDecorator@@CA?AVDName@@XZ 000000014001392c f i libvcruntime:undname.obj
 0001:0001298c       ?getTemplateArgumentList@UnDecorator@@CA?AVDName@@XZ 000000014001398c f   libvcruntime:undname.obj
 0001:00012c30       ?getTemplateName@UnDecorator@@CA?AVDName@@_N@Z 0000000140013c30 f   libvcruntime:undname.obj
 0001:00012f88       ?getTemplateNonTypeArgument@UnDecorator@@CA?AVDName@@XZ 0000000140013f88 f   libvcruntime:undname.obj
 0001:0001362c       ?getTemplateTypeArgument@UnDecorator@@CA?AVDName@@XZ 000000014001462c f   libvcruntime:undname.obj
 0001:000137f0       ?getThisType@UnDecorator@@CA?AVDName@@XZ 00000001400147f0 f i libvcruntime:undname.obj
 0001:00013840       ?getThrowTypes@UnDecorator@@CA?AVDName@@XZ 0000000140014840 f   libvcruntime:undname.obj
 0001:0001386c       ?getTypeEncoding@UnDecorator@@CAHXZ 000000014001486c f i libvcruntime:undname.obj
 0001:00013d10       ?getUndecoratedName@UnDecorator@@QEAAPEADPEADH@Z 0000000140014d10 f i libvcruntime:undname.obj
 0001:00013ec8       ?getUnionObject@UnDecorator@@CA?AVDName@@XZ 0000000140014ec8 f   libvcruntime:undname.obj
 0001:00013fd4       ?getVCallThunkType@UnDecorator@@CA?AVDName@@XZ 0000000140014fd4 f i libvcruntime:undname.obj
 0001:00014068       ?getValue@UnDecorator@@CA?AV?$optional@_K@std@@XZ 0000000140015068 f   libvcruntime:undname.obj
 0001:000140bc       ?getValueObject@UnDecorator@@CA?AVDName@@XZ 00000001400150bc f   libvcruntime:undname.obj
 0001:000142a0       ?getVbTableType@UnDecorator@@CA?AVDName@@AEBV2@@Z 00000001400152a0 f i libvcruntime:undname.obj
 0001:000142bc       ?getVdispMapType@UnDecorator@@CA?AVDName@@AEBV2@@Z 00000001400152bc f i libvcruntime:undname.obj
 0001:00014358       ?getVfTableType@UnDecorator@@CA?AVDName@@AEBV2@@Z 0000000140015358 f i libvcruntime:undname.obj
 0001:000145e4       ?getZName@UnDecorator@@CA?AVDName@@_N0@Z 00000001400155e4 f   libvcruntime:undname.obj
 0001:00014970       ?get_current_character_and_increment_buffer@UnDecorator@@CADXZ 0000000140015970 f i libvcruntime:undname.obj
 0001:00014990       ?haveTemplateParameters@UnDecorator@@SAHXZ 0000000140015990 f i libvcruntime:undname.obj
 0001:000149a0       ?increment_buffer@UnDecorator@@CA_N_K@Z 00000001400159a0 f i libvcruntime:undname.obj
 0001:000149d8       ?increment_buffer_no_check@UnDecorator@@CAXXZ 00000001400159d8 f i libvcruntime:undname.obj
 0001:000149e4       ?increment_buffer_no_check@UnDecorator@@CAX_K@Z 00000001400159e4 f i libvcruntime:undname.obj
 0001:000149f0       ?isArray@DName@@QEBAHXZ    00000001400159f0 f i libvcruntime:undname.obj
 0001:000149fc       ?isComArray@DName@@QEBAHXZ 00000001400159fc f i libvcruntime:undname.obj
 0001:00014a08       ?isEmpty@DName@@QEBAHXZ    0000000140015a08 f i libvcruntime:undname.obj
 0001:00014a14       ?isFull@Replicator@@QEBAHXZ 0000000140015a14 f i libvcruntime:undname.obj
 0001:00014a20       ?isNoTE@DName@@QEBAHXZ     0000000140015a20 f i libvcruntime:undname.obj
 0001:00014a2c       ?isPinPtr@DName@@QEBAHXZ   0000000140015a2c f i libvcruntime:undname.obj
 0001:00014a38       ?isPtrRef@DName@@QEBAHXZ   0000000140015a38 f i libvcruntime:undname.obj
 0001:00014a44       ?isUDC@DName@@QEBAHXZ      0000000140015a44 f i libvcruntime:undname.obj
 0001:00014a60       ?isUDTThunk@DName@@QEBAHXZ 0000000140015a60 f i libvcruntime:undname.obj
 0001:00014a7c       ?isVCallThunk@DName@@QEBAHXZ 0000000140015a7c f i libvcruntime:undname.obj
 0001:00014a88       ?isValid@DName@@QEBAHXZ    0000000140015a88 f i libvcruntime:undname.obj
 0001:00014a94       ?length@DName@@QEBAHXZ     0000000140015a94 f i libvcruntime:undname.obj
 0001:00014ab4       ?length@DNameStatusNode@@UEBAHXZ 0000000140015ab4 f i libvcruntime:undname.obj
 0001:00014ab8       ?length@charNode@@UEBAHXZ  0000000140015ab8 f i libvcruntime:undname.obj
 0001:00014ac0       ?length@pDNameNode@@UEBAHXZ 0000000140015ac0 f i libvcruntime:undname.obj
 0001:00014af4       ?length@pairNode@@UEBAHXZ  0000000140015af4 f i libvcruntime:undname.obj
 0001:00014b4c       ?length@pcharNode@@UEBAHXZ 0000000140015b4c f i libvcruntime:undname.obj
 0001:00014b50       ?make@DNameStatusNode@@SAPEBV1@W4DNameStatus@@@Z 0000000140015b50 f i libvcruntime:undname.obj
 0001:00014b78       ?parseDecoratedName@UnDecorator@@CA?AVDName@@XZ 0000000140015b78 f   libvcruntime:undname.obj
 0001:00014cd4       ?raw_length@DNameStatusNode@@UEBAHXZ 0000000140015cd4 f i libvcruntime:undname.obj
 0001:00014cd8       ?raw_length@charNode@@UEBAHXZ 0000000140015cd8 f i libvcruntime:undname.obj
 0001:00014ce0       ?raw_length@pDNameNode@@UEBAHXZ 0000000140015ce0 f i libvcruntime:undname.obj
 0001:00014ce4       ?raw_length@pairNode@@UEBAHXZ 0000000140015ce4 f i libvcruntime:undname.obj
 0001:00014ce8       ?raw_length@pcharNode@@UEBAHXZ 0000000140015ce8 f i libvcruntime:undname.obj
 0001:00014cec       ?setIsArray@DName@@QEAAXXZ 0000000140015cec f i libvcruntime:undname.obj
 0001:00014cf4       ?setIsComArray@DName@@QEAAXXZ 0000000140015cf4 f i libvcruntime:undname.obj
 0001:00014cfc       ?setIsNoTE@DName@@QEAAXXZ  0000000140015cfc f i libvcruntime:undname.obj
 0001:00014d04       ?setIsPinPtr@DName@@QEAAXXZ 0000000140015d04 f i libvcruntime:undname.obj
 0001:00014d0c       ?setIsUDC@DName@@QEAAXXZ   0000000140015d0c f i libvcruntime:undname.obj
 0001:00014d1c       ?setIsVCallThunk@DName@@QEAAXXZ 0000000140015d1c f i libvcruntime:undname.obj
 0001:00014d24       ?setPtrRef@DName@@QEAAAEAV1@XZ 0000000140015d24 f i libvcruntime:undname.obj
 0001:00014d30       ?status@DName@@QEBA?AW4DNameStatus@@XZ 0000000140015d30 f i libvcruntime:undname.obj
 0001:00014da8       __unDName                  0000000140015da8 f   libvcruntime:undname.obj
 0001:00014dd8       __unDNameEx                0000000140015dd8 f   libvcruntime:undname.obj
 0001:00014f00       _vsprintf_s_l              0000000140015f00 f i libvcruntime:undname.obj
 0001:00014f7c       snprintf                   0000000140015f7c f i libvcruntime:undname.obj
 0001:00014fe8       sprintf_s                  0000000140015fe8 f i libvcruntime:undname.obj
 0001:00015050       unDNameGenerateCHPE        0000000140016050 f   libvcruntime:undname.obj
 0001:000151ec       vsnprintf                  00000001400161ec f i libvcruntime:undname.obj
 0001:00015268       ??$__crt_interlocked_exchange_pointer@UHINSTANCE__@@PEAU1@@@YAPEAUHINSTANCE__@@PEDSEAU0@QEAU0@@Z 0000000140016268 f i libvcruntime:winapi_downlevel.obj
 0001:00015270       ??$__crt_interlocked_exchange_pointer@UHINSTANCE__@@PEAX@@YAPEAUHINSTANCE__@@PEDSEAU0@QEAX@Z 0000000140016270 f i libvcruntime:winapi_downlevel.obj
 0001:00015278       ??$__crt_interlocked_exchange_pointer@XPEAX@@YAPEAXPEDSEAXQEAX@Z 0000000140016278 f i libvcruntime:winapi_downlevel.obj
 0001:00015280       ??$__crt_interlocked_read_pointer@UHINSTANCE__@@@@YAPEAUHINSTANCE__@@PEDSEAU0@@Z 0000000140016280 f i libvcruntime:winapi_downlevel.obj
 0001:00015288       ??$__crt_interlocked_read_pointer@X@@YAPEAXPEDSEAX@Z 0000000140016288 f i libvcruntime:winapi_downlevel.obj
 0001:00015910       __vcrt_FlsAlloc            0000000140016910 f   libvcruntime:winapi_downlevel.obj
 0001:00015968       __vcrt_FlsFree             0000000140016968 f   libvcruntime:winapi_downlevel.obj
 0001:000159c0       __vcrt_FlsGetValue         00000001400169c0 f   libvcruntime:winapi_downlevel.obj
 0001:00015a18       __vcrt_FlsSetValue         0000000140016a18 f   libvcruntime:winapi_downlevel.obj
 0001:00015a80       __vcrt_InitializeCriticalSectionEx 0000000140016a80 f   libvcruntime:winapi_downlevel.obj
 0001:00015afc       ??$__crt_interlocked_exchange_pointer@$$A6AXXZP6AXXZ@@YAP6AXXZPEDS6AXXZQ6AXXZ@Z 0000000140016afc f i libvcruntime:purevirt.obj
 0001:00015b04       ??$__crt_interlocked_read_pointer@$$A6AXXZ@@YAP6AXXZPEDS6AXXZ@Z 0000000140016b04 f i libvcruntime:purevirt.obj
 0001:00015b0c       _get_purecall_handler      0000000140016b0c f   libvcruntime:purevirt.obj
 0001:00015b18       _purecall                  0000000140016b18 f   libvcruntime:purevirt.obj
 0001:00015b38       _set_purecall_handler      0000000140016b38 f   libvcruntime:purevirt.obj
 0001:00015b48       ??$?0AEAViterator@TryBlockMap4@FH4@@AEAV012@$0A@@?$pair@Viterator@TryBlockMap4@FH4@@V123@@std@@QEAA@AEAViterator@TryBlockMap4@FH4@@0@Z 0000000140016b48 f i libvcruntime:risctrnsctrl.obj
 0001:00015b64       ??$?0AEAViterator@TryBlockMap@__FrameHandler3@@AEAV012@$0A@@?$pair@Viterator@TryBlockMap@__FrameHandler3@@V123@@std@@QEAA@AEAViterator@TryBlockMap@__FrameHandler3@@0@Z 0000000140016b64 f i libvcruntime:risctrnsctrl.obj
 0001:00015d4c       ??$_CallSETranslator@V__FrameHandler3@@@@YAHPEAUEHExceptionRecord@@PEA_KPEAU_CONTEXT@@PEAU_xDISPATCHER_CONTEXT@@PEBU_s_FuncInfo@@K1H@Z 0000000140016d4c f i libvcruntime:risctrnsctrl.obj
 0001:00015db4       ??$_CallSETranslator@V__FrameHandler4@@@@YAHPEAUEHExceptionRecord@@PEA_KPEAU_CONTEXT@@PEAU_xDISPATCHER_CONTEXT@@PEAUFuncInfo4@FH4@@K1H@Z 0000000140016db4 f i libvcruntime:risctrnsctrl.obj
 0001:00015e1c       ??$forward@AEAViterator@TryBlockMap4@FH4@@@std@@YAAEAViterator@TryBlockMap4@FH4@@AEAV123@@Z 0000000140016e1c f i libvcruntime:risctrnsctrl.obj
 0001:00015e20       ??$forward@AEAViterator@TryBlockMap@__FrameHandler3@@@std@@YAAEAViterator@TryBlockMap@__FrameHandler3@@AEAV123@@Z 0000000140016e20 f i libvcruntime:risctrnsctrl.obj
 0001:00015e24       ??0FuncInfo4@FH4@@QEAA@XZ  0000000140016e24 f i libvcruntime:risctrnsctrl.obj
 0001:00015e3c       ??0FuncInfoHeader@FH4@@QEAA@XZ 0000000140016e3c f i libvcruntime:risctrnsctrl.obj
 0001:00015e44       ??0iterator@TryBlockMap4@FH4@@QEAA@AEAV12@I@Z 0000000140016e44 f i libvcruntime:risctrnsctrl.obj
 0001:00015e54       ??0iterator@TryBlockMap@__FrameHandler3@@QEAA@AEAV12@I@Z 0000000140016e54 f i libvcruntime:risctrnsctrl.obj
 0001:00015e64       ??4iterator@TryBlockMap4@FH4@@QEAAAEAV012@AEBV012@@Z 0000000140016e64 f i libvcruntime:risctrnsctrl.obj
 0001:00015e70       ??9iterator@TryBlockMap4@FH4@@QEBA_NAEBV012@@Z 0000000140016e70 f i libvcruntime:risctrnsctrl.obj
 0001:00015e7c       ??Diterator@TryBlockMap4@FH4@@QEAA?AUTryBlockMapEntry4@2@XZ 0000000140016e7c f i libvcruntime:risctrnsctrl.obj
 0001:00015e90       ??Eiterator@TryBlockMap4@FH4@@QEAAAEAV012@XZ 0000000140016e90 f i libvcruntime:risctrnsctrl.obj
 0001:00015f54       ?CatchTryBlock@__FrameHandler3@@SAPEBU_s_TryBlockMapEntry@@PEBU_s_FuncInfo@@H@Z 0000000140016f54 f   libvcruntime:risctrnsctrl.obj
 0001:00015fd0       ?DecompFuncInfo@FH4@@YA_JPEAEAEAUFuncInfo4@1@_KH@Z 0000000140016fd0 f i libvcruntime:risctrnsctrl.obj
 0001:00015fe8       ?DecompFuncInfo@FH4@@YA_JPEAEAEAUFuncInfo4@1@_KH_N@Z 0000000140016fe8 f i libvcruntime:risctrnsctrl.obj
 0001:0001616c       ?DecompTryBlock@TryBlockMap4@FH4@@AEAAXXZ 000000014001716c f i libvcruntime:risctrnsctrl.obj
 0001:00016224       ?ExecutionInCatch@__FrameHandler3@@SA_NPEAU_xDISPATCHER_CONTEXT@@PEBU_s_FuncInfo@@@Z 0000000140017224 f   libvcruntime:risctrnsctrl.obj
 0001:00016258       ?ExecutionInCatch@__FrameHandler4@@SA_NPEAU_xDISPATCHER_CONTEXT@@PEAUFuncInfo4@FH4@@@Z 0000000140017258 f   libvcruntime:risctrnsctrl.obj
 0001:00016260       ?FrameUnwindToEmptyState@__FrameHandler3@@SAXPEA_KPEAU_xDISPATCHER_CONTEXT@@PEBU_s_FuncInfo@@@Z 0000000140017260 f   libvcruntime:risctrnsctrl.obj
 0001:000162e0       ?FrameUnwindToEmptyState@__FrameHandler4@@SAXPEA_KPEAU_xDISPATCHER_CONTEXT@@PEAUFuncInfo4@FH4@@@Z 00000001400172e0 f   libvcruntime:risctrnsctrl.obj
 0001:00016320       ?GetEstablisherFrame@__FrameHandler3@@SAPEA_KPEA_KPEAU_xDISPATCHER_CONTEXT@@PEBU_s_FuncInfo@@0@Z 0000000140017320 f   libvcruntime:risctrnsctrl.obj
 0001:00016424       ?GetEstablisherFrame@__FrameHandler4@@SAPEA_KPEA_KPEAU_xDISPATCHER_CONTEXT@@PEAUFuncInfo4@FH4@@0@Z 0000000140017424 f   libvcruntime:risctrnsctrl.obj
 0001:00016450       ?GetRangeOfTrysToCheck@__FrameHandler3@@SA?AU?$pair@Viterator@TryBlockMap@__FrameHandler3@@V123@@std@@AEAVTryBlockMap@1@HPEAU_xDISPATCHER_CONTEXT@@PEBU_s_FuncInfo@@H@Z 0000000140017450 f   libvcruntime:risctrnsctrl.obj
 0001:000165d0       ?GetRangeOfTrysToCheck@__FrameHandler4@@SA?AU?$pair@Viterator@TryBlockMap4@FH4@@V123@@std@@AEAVTryBlockMap4@FH4@@HPEAU_xDISPATCHER_CONTEXT@@PEAUFuncInfo4@5@H@Z 00000001400175d0 f   libvcruntime:risctrnsctrl.obj
 0001:00016794       ?ReadInt@FH4@@YAHPEAPEAE@Z 0000000140017794 f i libvcruntime:risctrnsctrl.obj
 0001:000167a4       ?ReadUnsigned@FH4@@YAIPEAPEAE@Z 00000001400177a4 f i libvcruntime:risctrnsctrl.obj
 0001:000167e0       ?UnwindNestedFrames@__FrameHandler3@@SAXPEA_KPEAUEHExceptionRecord@@PEAU_CONTEXT@@0PEAXPEBU_s_FuncInfo@@HHPEBU_s_HandlerType@@PEAU_xDISPATCHER_CONTEXT@@E@Z 00000001400177e0 f   libvcruntime:risctrnsctrl.obj
 0001:00016924       ?UnwindNestedFrames@__FrameHandler4@@SAXPEA_KPEAUEHExceptionRecord@@PEAU_CONTEXT@@0PEAXPEAUFuncInfo4@FH4@@HHPEAUHandlerType4@5@PEAU_xDISPATCHER_CONTEXT@@E@Z 0000000140017924 f   libvcruntime:risctrnsctrl.obj
 0001:00016a8c       ?begin@TryBlockMap4@FH4@@QEAA?AViterator@12@XZ 0000000140017a8c f i libvcruntime:risctrnsctrl.obj
 0001:00016a9c       ?end@TryBlockMap4@FH4@@QEAA?AViterator@12@XZ 0000000140017a9c f i libvcruntime:risctrnsctrl.obj
 0001:00016aac       ?imageRelToByteBuffer@FH4@@YAPEAE_KH@Z 0000000140017aac f i libvcruntime:risctrnsctrl.obj
 0001:00016ab4       ?incrementToSentinel@iterator@TryBlockMap4@FH4@@QEAAXXZ 0000000140017ab4 f i libvcruntime:risctrnsctrl.obj
 0001:00016ab8       ?setBuffer@TryBlockMap4@FH4@@QEAAXViterator@12@@Z 0000000140017ab8 f i libvcruntime:risctrnsctrl.obj
 0001:00016cec       _CreateFrameInfo           0000000140017cec f   libvcruntime:risctrnsctrl.obj
 0001:00016d34       _FindAndUnlinkFrame        0000000140017d34 f   libvcruntime:risctrnsctrl.obj
 0001:00016d9c       _GetImageBase              0000000140017d9c f   libvcruntime:risctrnsctrl.obj
 0001:00016db4       _GetThrowImageBase         0000000140017db4 f   libvcruntime:risctrnsctrl.obj
 0001:00016dcc       _SetImageBase              0000000140017dcc f   libvcruntime:risctrnsctrl.obj
 0001:00016dec       _SetThrowImageBase         0000000140017dec f   libvcruntime:risctrnsctrl.obj
 0001:00016e0c       __CxxFrameHandler          0000000140017e0c f   libvcruntime:risctrnsctrl.obj
 0001:00016e14       __CxxFrameHandler2         0000000140017e14 f   libvcruntime:risctrnsctrl.obj
 0001:00016e1c       __CxxFrameHandler3         0000000140017e1c f   libvcruntime:risctrnsctrl.obj
 0001:00016ec4       __CxxFrameHandler4         0000000140017ec4 f   libvcruntime:risctrnsctrl.obj
 0001:00016fc0       ?GetCurrentState@__FrameHandler3@@SAHPEA_KPEAU_xDISPATCHER_CONTEXT@@PEBU_s_FuncInfo@@@Z 0000000140017fc0 f   libvcruntime:ehstate.obj
 0001:00016ff0       ?GetUnwindTryBlock@__FrameHandler3@@SAHPEA_KPEAU_xDISPATCHER_CONTEXT@@PEBU_s_FuncInfo@@@Z 0000000140017ff0 f   libvcruntime:ehstate.obj
 0001:00017024       ?SetState@__FrameHandler3@@SAXPEA_KPEBU_s_FuncInfo@@H@Z 0000000140018024 f   libvcruntime:ehstate.obj
 0001:00017034       ?SetUnwindTryBlock@__FrameHandler3@@SAXPEA_KPEAU_xDISPATCHER_CONTEXT@@PEBU_s_FuncInfo@@H@Z 0000000140018034 f   libvcruntime:ehstate.obj
 0001:00017080       ?StateFromControlPc@__FrameHandler3@@SAHPEBU_s_FuncInfo@@PEAU_xDISPATCHER_CONTEXT@@@Z 0000000140018080 f   libvcruntime:ehstate.obj
 0001:0001708c       ?StateFromControlPc@__FrameHandler4@@SAHPEAUFuncInfo4@FH4@@PEAU_xDISPATCHER_CONTEXT@@@Z 000000014001808c f   libvcruntime:ehstate.obj
 0001:00017098       ?StateFromIp@__FrameHandler3@@SAHPEBU_s_FuncInfo@@PEAU_xDISPATCHER_CONTEXT@@_K@Z 0000000140018098 f   libvcruntime:ehstate.obj
 0001:00017118       ?StateFromIp@__FrameHandler4@@SAHPEAUFuncInfo4@FH4@@PEAU_xDISPATCHER_CONTEXT@@_K@Z 0000000140018118 f   libvcruntime:ehstate.obj
 0001:00017240       ?__FuncRelToRealOffset@@YA_KPEAU_xDISPATCHER_CONTEXT@@I@Z 0000000140018240 f i libvcruntime:ehstate.obj
 0001:00017254       ?__RVAtoRealOffset@@YA_KPEAU_xDISPATCHER_CONTEXT@@H@Z 0000000140018254 f i libvcruntime:ehstate.obj
 0001:00018e60       ??$TypeMatchHelper@V__FrameHandler3@@@@YAHPEBU_s_HandlerType@@PEBU_s_CatchableType@@PEBU_s_ThrowInfo@@@Z 0000000140019e60 f i libvcruntime:frame.obj
 0001:00018fec       ??$TypeMatchHelper@V__FrameHandler4@@@@YAHPEAUHandlerType4@FH4@@PEBU_s_CatchableType@@PEBU_s_ThrowInfo@@@Z 0000000140019fec f i libvcruntime:frame.obj
 0001:0001918c       ??$__InternalCxxFrameHandler@V__FrameHandler3@@@@YA?AW4_EXCEPTION_DISPOSITION@@PEAUEHExceptionRecord@@PEA_KPEAU_CONTEXT@@PEAU_xDISPATCHER_CONTEXT@@PEBU_s_FuncInfo@@H1E@Z 000000014001a18c f i libvcruntime:frame.obj
 0001:00019450       ??$__InternalCxxFrameHandler@V__FrameHandler4@@@@YA?AW4_EXCEPTION_DISPOSITION@@PEAUEHExceptionRecord@@PEA_KPEAU_CONTEXT@@PEAU_xDISPATCHER_CONTEXT@@PEAUFuncInfo4@FH4@@H1E@Z 000000014001a450 f i libvcruntime:frame.obj
 0001:0001978c       ??$__InternalCxxFrameHandlerWrapper@V__FrameHandler3@@@@YA?AW4_EXCEPTION_DISPOSITION@@PEAUEHExceptionRecord@@PEA_KPEAU_CONTEXT@@PEAU_xDISPATCHER_CONTEXT@@PEBU_s_FuncInfo@@H1E@Z 000000014001a78c f i libvcruntime:frame.obj
 0001:00019794       ??$__InternalCxxFrameHandlerWrapper@V__FrameHandler4@@@@YA?AW4_EXCEPTION_DISPOSITION@@PEAUEHExceptionRecord@@PEA_KPEAU_CONTEXT@@PEAU_xDISPATCHER_CONTEXT@@PEAUFuncInfo4@FH4@@H1E@Z 000000014001a794 f i libvcruntime:frame.obj
 0001:000197f4       ??0HandlerMap4@FH4@@QEAA@PEBUTryBlockMapEntry4@1@_KH@Z 000000014001a7f4 f i libvcruntime:frame.obj
 0001:00019898       ??0HandlerMap@__FrameHandler3@@QEAA@PEBU_s_TryBlockMapEntry@@_KI@Z 000000014001a898 f i libvcruntime:frame.obj
 0001:000198b4       ??0HandlerType4@FH4@@QEAA@XZ 000000014001a8b4 f i libvcruntime:frame.obj
 0001:000198d0       ??0TryBlockMap4@FH4@@QEAA@PEBUFuncInfo4@1@_K@Z 000000014001a8d0 f i libvcruntime:frame.obj
 0001:000199f0       ??0TryBlockMap@__FrameHandler3@@QEAA@PEBU_s_FuncInfo@@_K@Z 000000014001a9f0 f i libvcruntime:frame.obj
 0001:00019a00       ??0UWMap4@FH4@@QEAA@PEBUFuncInfo4@1@_K@Z 000000014001aa00 f i libvcruntime:frame.obj
 0001:00019a60       ??0bad_exception@std@@QEAA@AEBV01@@Z 000000014001aa60 f i libvcruntime:frame.obj
 0001:00019aac       ??0bad_exception@std@@QEAA@XZ 000000014001aaac f i libvcruntime:frame.obj
 0001:00019ad4       ??0exception@std@@QEAA@AEBV01@@Z 000000014001aad4 f i libvcruntime:frame.obj
 0001:00019b14       ??0exception@std@@QEAA@QEBDH@Z 000000014001ab14 f i libvcruntime:frame.obj
 0001:00019b30       ??0iterator@HandlerMap4@FH4@@QEAA@AEAV12@I@Z 000000014001ab30 f i libvcruntime:frame.obj
 0001:00019b40       ??0iterator@HandlerMap@__FrameHandler3@@QEAA@AEAV12@I@Z 000000014001ab40 f i libvcruntime:frame.obj
 0001:00019b50       ??0iterator@UWMap4@FH4@@QEAA@AEAV12@PEAE@Z 000000014001ab50 f i libvcruntime:frame.obj
 0001:00019b60       ??1bad_exception@std@@UEAA@XZ 000000014001ab60 f i libvcruntime:frame.obj
 0001:00019b78       ??1exception@std@@UEAA@XZ  000000014001ab78 f i libvcruntime:frame.obj
 0001:00019b90       ??4iterator@UWMap4@FH4@@QEAAAEAV012@AEBV012@@Z 000000014001ab90 f i libvcruntime:frame.obj
 0001:00019bb8       ??8iterator@HandlerMap4@FH4@@QEBA_NAEBV012@@Z 000000014001abb8 f i libvcruntime:frame.obj
 0001:00019bc4       ??8iterator@HandlerMap@__FrameHandler3@@QEBA_NAEBV012@@Z 000000014001abc4 f i libvcruntime:frame.obj
 0001:00019bd0       ??8type_info@@QEBA_NAEBV0@@Z 000000014001abd0 f i libvcruntime:frame.obj
 0001:00019bf4       ??9iterator@HandlerMap4@FH4@@QEBA_NAEBV012@@Z 000000014001abf4 f i libvcruntime:frame.obj
 0001:00019c00       ??9iterator@HandlerMap@__FrameHandler3@@QEBA_NAEBV012@@Z 000000014001ac00 f i libvcruntime:frame.obj
 0001:00019c0c       ??Diterator@HandlerMap4@FH4@@QEAA?AUHandlerType4@2@XZ 000000014001ac0c f i libvcruntime:frame.obj
 0001:00019c34       ??Diterator@HandlerMap@__FrameHandler3@@QEAA?BU_s_HandlerType@@XZ 000000014001ac34 f i libvcruntime:frame.obj
 0001:00019c60       ??Diterator@TryBlockMap@__FrameHandler3@@QEAA?BU_s_TryBlockMapEntry@@XZ 000000014001ac60 f i libvcruntime:frame.obj
 0001:00019c98       ??Diterator@UWMap4@FH4@@QEAA?AUUnwindMapEntry4@2@XZ 000000014001ac98 f i libvcruntime:frame.obj
 0001:00019d00       ??Eiterator@HandlerMap4@FH4@@QEAAAEAV012@XZ 000000014001ad00 f i libvcruntime:frame.obj
 0001:00019d24       ??Eiterator@HandlerMap@__FrameHandler3@@QEAAAEAV012@XZ 000000014001ad24 f i libvcruntime:frame.obj
 0001:00019d2c       ??Eiterator@TryBlockMap@__FrameHandler3@@QEAAAEAV012@XZ 000000014001ad2c f i libvcruntime:frame.obj
 0001:00019d34       ??Eiterator@UWMap4@FH4@@QEAAAEAV012@XZ 000000014001ad34 f i libvcruntime:frame.obj
 0001:00019d5c       ??Giterator@UWMap4@FH4@@QEBA_JAEBV012@@Z 000000014001ad5c f i libvcruntime:frame.obj
 0001:00019d68       ??Miterator@TryBlockMap4@FH4@@QEBA_NAEBV012@@Z 000000014001ad68 f i libvcruntime:frame.obj
 0001:00019d74       ??Miterator@TryBlockMap@__FrameHandler3@@QEBA_NAEBV012@@Z 000000014001ad74 f i libvcruntime:frame.obj
 0001:00019d80       ??Oiterator@UWMap4@FH4@@QEBA_NAEBV012@@Z 000000014001ad80 f i libvcruntime:frame.obj
 0001:00019d90       ??Piterator@UWMap4@FH4@@QEBA_NAEBV012@@Z 000000014001ad90 f i libvcruntime:frame.obj
 0001:00019da0       ??_Ebad_exception@std@@UEAAPEAXI@Z 000000014001ada0 f i libvcruntime:frame.obj
 0001:00019da0       ??_Gbad_exception@std@@UEAAPEAXI@Z 000000014001ada0 f i libvcruntime:frame.obj
 0001:00019df4       ??_Eexception@std@@UEAAPEAXI@Z 000000014001adf4 f i libvcruntime:frame.obj
 0001:00019df4       ??_Gexception@std@@UEAAPEAXI@Z 000000014001adf4 f i libvcruntime:frame.obj
 0001:00019e48       ?BuildCatchObject@__FrameHandler3@@SAXPEAUEHExceptionRecord@@PEAXPEBU_s_HandlerType@@PEBU_s_CatchableType@@@Z 000000014001ae48 f   libvcruntime:frame.obj
 0001:00019e50       ?BuildCatchObject@__FrameHandler4@@SAXPEAUEHExceptionRecord@@PEAXPEAUHandlerType4@FH4@@PEBU_s_CatchableType@@@Z 000000014001ae50 f   libvcruntime:frame.obj
 0001:00019e58       ?BuildCatchObjectHelper@__FrameHandler3@@SAHPEAUEHExceptionRecord@@PEAXPEBU_s_HandlerType@@PEBU_s_CatchableType@@@Z 000000014001ae58 f   libvcruntime:frame.obj
 0001:00019e60       ?BuildCatchObjectHelper@__FrameHandler4@@SAHPEAUEHExceptionRecord@@PEAXPEAUHandlerType4@FH4@@PEBU_s_CatchableType@@@Z 000000014001ae60 f   libvcruntime:frame.obj
 0001:00019e68       ?CxxCallCatchBlock@__FrameHandler3@@SAPEAXPEAU_EXCEPTION_RECORD@@@Z 000000014001ae68 f   libvcruntime:frame.obj
 0001:0001a0cc       ?CxxCallCatchBlock@__FrameHandler4@@SAPEAXPEAU_EXCEPTION_RECORD@@@Z 000000014001b0cc f   libvcruntime:frame.obj
 0001:0001a3ac       ?DecompHandler@HandlerMap4@FH4@@AEAAXXZ 000000014001b3ac f i libvcruntime:frame.obj
 0001:0001a688       ?FrameUnwindToState@__FrameHandler3@@SAXPEA_KPEAU_xDISPATCHER_CONTEXT@@PEBU_s_FuncInfo@@H@Z 000000014001b688 f   libvcruntime:frame.obj
 0001:0001a874       ?FrameUnwindToState@__FrameHandler4@@SAXPEA_KPEAU_xDISPATCHER_CONTEXT@@PEAUFuncInfo4@FH4@@H@Z 000000014001b874 f   libvcruntime:frame.obj
 0001:0001ac3c       ?GetHandlerSearchState@__FrameHandler3@@SAHPEA_KPEAU_xDISPATCHER_CONTEXT@@PEBU_s_FuncInfo@@@Z 000000014001bc3c f i libvcruntime:frame.obj
 0001:0001acf8       ?GetHandlerSearchState@__FrameHandler4@@SAHPEA_KPEAU_xDISPATCHER_CONTEXT@@PEAUFuncInfo4@FH4@@@Z 000000014001bcf8 f i libvcruntime:frame.obj
 0001:0001ad74       ?GetMaxState@__FrameHandler3@@SAHPEAU_xDISPATCHER_CONTEXT@@PEBU_s_FuncInfo@@@Z 000000014001bd74 f i libvcruntime:frame.obj
 0001:0001ad78       ?GetMaxState@__FrameHandler4@@SAHPEAU_xDISPATCHER_CONTEXT@@PEAUFuncInfo4@FH4@@@Z 000000014001bd78 f i libvcruntime:frame.obj
 0001:0001af94       ?ReadEntry@UWMap4@FH4@@AEAAXPEAPEAE@Z 000000014001bf94 f i libvcruntime:frame.obj
 0001:0001b058       ?TypeMatch@__FrameHandler3@@SAHPEBU_s_HandlerType@@PEBU_s_CatchableType@@PEBU_s_ThrowInfo@@@Z 000000014001c058 f   libvcruntime:frame.obj
 0001:0001b060       ?TypeMatch@__FrameHandler4@@SAHPEAUHandlerType4@FH4@@PEBU_s_CatchableType@@PEBU_s_ThrowInfo@@@Z 000000014001c060 f   libvcruntime:frame.obj
 0001:0001b068       ?WalkBack@UWMap4@FH4@@AEAAXPEAPEAE@Z 000000014001c068 f i libvcruntime:frame.obj
 0001:0001b0ac       ?WalkBack@iterator@UWMap4@FH4@@QEAAXXZ 000000014001c0ac f i libvcruntime:frame.obj
 0001:0001b0f8       ?WalkForward@UWMap4@FH4@@AEAAXPEAPEAE@Z 000000014001c0f8 f i libvcruntime:frame.obj
 0001:0001b100       ?_CallMemberFunction1@@YAXQEAX00@Z 000000014001c100 f i libvcruntime:frame.obj
 0001:0001b10c       ?_CallMemberFunction2@@YAXQEAX00H@Z 000000014001c10c f i libvcruntime:frame.obj
 0001:0001b13c       ?begin@HandlerMap4@FH4@@QEAA?AViterator@12@XZ 000000014001c13c f i libvcruntime:frame.obj
 0001:0001b14c       ?begin@HandlerMap@__FrameHandler3@@QEAA?AViterator@12@XZ 000000014001c14c f i libvcruntime:frame.obj
 0001:0001b15c       ?begin@UWMap4@FH4@@QEAA?AViterator@12@XZ 000000014001c15c f i libvcruntime:frame.obj
 0001:0001b170       ?end@HandlerMap4@FH4@@QEAA?AViterator@12@XZ 000000014001c170 f i libvcruntime:frame.obj
 0001:0001b180       ?end@HandlerMap@__FrameHandler3@@QEAA?AViterator@12@XZ 000000014001c180 f i libvcruntime:frame.obj
 0001:0001b190       ?getESTypes@__FrameHandler3@@SAPEBU_s_ESTypeList@@PEBU_s_FuncInfo@@@Z 000000014001c190 f i libvcruntime:frame.obj
 0001:0001b1c4       ?getESTypes@__FrameHandler4@@SAPEBU_s_ESTypeList@@PEAUFuncInfo4@FH4@@@Z 000000014001c1c4 f i libvcruntime:frame.obj
 0001:0001b1c8       ?getLastEntry@HandlerMap4@FH4@@QEAAPEAUHandlerType4@2@XZ 000000014001c1c8 f i libvcruntime:frame.obj
 0001:0001b22c       ?getLastEntry@HandlerMap@__FrameHandler3@@QEAAPEBU_s_HandlerType@@XZ 000000014001c22c f i libvcruntime:frame.obj
 0001:0001b244       ?getMagicNum@__FrameHandler3@@SAIPEBU_s_FuncInfo@@@Z 000000014001c244 f i libvcruntime:frame.obj
 0001:0001b250       ?getMagicNum@__FrameHandler4@@SAIPEAUFuncInfo4@FH4@@@Z 000000014001c250 f i libvcruntime:frame.obj
 0001:0001b258       ?getNumTryBlocks@TryBlockMap4@FH4@@QEAAIXZ 000000014001c258 f i libvcruntime:frame.obj
 0001:0001b25c       ?getNumTryBlocks@TryBlockMap@__FrameHandler3@@QEAAIXZ 000000014001c25c f i libvcruntime:frame.obj
 0001:0001b264       ?getStartStop@UWMap4@FH4@@QEAAXHHAEAViterator@12@0@Z 000000014001c264 f i libvcruntime:frame.obj
 0001:0001b368       ?getStateFromIterators@UWMap4@FH4@@SAHAEBViterator@12@H0H0@Z 000000014001c368 f i libvcruntime:frame.obj
 0001:0001b444       ?isEHs@__FrameHandler3@@SA_NPEBU_s_FuncInfo@@@Z 000000014001c444 f i libvcruntime:frame.obj
 0001:0001b44c       ?isEHs@__FrameHandler4@@SA_NPEAUFuncInfo4@FH4@@@Z 000000014001c44c f i libvcruntime:frame.obj
 0001:0001b458       ?isNoExcept@__FrameHandler3@@SA_NPEBU_s_FuncInfo@@@Z 000000014001c458 f i libvcruntime:frame.obj
 0001:0001b464       ?isNoExcept@__FrameHandler4@@SA_NPEAUFuncInfo4@FH4@@@Z 000000014001c464 f i libvcruntime:frame.obj
 0001:0001b470       ?reset@HandlerType4@FH4@@QEAAXXZ 000000014001c470 f i libvcruntime:frame.obj
 0001:0001b48c       ?resetBuffer@HandlerMap4@FH4@@QEAAXXZ 000000014001c48c f i libvcruntime:frame.obj
 0001:0001b49c       ?setBuffer@HandlerMap4@FH4@@QEAAXI@Z 000000014001c49c f i libvcruntime:frame.obj
 0001:0001b4e4       ?what@exception@std@@UEBAPEBDXZ 000000014001c4e4 f i libvcruntime:frame.obj
 0001:0001b4fc       __BuildCatchObject         000000014001c4fc f   libvcruntime:frame.obj
 0001:0001b504       __BuildCatchObjectHelper   000000014001c504 f   libvcruntime:frame.obj
 0001:0001b50c       __TypeMatch                000000014001c50c f   libvcruntime:frame.obj
 0001:0001b514       __vcrt_EncodePointer       000000014001c514 f i libvcruntime:frame.obj
 0001:0001b570       _CallSettingFrame          000000014001c570 f   libvcruntime:handlers.obj
 0001:0001b5c0       _CallSettingFrame_LookupContinuationIndex 000000014001c5c0 f   libvcruntime:handlers.obj
 0001:0001b600       _CallSettingFrame_NotifyContinuationAddr 000000014001c600 f   libvcruntime:handlers.obj
 0001:0001b630       _CallSettingFrameEncoded   000000014001c630 f   libvcruntime:handlers.obj
 0001:0001b688       ??$?RD@__crt_public_free_policy@@QEBAXQEBD@Z 000000014001c688 f i libvcruntime:std_exception.obj
 0001:0001b694       ??0?$__crt_unique_heap_ptr@DU__crt_public_free_policy@@@@QEAA@QEAD@Z 000000014001c694 f i libvcruntime:std_exception.obj
 0001:0001b69c       ??1?$__crt_unique_heap_ptr@DU__crt_public_free_policy@@@@QEAA@XZ 000000014001c69c f i libvcruntime:std_exception.obj
 0001:0001b6c0       ??B?$__crt_unique_heap_ptr@DU__crt_public_free_policy@@@@QEBA_NXZ 000000014001c6c0 f i libvcruntime:std_exception.obj
 0001:0001b6cc       ?detach@?$__crt_unique_heap_ptr@DU__crt_public_free_policy@@@@QEAAPEADXZ 000000014001c6cc f i libvcruntime:std_exception.obj
 0001:0001b6d8       ?get@?$__crt_unique_heap_ptr@DU__crt_public_free_policy@@@@QEBAPEADXZ 000000014001c6d8 f i libvcruntime:std_exception.obj
 0001:0001b6dc       ?is_valid@?$__crt_unique_heap_ptr@DU__crt_public_free_policy@@@@QEBA_NXZ 000000014001c6dc f i libvcruntime:std_exception.obj
 0001:0001b6e8       ?release@?$__crt_unique_heap_ptr@DU__crt_public_free_policy@@@@QEAAXXZ 000000014001c6e8 f i libvcruntime:std_exception.obj
 0001:0001b70c       __std_exception_copy       000000014001c70c f   libvcruntime:std_exception.obj
 0001:0001b7bc       __std_exception_destroy    000000014001c7bc f   libvcruntime:std_exception.obj
 0001:0001b7ec       _CxxThrowException         000000014001c7ec f   libvcruntime:throw.obj
 0001:0001b8bc       ??$?RPEAU__crt_stdio_stream_data@@@__crt_internal_free_policy@@QEBAXQEBQEAU__crt_stdio_stream_data@@@Z 000000014001c8bc f i libucrt:_file.obj
 0001:0001b8c8       ??0?$__crt_unique_heap_ptr@PEAU__crt_stdio_stream_data@@U__crt_internal_free_policy@@@@QEAA@QEAPEAU__crt_stdio_stream_data@@@Z 000000014001c8c8 f i libucrt:_file.obj
 0001:0001b8d0       ??0__crt_stdio_stream@@QEAA@QEAU_iobuf@@@Z 000000014001c8d0 f i libucrt:_file.obj
 0001:0001b8d8       ??1?$__crt_unique_heap_ptr@PEAU__crt_stdio_stream_data@@U__crt_internal_free_policy@@@@QEAA@XZ 000000014001c8d8 f i libucrt:_file.obj
 0001:0001b8fc       ??C__crt_stdio_stream@@QEBAPEAU__crt_stdio_stream_data@@XZ 000000014001c8fc f i libucrt:_file.obj
 0001:0001b900       ?detach@?$__crt_unique_heap_ptr@PEAU__crt_stdio_stream_data@@U__crt_internal_free_policy@@@@QEAAPEAPEAU__crt_stdio_stream_data@@XZ 000000014001c900 f i libucrt:_file.obj
 0001:0001b90c       ?release@?$__crt_unique_heap_ptr@PEAU__crt_stdio_stream_data@@U__crt_internal_free_policy@@@@QEAAXXZ 000000014001c90c f i libucrt:_file.obj
 0001:0001b930       __acrt_initialize_stdio    000000014001c930 f   libucrt:_file.obj
 0001:0001ba98       __acrt_iob_func            000000014001ca98 f   libucrt:_file.obj
 0001:0001bab0       __acrt_uninitialize_stdio  000000014001cab0 f   libucrt:_file.obj
 0001:0001bb24       _get_stream_buffer_pointers 000000014001cb24 f   libucrt:_file.obj
 0001:0001bb7c       _lock_file                 000000014001cb7c f   libucrt:_file.obj
 0001:0001bb8c       _unlock_file               000000014001cb8c f   libucrt:_file.obj
 0001:0001bb9c       ??$__crt_interlocked_read@J@@YAJPEDJ@Z 000000014001cb9c f i libucrt:fclose.obj
 0001:0001bba0       ??0?$cached@H@__crt_cached_ptd_host@@QEAA@XZ 000000014001cba0 f i libucrt:fclose.obj
 0001:0001bbac       ??0?$cached@K@__crt_cached_ptd_host@@QEAA@XZ 000000014001cbac f i libucrt:fclose.obj
 0001:0001bbb8       ??0__crt_cached_ptd_host@@QEAA@QEAU__crt_locale_pointers@@@Z 000000014001cbb8 f i libucrt:fclose.obj
 0001:0001bbfc       ??0__crt_scoped_get_last_error_reset@@QEAA@XZ 000000014001cbfc f i libucrt:fclose.obj
 0001:0001bc1c       ??1__crt_cached_ptd_host@@QEAA@XZ 000000014001cc1c f i libucrt:fclose.obj
 0001:0001bc7c       ??1__crt_scoped_get_last_error_reset@@QEAA@XZ 000000014001cc7c f i libucrt:fclose.obj
 0001:0001bc88       ?__crt_interlocked_read_32@@YAHPEDH@Z 000000014001cc88 f i libucrt:fclose.obj
 0001:0001bdf4       ?check_synchronize_global_state_index@__crt_cached_ptd_host@@AEAA_KAEBV__crt_scoped_get_last_error_reset@@@Z 000000014001cdf4 f i libucrt:fclose.obj
 0001:0001be10       ?check_synchronize_per_thread_data@__crt_cached_ptd_host@@AEAAPEAU__acrt_ptd@@XZ 000000014001ce10 f i libucrt:fclose.obj
 0001:0001be90       ?force_synchronize_global_state_index@__crt_cached_ptd_host@@AEAA_KAEBV__crt_scoped_get_last_error_reset@@@Z 000000014001ce90 f i libucrt:fclose.obj
 0001:0001bea0       ?force_synchronize_per_thread_data@__crt_cached_ptd_host@@AEAAPEAU__acrt_ptd@@XZ 000000014001cea0 f i libucrt:fclose.obj
 0001:0001bf0c       ?get_current_state_index@__crt_state_management@@YA_KAEBV__crt_scoped_get_last_error_reset@@@Z 000000014001cf0c f i libucrt:fclose.obj
 0001:0001bf10       ?get_errno@__crt_cached_ptd_host@@QEAA@XZ 000000014001cf10 f i libucrt:fclose.obj
 0001:0001bf18       ?get_flags@__crt_stdio_stream@@QEBAJXZ 000000014001cf18 f i libucrt:fclose.obj
 0001:0001bf24       ?get_raw_ptd@__crt_cached_ptd_host@@QEAAPEAU__acrt_ptd@@XZ 000000014001cf24 f i libucrt:fclose.obj
 0001:0001bfa4       ?is_in_use@__crt_stdio_stream@@QEBA_NXZ 000000014001cfa4 f i libucrt:fclose.obj
 0001:0001bfb4       ?is_string_backed@__crt_stdio_stream@@QEBA_NXZ 000000014001cfb4 f i libucrt:fclose.obj
 0001:0001bfc4       ?public_stream@__crt_stdio_stream@@QEBAPEAU_iobuf@@XZ 000000014001cfc4 f i libucrt:fclose.obj
 0001:0001bfc8       ?set@?$cached@H@__crt_cached_ptd_host@@QEAAHH@Z 000000014001cfc8 f i libucrt:fclose.obj
 0001:0001bfd4       ?unsafe_value@?$cached@H@__crt_cached_ptd_host@@QEAAHXZ 000000014001cfd4 f i libucrt:fclose.obj
 0001:0001bfd8       ?unsafe_value@?$cached@K@__crt_cached_ptd_host@@QEAAKXZ 000000014001cfd8 f i libucrt:fclose.obj
 0001:0001bfdc       ?valid@?$cached@H@__crt_cached_ptd_host@@QEBA_NXZ 000000014001cfdc f i libucrt:fclose.obj
 0001:0001bfe0       ?valid@?$cached@K@__crt_cached_ptd_host@@QEBA_NXZ 000000014001cfe0 f i libucrt:fclose.obj
 0001:0001bfe4       ?valid@__crt_stdio_stream@@QEBA_NXZ 000000014001cfe4 f i libucrt:fclose.obj
 0001:0001bff0       __acrt_enable_global_locale_sync 000000014001cff0 f i libucrt:fclose.obj
 0001:0001bffc       __acrt_locale_changed      000000014001cffc f i libucrt:fclose.obj
 0001:0001c00c       _fclose_nolock             000000014001d00c f   libucrt:fclose.obj
 0001:0001c0cc       fclose                     000000014001d0cc f   libucrt:fclose.obj
 0001:0001c440       ??$open_file@AEBQEBDAEBQEBDAEBHPEAU_iobuf@@@?$__crt_char_traits@D@@SAPEAU_iobuf@@AEBQEBD0AEBH$$QEAPEAU1@@Z 000000014001d440 f i libucrt:fopen.obj
 0001:0001c458       ??$open_file@AEBQEB_WAEBQEB_WAEBHPEAU_iobuf@@@?$__crt_char_traits@_W@@SAPEAU_iobuf@@AEBQEB_W0AEBH$$QEAPEAU1@@Z 000000014001d458 f i libucrt:fopen.obj
 0001:0001c470       ?unlock@__crt_stdio_stream@@QEBAXXZ 000000014001d470 f i libucrt:fopen.obj
 0001:0001c47c       _fsopen                    000000014001d47c f   libucrt:fopen.obj
 0001:0001c484       _wfopen                    000000014001d484 f   libucrt:fopen.obj
 0001:0001c494       _wfopen_s                  000000014001d494 f   libucrt:fopen.obj
 0001:0001c504       _wfsopen                   000000014001d504 f   libucrt:fopen.obj
 0001:0001c50c       fopen                      000000014001d50c f   libucrt:fopen.obj
 0001:0001c51c       fopen_s                    000000014001d51c f   libucrt:fopen.obj
 0001:0001c58c       ?__acrt_stdio_reset_buffer@@YAXV__crt_stdio_stream@@@Z 000000014001d58c f i libucrt:fread.obj
 0001:0001c59c       ?has_any_buffer@__crt_stdio_stream@@QEBA_NXZ 000000014001d59c f i libucrt:fread.obj
 0001:0001c5b4       ?has_any_of@__crt_stdio_stream@@QEBA_NJ@Z 000000014001d5b4 f i libucrt:fread.obj
 0001:0001c5c4       ?set_flags@__crt_stdio_stream@@QEBA_NJ@Z 000000014001d5c4 f i libucrt:fread.obj
 0001:0001c5ec       _fread_nolock              000000014001d5ec f   libucrt:fread.obj
 0001:0001c610       _fread_nolock_s            000000014001d610 f   libucrt:fread.obj
 0001:0001c908       fread                      000000014001d908 f   libucrt:fread.obj
 0001:0001c92c       fread_s                    000000014001d92c f   libucrt:fread.obj
 0001:0001caa4       ?LongLongSub@@YAJ_J0PEA_J@Z 000000014001daa4 f i libucrt:fseek.obj
 0001:0001cde8       ?has_all_of@__crt_stdio_stream@@QEBA_NJ@Z 000000014001dde8 f i libucrt:fseek.obj
 0001:0001cdfc       ?lowio_handle@__crt_stdio_stream@@QEBAHXZ 000000014001ddfc f i libucrt:fseek.obj
 0001:0001ce08       ?unset_flags@__crt_stdio_stream@@QEBA_NJ@Z 000000014001de08 f i libucrt:fseek.obj
 0001:0001ce38       _fseek_nolock              000000014001de38 f   libucrt:fseek.obj
 0001:0001cefc       _fseeki64                  000000014001defc f   libucrt:fseek.obj
 0001:0001cfbc       _fseeki64_nolock           000000014001dfbc f   libucrt:fseek.obj
 0001:0001d07c       fseek                      000000014001e07c f   libucrt:fseek.obj
 0001:0001d8bc       ?ctrl_z@__crt_stdio_stream@@QEBA_NXZ 000000014001e8bc f i libucrt:ftell.obj
 0001:0001d8cc       ?has_big_buffer@__crt_stdio_stream@@QEBA_NXZ 000000014001e8cc f i libucrt:ftell.obj
 0001:0001d8e0       ?has_crt_buffer@__crt_stdio_stream@@QEBA_NXZ 000000014001e8e0 f i libucrt:ftell.obj
 0001:0001d8f0       ?has_setvbuf_buffer@__crt_stdio_stream@@QEBA_NXZ 000000014001e8f0 f i libucrt:ftell.obj
 0001:0001d900       _ftell_nolock              000000014001e900 f   libucrt:ftell.obj
 0001:0001d9dc       _ftelli64                  000000014001e9dc f   libucrt:ftell.obj
 0001:0001da9c       _ftelli64_nolock           000000014001ea9c f   libucrt:ftell.obj
 0001:0001db5c       _ftelli64_nolock_internal  000000014001eb5c f   libucrt:ftell.obj
 0001:0001db64       _utf8_no_of_trailbytes     000000014001eb64 f i libucrt:ftell.obj
 0001:0001db78       ftell                      000000014001eb78 f   libucrt:ftell.obj
 0001:0001dd00       ??0__acrt_stdio_temporary_buffering_guard@@QEAA@QEAU_iobuf@@AEAV__crt_cached_ptd_host@@@Z 000000014001ed00 f i libucrt:fwrite.obj
 0001:0001dd30       ??1__acrt_stdio_temporary_buffering_guard@@QEAA@XZ 000000014001ed30 f i libucrt:fwrite.obj
 0001:0001ddfc       _fwrite_internal           000000014001edfc f   libucrt:fwrite.obj
 0001:0001dec0       _fwrite_nolock             000000014001eec0 f   libucrt:fwrite.obj
 0001:0001df8c       _fwrite_nolock_internal    000000014001ef8c f   libucrt:fwrite.obj
 0001:0001e224       fwrite                     000000014001f224 f   libucrt:fwrite.obj
 0001:0001e2f0       ??$?0AEBV?$stream_output_adapter@D@__crt_stdio_output@@AEB_KAEBQEBDAEAV__crt_cached_ptd_host@@AEBQEAD@?$format_validation_base@DV?$stream_output_adapter@D@__crt_stdio_output@@@__crt_stdio_output@@IEAA@AEBV?$stream_output_adapter@D@1@AEB_KAEBQEBDAEAV__crt_cached_ptd_host@@AEBQEAD@Z 000000014001f2f0 f i libucrt:output.obj
 0001:0001e37c       ??$?0AEBV?$stream_output_adapter@D@__crt_stdio_output@@AEB_KAEBQEBDAEAV__crt_cached_ptd_host@@AEBQEAD@?$positional_parameter_base@DV?$stream_output_adapter@D@__crt_stdio_output@@@__crt_stdio_output@@IEAA@AEBV?$stream_output_adapter@D@1@AEB_KAEBQEBDAEAV__crt_cached_ptd_host@@AEBQEAD@Z 000000014001f37c f i libucrt:output.obj
 0001:0001e42c       ??$?0AEBV?$stream_output_adapter@D@__crt_stdio_output@@AEB_KAEBQEBDAEAV__crt_cached_ptd_host@@AEBQEAD@?$standard_base@DV?$stream_output_adapter@D@__crt_stdio_output@@@__crt_stdio_output@@IEAA@AEBV?$stream_output_adapter@D@1@AEB_KAEBQEBDAEAV__crt_cached_ptd_host@@AEBQEAD@Z 000000014001f42c f i libucrt:output.obj
 0001:0001e4b8       ??$?0AEBV?$stream_output_adapter@_W@__crt_stdio_output@@AEB_KAEBQEB_WAEAV__crt_cached_ptd_host@@AEBQEAD@?$format_validation_base@_WV?$stream_output_adapter@_W@__crt_stdio_output@@@__crt_stdio_output@@IEAA@AEBV?$stream_output_adapter@_W@1@AEB_KAEBQEB_WAEAV__crt_cached_ptd_host@@AEBQEAD@Z 000000014001f4b8 f i libucrt:output.obj
 0001:0001e54c       ??$?0AEBV?$stream_output_adapter@_W@__crt_stdio_output@@AEB_KAEBQEB_WAEAV__crt_cached_ptd_host@@AEBQEAD@?$positional_parameter_base@_WV?$stream_output_adapter@_W@__crt_stdio_output@@@__crt_stdio_output@@IEAA@AEBV?$stream_output_adapter@_W@1@AEB_KAEBQEB_WAEAV__crt_cached_ptd_host@@AEBQEAD@Z 000000014001f54c f i libucrt:output.obj
 0001:0001e604       ??$?0AEBV?$stream_output_adapter@_W@__crt_stdio_output@@AEB_KAEBQEB_WAEAV__crt_cached_ptd_host@@AEBQEAD@?$standard_base@_WV?$stream_output_adapter@_W@__crt_stdio_output@@@__crt_stdio_output@@IEAA@AEBV?$stream_output_adapter@_W@1@AEB_KAEBQEB_WAEAV__crt_cached_ptd_host@@AEBQEAD@Z 000000014001f604 f i libucrt:output.obj
 0001:0001e698       ??$?0AEBV?$string_output_adapter@D@__crt_stdio_output@@AEB_KAEBQEBDAEAV__crt_cached_ptd_host@@AEBQEAD@?$format_validation_base@DV?$string_output_adapter@D@__crt_stdio_output@@@__crt_stdio_output@@IEAA@AEBV?$string_output_adapter@D@1@AEB_KAEBQEBDAEAV__crt_cached_ptd_host@@AEBQEAD@Z 000000014001f698 f i libucrt:output.obj
 0001:0001e724       ??$?0AEBV?$string_output_adapter@D@__crt_stdio_output@@AEB_KAEBQEBDAEAV__crt_cached_ptd_host@@AEBQEAD@?$positional_parameter_base@DV?$string_output_adapter@D@__crt_stdio_output@@@__crt_stdio_output@@IEAA@AEBV?$string_output_adapter@D@1@AEB_KAEBQEBDAEAV__crt_cached_ptd_host@@AEBQEAD@Z 000000014001f724 f i libucrt:output.obj
 0001:0001e7d4       ??$?0AEBV?$string_output_adapter@D@__crt_stdio_output@@AEB_KAEBQEBDAEAV__crt_cached_ptd_host@@AEBQEAD@?$standard_base@DV?$string_output_adapter@D@__crt_stdio_output@@@__crt_stdio_output@@IEAA@AEBV?$string_output_adapter@D@1@AEB_KAEBQEBDAEAV__crt_cached_ptd_host@@AEBQEAD@Z 000000014001f7d4 f i libucrt:output.obj
 0001:0001e860       ??$?0AEBV?$string_output_adapter@_W@__crt_stdio_output@@AEB_KAEBQEB_WAEAV__crt_cached_ptd_host@@AEBQEAD@?$format_validation_base@_WV?$string_output_adapter@_W@__crt_stdio_output@@@__crt_stdio_output@@IEAA@AEBV?$string_output_adapter@_W@1@AEB_KAEBQEB_WAEAV__crt_cached_ptd_host@@AEBQEAD@Z 000000014001f860 f i libucrt:output.obj
 0001:0001e8f4       ??$?0AEBV?$string_output_adapter@_W@__crt_stdio_output@@AEB_KAEBQEB_WAEAV__crt_cached_ptd_host@@AEBQEAD@?$positional_parameter_base@_WV?$string_output_adapter@_W@__crt_stdio_output@@@__crt_stdio_output@@IEAA@AEBV?$string_output_adapter@_W@1@AEB_KAEBQEB_WAEAV__crt_cached_ptd_host@@AEBQEAD@Z 000000014001f8f4 f i libucrt:output.obj
 0001:0001e9ac       ??$?0AEBV?$string_output_adapter@_W@__crt_stdio_output@@AEB_KAEBQEB_WAEAV__crt_cached_ptd_host@@AEBQEAD@?$standard_base@_WV?$string_output_adapter@_W@__crt_stdio_output@@@__crt_stdio_output@@IEAA@AEBV?$string_output_adapter@_W@1@AEB_KAEBQEB_WAEAV__crt_cached_ptd_host@@AEBQEAD@Z 000000014001f9ac f i libucrt:output.obj
 0001:0001ed40       ??$_tcstol_internal@DPEAPEAD$0A@@@YAJAEAV__crt_cached_ptd_host@@QEBDQEAPEADH@Z 000000014001fd40 f i libucrt:output.obj
 0001:0001ed7c       ??$_tcstol_internal@_WPEAPEA_W$0A@@@YAJAEAV__crt_cached_ptd_host@@QEB_WQEAPEA_WH@Z 000000014001fd7c f i libucrt:output.obj
 0001:00020318       ??$count@D@formatting_buffer@__crt_stdio_output@@QEBA_KXZ 0000000140021318 f i libucrt:output.obj
 0001:0002033c       ??$count@_W@formatting_buffer@__crt_stdio_output@@QEBA_KXZ 000000014002133c f i libucrt:output.obj
 0001:00020360       ??$data@D@formatting_buffer@__crt_stdio_output@@QEAAPEADXZ 0000000140021360 f i libucrt:output.obj
 0001:00020374       ??$data@_W@formatting_buffer@__crt_stdio_output@@QEAAPEA_WXZ 0000000140021374 f i libucrt:output.obj
 0001:00020388       ??$ensure_buffer_is_big_enough@D@formatting_buffer@__crt_stdio_output@@QEAA_N_KAEAV__crt_cached_ptd_host@@@Z 0000000140021388 f i libucrt:output.obj
 0001:0002045c       ??$ensure_buffer_is_big_enough@_W@formatting_buffer@__crt_stdio_output@@QEAA_N_KAEAV__crt_cached_ptd_host@@@Z 000000014002145c f i libucrt:output.obj
 0001:00020534       ??$extract_argument_from_va_list@C_J@?$positional_parameter_base@DV?$stream_output_adapter@D@__crt_stdio_output@@@__crt_stdio_output@@IEAA_NAEA_J@Z 0000000140021534 f i libucrt:output.obj
 0001:00020680       ??$extract_argument_from_va_list@C_J@?$positional_parameter_base@DV?$string_output_adapter@D@__crt_stdio_output@@@__crt_stdio_output@@IEAA_NAEA_J@Z 0000000140021680 f i libucrt:output.obj
 0001:000207cc       ??$extract_argument_from_va_list@C_J@?$positional_parameter_base@_WV?$stream_output_adapter@_W@__crt_stdio_output@@@__crt_stdio_output@@IEAA_NAEA_J@Z 00000001400217cc f i libucrt:output.obj
 0001:0002091c       ??$extract_argument_from_va_list@C_J@?$positional_parameter_base@_WV?$string_output_adapter@_W@__crt_stdio_output@@@__crt_stdio_output@@IEAA_NAEA_J@Z 000000014002191c f i libucrt:output.obj
 0001:00020a6c       ??$extract_argument_from_va_list@C_J@?$standard_base@DV?$stream_output_adapter@D@__crt_stdio_output@@@__crt_stdio_output@@IEAA_NAEA_J@Z 0000000140021a6c f i libucrt:output.obj
 0001:00020a88       ??$extract_argument_from_va_list@C_J@?$standard_base@DV?$string_output_adapter@D@__crt_stdio_output@@@__crt_stdio_output@@IEAA_NAEA_J@Z 0000000140021a88 f i libucrt:output.obj
 0001:00020aa4       ??$extract_argument_from_va_list@C_J@?$standard_base@_WV?$stream_output_adapter@_W@__crt_stdio_output@@@__crt_stdio_output@@IEAA_NAEA_J@Z 0000000140021aa4 f i libucrt:output.obj
 0001:00020ac0       ??$extract_argument_from_va_list@C_J@?$standard_base@_WV?$string_output_adapter@_W@__crt_stdio_output@@@__crt_stdio_output@@IEAA_NAEA_J@Z 0000000140021ac0 f i libucrt:output.obj
 0001:00020adc       ??$extract_argument_from_va_list@E_J@?$positional_parameter_base@DV?$stream_output_adapter@D@__crt_stdio_output@@@__crt_stdio_output@@IEAA_NAEA_J@Z 0000000140021adc f i libucrt:output.obj
 0001:00020c28       ??$extract_argument_from_va_list@E_J@?$positional_parameter_base@DV?$string_output_adapter@D@__crt_stdio_output@@@__crt_stdio_output@@IEAA_NAEA_J@Z 0000000140021c28 f i libucrt:output.obj
 0001:00020d74       ??$extract_argument_from_va_list@E_J@?$positional_parameter_base@_WV?$stream_output_adapter@_W@__crt_stdio_output@@@__crt_stdio_output@@IEAA_NAEA_J@Z 0000000140021d74 f i libucrt:output.obj
 0001:00020ec0       ??$extract_argument_from_va_list@E_J@?$positional_parameter_base@_WV?$string_output_adapter@_W@__crt_stdio_output@@@__crt_stdio_output@@IEAA_NAEA_J@Z 0000000140021ec0 f i libucrt:output.obj
 0001:0002100c       ??$extract_argument_from_va_list@E_J@?$standard_base@DV?$stream_output_adapter@D@__crt_stdio_output@@@__crt_stdio_output@@IEAA_NAEA_J@Z 000000014002200c f i libucrt:output.obj
 0001:00021028       ??$extract_argument_from_va_list@E_J@?$standard_base@DV?$string_output_adapter@D@__crt_stdio_output@@@__crt_stdio_output@@IEAA_NAEA_J@Z 0000000140022028 f i libucrt:output.obj
 0001:00021044       ??$extract_argument_from_va_list@E_J@?$standard_base@_WV?$stream_output_adapter@_W@__crt_stdio_output@@@__crt_stdio_output@@IEAA_NAEA_J@Z 0000000140022044 f i libucrt:output.obj
 0001:00021060       ??$extract_argument_from_va_list@E_J@?$standard_base@_WV?$string_output_adapter@_W@__crt_stdio_output@@@__crt_stdio_output@@IEAA_NAEA_J@Z 0000000140022060 f i libucrt:output.obj
 0001:0002107c       ??$extract_argument_from_va_list@F_J@?$positional_parameter_base@DV?$stream_output_adapter@D@__crt_stdio_output@@@__crt_stdio_output@@IEAA_NAEA_J@Z 000000014002207c f i libucrt:output.obj
 0001:000211c8       ??$extract_argument_from_va_list@F_J@?$positional_parameter_base@DV?$string_output_adapter@D@__crt_stdio_output@@@__crt_stdio_output@@IEAA_NAEA_J@Z 00000001400221c8 f i libucrt:output.obj
 0001:00021314       ??$extract_argument_from_va_list@F_J@?$positional_parameter_base@_WV?$stream_output_adapter@_W@__crt_stdio_output@@@__crt_stdio_output@@IEAA_NAEA_J@Z 0000000140022314 f i libucrt:output.obj
 0001:00021464       ??$extract_argument_from_va_list@F_J@?$positional_parameter_base@_WV?$string_output_adapter@_W@__crt_stdio_output@@@__crt_stdio_output@@IEAA_NAEA_J@Z 0000000140022464 f i libucrt:output.obj
 0001:000215b4       ??$extract_argument_from_va_list@F_J@?$standard_base@DV?$stream_output_adapter@D@__crt_stdio_output@@@__crt_stdio_output@@IEAA_NAEA_J@Z 00000001400225b4 f i libucrt:output.obj
 0001:000215d0       ??$extract_argument_from_va_list@F_J@?$standard_base@DV?$string_output_adapter@D@__crt_stdio_output@@@__crt_stdio_output@@IEAA_NAEA_J@Z 00000001400225d0 f i libucrt:output.obj
 0001:000215ec       ??$extract_argument_from_va_list@F_J@?$standard_base@_WV?$stream_output_adapter@_W@__crt_stdio_output@@@__crt_stdio_output@@IEAA_NAEA_J@Z 00000001400225ec f i libucrt:output.obj
 0001:00021608       ??$extract_argument_from_va_list@F_J@?$standard_base@_WV?$string_output_adapter@_W@__crt_stdio_output@@@__crt_stdio_output@@IEAA_NAEA_J@Z 0000000140022608 f i libucrt:output.obj
 0001:00021624       ??$extract_argument_from_va_list@GD@?$positional_parameter_base@DV?$stream_output_adapter@D@__crt_stdio_output@@@__crt_stdio_output@@IEAA_NAEAD@Z 0000000140022624 f i libucrt:output.obj
 0001:0002176c       ??$extract_argument_from_va_list@GD@?$positional_parameter_base@DV?$string_output_adapter@D@__crt_stdio_output@@@__crt_stdio_output@@IEAA_NAEAD@Z 000000014002276c f i libucrt:output.obj
 0001:000218b4       ??$extract_argument_from_va_list@GD@?$standard_base@DV?$stream_output_adapter@D@__crt_stdio_output@@@__crt_stdio_output@@IEAA_NAEAD@Z 00000001400228b4 f i libucrt:output.obj
 0001:000218d0       ??$extract_argument_from_va_list@GD@?$standard_base@DV?$string_output_adapter@D@__crt_stdio_output@@@__crt_stdio_output@@IEAA_NAEAD@Z 00000001400228d0 f i libucrt:output.obj
 0001:000218ec       ??$extract_argument_from_va_list@G_J@?$positional_parameter_base@DV?$stream_output_adapter@D@__crt_stdio_output@@@__crt_stdio_output@@IEAA_NAEA_J@Z 00000001400228ec f i libucrt:output.obj
 0001:00021a38       ??$extract_argument_from_va_list@G_J@?$positional_parameter_base@DV?$string_output_adapter@D@__crt_stdio_output@@@__crt_stdio_output@@IEAA_NAEA_J@Z 0000000140022a38 f i libucrt:output.obj
 0001:00021b84       ??$extract_argument_from_va_list@G_J@?$positional_parameter_base@_WV?$stream_output_adapter@_W@__crt_stdio_output@@@__crt_stdio_output@@IEAA_NAEA_J@Z 0000000140022b84 f i libucrt:output.obj
 0001:00021cd0       ??$extract_argument_from_va_list@G_J@?$positional_parameter_base@_WV?$string_output_adapter@_W@__crt_stdio_output@@@__crt_stdio_output@@IEAA_NAEA_J@Z 0000000140022cd0 f i libucrt:output.obj
 0001:00021e1c       ??$extract_argument_from_va_list@G_J@?$standard_base@DV?$stream_output_adapter@D@__crt_stdio_output@@@__crt_stdio_output@@IEAA_NAEA_J@Z 0000000140022e1c f i libucrt:output.obj
 0001:00021e38       ??$extract_argument_from_va_list@G_J@?$standard_base@DV?$string_output_adapter@D@__crt_stdio_output@@@__crt_stdio_output@@IEAA_NAEA_J@Z 0000000140022e38 f i libucrt:output.obj
 0001:00021e54       ??$extract_argument_from_va_list@G_J@?$standard_base@_WV?$stream_output_adapter@_W@__crt_stdio_output@@@__crt_stdio_output@@IEAA_NAEA_J@Z 0000000140022e54 f i libucrt:output.obj
 0001:00021e70       ??$extract_argument_from_va_list@G_J@?$standard_base@_WV?$string_output_adapter@_W@__crt_stdio_output@@@__crt_stdio_output@@IEAA_NAEA_J@Z 0000000140022e70 f i libucrt:output.obj
 0001:00021e8c       ??$extract_argument_from_va_list@H_J@?$positional_parameter_base@DV?$stream_output_adapter@D@__crt_stdio_output@@@__crt_stdio_output@@IEAA_NAEA_J@Z 0000000140022e8c f i libucrt:output.obj
 0001:00021fd4       ??$extract_argument_from_va_list@H_J@?$positional_parameter_base@DV?$string_output_adapter@D@__crt_stdio_output@@@__crt_stdio_output@@IEAA_NAEA_J@Z 0000000140022fd4 f i libucrt:output.obj
 0001:0002211c       ??$extract_argument_from_va_list@H_J@?$positional_parameter_base@_WV?$stream_output_adapter@_W@__crt_stdio_output@@@__crt_stdio_output@@IEAA_NAEA_J@Z 000000014002311c f i libucrt:output.obj
 0001:00022268       ??$extract_argument_from_va_list@H_J@?$positional_parameter_base@_WV?$string_output_adapter@_W@__crt_stdio_output@@@__crt_stdio_output@@IEAA_NAEA_J@Z 0000000140023268 f i libucrt:output.obj
 0001:000223b4       ??$extract_argument_from_va_list@H_J@?$standard_base@DV?$stream_output_adapter@D@__crt_stdio_output@@@__crt_stdio_output@@IEAA_NAEA_J@Z 00000001400233b4 f i libucrt:output.obj
 0001:000223d0       ??$extract_argument_from_va_list@H_J@?$standard_base@DV?$string_output_adapter@D@__crt_stdio_output@@@__crt_stdio_output@@IEAA_NAEA_J@Z 00000001400233d0 f i libucrt:output.obj
 0001:000223ec       ??$extract_argument_from_va_list@H_J@?$standard_base@_WV?$stream_output_adapter@_W@__crt_stdio_output@@@__crt_stdio_output@@IEAA_NAEA_J@Z 00000001400233ec f i libucrt:output.obj
 0001:00022408       ??$extract_argument_from_va_list@H_J@?$standard_base@_WV?$string_output_adapter@_W@__crt_stdio_output@@@__crt_stdio_output@@IEAA_NAEA_J@Z 0000000140023408 f i libucrt:output.obj
 0001:00022424       ??$extract_argument_from_va_list@I_J@?$positional_parameter_base@DV?$stream_output_adapter@D@__crt_stdio_output@@@__crt_stdio_output@@IEAA_NAEA_J@Z 0000000140023424 f i libucrt:output.obj
 0001:0002256c       ??$extract_argument_from_va_list@I_J@?$positional_parameter_base@DV?$string_output_adapter@D@__crt_stdio_output@@@__crt_stdio_output@@IEAA_NAEA_J@Z 000000014002356c f i libucrt:output.obj
 0001:000226b4       ??$extract_argument_from_va_list@I_J@?$positional_parameter_base@_WV?$stream_output_adapter@_W@__crt_stdio_output@@@__crt_stdio_output@@IEAA_NAEA_J@Z 00000001400236b4 f i libucrt:output.obj
 0001:00022800       ??$extract_argument_from_va_list@I_J@?$positional_parameter_base@_WV?$string_output_adapter@_W@__crt_stdio_output@@@__crt_stdio_output@@IEAA_NAEA_J@Z 0000000140023800 f i libucrt:output.obj
 0001:0002294c       ??$extract_argument_from_va_list@I_J@?$standard_base@DV?$stream_output_adapter@D@__crt_stdio_output@@@__crt_stdio_output@@IEAA_NAEA_J@Z 000000014002394c f i libucrt:output.obj
 0001:00022968       ??$extract_argument_from_va_list@I_J@?$standard_base@DV?$string_output_adapter@D@__crt_stdio_output@@@__crt_stdio_output@@IEAA_NAEA_J@Z 0000000140023968 f i libucrt:output.obj
 0001:00022984       ??$extract_argument_from_va_list@I_J@?$standard_base@_WV?$stream_output_adapter@_W@__crt_stdio_output@@@__crt_stdio_output@@IEAA_NAEA_J@Z 0000000140023984 f i libucrt:output.obj
 0001:000229a0       ??$extract_argument_from_va_list@I_J@?$standard_base@_WV?$string_output_adapter@_W@__crt_stdio_output@@@__crt_stdio_output@@IEAA_NAEA_J@Z 00000001400239a0 f i libucrt:output.obj
 0001:000229bc       ??$extract_argument_from_va_list@PEADPEAD@?$positional_parameter_base@DV?$stream_output_adapter@D@__crt_stdio_output@@@__crt_stdio_output@@IEAA_NAEAPEAD@Z 00000001400239bc f i libucrt:output.obj
 0001:00022b04       ??$extract_argument_from_va_list@PEADPEAD@?$positional_parameter_base@DV?$string_output_adapter@D@__crt_stdio_output@@@__crt_stdio_output@@IEAA_NAEAPEAD@Z 0000000140023b04 f i libucrt:output.obj
 0001:00022c4c       ??$extract_argument_from_va_list@PEADPEAD@?$positional_parameter_base@_WV?$stream_output_adapter@_W@__crt_stdio_output@@@__crt_stdio_output@@IEAA_NAEAPEAD@Z 0000000140023c4c f i libucrt:output.obj
 0001:00022d98       ??$extract_argument_from_va_list@PEADPEAD@?$positional_parameter_base@_WV?$string_output_adapter@_W@__crt_stdio_output@@@__crt_stdio_output@@IEAA_NAEAPEAD@Z 0000000140023d98 f i libucrt:output.obj
 0001:00022ee4       ??$extract_argument_from_va_list@PEADPEAD@?$standard_base@DV?$stream_output_adapter@D@__crt_stdio_output@@@__crt_stdio_output@@IEAA_NAEAPEAD@Z 0000000140023ee4 f i libucrt:output.obj
 0001:00022f00       ??$extract_argument_from_va_list@PEADPEAD@?$standard_base@DV?$string_output_adapter@D@__crt_stdio_output@@@__crt_stdio_output@@IEAA_NAEAPEAD@Z 0000000140023f00 f i libucrt:output.obj
 0001:00022f1c       ??$extract_argument_from_va_list@PEADPEAD@?$standard_base@_WV?$stream_output_adapter@_W@__crt_stdio_output@@@__crt_stdio_output@@IEAA_NAEAPEAD@Z 0000000140023f1c f i libucrt:output.obj
 0001:00022f38       ??$extract_argument_from_va_list@PEADPEAD@?$standard_base@_WV?$string_output_adapter@_W@__crt_stdio_output@@@__crt_stdio_output@@IEAA_NAEAPEAD@Z 0000000140023f38 f i libucrt:output.obj
 0001:00022f54       ??$extract_argument_from_va_list@PEAUansi_string@?1??type_case_Z@?$output_processor@DV?$stream_output_adapter@D@__crt_stdio_output@@V?$format_validation_base@DV?$stream_output_adapter@D@__crt_stdio_output@@@2@@__crt_stdio_output@@AEAA_NXZ@PEAU1?1??234@AEAA_NXZ@@?$standard_base@DV?$stream_output_adapter@D@__crt_stdio_output@@@__crt_stdio_output@@IEAA_NAEAPEAUansi_string@?1??type_case_Z@?$output_processor@DV?$stream_output_adapter@D@__crt_stdio_output@@V?$format_validation_base@DV?$stream_output_adapter@D@__crt_stdio_output@@@2@@1@AEAA_NXZ@@Z 0000000140023f54 f i libucrt:output.obj
 0001:00022f70       ??$extract_argument_from_va_list@PEAUansi_string@?1??type_case_Z@?$output_processor@DV?$stream_output_adapter@D@__crt_stdio_output@@V?$positional_parameter_base@DV?$stream_output_adapter@D@__crt_stdio_output@@@2@@__crt_stdio_output@@AEAA_NXZ@PEAU1?1??234@AEAA_NXZ@@?$positional_parameter_base@DV?$stream_output_adapter@D@__crt_stdio_output@@@__crt_stdio_output@@IEAA_NAEAPEAUansi_string@?1??type_case_Z@?$output_processor@DV?$stream_output_adapter@D@__crt_stdio_output@@V?$positional_parameter_base@DV?$stream_output_adapter@D@__crt_stdio_output@@@2@@1@AEAA_NXZ@@Z 0000000140023f70 f i libucrt:output.obj
 0001:000230b8       ??$extract_argument_from_va_list@PEAUansi_string@?1??type_case_Z@?$output_processor@DV?$stream_output_adapter@D@__crt_stdio_output@@V?$positional_parameter_base@DV?$stream_output_adapter@D@__crt_stdio_output@@@2@@__crt_stdio_output@@AEAA_NXZ@PEAU1?1??234@AEAA_NXZ@@?$standard_base@DV?$stream_output_adapter@D@__crt_stdio_output@@@__crt_stdio_output@@IEAA_NAEAPEAUansi_string@?1??type_case_Z@?$output_processor@DV?$stream_output_adapter@D@__crt_stdio_output@@V?$positional_parameter_base@DV?$stream_output_adapter@D@__crt_stdio_output@@@2@@1@AEAA_NXZ@@Z 00000001400240b8 f i libucrt:output.obj
 0001:000230d4       ??$extract_argument_from_va_list@PEAUansi_string@?1??type_case_Z@?$output_processor@DV?$stream_output_adapter@D@__crt_stdio_output@@V?$standard_base@DV?$stream_output_adapter@D@__crt_stdio_output@@@2@@__crt_stdio_output@@AEAA_NXZ@PEAU1?1??234@AEAA_NXZ@@?$standard_base@DV?$stream_output_adapter@D@__crt_stdio_output@@@__crt_stdio_output@@IEAA_NAEAPEAUansi_string@?1??type_case_Z@?$output_processor@DV?$stream_output_adapter@D@__crt_stdio_output@@V?$standard_base@DV?$stream_output_adapter@D@__crt_stdio_output@@@2@@1@AEAA_NXZ@@Z 00000001400240d4 f i libucrt:output.obj
 0001:000230f0       ??$extract_argument_from_va_list@PEAUansi_string@?1??type_case_Z@?$output_processor@DV?$string_output_adapter@D@__crt_stdio_output@@V?$format_validation_base@DV?$string_output_adapter@D@__crt_stdio_output@@@2@@__crt_stdio_output@@AEAA_NXZ@PEAU1?1??234@AEAA_NXZ@@?$standard_base@DV?$string_output_adapter@D@__crt_stdio_output@@@__crt_stdio_output@@IEAA_NAEAPEAUansi_string@?1??type_case_Z@?$output_processor@DV?$string_output_adapter@D@__crt_stdio_output@@V?$format_validation_base@DV?$string_output_adapter@D@__crt_stdio_output@@@2@@1@AEAA_NXZ@@Z 00000001400240f0 f i libucrt:output.obj
 0001:0002310c       ??$extract_argument_from_va_list@PEAUansi_string@?1??type_case_Z@?$output_processor@DV?$string_output_adapter@D@__crt_stdio_output@@V?$positional_parameter_base@DV?$string_output_adapter@D@__crt_stdio_output@@@2@@__crt_stdio_output@@AEAA_NXZ@PEAU1?1??234@AEAA_NXZ@@?$positional_parameter_base@DV?$string_output_adapter@D@__crt_stdio_output@@@__crt_stdio_output@@IEAA_NAEAPEAUansi_string@?1??type_case_Z@?$output_processor@DV?$string_output_adapter@D@__crt_stdio_output@@V?$positional_parameter_base@DV?$string_output_adapter@D@__crt_stdio_output@@@2@@1@AEAA_NXZ@@Z 000000014002410c f i libucrt:output.obj
 0001:00023254       ??$extract_argument_from_va_list@PEAUansi_string@?1??type_case_Z@?$output_processor@DV?$string_output_adapter@D@__crt_stdio_output@@V?$positional_parameter_base@DV?$string_output_adapter@D@__crt_stdio_output@@@2@@__crt_stdio_output@@AEAA_NXZ@PEAU1?1??234@AEAA_NXZ@@?$standard_base@DV?$string_output_adapter@D@__crt_stdio_output@@@__crt_stdio_output@@IEAA_NAEAPEAUansi_string@?1??type_case_Z@?$output_processor@DV?$string_output_adapter@D@__crt_stdio_output@@V?$positional_parameter_base@DV?$string_output_adapter@D@__crt_stdio_output@@@2@@1@AEAA_NXZ@@Z 0000000140024254 f i libucrt:output.obj
 0001:00023270       ??$extract_argument_from_va_list@PEAUansi_string@?1??type_case_Z@?$output_processor@DV?$string_output_adapter@D@__crt_stdio_output@@V?$standard_base@DV?$string_output_adapter@D@__crt_stdio_output@@@2@@__crt_stdio_output@@AEAA_NXZ@PEAU1?1??234@AEAA_NXZ@@?$standard_base@DV?$string_output_adapter@D@__crt_stdio_output@@@__crt_stdio_output@@IEAA_NAEAPEAUansi_string@?1??type_case_Z@?$output_processor@DV?$string_output_adapter@D@__crt_stdio_output@@V?$standard_base@DV?$string_output_adapter@D@__crt_stdio_output@@@2@@1@AEAA_NXZ@@Z 0000000140024270 f i libucrt:output.obj
 0001:0002328c       ??$extract_argument_from_va_list@PEAUansi_string@?1??type_case_Z@?$output_processor@_WV?$stream_output_adapter@_W@__crt_stdio_output@@V?$format_validation_base@_WV?$stream_output_adapter@_W@__crt_stdio_output@@@2@@__crt_stdio_output@@AEAA_NXZ@PEAU1?1??234@AEAA_NXZ@@?$standard_base@_WV?$stream_output_adapter@_W@__crt_stdio_output@@@__crt_stdio_output@@IEAA_NAEAPEAUansi_string@?1??type_case_Z@?$output_processor@_WV?$stream_output_adapter@_W@__crt_stdio_output@@V?$format_validation_base@_WV?$stream_output_adapter@_W@__crt_stdio_output@@@2@@1@AEAA_NXZ@@Z 000000014002428c f i libucrt:output.obj
 0001:000232a8       ??$extract_argument_from_va_list@PEAUansi_string@?1??type_case_Z@?$output_processor@_WV?$stream_output_adapter@_W@__crt_stdio_output@@V?$positional_parameter_base@_WV?$stream_output_adapter@_W@__crt_stdio_output@@@2@@__crt_stdio_output@@AEAA_NXZ@PEAU1?1??234@AEAA_NXZ@@?$positional_parameter_base@_WV?$stream_output_adapter@_W@__crt_stdio_output@@@__crt_stdio_output@@IEAA_NAEAPEAUansi_string@?1??type_case_Z@?$output_processor@_WV?$stream_output_adapter@_W@__crt_stdio_output@@V?$positional_parameter_base@_WV?$stream_output_adapter@_W@__crt_stdio_output@@@2@@1@AEAA_NXZ@@Z 00000001400242a8 f i libucrt:output.obj
 0001:000233f4       ??$extract_argument_from_va_list@PEAUansi_string@?1??type_case_Z@?$output_processor@_WV?$stream_output_adapter@_W@__crt_stdio_output@@V?$positional_parameter_base@_WV?$stream_output_adapter@_W@__crt_stdio_output@@@2@@__crt_stdio_output@@AEAA_NXZ@PEAU1?1??234@AEAA_NXZ@@?$standard_base@_WV?$stream_output_adapter@_W@__crt_stdio_output@@@__crt_stdio_output@@IEAA_NAEAPEAUansi_string@?1??type_case_Z@?$output_processor@_WV?$stream_output_adapter@_W@__crt_stdio_output@@V?$positional_parameter_base@_WV?$stream_output_adapter@_W@__crt_stdio_output@@@2@@1@AEAA_NXZ@@Z 00000001400243f4 f i libucrt:output.obj
 0001:00023410       ??$extract_argument_from_va_list@PEAUansi_string@?1??type_case_Z@?$output_processor@_WV?$stream_output_adapter@_W@__crt_stdio_output@@V?$standard_base@_WV?$stream_output_adapter@_W@__crt_stdio_output@@@2@@__crt_stdio_output@@AEAA_NXZ@PEAU1?1??234@AEAA_NXZ@@?$standard_base@_WV?$stream_output_adapter@_W@__crt_stdio_output@@@__crt_stdio_output@@IEAA_NAEAPEAUansi_string@?1??type_case_Z@?$output_processor@_WV?$stream_output_adapter@_W@__crt_stdio_output@@V?$standard_base@_WV?$stream_output_adapter@_W@__crt_stdio_output@@@2@@1@AEAA_NXZ@@Z 0000000140024410 f i libucrt:output.obj
 0001:0002342c       ??$extract_argument_from_va_list@PEAUansi_string@?1??type_case_Z@?$output_processor@_WV?$string_output_adapter@_W@__crt_stdio_output@@V?$format_validation_base@_WV?$string_output_adapter@_W@__crt_stdio_output@@@2@@__crt_stdio_output@@AEAA_NXZ@PEAU1?1??234@AEAA_NXZ@@?$standard_base@_WV?$string_output_adapter@_W@__crt_stdio_output@@@__crt_stdio_output@@IEAA_NAEAPEAUansi_string@?1??type_case_Z@?$output_processor@_WV?$string_output_adapter@_W@__crt_stdio_output@@V?$format_validation_base@_WV?$string_output_adapter@_W@__crt_stdio_output@@@2@@1@AEAA_NXZ@@Z 000000014002442c f i libucrt:output.obj
 0001:00023448       ??$extract_argument_from_va_list@PEAUansi_string@?1??type_case_Z@?$output_processor@_WV?$string_output_adapter@_W@__crt_stdio_output@@V?$positional_parameter_base@_WV?$string_output_adapter@_W@__crt_stdio_output@@@2@@__crt_stdio_output@@AEAA_NXZ@PEAU1?1??234@AEAA_NXZ@@?$positional_parameter_base@_WV?$string_output_adapter@_W@__crt_stdio_output@@@__crt_stdio_output@@IEAA_NAEAPEAUansi_string@?1??type_case_Z@?$output_processor@_WV?$string_output_adapter@_W@__crt_stdio_output@@V?$positional_parameter_base@_WV?$string_output_adapter@_W@__crt_stdio_output@@@2@@1@AEAA_NXZ@@Z 0000000140024448 f i libucrt:output.obj
 0001:00023594       ??$extract_argument_from_va_list@PEAUansi_string@?1??type_case_Z@?$output_processor@_WV?$string_output_adapter@_W@__crt_stdio_output@@V?$positional_parameter_base@_WV?$string_output_adapter@_W@__crt_stdio_output@@@2@@__crt_stdio_output@@AEAA_NXZ@PEAU1?1??234@AEAA_NXZ@@?$standard_base@_WV?$string_output_adapter@_W@__crt_stdio_output@@@__crt_stdio_output@@IEAA_NAEAPEAUansi_string@?1??type_case_Z@?$output_processor@_WV?$string_output_adapter@_W@__crt_stdio_output@@V?$positional_parameter_base@_WV?$string_output_adapter@_W@__crt_stdio_output@@@2@@1@AEAA_NXZ@@Z 0000000140024594 f i libucrt:output.obj
 0001:000235b0       ??$extract_argument_from_va_list@PEAUansi_string@?1??type_case_Z@?$output_processor@_WV?$string_output_adapter@_W@__crt_stdio_output@@V?$standard_base@_WV?$string_output_adapter@_W@__crt_stdio_output@@@2@@__crt_stdio_output@@AEAA_NXZ@PEAU1?1??234@AEAA_NXZ@@?$standard_base@_WV?$string_output_adapter@_W@__crt_stdio_output@@@__crt_stdio_output@@IEAA_NAEAPEAUansi_string@?1??type_case_Z@?$output_processor@_WV?$string_output_adapter@_W@__crt_stdio_output@@V?$standard_base@_WV?$string_output_adapter@_W@__crt_stdio_output@@@2@@1@AEAA_NXZ@@Z 00000001400245b0 f i libucrt:output.obj
 0001:000235cc       ??$extract_argument_from_va_list@PEAXPEAX@?$positional_parameter_base@DV?$stream_output_adapter@D@__crt_stdio_output@@@__crt_stdio_output@@IEAA_NAEAPEAX@Z 00000001400245cc f i libucrt:output.obj
 0001:00023714       ??$extract_argument_from_va_list@PEAXPEAX@?$positional_parameter_base@DV?$string_output_adapter@D@__crt_stdio_output@@@__crt_stdio_output@@IEAA_NAEAPEAX@Z 0000000140024714 f i libucrt:output.obj
 0001:0002385c       ??$extract_argument_from_va_list@PEAXPEAX@?$positional_parameter_base@_WV?$stream_output_adapter@_W@__crt_stdio_output@@@__crt_stdio_output@@IEAA_NAEAPEAX@Z 000000014002485c f i libucrt:output.obj
 0001:000239a8       ??$extract_argument_from_va_list@PEAXPEAX@?$positional_parameter_base@_WV?$string_output_adapter@_W@__crt_stdio_output@@@__crt_stdio_output@@IEAA_NAEAPEAX@Z 00000001400249a8 f i libucrt:output.obj
 0001:00023af4       ??$extract_argument_from_va_list@PEAXPEAX@?$standard_base@DV?$stream_output_adapter@D@__crt_stdio_output@@@__crt_stdio_output@@IEAA_NAEAPEAX@Z 0000000140024af4 f i libucrt:output.obj
 0001:00023b10       ??$extract_argument_from_va_list@PEAXPEAX@?$standard_base@DV?$string_output_adapter@D@__crt_stdio_output@@@__crt_stdio_output@@IEAA_NAEAPEAX@Z 0000000140024b10 f i libucrt:output.obj
 0001:00023b2c       ??$extract_argument_from_va_list@PEAXPEAX@?$standard_base@_WV?$stream_output_adapter@_W@__crt_stdio_output@@@__crt_stdio_output@@IEAA_NAEAPEAX@Z 0000000140024b2c f i libucrt:output.obj
 0001:00023b48       ??$extract_argument_from_va_list@PEAXPEAX@?$standard_base@_WV?$string_output_adapter@_W@__crt_stdio_output@@@__crt_stdio_output@@IEAA_NAEAPEAX@Z 0000000140024b48 f i libucrt:output.obj
 0001:00023b64       ??$extract_argument_from_va_list@U_CRT_DOUBLE@@U1@@?$positional_parameter_base@DV?$stream_output_adapter@D@__crt_stdio_output@@@__crt_stdio_output@@IEAA_NAEAU_CRT_DOUBLE@@@Z 0000000140024b64 f i libucrt:output.obj
 0001:00023cb0       ??$extract_argument_from_va_list@U_CRT_DOUBLE@@U1@@?$positional_parameter_base@DV?$string_output_adapter@D@__crt_stdio_output@@@__crt_stdio_output@@IEAA_NAEAU_CRT_DOUBLE@@@Z 0000000140024cb0 f i libucrt:output.obj
 0001:00023dfc       ??$extract_argument_from_va_list@U_CRT_DOUBLE@@U1@@?$positional_parameter_base@_WV?$stream_output_adapter@_W@__crt_stdio_output@@@__crt_stdio_output@@IEAA_NAEAU_CRT_DOUBLE@@@Z 0000000140024dfc f i libucrt:output.obj
 0001:00023f48       ??$extract_argument_from_va_list@U_CRT_DOUBLE@@U1@@?$positional_parameter_base@_WV?$string_output_adapter@_W@__crt_stdio_output@@@__crt_stdio_output@@IEAA_NAEAU_CRT_DOUBLE@@@Z 0000000140024f48 f i libucrt:output.obj
 0001:00024094       ??$extract_argument_from_va_list@U_CRT_DOUBLE@@U1@@?$standard_base@DV?$stream_output_adapter@D@__crt_stdio_output@@@__crt_stdio_output@@IEAA_NAEAU_CRT_DOUBLE@@@Z 0000000140025094 f i libucrt:output.obj
 0001:000240b4       ??$extract_argument_from_va_list@U_CRT_DOUBLE@@U1@@?$standard_base@DV?$string_output_adapter@D@__crt_stdio_output@@@__crt_stdio_output@@IEAA_NAEAU_CRT_DOUBLE@@@Z 00000001400250b4 f i libucrt:output.obj
 0001:000240d4       ??$extract_argument_from_va_list@U_CRT_DOUBLE@@U1@@?$standard_base@_WV?$stream_output_adapter@_W@__crt_stdio_output@@@__crt_stdio_output@@IEAA_NAEAU_CRT_DOUBLE@@@Z 00000001400250d4 f i libucrt:output.obj
 0001:000240f4       ??$extract_argument_from_va_list@U_CRT_DOUBLE@@U1@@?$standard_base@_WV?$string_output_adapter@_W@__crt_stdio_output@@@__crt_stdio_output@@IEAA_NAEAU_CRT_DOUBLE@@@Z 00000001400250f4 f i libucrt:output.obj
 0001:00024114       ??$extract_argument_from_va_list@_J_J@?$positional_parameter_base@DV?$stream_output_adapter@D@__crt_stdio_output@@@__crt_stdio_output@@IEAA_NAEA_J@Z 0000000140025114 f i libucrt:output.obj
 0001:0002425c       ??$extract_argument_from_va_list@_J_J@?$positional_parameter_base@DV?$string_output_adapter@D@__crt_stdio_output@@@__crt_stdio_output@@IEAA_NAEA_J@Z 000000014002525c f i libucrt:output.obj
 0001:000243a4       ??$extract_argument_from_va_list@_J_J@?$positional_parameter_base@_WV?$stream_output_adapter@_W@__crt_stdio_output@@@__crt_stdio_output@@IEAA_NAEA_J@Z 00000001400253a4 f i libucrt:output.obj
 0001:000244f0       ??$extract_argument_from_va_list@_J_J@?$positional_parameter_base@_WV?$string_output_adapter@_W@__crt_stdio_output@@@__crt_stdio_output@@IEAA_NAEA_J@Z 00000001400254f0 f i libucrt:output.obj
 0001:0002463c       ??$extract_argument_from_va_list@_J_J@?$standard_base@DV?$stream_output_adapter@D@__crt_stdio_output@@@__crt_stdio_output@@IEAA_NAEA_J@Z 000000014002563c f i libucrt:output.obj
 0001:00024658       ??$extract_argument_from_va_list@_J_J@?$standard_base@DV?$string_output_adapter@D@__crt_stdio_output@@@__crt_stdio_output@@IEAA_NAEA_J@Z 0000000140025658 f i libucrt:output.obj
 0001:00024674       ??$extract_argument_from_va_list@_J_J@?$standard_base@_WV?$stream_output_adapter@_W@__crt_stdio_output@@@__crt_stdio_output@@IEAA_NAEA_J@Z 0000000140025674 f i libucrt:output.obj
 0001:00024690       ??$extract_argument_from_va_list@_J_J@?$standard_base@_WV?$string_output_adapter@_W@__crt_stdio_output@@@__crt_stdio_output@@IEAA_NAEA_J@Z 0000000140025690 f i libucrt:output.obj
 0001:000246ac       ??$extract_argument_from_va_list@_K_J@?$positional_parameter_base@DV?$stream_output_adapter@D@__crt_stdio_output@@@__crt_stdio_output@@IEAA_NAEA_J@Z 00000001400256ac f i libucrt:output.obj
 0001:000247f4       ??$extract_argument_from_va_list@_K_J@?$positional_parameter_base@DV?$string_output_adapter@D@__crt_stdio_output@@@__crt_stdio_output@@IEAA_NAEA_J@Z 00000001400257f4 f i libucrt:output.obj
 0001:0002493c       ??$extract_argument_from_va_list@_K_J@?$positional_parameter_base@_WV?$stream_output_adapter@_W@__crt_stdio_output@@@__crt_stdio_output@@IEAA_NAEA_J@Z 000000014002593c f i libucrt:output.obj
 0001:00024a88       ??$extract_argument_from_va_list@_K_J@?$positional_parameter_base@_WV?$string_output_adapter@_W@__crt_stdio_output@@@__crt_stdio_output@@IEAA_NAEA_J@Z 0000000140025a88 f i libucrt:output.obj
 0001:00024bd4       ??$extract_argument_from_va_list@_K_J@?$standard_base@DV?$stream_output_adapter@D@__crt_stdio_output@@@__crt_stdio_output@@IEAA_NAEA_J@Z 0000000140025bd4 f i libucrt:output.obj
 0001:00024bf0       ??$extract_argument_from_va_list@_K_J@?$standard_base@DV?$string_output_adapter@D@__crt_stdio_output@@@__crt_stdio_output@@IEAA_NAEA_J@Z 0000000140025bf0 f i libucrt:output.obj
 0001:00024c0c       ??$extract_argument_from_va_list@_K_J@?$standard_base@_WV?$stream_output_adapter@_W@__crt_stdio_output@@@__crt_stdio_output@@IEAA_NAEA_J@Z 0000000140025c0c f i libucrt:output.obj
 0001:00024c28       ??$extract_argument_from_va_list@_K_J@?$standard_base@_WV?$string_output_adapter@_W@__crt_stdio_output@@@__crt_stdio_output@@IEAA_NAEA_J@Z 0000000140025c28 f i libucrt:output.obj
 0001:00024c44       ??$extract_argument_from_va_list@_W_W@?$positional_parameter_base@DV?$stream_output_adapter@D@__crt_stdio_output@@@__crt_stdio_output@@IEAA_NAEA_W@Z 0000000140025c44 f i libucrt:output.obj
 0001:00024d90       ??$extract_argument_from_va_list@_W_W@?$positional_parameter_base@DV?$string_output_adapter@D@__crt_stdio_output@@@__crt_stdio_output@@IEAA_NAEA_W@Z 0000000140025d90 f i libucrt:output.obj
 0001:00024edc       ??$extract_argument_from_va_list@_W_W@?$positional_parameter_base@_WV?$stream_output_adapter@_W@__crt_stdio_output@@@__crt_stdio_output@@IEAA_NAEA_W@Z 0000000140025edc f i libucrt:output.obj
 0001:00025028       ??$extract_argument_from_va_list@_W_W@?$positional_parameter_base@_WV?$string_output_adapter@_W@__crt_stdio_output@@@__crt_stdio_output@@IEAA_NAEA_W@Z 0000000140026028 f i libucrt:output.obj
 0001:00025174       ??$extract_argument_from_va_list@_W_W@?$standard_base@DV?$stream_output_adapter@D@__crt_stdio_output@@@__crt_stdio_output@@IEAA_NAEA_W@Z 0000000140026174 f i libucrt:output.obj
 0001:00025190       ??$extract_argument_from_va_list@_W_W@?$standard_base@DV?$string_output_adapter@D@__crt_stdio_output@@@__crt_stdio_output@@IEAA_NAEA_W@Z 0000000140026190 f i libucrt:output.obj
 0001:000251ac       ??$extract_argument_from_va_list@_W_W@?$standard_base@_WV?$stream_output_adapter@_W@__crt_stdio_output@@@__crt_stdio_output@@IEAA_NAEA_W@Z 00000001400261ac f i libucrt:output.obj
 0001:000251c8       ??$extract_argument_from_va_list@_W_W@?$standard_base@_WV?$string_output_adapter@_W@__crt_stdio_output@@@__crt_stdio_output@@IEAA_NAEA_W@Z 00000001400261c8 f i libucrt:output.obj
 0001:000251e4       ??$get_parameter_type@D@?$positional_parameter_base@DV?$stream_output_adapter@D@__crt_stdio_output@@@__crt_stdio_output@@CA?AW4parameter_type@01@PEAD@Z 00000001400261e4 f i libucrt:output.obj
 0001:000251ec       ??$get_parameter_type@D@?$positional_parameter_base@DV?$string_output_adapter@D@__crt_stdio_output@@@__crt_stdio_output@@CA?AW4parameter_type@01@PEAD@Z 00000001400261ec f i libucrt:output.obj
 0001:000251f4       ??$get_parameter_type@D@?$positional_parameter_base@_WV?$stream_output_adapter@_W@__crt_stdio_output@@@__crt_stdio_output@@CA?AW4parameter_type@01@PEAD@Z 00000001400261f4 f i libucrt:output.obj
 0001:000251fc       ??$get_parameter_type@D@?$positional_parameter_base@_WV?$string_output_adapter@_W@__crt_stdio_output@@@__crt_stdio_output@@CA?AW4parameter_type@01@PEAD@Z 00000001400261fc f i libucrt:output.obj
 0001:00025204       ??$get_parameter_type@Uansi_string@?1??type_case_Z@?$output_processor@DV?$stream_output_adapter@D@__crt_stdio_output@@V?$positional_parameter_base@DV?$stream_output_adapter@D@__crt_stdio_output@@@2@@__crt_stdio_output@@AEAA_NXZ@@?$positional_parameter_base@DV?$stream_output_adapter@D@__crt_stdio_output@@@__crt_stdio_output@@CA?AW4parameter_type@01@PEAUansi_string@?1??type_case_Z@?$output_processor@DV?$stream_output_adapter@D@__crt_stdio_output@@V?$positional_parameter_base@DV?$stream_output_adapter@D@__crt_stdio_output@@@2@@1@AEAA_NXZ@@Z 0000000140026204 f i libucrt:output.obj
 0001:0002520c       ??$get_parameter_type@Uansi_string@?1??type_case_Z@?$output_processor@DV?$string_output_adapter@D@__crt_stdio_output@@V?$positional_parameter_base@DV?$string_output_adapter@D@__crt_stdio_output@@@2@@__crt_stdio_output@@AEAA_NXZ@@?$positional_parameter_base@DV?$string_output_adapter@D@__crt_stdio_output@@@__crt_stdio_output@@CA?AW4parameter_type@01@PEAUansi_string@?1??type_case_Z@?$output_processor@DV?$string_output_adapter@D@__crt_stdio_output@@V?$positional_parameter_base@DV?$string_output_adapter@D@__crt_stdio_output@@@2@@1@AEAA_NXZ@@Z 000000014002620c f i libucrt:output.obj
 0001:00025214       ??$get_parameter_type@Uansi_string@?1??type_case_Z@?$output_processor@_WV?$stream_output_adapter@_W@__crt_stdio_output@@V?$positional_parameter_base@_WV?$stream_output_adapter@_W@__crt_stdio_output@@@2@@__crt_stdio_output@@AEAA_NXZ@@?$positional_parameter_base@_WV?$stream_output_adapter@_W@__crt_stdio_output@@@__crt_stdio_output@@CA?AW4parameter_type@01@PEAUansi_string@?1??type_case_Z@?$output_processor@_WV?$stream_output_adapter@_W@__crt_stdio_output@@V?$positional_parameter_base@_WV?$stream_output_adapter@_W@__crt_stdio_output@@@2@@1@AEAA_NXZ@@Z 0000000140026214 f i libucrt:output.obj
 0001:0002521c       ??$get_parameter_type@Uansi_string@?1??type_case_Z@?$output_processor@_WV?$string_output_adapter@_W@__crt_stdio_output@@V?$positional_parameter_base@_WV?$string_output_adapter@_W@__crt_stdio_output@@@2@@__crt_stdio_output@@AEAA_NXZ@@?$positional_parameter_base@_WV?$string_output_adapter@_W@__crt_stdio_output@@@__crt_stdio_output@@CA?AW4parameter_type@01@PEAUansi_string@?1??type_case_Z@?$output_processor@_WV?$string_output_adapter@_W@__crt_stdio_output@@V?$positional_parameter_base@_WV?$string_output_adapter@_W@__crt_stdio_output@@@2@@1@AEAA_NXZ@@Z 000000014002621c f i libucrt:output.obj
 0001:00025224       ??$get_parameter_type@X@?$positional_parameter_base@DV?$stream_output_adapter@D@__crt_stdio_output@@@__crt_stdio_output@@CA?AW4parameter_type@01@PEAX@Z 0000000140026224 f i libucrt:output.obj
 0001:0002522c       ??$get_parameter_type@X@?$positional_parameter_base@DV?$string_output_adapter@D@__crt_stdio_output@@@__crt_stdio_output@@CA?AW4parameter_type@01@PEAX@Z 000000014002622c f i libucrt:output.obj
 0001:00025234       ??$get_parameter_type@X@?$positional_parameter_base@_WV?$stream_output_adapter@_W@__crt_stdio_output@@@__crt_stdio_output@@CA?AW4parameter_type@01@PEAX@Z 0000000140026234 f i libucrt:output.obj
 0001:0002523c       ??$get_parameter_type@X@?$positional_parameter_base@_WV?$string_output_adapter@_W@__crt_stdio_output@@@__crt_stdio_output@@CA?AW4parameter_type@01@PEAX@Z 000000014002623c f i libucrt:output.obj
 0001:00025244       ??$is_character_specifier@D@?$positional_parameter_base@DV?$stream_output_adapter@D@__crt_stdio_output@@@__crt_stdio_output@@CA_ND@Z 0000000140026244 f i libucrt:output.obj
 0001:00025250       ??$is_character_specifier@D@?$positional_parameter_base@DV?$string_output_adapter@D@__crt_stdio_output@@@__crt_stdio_output@@CA_ND@Z 0000000140026250 f i libucrt:output.obj
 0001:0002525c       ??$is_character_specifier@_W@?$positional_parameter_base@_WV?$stream_output_adapter@_W@__crt_stdio_output@@@__crt_stdio_output@@CA_N_W@Z 000000014002625c f i libucrt:output.obj
 0001:00025270       ??$is_character_specifier@_W@?$positional_parameter_base@_WV?$string_output_adapter@_W@__crt_stdio_output@@@__crt_stdio_output@@CA_N_W@Z 0000000140026270 f i libucrt:output.obj
 0001:00025284       ??$is_integral_specifier@D@?$positional_parameter_base@DV?$stream_output_adapter@D@__crt_stdio_output@@@__crt_stdio_output@@CA_ND@Z 0000000140026284 f i libucrt:output.obj
 0001:000252b0       ??$is_integral_specifier@D@?$positional_parameter_base@DV?$string_output_adapter@D@__crt_stdio_output@@@__crt_stdio_output@@CA_ND@Z 00000001400262b0 f i libucrt:output.obj
 0001:000252dc       ??$is_integral_specifier@_W@?$positional_parameter_base@_WV?$stream_output_adapter@_W@__crt_stdio_output@@@__crt_stdio_output@@CA_N_W@Z 00000001400262dc f i libucrt:output.obj
 0001:0002530c       ??$is_integral_specifier@_W@?$positional_parameter_base@_WV?$string_output_adapter@_W@__crt_stdio_output@@@__crt_stdio_output@@CA_N_W@Z 000000014002630c f i libucrt:output.obj
 0001:0002533c       ??$is_overflow_condition@K@__crt_strtox@@YA_NIK@Z 000000014002633c f i libucrt:output.obj
 0001:0002536c       ??$is_pointer_specifier@D@?$positional_parameter_base@DV?$stream_output_adapter@D@__crt_stdio_output@@@__crt_stdio_output@@CA_ND@Z 000000014002636c f i libucrt:output.obj
 0001:00025374       ??$is_pointer_specifier@D@?$positional_parameter_base@DV?$string_output_adapter@D@__crt_stdio_output@@@__crt_stdio_output@@CA_ND@Z 0000000140026374 f i libucrt:output.obj
 0001:0002537c       ??$is_pointer_specifier@_W@?$positional_parameter_base@_WV?$stream_output_adapter@_W@__crt_stdio_output@@@__crt_stdio_output@@CA_N_W@Z 000000014002637c f i libucrt:output.obj
 0001:00025388       ??$is_pointer_specifier@_W@?$positional_parameter_base@_WV?$string_output_adapter@_W@__crt_stdio_output@@@__crt_stdio_output@@CA_N_W@Z 0000000140026388 f i libucrt:output.obj
 0001:00025394       ??$is_string_specifier@D@?$positional_parameter_base@DV?$stream_output_adapter@D@__crt_stdio_output@@@__crt_stdio_output@@CA_ND@Z 0000000140026394 f i libucrt:output.obj
 0001:000253a0       ??$is_string_specifier@D@?$positional_parameter_base@DV?$string_output_adapter@D@__crt_stdio_output@@@__crt_stdio_output@@CA_ND@Z 00000001400263a0 f i libucrt:output.obj
 0001:000253ac       ??$is_string_specifier@_W@?$positional_parameter_base@_WV?$stream_output_adapter@_W@__crt_stdio_output@@@__crt_stdio_output@@CA_N_W@Z 00000001400263ac f i libucrt:output.obj
 0001:000253c0       ??$is_string_specifier@_W@?$positional_parameter_base@_WV?$string_output_adapter@_W@__crt_stdio_output@@@__crt_stdio_output@@CA_N_W@Z 00000001400263c0 f i libucrt:output.obj
 0001:000253d4       ??$is_wide_character_specifier@D@__crt_stdio_output@@YA_N_KDW4length_modifier@0@@Z 00000001400263d4 f i libucrt:output.obj
 0001:00025408       ??$is_wide_character_specifier@_W@__crt_stdio_output@@YA_N_K_WW4length_modifier@0@@Z 0000000140026408 f i libucrt:output.obj
 0001:00025458       ??$make_c_string_character_source@DPEAPEAD@__crt_strtox@@YA?AV?$c_string_character_source@D@0@QEBDQEAPEAD@Z 0000000140026458 f i libucrt:output.obj
 0001:00025470       ??$make_c_string_character_source@_WPEAPEA_W@__crt_strtox@@YA?AV?$c_string_character_source@_W@0@QEB_WQEAPEA_W@Z 0000000140026470 f i libucrt:output.obj
 0001:00025488       ??$parse_integer@KV?$c_string_character_source@D@__crt_strtox@@$0A@@__crt_strtox@@YAKAEAV__crt_cached_ptd_host@@V?$c_string_character_source@D@0@H_N@Z 0000000140026488 f i libucrt:output.obj
 0001:000257e8       ??$parse_integer@KV?$c_string_character_source@_W@__crt_strtox@@$0A@@__crt_strtox@@YAKAEAV__crt_cached_ptd_host@@V?$c_string_character_source@_W@0@H_N@Z 00000001400267e8 f i libucrt:output.obj
 0001:0002613c       ??$peek_va_arg@C@__crt_stdio_output@@YACPEAD@Z 000000014002713c f i libucrt:output.obj
 0001:00026140       ??$peek_va_arg@E@__crt_stdio_output@@YAEPEAD@Z 0000000140027140 f i libucrt:output.obj
 0001:00026144       ??$peek_va_arg@F@__crt_stdio_output@@YAFPEAD@Z 0000000140027144 f i libucrt:output.obj
 0001:00026148       ??$peek_va_arg@G@__crt_stdio_output@@YAGPEAD@Z 0000000140027148 f i libucrt:output.obj
 0001:0002614c       ??$peek_va_arg@H@__crt_stdio_output@@YAHPEAD@Z 000000014002714c f i libucrt:output.obj
 0001:00026150       ??$peek_va_arg@I@__crt_stdio_output@@YAIPEAD@Z 0000000140027150 f i libucrt:output.obj
 0001:00026154       ??$peek_va_arg@PEAD@__crt_stdio_output@@YAPEADPEAD@Z 0000000140027154 f i libucrt:output.obj
 0001:00026158       ??$peek_va_arg@PEAUansi_string@?1??type_case_Z@?$output_processor@DV?$stream_output_adapter@D@__crt_stdio_output@@V?$positional_parameter_base@DV?$stream_output_adapter@D@__crt_stdio_output@@@2@@__crt_stdio_output@@AEAA_NXZ@@__crt_stdio_output@@YAPEAUansi_string@?1??type_case_Z@?$output_processor@DV?$stream_output_adapter@D@__crt_stdio_output@@V?$positional_parameter_base@DV?$stream_output_adapter@D@__crt_stdio_output@@@2@@0@AEAA_NXZ@PEAD@Z 0000000140027158 f i libucrt:output.obj
 0001:0002615c       ??$peek_va_arg@PEAUansi_string@?1??type_case_Z@?$output_processor@DV?$string_output_adapter@D@__crt_stdio_output@@V?$positional_parameter_base@DV?$string_output_adapter@D@__crt_stdio_output@@@2@@__crt_stdio_output@@AEAA_NXZ@@__crt_stdio_output@@YAPEAUansi_string@?1??type_case_Z@?$output_processor@DV?$string_output_adapter@D@__crt_stdio_output@@V?$positional_parameter_base@DV?$string_output_adapter@D@__crt_stdio_output@@@2@@0@AEAA_NXZ@PEAD@Z 000000014002715c f i libucrt:output.obj
 0001:00026160       ??$peek_va_arg@PEAUansi_string@?1??type_case_Z@?$output_processor@_WV?$stream_output_adapter@_W@__crt_stdio_output@@V?$positional_parameter_base@_WV?$stream_output_adapter@_W@__crt_stdio_output@@@2@@__crt_stdio_output@@AEAA_NXZ@@__crt_stdio_output@@YAPEAUansi_string@?1??type_case_Z@?$output_processor@_WV?$stream_output_adapter@_W@__crt_stdio_output@@V?$positional_parameter_base@_WV?$stream_output_adapter@_W@__crt_stdio_output@@@2@@0@AEAA_NXZ@PEAD@Z 0000000140027160 f i libucrt:output.obj
 0001:00026164       ??$peek_va_arg@PEAUansi_string@?1??type_case_Z@?$output_processor@_WV?$string_output_adapter@_W@__crt_stdio_output@@V?$positional_parameter_base@_WV?$string_output_adapter@_W@__crt_stdio_output@@@2@@__crt_stdio_output@@AEAA_NXZ@@__crt_stdio_output@@YAPEAUansi_string@?1??type_case_Z@?$output_processor@_WV?$string_output_adapter@_W@__crt_stdio_output@@V?$positional_parameter_base@_WV?$string_output_adapter@_W@__crt_stdio_output@@@2@@0@AEAA_NXZ@PEAD@Z 0000000140027164 f i libucrt:output.obj
 0001:00026168       ??$peek_va_arg@PEAX@__crt_stdio_output@@YAPEAXPEAD@Z 0000000140027168 f i libucrt:output.obj
 0001:0002616c       ??$peek_va_arg@U_CRT_DOUBLE@@@__crt_stdio_output@@YA?AU_CRT_DOUBLE@@PEAD@Z 000000014002716c f i libucrt:output.obj
 0001:00026170       ??$peek_va_arg@_J@__crt_stdio_output@@YA_JPEAD@Z 0000000140027170 f i libucrt:output.obj
 0001:00026174       ??$peek_va_arg@_K@__crt_stdio_output@@YA_KPEAD@Z 0000000140027174 f i libucrt:output.obj
 0001:00026178       ??$peek_va_arg@_W@__crt_stdio_output@@YA_WPEAD@Z 0000000140027178 f i libucrt:output.obj
 0001:0002617c       ??$puttc_nolock_internal@AEBDPEAU_iobuf@@AEAV__crt_cached_ptd_host@@@?$__crt_char_traits@D@@SAHAEBD$$QEAPEAU_iobuf@@AEAV__crt_cached_ptd_host@@@Z 000000014002717c f i libucrt:output.obj
 0001:0002618c       ??$puttc_nolock_internal@AEB_WPEAU_iobuf@@AEAV__crt_cached_ptd_host@@@?$__crt_char_traits@_W@@SAGAEB_W$$QEAPEAU_iobuf@@AEAV__crt_cached_ptd_host@@@Z 000000014002718c f i libucrt:output.obj
 0001:0002619c       ??$read_va_arg@C@__crt_stdio_output@@YACAEAPEAD@Z 000000014002719c f i libucrt:output.obj
 0001:000261ac       ??$read_va_arg@E@__crt_stdio_output@@YAEAEAPEAD@Z 00000001400271ac f i libucrt:output.obj
 0001:000261bc       ??$read_va_arg@F@__crt_stdio_output@@YAFAEAPEAD@Z 00000001400271bc f i libucrt:output.obj
 0001:000261d0       ??$read_va_arg@G@__crt_stdio_output@@YAGAEAPEAD@Z 00000001400271d0 f i libucrt:output.obj
 0001:000261e4       ??$read_va_arg@H@__crt_stdio_output@@YAHAEAPEAD@Z 00000001400271e4 f i libucrt:output.obj
 0001:000261f4       ??$read_va_arg@I@__crt_stdio_output@@YAIAEAPEAD@Z 00000001400271f4 f i libucrt:output.obj
 0001:00026204       ??$read_va_arg@PEAD@__crt_stdio_output@@YAPEADAEAPEAD@Z 0000000140027204 f i libucrt:output.obj
 0001:00026218       ??$read_va_arg@PEAUansi_string@?1??type_case_Z@?$output_processor@DV?$stream_output_adapter@D@__crt_stdio_output@@V?$format_validation_base@DV?$stream_output_adapter@D@__crt_stdio_output@@@2@@__crt_stdio_output@@AEAA_NXZ@@__crt_stdio_output@@YAPEAUansi_string@?1??type_case_Z@?$output_processor@DV?$stream_output_adapter@D@__crt_stdio_output@@V?$format_validation_base@DV?$stream_output_adapter@D@__crt_stdio_output@@@2@@0@AEAA_NXZ@AEAPEAD@Z 0000000140027218 f i libucrt:output.obj
 0001:0002622c       ??$read_va_arg@PEAUansi_string@?1??type_case_Z@?$output_processor@DV?$stream_output_adapter@D@__crt_stdio_output@@V?$positional_parameter_base@DV?$stream_output_adapter@D@__crt_stdio_output@@@2@@__crt_stdio_output@@AEAA_NXZ@@__crt_stdio_output@@YAPEAUansi_string@?1??type_case_Z@?$output_processor@DV?$stream_output_adapter@D@__crt_stdio_output@@V?$positional_parameter_base@DV?$stream_output_adapter@D@__crt_stdio_output@@@2@@0@AEAA_NXZ@AEAPEAD@Z 000000014002722c f i libucrt:output.obj
 0001:00026240       ??$read_va_arg@PEAUansi_string@?1??type_case_Z@?$output_processor@DV?$stream_output_adapter@D@__crt_stdio_output@@V?$standard_base@DV?$stream_output_adapter@D@__crt_stdio_output@@@2@@__crt_stdio_output@@AEAA_NXZ@@__crt_stdio_output@@YAPEAUansi_string@?1??type_case_Z@?$output_processor@DV?$stream_output_adapter@D@__crt_stdio_output@@V?$standard_base@DV?$stream_output_adapter@D@__crt_stdio_output@@@2@@0@AEAA_NXZ@AEAPEAD@Z 0000000140027240 f i libucrt:output.obj
 0001:00026254       ??$read_va_arg@PEAUansi_string@?1??type_case_Z@?$output_processor@DV?$string_output_adapter@D@__crt_stdio_output@@V?$format_validation_base@DV?$string_output_adapter@D@__crt_stdio_output@@@2@@__crt_stdio_output@@AEAA_NXZ@@__crt_stdio_output@@YAPEAUansi_string@?1??type_case_Z@?$output_processor@DV?$string_output_adapter@D@__crt_stdio_output@@V?$format_validation_base@DV?$string_output_adapter@D@__crt_stdio_output@@@2@@0@AEAA_NXZ@AEAPEAD@Z 0000000140027254 f i libucrt:output.obj
 0001:00026268       ??$read_va_arg@PEAUansi_string@?1??type_case_Z@?$output_processor@DV?$string_output_adapter@D@__crt_stdio_output@@V?$positional_parameter_base@DV?$string_output_adapter@D@__crt_stdio_output@@@2@@__crt_stdio_output@@AEAA_NXZ@@__crt_stdio_output@@YAPEAUansi_string@?1??type_case_Z@?$output_processor@DV?$string_output_adapter@D@__crt_stdio_output@@V?$positional_parameter_base@DV?$string_output_adapter@D@__crt_stdio_output@@@2@@0@AEAA_NXZ@AEAPEAD@Z 0000000140027268 f i libucrt:output.obj
 0001:0002627c       ??$read_va_arg@PEAUansi_string@?1??type_case_Z@?$output_processor@DV?$string_output_adapter@D@__crt_stdio_output@@V?$standard_base@DV?$string_output_adapter@D@__crt_stdio_output@@@2@@__crt_stdio_output@@AEAA_NXZ@@__crt_stdio_output@@YAPEAUansi_string@?1??type_case_Z@?$output_processor@DV?$string_output_adapter@D@__crt_stdio_output@@V?$standard_base@DV?$string_output_adapter@D@__crt_stdio_output@@@2@@0@AEAA_NXZ@AEAPEAD@Z 000000014002727c f i libucrt:output.obj
 0001:00026290       ??$read_va_arg@PEAUansi_string@?1??type_case_Z@?$output_processor@_WV?$stream_output_adapter@_W@__crt_stdio_output@@V?$format_validation_base@_WV?$stream_output_adapter@_W@__crt_stdio_output@@@2@@__crt_stdio_output@@AEAA_NXZ@@__crt_stdio_output@@YAPEAUansi_string@?1??type_case_Z@?$output_processor@_WV?$stream_output_adapter@_W@__crt_stdio_output@@V?$format_validation_base@_WV?$stream_output_adapter@_W@__crt_stdio_output@@@2@@0@AEAA_NXZ@AEAPEAD@Z 0000000140027290 f i libucrt:output.obj
 0001:000262a4       ??$read_va_arg@PEAUansi_string@?1??type_case_Z@?$output_processor@_WV?$stream_output_adapter@_W@__crt_stdio_output@@V?$positional_parameter_base@_WV?$stream_output_adapter@_W@__crt_stdio_output@@@2@@__crt_stdio_output@@AEAA_NXZ@@__crt_stdio_output@@YAPEAUansi_string@?1??type_case_Z@?$output_processor@_WV?$stream_output_adapter@_W@__crt_stdio_output@@V?$positional_parameter_base@_WV?$stream_output_adapter@_W@__crt_stdio_output@@@2@@0@AEAA_NXZ@AEAPEAD@Z 00000001400272a4 f i libucrt:output.obj
 0001:000262b8       ??$read_va_arg@PEAUansi_string@?1??type_case_Z@?$output_processor@_WV?$stream_output_adapter@_W@__crt_stdio_output@@V?$standard_base@_WV?$stream_output_adapter@_W@__crt_stdio_output@@@2@@__crt_stdio_output@@AEAA_NXZ@@__crt_stdio_output@@YAPEAUansi_string@?1??type_case_Z@?$output_processor@_WV?$stream_output_adapter@_W@__crt_stdio_output@@V?$standard_base@_WV?$stream_output_adapter@_W@__crt_stdio_output@@@2@@0@AEAA_NXZ@AEAPEAD@Z 00000001400272b8 f i libucrt:output.obj
 0001:000262cc       ??$read_va_arg@PEAUansi_string@?1??type_case_Z@?$output_processor@_WV?$string_output_adapter@_W@__crt_stdio_output@@V?$format_validation_base@_WV?$string_output_adapter@_W@__crt_stdio_output@@@2@@__crt_stdio_output@@AEAA_NXZ@@__crt_stdio_output@@YAPEAUansi_string@?1??type_case_Z@?$output_processor@_WV?$string_output_adapter@_W@__crt_stdio_output@@V?$format_validation_base@_WV?$string_output_adapter@_W@__crt_stdio_output@@@2@@0@AEAA_NXZ@AEAPEAD@Z 00000001400272cc f i libucrt:output.obj
 0001:000262e0       ??$read_va_arg@PEAUansi_string@?1??type_case_Z@?$output_processor@_WV?$string_output_adapter@_W@__crt_stdio_output@@V?$positional_parameter_base@_WV?$string_output_adapter@_W@__crt_stdio_output@@@2@@__crt_stdio_output@@AEAA_NXZ@@__crt_stdio_output@@YAPEAUansi_string@?1??type_case_Z@?$output_processor@_WV?$string_output_adapter@_W@__crt_stdio_output@@V?$positional_parameter_base@_WV?$string_output_adapter@_W@__crt_stdio_output@@@2@@0@AEAA_NXZ@AEAPEAD@Z 00000001400272e0 f i libucrt:output.obj
 0001:000262f4       ??$read_va_arg@PEAUansi_string@?1??type_case_Z@?$output_processor@_WV?$string_output_adapter@_W@__crt_stdio_output@@V?$standard_base@_WV?$string_output_adapter@_W@__crt_stdio_output@@@2@@__crt_stdio_output@@AEAA_NXZ@@__crt_stdio_output@@YAPEAUansi_string@?1??type_case_Z@?$output_processor@_WV?$string_output_adapter@_W@__crt_stdio_output@@V?$standard_base@_WV?$string_output_adapter@_W@__crt_stdio_output@@@2@@0@AEAA_NXZ@AEAPEAD@Z 00000001400272f4 f i libucrt:output.obj
 0001:00026308       ??$read_va_arg@PEAX@__crt_stdio_output@@YAPEAXAEAPEAD@Z 0000000140027308 f i libucrt:output.obj
 0001:0002631c       ??$read_va_arg@U_CRT_DOUBLE@@@__crt_stdio_output@@YA?AU_CRT_DOUBLE@@AEAPEAD@Z 000000014002731c f i libucrt:output.obj
 0001:00026330       ??$read_va_arg@_J@__crt_stdio_output@@YA_JAEAPEAD@Z 0000000140027330 f i libucrt:output.obj
 0001:00026344       ??$read_va_arg@_K@__crt_stdio_output@@YA_KAEAPEAD@Z 0000000140027344 f i libucrt:output.obj
 0001:00026358       ??$read_va_arg@_W@__crt_stdio_output@@YA_WAEAPEAD@Z 0000000140027358 f i libucrt:output.obj
 0001:0002636c       ??$scratch_count@D@formatting_buffer@__crt_stdio_output@@QEBA_KXZ 000000014002736c f i libucrt:output.obj
 0001:00026390       ??$scratch_data@D@formatting_buffer@__crt_stdio_output@@QEAAPEADXZ 0000000140027390 f i libucrt:output.obj
 0001:000263bc       ??$type_case_integer@$07@?$output_processor@DV?$stream_output_adapter@D@__crt_stdio_output@@V?$format_validation_base@DV?$stream_output_adapter@D@__crt_stdio_output@@@2@@__crt_stdio_output@@AEAA_N_N@Z 00000001400273bc f i libucrt:output.obj
 0001:00026640       ??$type_case_integer@$07@?$output_processor@DV?$stream_output_adapter@D@__crt_stdio_output@@V?$positional_parameter_base@DV?$stream_output_adapter@D@__crt_stdio_output@@@2@@__crt_stdio_output@@AEAA_N_N@Z 0000000140027640 f i libucrt:output.obj
 0001:000268f8       ??$type_case_integer@$07@?$output_processor@DV?$stream_output_adapter@D@__crt_stdio_output@@V?$standard_base@DV?$stream_output_adapter@D@__crt_stdio_output@@@2@@__crt_stdio_output@@AEAA_N_N@Z 00000001400278f8 f i libucrt:output.obj
 0001:00026b7c       ??$type_case_integer@$07@?$output_processor@DV?$string_output_adapter@D@__crt_stdio_output@@V?$format_validation_base@DV?$string_output_adapter@D@__crt_stdio_output@@@2@@__crt_stdio_output@@AEAA_N_N@Z 0000000140027b7c f i libucrt:output.obj
 0001:00026e00       ??$type_case_integer@$07@?$output_processor@DV?$string_output_adapter@D@__crt_stdio_output@@V?$positional_parameter_base@DV?$string_output_adapter@D@__crt_stdio_output@@@2@@__crt_stdio_output@@AEAA_N_N@Z 0000000140027e00 f i libucrt:output.obj
 0001:000270b8       ??$type_case_integer@$07@?$output_processor@DV?$string_output_adapter@D@__crt_stdio_output@@V?$standard_base@DV?$string_output_adapter@D@__crt_stdio_output@@@2@@__crt_stdio_output@@AEAA_N_N@Z 00000001400280b8 f i libucrt:output.obj
 0001:0002733c       ??$type_case_integer@$07@?$output_processor@_WV?$stream_output_adapter@_W@__crt_stdio_output@@V?$format_validation_base@_WV?$stream_output_adapter@_W@__crt_stdio_output@@@2@@__crt_stdio_output@@AEAA_N_N@Z 000000014002833c f i libucrt:output.obj
 0001:000275c8       ??$type_case_integer@$07@?$output_processor@_WV?$stream_output_adapter@_W@__crt_stdio_output@@V?$positional_parameter_base@_WV?$stream_output_adapter@_W@__crt_stdio_output@@@2@@__crt_stdio_output@@AEAA_N_N@Z 00000001400285c8 f i libucrt:output.obj
 0001:00027888       ??$type_case_integer@$07@?$output_processor@_WV?$stream_output_adapter@_W@__crt_stdio_output@@V?$standard_base@_WV?$stream_output_adapter@_W@__crt_stdio_output@@@2@@__crt_stdio_output@@AEAA_N_N@Z 0000000140028888 f i libucrt:output.obj
 0001:00027b14       ??$type_case_integer@$07@?$output_processor@_WV?$string_output_adapter@_W@__crt_stdio_output@@V?$format_validation_base@_WV?$string_output_adapter@_W@__crt_stdio_output@@@2@@__crt_stdio_output@@AEAA_N_N@Z 0000000140028b14 f i libucrt:output.obj
 0001:00027da0       ??$type_case_integer@$07@?$output_processor@_WV?$string_output_adapter@_W@__crt_stdio_output@@V?$positional_parameter_base@_WV?$string_output_adapter@_W@__crt_stdio_output@@@2@@__crt_stdio_output@@AEAA_N_N@Z 0000000140028da0 f i libucrt:output.obj
 0001:00028060       ??$type_case_integer@$07@?$output_processor@_WV?$string_output_adapter@_W@__crt_stdio_output@@V?$standard_base@_WV?$string_output_adapter@_W@__crt_stdio_output@@@2@@__crt_stdio_output@@AEAA_N_N@Z 0000000140029060 f i libucrt:output.obj
 0001:000282ec       ??$type_case_integer@$09@?$output_processor@DV?$stream_output_adapter@D@__crt_stdio_output@@V?$format_validation_base@DV?$stream_output_adapter@D@__crt_stdio_output@@@2@@__crt_stdio_output@@AEAA_N_N@Z 00000001400292ec f i libucrt:output.obj
 0001:00028570       ??$type_case_integer@$09@?$output_processor@DV?$stream_output_adapter@D@__crt_stdio_output@@V?$positional_parameter_base@DV?$stream_output_adapter@D@__crt_stdio_output@@@2@@__crt_stdio_output@@AEAA_N_N@Z 0000000140029570 f i libucrt:output.obj
 0001:00028828       ??$type_case_integer@$09@?$output_processor@DV?$stream_output_adapter@D@__crt_stdio_output@@V?$standard_base@DV?$stream_output_adapter@D@__crt_stdio_output@@@2@@__crt_stdio_output@@AEAA_N_N@Z 0000000140029828 f i libucrt:output.obj
 0001:00028aac       ??$type_case_integer@$09@?$output_processor@DV?$string_output_adapter@D@__crt_stdio_output@@V?$format_validation_base@DV?$string_output_adapter@D@__crt_stdio_output@@@2@@__crt_stdio_output@@AEAA_N_N@Z 0000000140029aac f i libucrt:output.obj
 0001:00028d30       ??$type_case_integer@$09@?$output_processor@DV?$string_output_adapter@D@__crt_stdio_output@@V?$positional_parameter_base@DV?$string_output_adapter@D@__crt_stdio_output@@@2@@__crt_stdio_output@@AEAA_N_N@Z 0000000140029d30 f i libucrt:output.obj
 0001:00028fe8       ??$type_case_integer@$09@?$output_processor@DV?$string_output_adapter@D@__crt_stdio_output@@V?$standard_base@DV?$string_output_adapter@D@__crt_stdio_output@@@2@@__crt_stdio_output@@AEAA_N_N@Z 0000000140029fe8 f i libucrt:output.obj
 0001:0002926c       ??$type_case_integer@$09@?$output_processor@_WV?$stream_output_adapter@_W@__crt_stdio_output@@V?$format_validation_base@_WV?$stream_output_adapter@_W@__crt_stdio_output@@@2@@__crt_stdio_output@@AEAA_N_N@Z 000000014002a26c f i libucrt:output.obj
 0001:000294f8       ??$type_case_integer@$09@?$output_processor@_WV?$stream_output_adapter@_W@__crt_stdio_output@@V?$positional_parameter_base@_WV?$stream_output_adapter@_W@__crt_stdio_output@@@2@@__crt_stdio_output@@AEAA_N_N@Z 000000014002a4f8 f i libucrt:output.obj
 0001:000297b8       ??$type_case_integer@$09@?$output_processor@_WV?$stream_output_adapter@_W@__crt_stdio_output@@V?$standard_base@_WV?$stream_output_adapter@_W@__crt_stdio_output@@@2@@__crt_stdio_output@@AEAA_N_N@Z 000000014002a7b8 f i libucrt:output.obj
 0001:00029a44       ??$type_case_integer@$09@?$output_processor@_WV?$string_output_adapter@_W@__crt_stdio_output@@V?$format_validation_base@_WV?$string_output_adapter@_W@__crt_stdio_output@@@2@@__crt_stdio_output@@AEAA_N_N@Z 000000014002aa44 f i libucrt:output.obj
 0001:00029cd0       ??$type_case_integer@$09@?$output_processor@_WV?$string_output_adapter@_W@__crt_stdio_output@@V?$positional_parameter_base@_WV?$string_output_adapter@_W@__crt_stdio_output@@@2@@__crt_stdio_output@@AEAA_N_N@Z 000000014002acd0 f i libucrt:output.obj
 0001:00029f90       ??$type_case_integer@$09@?$output_processor@_WV?$string_output_adapter@_W@__crt_stdio_output@@V?$standard_base@_WV?$string_output_adapter@_W@__crt_stdio_output@@@2@@__crt_stdio_output@@AEAA_N_N@Z 000000014002af90 f i libucrt:output.obj
 0001:0002a21c       ??$type_case_integer@$0BA@@?$output_processor@DV?$stream_output_adapter@D@__crt_stdio_output@@V?$format_validation_base@DV?$stream_output_adapter@D@__crt_stdio_output@@@2@@__crt_stdio_output@@AEAA_N_N@Z 000000014002b21c f i libucrt:output.obj
 0001:0002a4a0       ??$type_case_integer@$0BA@@?$output_processor@DV?$stream_output_adapter@D@__crt_stdio_output@@V?$positional_parameter_base@DV?$stream_output_adapter@D@__crt_stdio_output@@@2@@__crt_stdio_output@@AEAA_N_N@Z 000000014002b4a0 f i libucrt:output.obj
 0001:0002a758       ??$type_case_integer@$0BA@@?$output_processor@DV?$stream_output_adapter@D@__crt_stdio_output@@V?$standard_base@DV?$stream_output_adapter@D@__crt_stdio_output@@@2@@__crt_stdio_output@@AEAA_N_N@Z 000000014002b758 f i libucrt:output.obj
 0001:0002a9dc       ??$type_case_integer@$0BA@@?$output_processor@DV?$string_output_adapter@D@__crt_stdio_output@@V?$format_validation_base@DV?$string_output_adapter@D@__crt_stdio_output@@@2@@__crt_stdio_output@@AEAA_N_N@Z 000000014002b9dc f i libucrt:output.obj
 0001:0002ac60       ??$type_case_integer@$0BA@@?$output_processor@DV?$string_output_adapter@D@__crt_stdio_output@@V?$positional_parameter_base@DV?$string_output_adapter@D@__crt_stdio_output@@@2@@__crt_stdio_output@@AEAA_N_N@Z 000000014002bc60 f i libucrt:output.obj
 0001:0002af18       ??$type_case_integer@$0BA@@?$output_processor@DV?$string_output_adapter@D@__crt_stdio_output@@V?$standard_base@DV?$string_output_adapter@D@__crt_stdio_output@@@2@@__crt_stdio_output@@AEAA_N_N@Z 000000014002bf18 f i libucrt:output.obj
 0001:0002b19c       ??$type_case_integer@$0BA@@?$output_processor@_WV?$stream_output_adapter@_W@__crt_stdio_output@@V?$format_validation_base@_WV?$stream_output_adapter@_W@__crt_stdio_output@@@2@@__crt_stdio_output@@AEAA_N_N@Z 000000014002c19c f i libucrt:output.obj
 0001:0002b428       ??$type_case_integer@$0BA@@?$output_processor@_WV?$stream_output_adapter@_W@__crt_stdio_output@@V?$positional_parameter_base@_WV?$stream_output_adapter@_W@__crt_stdio_output@@@2@@__crt_stdio_output@@AEAA_N_N@Z 000000014002c428 f i libucrt:output.obj
 0001:0002b6e8       ??$type_case_integer@$0BA@@?$output_processor@_WV?$stream_output_adapter@_W@__crt_stdio_output@@V?$standard_base@_WV?$stream_output_adapter@_W@__crt_stdio_output@@@2@@__crt_stdio_output@@AEAA_N_N@Z 000000014002c6e8 f i libucrt:output.obj
 0001:0002b974       ??$type_case_integer@$0BA@@?$output_processor@_WV?$string_output_adapter@_W@__crt_stdio_output@@V?$format_validation_base@_WV?$string_output_adapter@_W@__crt_stdio_output@@@2@@__crt_stdio_output@@AEAA_N_N@Z 000000014002c974 f i libucrt:output.obj
 0001:0002bc00       ??$type_case_integer@$0BA@@?$output_processor@_WV?$string_output_adapter@_W@__crt_stdio_output@@V?$positional_parameter_base@_WV?$string_output_adapter@_W@__crt_stdio_output@@@2@@__crt_stdio_output@@AEAA_N_N@Z 000000014002cc00 f i libucrt:output.obj
 0001:0002bec0       ??$type_case_integer@$0BA@@?$output_processor@_WV?$string_output_adapter@_W@__crt_stdio_output@@V?$standard_base@_WV?$string_output_adapter@_W@__crt_stdio_output@@@2@@__crt_stdio_output@@AEAA_N_N@Z 000000014002cec0 f i libucrt:output.obj
 0001:0002c14c       ??$type_case_integer_parse_into_buffer@I$07@?$output_processor@DV?$stream_output_adapter@D@__crt_stdio_output@@V?$format_validation_base@DV?$stream_output_adapter@D@__crt_stdio_output@@@2@@__crt_stdio_output@@AEAAXI_N@Z 000000014002d14c f i libucrt:output.obj
 0001:0002c1d4       ??$type_case_integer_parse_into_buffer@I$07@?$output_processor@DV?$stream_output_adapter@D@__crt_stdio_output@@V?$positional_parameter_base@DV?$stream_output_adapter@D@__crt_stdio_output@@@2@@__crt_stdio_output@@AEAAXI_N@Z 000000014002d1d4 f i libucrt:output.obj
 0001:0002c25c       ??$type_case_integer_parse_into_buffer@I$07@?$output_processor@DV?$stream_output_adapter@D@__crt_stdio_output@@V?$standard_base@DV?$stream_output_adapter@D@__crt_stdio_output@@@2@@__crt_stdio_output@@AEAAXI_N@Z 000000014002d25c f i libucrt:output.obj
 0001:0002c2e4       ??$type_case_integer_parse_into_buffer@I$07@?$output_processor@DV?$string_output_adapter@D@__crt_stdio_output@@V?$format_validation_base@DV?$string_output_adapter@D@__crt_stdio_output@@@2@@__crt_stdio_output@@AEAAXI_N@Z 000000014002d2e4 f i libucrt:output.obj
 0001:0002c36c       ??$type_case_integer_parse_into_buffer@I$07@?$output_processor@DV?$string_output_adapter@D@__crt_stdio_output@@V?$positional_parameter_base@DV?$string_output_adapter@D@__crt_stdio_output@@@2@@__crt_stdio_output@@AEAAXI_N@Z 000000014002d36c f i libucrt:output.obj
 0001:0002c3f4       ??$type_case_integer_parse_into_buffer@I$07@?$output_processor@DV?$string_output_adapter@D@__crt_stdio_output@@V?$standard_base@DV?$string_output_adapter@D@__crt_stdio_output@@@2@@__crt_stdio_output@@AEAAXI_N@Z 000000014002d3f4 f i libucrt:output.obj
 0001:0002c47c       ??$type_case_integer_parse_into_buffer@I$07@?$output_processor@_WV?$stream_output_adapter@_W@__crt_stdio_output@@V?$format_validation_base@_WV?$stream_output_adapter@_W@__crt_stdio_output@@@2@@__crt_stdio_output@@AEAAXI_N@Z 000000014002d47c f i libucrt:output.obj
 0001:0002c524       ??$type_case_integer_parse_into_buffer@I$07@?$output_processor@_WV?$stream_output_adapter@_W@__crt_stdio_output@@V?$positional_parameter_base@_WV?$stream_output_adapter@_W@__crt_stdio_output@@@2@@__crt_stdio_output@@AEAAXI_N@Z 000000014002d524 f i libucrt:output.obj
 0001:0002c5cc       ??$type_case_integer_parse_into_buffer@I$07@?$output_processor@_WV?$stream_output_adapter@_W@__crt_stdio_output@@V?$standard_base@_WV?$stream_output_adapter@_W@__crt_stdio_output@@@2@@__crt_stdio_output@@AEAAXI_N@Z 000000014002d5cc f i libucrt:output.obj
 0001:0002c674       ??$type_case_integer_parse_into_buffer@I$07@?$output_processor@_WV?$string_output_adapter@_W@__crt_stdio_output@@V?$format_validation_base@_WV?$string_output_adapter@_W@__crt_stdio_output@@@2@@__crt_stdio_output@@AEAAXI_N@Z 000000014002d674 f i libucrt:output.obj
 0001:0002c71c       ??$type_case_integer_parse_into_buffer@I$07@?$output_processor@_WV?$string_output_adapter@_W@__crt_stdio_output@@V?$positional_parameter_base@_WV?$string_output_adapter@_W@__crt_stdio_output@@@2@@__crt_stdio_output@@AEAAXI_N@Z 000000014002d71c f i libucrt:output.obj
 0001:0002c7c4       ??$type_case_integer_parse_into_buffer@I$07@?$output_processor@_WV?$string_output_adapter@_W@__crt_stdio_output@@V?$standard_base@_WV?$string_output_adapter@_W@__crt_stdio_output@@@2@@__crt_stdio_output@@AEAAXI_N@Z 000000014002d7c4 f i libucrt:output.obj
 0001:0002c86c       ??$type_case_integer_parse_into_buffer@I$09@?$output_processor@DV?$stream_output_adapter@D@__crt_stdio_output@@V?$format_validation_base@DV?$stream_output_adapter@D@__crt_stdio_output@@@2@@__crt_stdio_output@@AEAAXI_N@Z 000000014002d86c f i libucrt:output.obj
 0001:0002c940       ??$type_case_integer_parse_into_buffer@I$09@?$output_processor@DV?$stream_output_adapter@D@__crt_stdio_output@@V?$positional_parameter_base@DV?$stream_output_adapter@D@__crt_stdio_output@@@2@@__crt_stdio_output@@AEAAXI_N@Z 000000014002d940 f i libucrt:output.obj
 0001:0002ca14       ??$type_case_integer_parse_into_buffer@I$09@?$output_processor@DV?$stream_output_adapter@D@__crt_stdio_output@@V?$standard_base@DV?$stream_output_adapter@D@__crt_stdio_output@@@2@@__crt_stdio_output@@AEAAXI_N@Z 000000014002da14 f i libucrt:output.obj
 0001:0002cae8       ??$type_case_integer_parse_into_buffer@I$09@?$output_processor@DV?$string_output_adapter@D@__crt_stdio_output@@V?$format_validation_base@DV?$string_output_adapter@D@__crt_stdio_output@@@2@@__crt_stdio_output@@AEAAXI_N@Z 000000014002dae8 f i libucrt:output.obj
 0001:0002cbbc       ??$type_case_integer_parse_into_buffer@I$09@?$output_processor@DV?$string_output_adapter@D@__crt_stdio_output@@V?$positional_parameter_base@DV?$string_output_adapter@D@__crt_stdio_output@@@2@@__crt_stdio_output@@AEAAXI_N@Z 000000014002dbbc f i libucrt:output.obj
 0001:0002cc90       ??$type_case_integer_parse_into_buffer@I$09@?$output_processor@DV?$string_output_adapter@D@__crt_stdio_output@@V?$standard_base@DV?$string_output_adapter@D@__crt_stdio_output@@@2@@__crt_stdio_output@@AEAAXI_N@Z 000000014002dc90 f i libucrt:output.obj
 0001:0002cd64       ??$type_case_integer_parse_into_buffer@I$09@?$output_processor@_WV?$stream_output_adapter@_W@__crt_stdio_output@@V?$format_validation_base@_WV?$stream_output_adapter@_W@__crt_stdio_output@@@2@@__crt_stdio_output@@AEAAXI_N@Z 000000014002dd64 f i libucrt:output.obj
 0001:0002ce50       ??$type_case_integer_parse_into_buffer@I$09@?$output_processor@_WV?$stream_output_adapter@_W@__crt_stdio_output@@V?$positional_parameter_base@_WV?$stream_output_adapter@_W@__crt_stdio_output@@@2@@__crt_stdio_output@@AEAAXI_N@Z 000000014002de50 f i libucrt:output.obj
 0001:0002cf3c       ??$type_case_integer_parse_into_buffer@I$09@?$output_processor@_WV?$stream_output_adapter@_W@__crt_stdio_output@@V?$standard_base@_WV?$stream_output_adapter@_W@__crt_stdio_output@@@2@@__crt_stdio_output@@AEAAXI_N@Z 000000014002df3c f i libucrt:output.obj
 0001:0002d028       ??$type_case_integer_parse_into_buffer@I$09@?$output_processor@_WV?$string_output_adapter@_W@__crt_stdio_output@@V?$format_validation_base@_WV?$string_output_adapter@_W@__crt_stdio_output@@@2@@__crt_stdio_output@@AEAAXI_N@Z 000000014002e028 f i libucrt:output.obj
 0001:0002d114       ??$type_case_integer_parse_into_buffer@I$09@?$output_processor@_WV?$string_output_adapter@_W@__crt_stdio_output@@V?$positional_parameter_base@_WV?$string_output_adapter@_W@__crt_stdio_output@@@2@@__crt_stdio_output@@AEAAXI_N@Z 000000014002e114 f i libucrt:output.obj
 0001:0002d200       ??$type_case_integer_parse_into_buffer@I$09@?$output_processor@_WV?$string_output_adapter@_W@__crt_stdio_output@@V?$standard_base@_WV?$string_output_adapter@_W@__crt_stdio_output@@@2@@__crt_stdio_output@@AEAAXI_N@Z 000000014002e200 f i libucrt:output.obj
 0001:0002d2ec       ??$type_case_integer_parse_into_buffer@I$0BA@@?$output_processor@DV?$stream_output_adapter@D@__crt_stdio_output@@V?$format_validation_base@DV?$stream_output_adapter@D@__crt_stdio_output@@@2@@__crt_stdio_output@@AEAAXI_N@Z 000000014002e2ec f i libucrt:output.obj
 0001:0002d394       ??$type_case_integer_parse_into_buffer@I$0BA@@?$output_processor@DV?$stream_output_adapter@D@__crt_stdio_output@@V?$positional_parameter_base@DV?$stream_output_adapter@D@__crt_stdio_output@@@2@@__crt_stdio_output@@AEAAXI_N@Z 000000014002e394 f i libucrt:output.obj
 0001:0002d43c       ??$type_case_integer_parse_into_buffer@I$0BA@@?$output_processor@DV?$stream_output_adapter@D@__crt_stdio_output@@V?$standard_base@DV?$stream_output_adapter@D@__crt_stdio_output@@@2@@__crt_stdio_output@@AEAAXI_N@Z 000000014002e43c f i libucrt:output.obj
 0001:0002d4e4       ??$type_case_integer_parse_into_buffer@I$0BA@@?$output_processor@DV?$string_output_adapter@D@__crt_stdio_output@@V?$format_validation_base@DV?$string_output_adapter@D@__crt_stdio_output@@@2@@__crt_stdio_output@@AEAAXI_N@Z 000000014002e4e4 f i libucrt:output.obj
 0001:0002d58c       ??$type_case_integer_parse_into_buffer@I$0BA@@?$output_processor@DV?$string_output_adapter@D@__crt_stdio_output@@V?$positional_parameter_base@DV?$string_output_adapter@D@__crt_stdio_output@@@2@@__crt_stdio_output@@AEAAXI_N@Z 000000014002e58c f i libucrt:output.obj
 0001:0002d634       ??$type_case_integer_parse_into_buffer@I$0BA@@?$output_processor@DV?$string_output_adapter@D@__crt_stdio_output@@V?$standard_base@DV?$string_output_adapter@D@__crt_stdio_output@@@2@@__crt_stdio_output@@AEAAXI_N@Z 000000014002e634 f i libucrt:output.obj
 0001:0002d6dc       ??$type_case_integer_parse_into_buffer@I$0BA@@?$output_processor@_WV?$stream_output_adapter@_W@__crt_stdio_output@@V?$format_validation_base@_WV?$stream_output_adapter@_W@__crt_stdio_output@@@2@@__crt_stdio_output@@AEAAXI_N@Z 000000014002e6dc f i libucrt:output.obj
 0001:0002d7a4       ??$type_case_integer_parse_into_buffer@I$0BA@@?$output_processor@_WV?$stream_output_adapter@_W@__crt_stdio_output@@V?$positional_parameter_base@_WV?$stream_output_adapter@_W@__crt_stdio_output@@@2@@__crt_stdio_output@@AEAAXI_N@Z 000000014002e7a4 f i libucrt:output.obj
 0001:0002d86c       ??$type_case_integer_parse_into_buffer@I$0BA@@?$output_processor@_WV?$stream_output_adapter@_W@__crt_stdio_output@@V?$standard_base@_WV?$stream_output_adapter@_W@__crt_stdio_output@@@2@@__crt_stdio_output@@AEAAXI_N@Z 000000014002e86c f i libucrt:output.obj
 0001:0002d934       ??$type_case_integer_parse_into_buffer@I$0BA@@?$output_processor@_WV?$string_output_adapter@_W@__crt_stdio_output@@V?$format_validation_base@_WV?$string_output_adapter@_W@__crt_stdio_output@@@2@@__crt_stdio_output@@AEAAXI_N@Z 000000014002e934 f i libucrt:output.obj
 0001:0002d9fc       ??$type_case_integer_parse_into_buffer@I$0BA@@?$output_processor@_WV?$string_output_adapter@_W@__crt_stdio_output@@V?$positional_parameter_base@_WV?$string_output_adapter@_W@__crt_stdio_output@@@2@@__crt_stdio_output@@AEAAXI_N@Z 000000014002e9fc f i libucrt:output.obj
 0001:0002dac4       ??$type_case_integer_parse_into_buffer@I$0BA@@?$output_processor@_WV?$string_output_adapter@_W@__crt_stdio_output@@V?$standard_base@_WV?$string_output_adapter@_W@__crt_stdio_output@@@2@@__crt_stdio_output@@AEAAXI_N@Z 000000014002eac4 f i libucrt:output.obj
 0001:0002db8c       ??$type_case_integer_parse_into_buffer@_K$07@?$output_processor@DV?$stream_output_adapter@D@__crt_stdio_output@@V?$format_validation_base@DV?$stream_output_adapter@D@__crt_stdio_output@@@2@@__crt_stdio_output@@AEAAX_K_N@Z 000000014002eb8c f i libucrt:output.obj
 0001:0002dc14       ??$type_case_integer_parse_into_buffer@_K$07@?$output_processor@DV?$stream_output_adapter@D@__crt_stdio_output@@V?$positional_parameter_base@DV?$stream_output_adapter@D@__crt_stdio_output@@@2@@__crt_stdio_output@@AEAAX_K_N@Z 000000014002ec14 f i libucrt:output.obj
 0001:0002dc9c       ??$type_case_integer_parse_into_buffer@_K$07@?$output_processor@DV?$stream_output_adapter@D@__crt_stdio_output@@V?$standard_base@DV?$stream_output_adapter@D@__crt_stdio_output@@@2@@__crt_stdio_output@@AEAAX_K_N@Z 000000014002ec9c f i libucrt:output.obj
 0001:0002dd24       ??$type_case_integer_parse_into_buffer@_K$07@?$output_processor@DV?$string_output_adapter@D@__crt_stdio_output@@V?$format_validation_base@DV?$string_output_adapter@D@__crt_stdio_output@@@2@@__crt_stdio_output@@AEAAX_K_N@Z 000000014002ed24 f i libucrt:output.obj
 0001:0002ddac       ??$type_case_integer_parse_into_buffer@_K$07@?$output_processor@DV?$string_output_adapter@D@__crt_stdio_output@@V?$positional_parameter_base@DV?$string_output_adapter@D@__crt_stdio_output@@@2@@__crt_stdio_output@@AEAAX_K_N@Z 000000014002edac f i libucrt:output.obj
 0001:0002de34       ??$type_case_integer_parse_into_buffer@_K$07@?$output_processor@DV?$string_output_adapter@D@__crt_stdio_output@@V?$standard_base@DV?$string_output_adapter@D@__crt_stdio_output@@@2@@__crt_stdio_output@@AEAAX_K_N@Z 000000014002ee34 f i libucrt:output.obj
 0001:0002debc       ??$type_case_integer_parse_into_buffer@_K$07@?$output_processor@_WV?$stream_output_adapter@_W@__crt_stdio_output@@V?$format_validation_base@_WV?$stream_output_adapter@_W@__crt_stdio_output@@@2@@__crt_stdio_output@@AEAAX_K_N@Z 000000014002eebc f i libucrt:output.obj
 0001:0002df64       ??$type_case_integer_parse_into_buffer@_K$07@?$output_processor@_WV?$stream_output_adapter@_W@__crt_stdio_output@@V?$positional_parameter_base@_WV?$stream_output_adapter@_W@__crt_stdio_output@@@2@@__crt_stdio_output@@AEAAX_K_N@Z 000000014002ef64 f i libucrt:output.obj
 0001:0002e00c       ??$type_case_integer_parse_into_buffer@_K$07@?$output_processor@_WV?$stream_output_adapter@_W@__crt_stdio_output@@V?$standard_base@_WV?$stream_output_adapter@_W@__crt_stdio_output@@@2@@__crt_stdio_output@@AEAAX_K_N@Z 000000014002f00c f i libucrt:output.obj
 0001:0002e0b4       ??$type_case_integer_parse_into_buffer@_K$07@?$output_processor@_WV?$string_output_adapter@_W@__crt_stdio_output@@V?$format_validation_base@_WV?$string_output_adapter@_W@__crt_stdio_output@@@2@@__crt_stdio_output@@AEAAX_K_N@Z 000000014002f0b4 f i libucrt:output.obj
 0001:0002e15c       ??$type_case_integer_parse_into_buffer@_K$07@?$output_processor@_WV?$string_output_adapter@_W@__crt_stdio_output@@V?$positional_parameter_base@_WV?$string_output_adapter@_W@__crt_stdio_output@@@2@@__crt_stdio_output@@AEAAX_K_N@Z 000000014002f15c f i libucrt:output.obj
 0001:0002e204       ??$type_case_integer_parse_into_buffer@_K$07@?$output_processor@_WV?$string_output_adapter@_W@__crt_stdio_output@@V?$standard_base@_WV?$string_output_adapter@_W@__crt_stdio_output@@@2@@__crt_stdio_output@@AEAAX_K_N@Z 000000014002f204 f i libucrt:output.obj
 0001:0002e2ac       ??$type_case_integer_parse_into_buffer@_K$09@?$output_processor@DV?$stream_output_adapter@D@__crt_stdio_output@@V?$format_validation_base@DV?$stream_output_adapter@D@__crt_stdio_output@@@2@@__crt_stdio_output@@AEAAX_K_N@Z 000000014002f2ac f i libucrt:output.obj
 0001:0002e388       ??$type_case_integer_parse_into_buffer@_K$09@?$output_processor@DV?$stream_output_adapter@D@__crt_stdio_output@@V?$positional_parameter_base@DV?$stream_output_adapter@D@__crt_stdio_output@@@2@@__crt_stdio_output@@AEAAX_K_N@Z 000000014002f388 f i libucrt:output.obj
 0001:0002e464       ??$type_case_integer_parse_into_buffer@_K$09@?$output_processor@DV?$stream_output_adapter@D@__crt_stdio_output@@V?$standard_base@DV?$stream_output_adapter@D@__crt_stdio_output@@@2@@__crt_stdio_output@@AEAAX_K_N@Z 000000014002f464 f i libucrt:output.obj
 0001:0002e540       ??$type_case_integer_parse_into_buffer@_K$09@?$output_processor@DV?$string_output_adapter@D@__crt_stdio_output@@V?$format_validation_base@DV?$string_output_adapter@D@__crt_stdio_output@@@2@@__crt_stdio_output@@AEAAX_K_N@Z 000000014002f540 f i libucrt:output.obj
 0001:0002e61c       ??$type_case_integer_parse_into_buffer@_K$09@?$output_processor@DV?$string_output_adapter@D@__crt_stdio_output@@V?$positional_parameter_base@DV?$string_output_adapter@D@__crt_stdio_output@@@2@@__crt_stdio_output@@AEAAX_K_N@Z 000000014002f61c f i libucrt:output.obj
 0001:0002e6f8       ??$type_case_integer_parse_into_buffer@_K$09@?$output_processor@DV?$string_output_adapter@D@__crt_stdio_output@@V?$standard_base@DV?$string_output_adapter@D@__crt_stdio_output@@@2@@__crt_stdio_output@@AEAAX_K_N@Z 000000014002f6f8 f i libucrt:output.obj
 0001:0002e7d4       ??$type_case_integer_parse_into_buffer@_K$09@?$output_processor@_WV?$stream_output_adapter@_W@__crt_stdio_output@@V?$format_validation_base@_WV?$stream_output_adapter@_W@__crt_stdio_output@@@2@@__crt_stdio_output@@AEAAX_K_N@Z 000000014002f7d4 f i libucrt:output.obj
 0001:0002e8c8       ??$type_case_integer_parse_into_buffer@_K$09@?$output_processor@_WV?$stream_output_adapter@_W@__crt_stdio_output@@V?$positional_parameter_base@_WV?$stream_output_adapter@_W@__crt_stdio_output@@@2@@__crt_stdio_output@@AEAAX_K_N@Z 000000014002f8c8 f i libucrt:output.obj
 0001:0002e9bc       ??$type_case_integer_parse_into_buffer@_K$09@?$output_processor@_WV?$stream_output_adapter@_W@__crt_stdio_output@@V?$standard_base@_WV?$stream_output_adapter@_W@__crt_stdio_output@@@2@@__crt_stdio_output@@AEAAX_K_N@Z 000000014002f9bc f i libucrt:output.obj
 0001:0002eab0       ??$type_case_integer_parse_into_buffer@_K$09@?$output_processor@_WV?$string_output_adapter@_W@__crt_stdio_output@@V?$format_validation_base@_WV?$string_output_adapter@_W@__crt_stdio_output@@@2@@__crt_stdio_output@@AEAAX_K_N@Z 000000014002fab0 f i libucrt:output.obj
 0001:0002eba4       ??$type_case_integer_parse_into_buffer@_K$09@?$output_processor@_WV?$string_output_adapter@_W@__crt_stdio_output@@V?$positional_parameter_base@_WV?$string_output_adapter@_W@__crt_stdio_output@@@2@@__crt_stdio_output@@AEAAX_K_N@Z 000000014002fba4 f i libucrt:output.obj
 0001:0002ec98       ??$type_case_integer_parse_into_buffer@_K$09@?$output_processor@_WV?$string_output_adapter@_W@__crt_stdio_output@@V?$standard_base@_WV?$string_output_adapter@_W@__crt_stdio_output@@@2@@__crt_stdio_output@@AEAAX_K_N@Z 000000014002fc98 f i libucrt:output.obj
 0001:0002ed8c       ??$type_case_integer_parse_into_buffer@_K$0BA@@?$output_processor@DV?$stream_output_adapter@D@__crt_stdio_output@@V?$format_validation_base@DV?$stream_output_adapter@D@__crt_stdio_output@@@2@@__crt_stdio_output@@AEAAX_K_N@Z 000000014002fd8c f i libucrt:output.obj
 0001:0002ee34       ??$type_case_integer_parse_into_buffer@_K$0BA@@?$output_processor@DV?$stream_output_adapter@D@__crt_stdio_output@@V?$positional_parameter_base@DV?$stream_output_adapter@D@__crt_stdio_output@@@2@@__crt_stdio_output@@AEAAX_K_N@Z 000000014002fe34 f i libucrt:output.obj
 0001:0002eedc       ??$type_case_integer_parse_into_buffer@_K$0BA@@?$output_processor@DV?$stream_output_adapter@D@__crt_stdio_output@@V?$standard_base@DV?$stream_output_adapter@D@__crt_stdio_output@@@2@@__crt_stdio_output@@AEAAX_K_N@Z 000000014002fedc f i libucrt:output.obj
 0001:0002ef84       ??$type_case_integer_parse_into_buffer@_K$0BA@@?$output_processor@DV?$string_output_adapter@D@__crt_stdio_output@@V?$format_validation_base@DV?$string_output_adapter@D@__crt_stdio_output@@@2@@__crt_stdio_output@@AEAAX_K_N@Z 000000014002ff84 f i libucrt:output.obj
 0001:0002f02c       ??$type_case_integer_parse_into_buffer@_K$0BA@@?$output_processor@DV?$string_output_adapter@D@__crt_stdio_output@@V?$positional_parameter_base@DV?$string_output_adapter@D@__crt_stdio_output@@@2@@__crt_stdio_output@@AEAAX_K_N@Z 000000014003002c f i libucrt:output.obj
 0001:0002f0d4       ??$type_case_integer_parse_into_buffer@_K$0BA@@?$output_processor@DV?$string_output_adapter@D@__crt_stdio_output@@V?$standard_base@DV?$string_output_adapter@D@__crt_stdio_output@@@2@@__crt_stdio_output@@AEAAX_K_N@Z 00000001400300d4 f i libucrt:output.obj
 0001:0002f17c       ??$type_case_integer_parse_into_buffer@_K$0BA@@?$output_processor@_WV?$stream_output_adapter@_W@__crt_stdio_output@@V?$format_validation_base@_WV?$stream_output_adapter@_W@__crt_stdio_output@@@2@@__crt_stdio_output@@AEAAX_K_N@Z 000000014003017c f i libucrt:output.obj
 0001:0002f244       ??$type_case_integer_parse_into_buffer@_K$0BA@@?$output_processor@_WV?$stream_output_adapter@_W@__crt_stdio_output@@V?$positional_parameter_base@_WV?$stream_output_adapter@_W@__crt_stdio_output@@@2@@__crt_stdio_output@@AEAAX_K_N@Z 0000000140030244 f i libucrt:output.obj
 0001:0002f30c       ??$type_case_integer_parse_into_buffer@_K$0BA@@?$output_processor@_WV?$stream_output_adapter@_W@__crt_stdio_output@@V?$standard_base@_WV?$stream_output_adapter@_W@__crt_stdio_output@@@2@@__crt_stdio_output@@AEAAX_K_N@Z 000000014003030c f i libucrt:output.obj
 0001:0002f3d4       ??$type_case_integer_parse_into_buffer@_K$0BA@@?$output_processor@_WV?$string_output_adapter@_W@__crt_stdio_output@@V?$format_validation_base@_WV?$string_output_adapter@_W@__crt_stdio_output@@@2@@__crt_stdio_output@@AEAAX_K_N@Z 00000001400303d4 f i libucrt:output.obj
 0001:0002f49c       ??$type_case_integer_parse_into_buffer@_K$0BA@@?$output_processor@_WV?$string_output_adapter@_W@__crt_stdio_output@@V?$positional_parameter_base@_WV?$string_output_adapter@_W@__crt_stdio_output@@@2@@__crt_stdio_output@@AEAAX_K_N@Z 000000014003049c f i libucrt:output.obj
 0001:0002f564       ??$type_case_integer_parse_into_buffer@_K$0BA@@?$output_processor@_WV?$string_output_adapter@_W@__crt_stdio_output@@V?$standard_base@_WV?$string_output_adapter@_W@__crt_stdio_output@@@2@@__crt_stdio_output@@AEAAX_K_N@Z 0000000140030564 f i libucrt:output.obj
 0001:0002f62c       ??$write_multiple_characters@V?$stream_output_adapter@D@__crt_stdio_output@@D@__crt_stdio_output@@YAXAEBV?$stream_output_adapter@D@0@DHQEAHAEAV__crt_cached_ptd_host@@@Z 000000014003062c f i libucrt:output.obj
 0001:0002f6e4       ??$write_multiple_characters@V?$stream_output_adapter@_W@__crt_stdio_output@@D@__crt_stdio_output@@YAXAEBV?$stream_output_adapter@_W@0@DHQEAHAEAV__crt_cached_ptd_host@@@Z 00000001400306e4 f i libucrt:output.obj
 0001:0002f7a0       ??$write_multiple_characters@V?$string_output_adapter@D@__crt_stdio_output@@D@__crt_stdio_output@@YAXAEBV?$string_output_adapter@D@0@DHQEAHAEAV__crt_cached_ptd_host@@@Z 00000001400307a0 f i libucrt:output.obj
 0001:0002f834       ??$write_multiple_characters@V?$string_output_adapter@_W@__crt_stdio_output@@D@__crt_stdio_output@@YAXAEBV?$string_output_adapter@_W@0@DHQEAHAEAV__crt_cached_ptd_host@@@Z 0000000140030834 f i libucrt:output.obj
 0001:0002fa60       ??0?$c_string_character_source@D@__crt_strtox@@QEAA@QEBDQEAPEBD@Z 0000000140030a60 f i libucrt:output.obj
 0001:0002fa78       ??0?$c_string_character_source@_W@__crt_strtox@@QEAA@QEB_WQEAPEB_W@Z 0000000140030a78 f i libucrt:output.obj
 0001:0002fa90       ??0?$common_data@D@__crt_stdio_output@@IEAA@AEAV__crt_cached_ptd_host@@@Z 0000000140030a90 f i libucrt:output.obj
 0001:0002fad8       ??0?$common_data@_W@__crt_stdio_output@@IEAA@AEAV__crt_cached_ptd_host@@@Z 0000000140030ad8 f i libucrt:output.obj
 0001:0002fb24       ??0?$output_adapter_data@DV?$stream_output_adapter@D@__crt_stdio_output@@@__crt_stdio_output@@IEAA@AEBV?$stream_output_adapter@D@1@_KQEBDAEAV__crt_cached_ptd_host@@QEAD@Z 0000000140030b24 f i libucrt:output.obj
 0001:0002fb9c       ??0?$output_adapter_data@DV?$string_output_adapter@D@__crt_stdio_output@@@__crt_stdio_output@@IEAA@AEBV?$string_output_adapter@D@1@_KQEBDAEAV__crt_cached_ptd_host@@QEAD@Z 0000000140030b9c f i libucrt:output.obj
 0001:0002fc14       ??0?$output_adapter_data@_WV?$stream_output_adapter@_W@__crt_stdio_output@@@__crt_stdio_output@@IEAA@AEBV?$stream_output_adapter@_W@1@_KQEB_WAEAV__crt_cached_ptd_host@@QEAD@Z 0000000140030c14 f i libucrt:output.obj
 0001:0002fc94       ??0?$output_adapter_data@_WV?$string_output_adapter@_W@__crt_stdio_output@@@__crt_stdio_output@@IEAA@AEBV?$string_output_adapter@_W@1@_KQEB_WAEAV__crt_cached_ptd_host@@QEAD@Z 0000000140030c94 f i libucrt:output.obj
 0001:0002fd14       ??0?$output_processor@DV?$stream_output_adapter@D@__crt_stdio_output@@V?$format_validation_base@DV?$stream_output_adapter@D@__crt_stdio_output@@@2@@__crt_stdio_output@@QEAA@AEBV?$stream_output_adapter@D@1@_KQEBDAEAV__crt_cached_ptd_host@@QEAD@Z 0000000140030d14 f i libucrt:output.obj
 0001:0002fd94       ??0?$output_processor@DV?$stream_output_adapter@D@__crt_stdio_output@@V?$positional_parameter_base@DV?$stream_output_adapter@D@__crt_stdio_output@@@2@@__crt_stdio_output@@QEAA@AEBV?$stream_output_adapter@D@1@_KQEBDAEAV__crt_cached_ptd_host@@QEAD@Z 0000000140030d94 f i libucrt:output.obj
 0001:0002fe3c       ??0?$output_processor@DV?$stream_output_adapter@D@__crt_stdio_output@@V?$standard_base@DV?$stream_output_adapter@D@__crt_stdio_output@@@2@@__crt_stdio_output@@QEAA@AEBV?$stream_output_adapter@D@1@_KQEBDAEAV__crt_cached_ptd_host@@QEAD@Z 0000000140030e3c f i libucrt:output.obj
 0001:0002febc       ??0?$output_processor@DV?$string_output_adapter@D@__crt_stdio_output@@V?$format_validation_base@DV?$string_output_adapter@D@__crt_stdio_output@@@2@@__crt_stdio_output@@QEAA@AEBV?$string_output_adapter@D@1@_KQEBDAEAV__crt_cached_ptd_host@@QEAD@Z 0000000140030ebc f i libucrt:output.obj
 0001:0002ff3c       ??0?$output_processor@DV?$string_output_adapter@D@__crt_stdio_output@@V?$positional_parameter_base@DV?$string_output_adapter@D@__crt_stdio_output@@@2@@__crt_stdio_output@@QEAA@AEBV?$string_output_adapter@D@1@_KQEBDAEAV__crt_cached_ptd_host@@QEAD@Z 0000000140030f3c f i libucrt:output.obj
 0001:0002ffe4       ??0?$output_processor@DV?$string_output_adapter@D@__crt_stdio_output@@V?$standard_base@DV?$string_output_adapter@D@__crt_stdio_output@@@2@@__crt_stdio_output@@QEAA@AEBV?$string_output_adapter@D@1@_KQEBDAEAV__crt_cached_ptd_host@@QEAD@Z 0000000140030fe4 f i libucrt:output.obj
 0001:00030064       ??0?$output_processor@_WV?$stream_output_adapter@_W@__crt_stdio_output@@V?$format_validation_base@_WV?$stream_output_adapter@_W@__crt_stdio_output@@@2@@__crt_stdio_output@@QEAA@AEBV?$stream_output_adapter@_W@1@_KQEB_WAEAV__crt_cached_ptd_host@@QEAD@Z 0000000140031064 f i libucrt:output.obj
 0001:000300ec       ??0?$output_processor@_WV?$stream_output_adapter@_W@__crt_stdio_output@@V?$positional_parameter_base@_WV?$stream_output_adapter@_W@__crt_stdio_output@@@2@@__crt_stdio_output@@QEAA@AEBV?$stream_output_adapter@_W@1@_KQEB_WAEAV__crt_cached_ptd_host@@QEAD@Z 00000001400310ec f i libucrt:output.obj
 0001:00030198       ??0?$output_processor@_WV?$stream_output_adapter@_W@__crt_stdio_output@@V?$standard_base@_WV?$stream_output_adapter@_W@__crt_stdio_output@@@2@@__crt_stdio_output@@QEAA@AEBV?$stream_output_adapter@_W@1@_KQEB_WAEAV__crt_cached_ptd_host@@QEAD@Z 0000000140031198 f i libucrt:output.obj
 0001:00030220       ??0?$output_processor@_WV?$string_output_adapter@_W@__crt_stdio_output@@V?$format_validation_base@_WV?$string_output_adapter@_W@__crt_stdio_output@@@2@@__crt_stdio_output@@QEAA@AEBV?$string_output_adapter@_W@1@_KQEB_WAEAV__crt_cached_ptd_host@@QEAD@Z 0000000140031220 f i libucrt:output.obj
 0001:000302a8       ??0?$output_processor@_WV?$string_output_adapter@_W@__crt_stdio_output@@V?$positional_parameter_base@_WV?$string_output_adapter@_W@__crt_stdio_output@@@2@@__crt_stdio_output@@QEAA@AEBV?$string_output_adapter@_W@1@_KQEB_WAEAV__crt_cached_ptd_host@@QEAD@Z 00000001400312a8 f i libucrt:output.obj
 0001:00030354       ??0?$output_processor@_WV?$string_output_adapter@_W@__crt_stdio_output@@V?$standard_base@_WV?$string_output_adapter@_W@__crt_stdio_output@@@2@@__crt_stdio_output@@QEAA@AEBV?$string_output_adapter@_W@1@_KQEB_WAEAV__crt_cached_ptd_host@@QEAD@Z 0000000140031354 f i libucrt:output.obj
 0001:000303dc       ??0?$stream_output_adapter@D@__crt_stdio_output@@QEAA@QEAU_iobuf@@@Z 00000001400313dc f i libucrt:output.obj
 0001:000303e4       ??0?$stream_output_adapter@_W@__crt_stdio_output@@QEAA@QEAU_iobuf@@@Z 00000001400313e4 f i libucrt:output.obj
 0001:000303ec       ??0?$string_output_adapter@D@__crt_stdio_output@@QEAA@QEAU?$string_output_adapter_context@D@1@@Z 00000001400313ec f i libucrt:output.obj
 0001:000303f4       ??0?$string_output_adapter@_W@__crt_stdio_output@@QEAA@QEAU?$string_output_adapter_context@_W@1@@Z 00000001400313f4 f i libucrt:output.obj
 0001:000303fc       ??0formatting_buffer@__crt_stdio_output@@QEAA@XZ 00000001400313fc f i libucrt:output.obj
 0001:00030418       ??0guard@?$cached@H@__crt_cached_ptd_host@@QEAA@AEAU12@@Z 0000000140031418 f i libucrt:output.obj
 0001:00030430       ??1?$c_string_character_source@D@__crt_strtox@@QEAA@XZ 0000000140031430 f i libucrt:output.obj
 0001:00030444       ??1?$c_string_character_source@_W@__crt_strtox@@QEAA@XZ 0000000140031444 f i libucrt:output.obj
 0001:00030458       ??1?$common_data@D@__crt_stdio_output@@QEAA@XZ 0000000140031458 f i libucrt:output.obj
 0001:00030484       ??1?$common_data@_W@__crt_stdio_output@@QEAA@XZ 0000000140031484 f i libucrt:output.obj
 0001:000304b0       ??1?$format_validation_base@DV?$stream_output_adapter@D@__crt_stdio_output@@@__crt_stdio_output@@QEAA@XZ 00000001400314b0 f i libucrt:output.obj
 0001:000304dc       ??1?$format_validation_base@DV?$string_output_adapter@D@__crt_stdio_output@@@__crt_stdio_output@@QEAA@XZ 00000001400314dc f i libucrt:output.obj
 0001:00030508       ??1?$format_validation_base@_WV?$stream_output_adapter@_W@__crt_stdio_output@@@__crt_stdio_output@@QEAA@XZ 0000000140031508 f i libucrt:output.obj
 0001:00030534       ??1?$format_validation_base@_WV?$string_output_adapter@_W@__crt_stdio_output@@@__crt_stdio_output@@QEAA@XZ 0000000140031534 f i libucrt:output.obj
 0001:00030560       ??1?$output_adapter_data@DV?$stream_output_adapter@D@__crt_stdio_output@@@__crt_stdio_output@@QEAA@XZ 0000000140031560 f i libucrt:output.obj
 0001:0003058c       ??1?$output_adapter_data@DV?$string_output_adapter@D@__crt_stdio_output@@@__crt_stdio_output@@QEAA@XZ 000000014003158c f i libucrt:output.obj
 0001:000305b8       ??1?$output_adapter_data@_WV?$stream_output_adapter@_W@__crt_stdio_output@@@__crt_stdio_output@@QEAA@XZ 00000001400315b8 f i libucrt:output.obj
 0001:000305e4       ??1?$output_adapter_data@_WV?$string_output_adapter@_W@__crt_stdio_output@@@__crt_stdio_output@@QEAA@XZ 00000001400315e4 f i libucrt:output.obj
 0001:00030610       ??1?$output_processor@DV?$stream_output_adapter@D@__crt_stdio_output@@V?$format_validation_base@DV?$stream_output_adapter@D@__crt_stdio_output@@@2@@__crt_stdio_output@@QEAA@XZ 0000000140031610 f i libucrt:output.obj
 0001:0003063c       ??1?$output_processor@DV?$stream_output_adapter@D@__crt_stdio_output@@V?$positional_parameter_base@DV?$stream_output_adapter@D@__crt_stdio_output@@@2@@__crt_stdio_output@@QEAA@XZ 000000014003163c f i libucrt:output.obj
 0001:00030668       ??1?$output_processor@DV?$stream_output_adapter@D@__crt_stdio_output@@V?$standard_base@DV?$stream_output_adapter@D@__crt_stdio_output@@@2@@__crt_stdio_output@@QEAA@XZ 0000000140031668 f i libucrt:output.obj
 0001:00030694       ??1?$output_processor@DV?$string_output_adapter@D@__crt_stdio_output@@V?$format_validation_base@DV?$string_output_adapter@D@__crt_stdio_output@@@2@@__crt_stdio_output@@QEAA@XZ 0000000140031694 f i libucrt:output.obj
 0001:000306c0       ??1?$output_processor@DV?$string_output_adapter@D@__crt_stdio_output@@V?$positional_parameter_base@DV?$string_output_adapter@D@__crt_stdio_output@@@2@@__crt_stdio_output@@QEAA@XZ 00000001400316c0 f i libucrt:output.obj
 0001:000306ec       ??1?$output_processor@DV?$string_output_adapter@D@__crt_stdio_output@@V?$standard_base@DV?$string_output_adapter@D@__crt_stdio_output@@@2@@__crt_stdio_output@@QEAA@XZ 00000001400316ec f i libucrt:output.obj
 0001:00030718       ??1?$output_processor@_WV?$stream_output_adapter@_W@__crt_stdio_output@@V?$format_validation_base@_WV?$stream_output_adapter@_W@__crt_stdio_output@@@2@@__crt_stdio_output@@QEAA@XZ 0000000140031718 f i libucrt:output.obj
 0001:00030744       ??1?$output_processor@_WV?$stream_output_adapter@_W@__crt_stdio_output@@V?$positional_parameter_base@_WV?$stream_output_adapter@_W@__crt_stdio_output@@@2@@__crt_stdio_output@@QEAA@XZ 0000000140031744 f i libucrt:output.obj
 0001:00030770       ??1?$output_processor@_WV?$stream_output_adapter@_W@__crt_stdio_output@@V?$standard_base@_WV?$stream_output_adapter@_W@__crt_stdio_output@@@2@@__crt_stdio_output@@QEAA@XZ 0000000140031770 f i libucrt:output.obj
 0001:0003079c       ??1?$output_processor@_WV?$string_output_adapter@_W@__crt_stdio_output@@V?$format_validation_base@_WV?$string_output_adapter@_W@__crt_stdio_output@@@2@@__crt_stdio_output@@QEAA@XZ 000000014003179c f i libucrt:output.obj
 0001:000307c8       ??1?$output_processor@_WV?$string_output_adapter@_W@__crt_stdio_output@@V?$positional_parameter_base@_WV?$string_output_adapter@_W@__crt_stdio_output@@@2@@__crt_stdio_output@@QEAA@XZ 00000001400317c8 f i libucrt:output.obj
 0001:000307f4       ??1?$output_processor@_WV?$string_output_adapter@_W@__crt_stdio_output@@V?$standard_base@_WV?$string_output_adapter@_W@__crt_stdio_output@@@2@@__crt_stdio_output@@QEAA@XZ 00000001400317f4 f i libucrt:output.obj
 0001:00030820       ??1?$positional_parameter_base@DV?$stream_output_adapter@D@__crt_stdio_output@@@__crt_stdio_output@@QEAA@XZ 0000000140031820 f i libucrt:output.obj
 0001:0003084c       ??1?$positional_parameter_base@DV?$string_output_adapter@D@__crt_stdio_output@@@__crt_stdio_output@@QEAA@XZ 000000014003184c f i libucrt:output.obj
 0001:00030878       ??1?$positional_parameter_base@_WV?$stream_output_adapter@_W@__crt_stdio_output@@@__crt_stdio_output@@QEAA@XZ 0000000140031878 f i libucrt:output.obj
 0001:000308a4       ??1?$positional_parameter_base@_WV?$string_output_adapter@_W@__crt_stdio_output@@@__crt_stdio_output@@QEAA@XZ 00000001400318a4 f i libucrt:output.obj
 0001:000308d0       ??1?$standard_base@DV?$stream_output_adapter@D@__crt_stdio_output@@@__crt_stdio_output@@QEAA@XZ 00000001400318d0 f i libucrt:output.obj
 0001:000308fc       ??1?$standard_base@DV?$string_output_adapter@D@__crt_stdio_output@@@__crt_stdio_output@@QEAA@XZ 00000001400318fc f i libucrt:output.obj
 0001:00030928       ??1?$standard_base@_WV?$stream_output_adapter@_W@__crt_stdio_output@@@__crt_stdio_output@@QEAA@XZ 0000000140031928 f i libucrt:output.obj
 0001:00030954       ??1?$standard_base@_WV?$string_output_adapter@_W@__crt_stdio_output@@@__crt_stdio_output@@QEAA@XZ 0000000140031954 f i libucrt:output.obj
 0001:00030980       ??1formatting_buffer@__crt_stdio_output@@QEAA@XZ 0000000140031980 f i libucrt:output.obj
 0001:000309ac       ??1guard@?$cached@H@__crt_cached_ptd_host@@QEAA@XZ 00000001400319ac f i libucrt:output.obj
 0001:000309c4       ??4?$__crt_unique_heap_ptr@DU__crt_internal_free_policy@@@@QEAAAEAV0@$$QEAV0@@Z 00000001400319c4 f i libucrt:output.obj
 0001:00030a08       ??A?$spectre_mitigated_lookup_table@Ustate_transition_pair@__crt_stdio_output@@$0IA@@__crt_stdio_output@@QEBAAEBUstate_transition_pair@1@_K@Z 0000000140031a08 f i libucrt:output.obj
 0001:00031344       ?adjust_hexit@?$output_processor@DV?$stream_output_adapter@D@__crt_stdio_output@@V?$format_validation_base@DV?$stream_output_adapter@D@__crt_stdio_output@@@2@@__crt_stdio_output@@CADH_N@Z 0000000140032344 f i libucrt:output.obj
 0001:00031354       ?adjust_hexit@?$output_processor@DV?$stream_output_adapter@D@__crt_stdio_output@@V?$positional_parameter_base@DV?$stream_output_adapter@D@__crt_stdio_output@@@2@@__crt_stdio_output@@CADH_N@Z 0000000140032354 f i libucrt:output.obj
 0001:00031364       ?adjust_hexit@?$output_processor@DV?$stream_output_adapter@D@__crt_stdio_output@@V?$standard_base@DV?$stream_output_adapter@D@__crt_stdio_output@@@2@@__crt_stdio_output@@CADH_N@Z 0000000140032364 f i libucrt:output.obj
 0001:00031374       ?adjust_hexit@?$output_processor@DV?$string_output_adapter@D@__crt_stdio_output@@V?$format_validation_base@DV?$string_output_adapter@D@__crt_stdio_output@@@2@@__crt_stdio_output@@CADH_N@Z 0000000140032374 f i libucrt:output.obj
 0001:00031384       ?adjust_hexit@?$output_processor@DV?$string_output_adapter@D@__crt_stdio_output@@V?$positional_parameter_base@DV?$string_output_adapter@D@__crt_stdio_output@@@2@@__crt_stdio_output@@CADH_N@Z 0000000140032384 f i libucrt:output.obj
 0001:00031394       ?adjust_hexit@?$output_processor@DV?$string_output_adapter@D@__crt_stdio_output@@V?$standard_base@DV?$string_output_adapter@D@__crt_stdio_output@@@2@@__crt_stdio_output@@CADH_N@Z 0000000140032394 f i libucrt:output.obj
 0001:000313a4       ?adjust_hexit@?$output_processor@_WV?$stream_output_adapter@_W@__crt_stdio_output@@V?$format_validation_base@_WV?$stream_output_adapter@_W@__crt_stdio_output@@@2@@__crt_stdio_output@@CADH_N@Z 00000001400323a4 f i libucrt:output.obj
 0001:000313b4       ?adjust_hexit@?$output_processor@_WV?$stream_output_adapter@_W@__crt_stdio_output@@V?$positional_parameter_base@_WV?$stream_output_adapter@_W@__crt_stdio_output@@@2@@__crt_stdio_output@@CADH_N@Z 00000001400323b4 f i libucrt:output.obj
 0001:000313c4       ?adjust_hexit@?$output_processor@_WV?$stream_output_adapter@_W@__crt_stdio_output@@V?$standard_base@_WV?$stream_output_adapter@_W@__crt_stdio_output@@@2@@__crt_stdio_output@@CADH_N@Z 00000001400323c4 f i libucrt:output.obj
 0001:000313d4       ?adjust_hexit@?$output_processor@_WV?$string_output_adapter@_W@__crt_stdio_output@@V?$format_validation_base@_WV?$string_output_adapter@_W@__crt_stdio_output@@@2@@__crt_stdio_output@@CADH_N@Z 00000001400323d4 f i libucrt:output.obj
 0001:000313e4       ?adjust_hexit@?$output_processor@_WV?$string_output_adapter@_W@__crt_stdio_output@@V?$positional_parameter_base@_WV?$string_output_adapter@_W@__crt_stdio_output@@@2@@__crt_stdio_output@@CADH_N@Z 00000001400323e4 f i libucrt:output.obj
 0001:000313f4       ?adjust_hexit@?$output_processor@_WV?$string_output_adapter@_W@__crt_stdio_output@@V?$standard_base@_WV?$string_output_adapter@_W@__crt_stdio_output@@@2@@__crt_stdio_output@@CADH_N@Z 00000001400323f4 f i libucrt:output.obj
 0001:00031404       ?advance_to_next_pass@?$positional_parameter_base@DV?$stream_output_adapter@D@__crt_stdio_output@@@__crt_stdio_output@@IEAA_NXZ 0000000140032404 f i libucrt:output.obj
 0001:0003146c       ?advance_to_next_pass@?$positional_parameter_base@DV?$string_output_adapter@D@__crt_stdio_output@@@__crt_stdio_output@@IEAA_NXZ 000000014003246c f i libucrt:output.obj
 0001:000314d4       ?advance_to_next_pass@?$positional_parameter_base@_WV?$stream_output_adapter@_W@__crt_stdio_output@@@__crt_stdio_output@@IEAA_NXZ 00000001400324d4 f i libucrt:output.obj
 0001:0003153c       ?advance_to_next_pass@?$positional_parameter_base@_WV?$string_output_adapter@_W@__crt_stdio_output@@@__crt_stdio_output@@IEAA_NXZ 000000014003253c f i libucrt:output.obj
 0001:000315a4       ?advance_to_next_pass@?$standard_base@DV?$stream_output_adapter@D@__crt_stdio_output@@@__crt_stdio_output@@IEAA_NXZ 00000001400325a4 f i libucrt:output.obj
 0001:000315bc       ?advance_to_next_pass@?$standard_base@DV?$string_output_adapter@D@__crt_stdio_output@@@__crt_stdio_output@@IEAA_NXZ 00000001400325bc f i libucrt:output.obj
 0001:000315d4       ?advance_to_next_pass@?$standard_base@_WV?$stream_output_adapter@_W@__crt_stdio_output@@@__crt_stdio_output@@IEAA_NXZ 00000001400325d4 f i libucrt:output.obj
 0001:000315ec       ?advance_to_next_pass@?$standard_base@_WV?$string_output_adapter@_W@__crt_stdio_output@@@__crt_stdio_output@@IEAA_NXZ 00000001400325ec f i libucrt:output.obj
 0001:00031604       ?check@?$cached@H@__crt_cached_ptd_host@@QEBA_NH@Z 0000000140032604 f i libucrt:output.obj
 0001:00031618       ?create_guard@?$cached@H@__crt_cached_ptd_host@@QEAA?AVguard@12@XZ 0000000140032618 f i libucrt:output.obj
 0001:00031630       ?crop_zeroes@__crt_stdio_output@@YAXPEADQEAU__crt_locale_pointers@@@Z 0000000140032630 f i libucrt:output.obj
 0001:000316b4       ?disable@guard@?$cached@H@__crt_cached_ptd_host@@QEAAXXZ 00000001400326b4 f i libucrt:output.obj
 0001:000316bc       ?enable@guard@?$cached@H@__crt_cached_ptd_host@@QEAAXXZ 00000001400326bc f i libucrt:output.obj
 0001:000316c4       ?find_next_state@?$output_processor@DV?$stream_output_adapter@D@__crt_stdio_output@@V?$format_validation_base@DV?$stream_output_adapter@D@__crt_stdio_output@@@2@@__crt_stdio_output@@AEBA?AW4state@2@DW432@@Z 00000001400326c4 f i libucrt:output.obj
 0001:00031708       ?find_next_state@?$output_processor@DV?$stream_output_adapter@D@__crt_stdio_output@@V?$positional_parameter_base@DV?$stream_output_adapter@D@__crt_stdio_output@@@2@@__crt_stdio_output@@AEBA?AW4state@2@DW432@@Z 0000000140032708 f i libucrt:output.obj
 0001:0003174c       ?find_next_state@?$output_processor@DV?$stream_output_adapter@D@__crt_stdio_output@@V?$standard_base@DV?$stream_output_adapter@D@__crt_stdio_output@@@2@@__crt_stdio_output@@AEBA?AW4state@2@DW432@@Z 000000014003274c f i libucrt:output.obj
 0001:00031790       ?find_next_state@?$output_processor@DV?$string_output_adapter@D@__crt_stdio_output@@V?$format_validation_base@DV?$string_output_adapter@D@__crt_stdio_output@@@2@@__crt_stdio_output@@AEBA?AW4state@2@DW432@@Z 0000000140032790 f i libucrt:output.obj
 0001:000317d4       ?find_next_state@?$output_processor@DV?$string_output_adapter@D@__crt_stdio_output@@V?$positional_parameter_base@DV?$string_output_adapter@D@__crt_stdio_output@@@2@@__crt_stdio_output@@AEBA?AW4state@2@DW432@@Z 00000001400327d4 f i libucrt:output.obj
 0001:00031818       ?find_next_state@?$output_processor@DV?$string_output_adapter@D@__crt_stdio_output@@V?$standard_base@DV?$string_output_adapter@D@__crt_stdio_output@@@2@@__crt_stdio_output@@AEBA?AW4state@2@DW432@@Z 0000000140032818 f i libucrt:output.obj
 0001:0003185c       ?find_next_state@?$output_processor@_WV?$stream_output_adapter@_W@__crt_stdio_output@@V?$format_validation_base@_WV?$stream_output_adapter@_W@__crt_stdio_output@@@2@@__crt_stdio_output@@AEBA?AW4state@2@_WW432@@Z 000000014003285c f i libucrt:output.obj
 0001:000318ac       ?find_next_state@?$output_processor@_WV?$stream_output_adapter@_W@__crt_stdio_output@@V?$positional_parameter_base@_WV?$stream_output_adapter@_W@__crt_stdio_output@@@2@@__crt_stdio_output@@AEBA?AW4state@2@_WW432@@Z 00000001400328ac f i libucrt:output.obj
 0001:000318fc       ?find_next_state@?$output_processor@_WV?$stream_output_adapter@_W@__crt_stdio_output@@V?$standard_base@_WV?$stream_output_adapter@_W@__crt_stdio_output@@@2@@__crt_stdio_output@@AEBA?AW4state@2@_WW432@@Z 00000001400328fc f i libucrt:output.obj
 0001:00031948       ?find_next_state@?$output_processor@_WV?$string_output_adapter@_W@__crt_stdio_output@@V?$format_validation_base@_WV?$string_output_adapter@_W@__crt_stdio_output@@@2@@__crt_stdio_output@@AEBA?AW4state@2@_WW432@@Z 0000000140032948 f i libucrt:output.obj
 0001:00031998       ?find_next_state@?$output_processor@_WV?$string_output_adapter@_W@__crt_stdio_output@@V?$positional_parameter_base@_WV?$string_output_adapter@_W@__crt_stdio_output@@@2@@__crt_stdio_output@@AEBA?AW4state@2@_WW432@@Z 0000000140032998 f i libucrt:output.obj
 0001:000319e8       ?find_next_state@?$output_processor@_WV?$string_output_adapter@_W@__crt_stdio_output@@V?$standard_base@_WV?$string_output_adapter@_W@__crt_stdio_output@@@2@@__crt_stdio_output@@AEBA?AW4state@2@_WW432@@Z 00000001400329e8 f i libucrt:output.obj
 0001:00031a34       ?force_decimal_point@__crt_stdio_output@@YAXPEADQEAU__crt_locale_pointers@@@Z 0000000140032a34 f i libucrt:output.obj
 0001:00031aac       ?get@?$c_string_character_source@D@__crt_strtox@@QEAADXZ 0000000140032aac f i libucrt:output.obj
 0001:00031abc       ?get@?$c_string_character_source@_W@__crt_strtox@@QEAA_WXZ 0000000140032abc f i libucrt:output.obj
 0001:00031ad0       ?get_locale@__crt_cached_ptd_host@@QEAAPEAU__crt_locale_pointers@@XZ 0000000140032ad0 f i libucrt:output.obj
 0001:00031b04       ?get_parameter_type@?$positional_parameter_base@DV?$stream_output_adapter@D@__crt_stdio_output@@@__crt_stdio_output@@CA?AW4parameter_type@12@F@Z 0000000140032b04 f i libucrt:output.obj
 0001:00031b0c       ?get_parameter_type@?$positional_parameter_base@DV?$stream_output_adapter@D@__crt_stdio_output@@@__crt_stdio_output@@CA?AW4parameter_type@12@G@Z 0000000140032b0c f i libucrt:output.obj
 0001:00031b14       ?get_parameter_type@?$positional_parameter_base@DV?$stream_output_adapter@D@__crt_stdio_output@@@__crt_stdio_output@@CA?AW4parameter_type@12@H@Z 0000000140032b14 f i libucrt:output.obj
 0001:00031b1c       ?get_parameter_type@?$positional_parameter_base@DV?$stream_output_adapter@D@__crt_stdio_output@@@__crt_stdio_output@@CA?AW4parameter_type@12@I@Z 0000000140032b1c f i libucrt:output.obj
 0001:00031b24       ?get_parameter_type@?$positional_parameter_base@DV?$stream_output_adapter@D@__crt_stdio_output@@@__crt_stdio_output@@CA?AW4parameter_type@12@U_CRT_DOUBLE@@@Z 0000000140032b24 f i libucrt:output.obj
 0001:00031b2c       ?get_parameter_type@?$positional_parameter_base@DV?$stream_output_adapter@D@__crt_stdio_output@@@__crt_stdio_output@@CA?AW4parameter_type@12@_J@Z 0000000140032b2c f i libucrt:output.obj
 0001:00031b34       ?get_parameter_type@?$positional_parameter_base@DV?$stream_output_adapter@D@__crt_stdio_output@@@__crt_stdio_output@@CA?AW4parameter_type@12@_K@Z 0000000140032b34 f i libucrt:output.obj
 0001:00031b3c       ?get_parameter_type@?$positional_parameter_base@DV?$stream_output_adapter@D@__crt_stdio_output@@@__crt_stdio_output@@CA?AW4parameter_type@12@_W@Z 0000000140032b3c f i libucrt:output.obj
 0001:00031b44       ?get_parameter_type@?$positional_parameter_base@DV?$string_output_adapter@D@__crt_stdio_output@@@__crt_stdio_output@@CA?AW4parameter_type@12@F@Z 0000000140032b44 f i libucrt:output.obj
 0001:00031b4c       ?get_parameter_type@?$positional_parameter_base@DV?$string_output_adapter@D@__crt_stdio_output@@@__crt_stdio_output@@CA?AW4parameter_type@12@G@Z 0000000140032b4c f i libucrt:output.obj
 0001:00031b54       ?get_parameter_type@?$positional_parameter_base@DV?$string_output_adapter@D@__crt_stdio_output@@@__crt_stdio_output@@CA?AW4parameter_type@12@H@Z 0000000140032b54 f i libucrt:output.obj
 0001:00031b5c       ?get_parameter_type@?$positional_parameter_base@DV?$string_output_adapter@D@__crt_stdio_output@@@__crt_stdio_output@@CA?AW4parameter_type@12@I@Z 0000000140032b5c f i libucrt:output.obj
 0001:00031b64       ?get_parameter_type@?$positional_parameter_base@DV?$string_output_adapter@D@__crt_stdio_output@@@__crt_stdio_output@@CA?AW4parameter_type@12@U_CRT_DOUBLE@@@Z 0000000140032b64 f i libucrt:output.obj
 0001:00031b6c       ?get_parameter_type@?$positional_parameter_base@DV?$string_output_adapter@D@__crt_stdio_output@@@__crt_stdio_output@@CA?AW4parameter_type@12@_J@Z 0000000140032b6c f i libucrt:output.obj
 0001:00031b74       ?get_parameter_type@?$positional_parameter_base@DV?$string_output_adapter@D@__crt_stdio_output@@@__crt_stdio_output@@CA?AW4parameter_type@12@_K@Z 0000000140032b74 f i libucrt:output.obj
 0001:00031b7c       ?get_parameter_type@?$positional_parameter_base@DV?$string_output_adapter@D@__crt_stdio_output@@@__crt_stdio_output@@CA?AW4parameter_type@12@_W@Z 0000000140032b7c f i libucrt:output.obj
 0001:00031b84       ?get_parameter_type@?$positional_parameter_base@_WV?$stream_output_adapter@_W@__crt_stdio_output@@@__crt_stdio_output@@CA?AW4parameter_type@12@F@Z 0000000140032b84 f i libucrt:output.obj
 0001:00031b8c       ?get_parameter_type@?$positional_parameter_base@_WV?$stream_output_adapter@_W@__crt_stdio_output@@@__crt_stdio_output@@CA?AW4parameter_type@12@G@Z 0000000140032b8c f i libucrt:output.obj
 0001:00031b94       ?get_parameter_type@?$positional_parameter_base@_WV?$stream_output_adapter@_W@__crt_stdio_output@@@__crt_stdio_output@@CA?AW4parameter_type@12@H@Z 0000000140032b94 f i libucrt:output.obj
 0001:00031b9c       ?get_parameter_type@?$positional_parameter_base@_WV?$stream_output_adapter@_W@__crt_stdio_output@@@__crt_stdio_output@@CA?AW4parameter_type@12@I@Z 0000000140032b9c f i libucrt:output.obj
 0001:00031ba4       ?get_parameter_type@?$positional_parameter_base@_WV?$stream_output_adapter@_W@__crt_stdio_output@@@__crt_stdio_output@@CA?AW4parameter_type@12@U_CRT_DOUBLE@@@Z 0000000140032ba4 f i libucrt:output.obj
 0001:00031bac       ?get_parameter_type@?$positional_parameter_base@_WV?$stream_output_adapter@_W@__crt_stdio_output@@@__crt_stdio_output@@CA?AW4parameter_type@12@_J@Z 0000000140032bac f i libucrt:output.obj
 0001:00031bb4       ?get_parameter_type@?$positional_parameter_base@_WV?$stream_output_adapter@_W@__crt_stdio_output@@@__crt_stdio_output@@CA?AW4parameter_type@12@_K@Z 0000000140032bb4 f i libucrt:output.obj
 0001:00031bbc       ?get_parameter_type@?$positional_parameter_base@_WV?$stream_output_adapter@_W@__crt_stdio_output@@@__crt_stdio_output@@CA?AW4parameter_type@12@_W@Z 0000000140032bbc f i libucrt:output.obj
 0001:00031bc4       ?get_parameter_type@?$positional_parameter_base@_WV?$string_output_adapter@_W@__crt_stdio_output@@@__crt_stdio_output@@CA?AW4parameter_type@12@F@Z 0000000140032bc4 f i libucrt:output.obj
 0001:00031bcc       ?get_parameter_type@?$positional_parameter_base@_WV?$string_output_adapter@_W@__crt_stdio_output@@@__crt_stdio_output@@CA?AW4parameter_type@12@G@Z 0000000140032bcc f i libucrt:output.obj
 0001:00031bd4       ?get_parameter_type@?$positional_parameter_base@_WV?$string_output_adapter@_W@__crt_stdio_output@@@__crt_stdio_output@@CA?AW4parameter_type@12@H@Z 0000000140032bd4 f i libucrt:output.obj
 0001:00031bdc       ?get_parameter_type@?$positional_parameter_base@_WV?$string_output_adapter@_W@__crt_stdio_output@@@__crt_stdio_output@@CA?AW4parameter_type@12@I@Z 0000000140032bdc f i libucrt:output.obj
 0001:00031be4       ?get_parameter_type@?$positional_parameter_base@_WV?$string_output_adapter@_W@__crt_stdio_output@@@__crt_stdio_output@@CA?AW4parameter_type@12@U_CRT_DOUBLE@@@Z 0000000140032be4 f i libucrt:output.obj
 0001:00031bec       ?get_parameter_type@?$positional_parameter_base@_WV?$string_output_adapter@_W@__crt_stdio_output@@@__crt_stdio_output@@CA?AW4parameter_type@12@_J@Z 0000000140032bec f i libucrt:output.obj
 0001:00031bf4       ?get_parameter_type@?$positional_parameter_base@_WV?$string_output_adapter@_W@__crt_stdio_output@@@__crt_stdio_output@@CA?AW4parameter_type@12@_K@Z 0000000140032bf4 f i libucrt:output.obj
 0001:00031bfc       ?get_parameter_type@?$positional_parameter_base@_WV?$string_output_adapter@_W@__crt_stdio_output@@@__crt_stdio_output@@CA?AW4parameter_type@12@_W@Z 0000000140032bfc f i libucrt:output.obj
 0001:00031c04       ?has_flag@?$output_processor@DV?$stream_output_adapter@D@__crt_stdio_output@@V?$format_validation_base@DV?$stream_output_adapter@D@__crt_stdio_output@@@2@@__crt_stdio_output@@AEBA_NI@Z 0000000140032c04 f i libucrt:output.obj
 0001:00031c0c       ?has_flag@?$output_processor@DV?$stream_output_adapter@D@__crt_stdio_output@@V?$positional_parameter_base@DV?$stream_output_adapter@D@__crt_stdio_output@@@2@@__crt_stdio_output@@AEBA_NI@Z 0000000140032c0c f i libucrt:output.obj
 0001:00031c14       ?has_flag@?$output_processor@DV?$stream_output_adapter@D@__crt_stdio_output@@V?$standard_base@DV?$stream_output_adapter@D@__crt_stdio_output@@@2@@__crt_stdio_output@@AEBA_NI@Z 0000000140032c14 f i libucrt:output.obj
 0001:00031c1c       ?has_flag@?$output_processor@DV?$string_output_adapter@D@__crt_stdio_output@@V?$format_validation_base@DV?$string_output_adapter@D@__crt_stdio_output@@@2@@__crt_stdio_output@@AEBA_NI@Z 0000000140032c1c f i libucrt:output.obj
 0001:00031c24       ?has_flag@?$output_processor@DV?$string_output_adapter@D@__crt_stdio_output@@V?$positional_parameter_base@DV?$string_output_adapter@D@__crt_stdio_output@@@2@@__crt_stdio_output@@AEBA_NI@Z 0000000140032c24 f i libucrt:output.obj
 0001:00031c2c       ?has_flag@?$output_processor@DV?$string_output_adapter@D@__crt_stdio_output@@V?$standard_base@DV?$string_output_adapter@D@__crt_stdio_output@@@2@@__crt_stdio_output@@AEBA_NI@Z 0000000140032c2c f i libucrt:output.obj
 0001:00031c34       ?has_flag@?$output_processor@_WV?$stream_output_adapter@_W@__crt_stdio_output@@V?$format_validation_base@_WV?$stream_output_adapter@_W@__crt_stdio_output@@@2@@__crt_stdio_output@@AEBA_NI@Z 0000000140032c34 f i libucrt:output.obj
 0001:00031c3c       ?has_flag@?$output_processor@_WV?$stream_output_adapter@_W@__crt_stdio_output@@V?$positional_parameter_base@_WV?$stream_output_adapter@_W@__crt_stdio_output@@@2@@__crt_stdio_output@@AEBA_NI@Z 0000000140032c3c f i libucrt:output.obj
 0001:00031c44       ?has_flag@?$output_processor@_WV?$stream_output_adapter@_W@__crt_stdio_output@@V?$standard_base@_WV?$stream_output_adapter@_W@__crt_stdio_output@@@2@@__crt_stdio_output@@AEBA_NI@Z 0000000140032c44 f i libucrt:output.obj
 0001:00031c4c       ?has_flag@?$output_processor@_WV?$string_output_adapter@_W@__crt_stdio_output@@V?$format_validation_base@_WV?$string_output_adapter@_W@__crt_stdio_output@@@2@@__crt_stdio_output@@AEBA_NI@Z 0000000140032c4c f i libucrt:output.obj
 0001:00031c54       ?has_flag@?$output_processor@_WV?$string_output_adapter@_W@__crt_stdio_output@@V?$positional_parameter_base@_WV?$string_output_adapter@_W@__crt_stdio_output@@@2@@__crt_stdio_output@@AEBA_NI@Z 0000000140032c54 f i libucrt:output.obj
 0001:00031c5c       ?has_flag@?$output_processor@_WV?$string_output_adapter@_W@__crt_stdio_output@@V?$standard_base@_WV?$string_output_adapter@_W@__crt_stdio_output@@@2@@__crt_stdio_output@@AEBA_NI@Z 0000000140032c5c f i libucrt:output.obj
 0001:00031c64       ?is_positional_parameter_reappearance_consistent@?$positional_parameter_base@DV?$stream_output_adapter@D@__crt_stdio_output@@@__crt_stdio_output@@AEAA_NAEBUparameter_data@12@W4parameter_type@12@DW4length_modifier@2@@Z 0000000140032c64 f i libucrt:output.obj
 0001:00031f28       ?is_positional_parameter_reappearance_consistent@?$positional_parameter_base@DV?$string_output_adapter@D@__crt_stdio_output@@@__crt_stdio_output@@AEAA_NAEBUparameter_data@12@W4parameter_type@12@DW4length_modifier@2@@Z 0000000140032f28 f i libucrt:output.obj
 0001:000321ec       ?is_positional_parameter_reappearance_consistent@?$positional_parameter_base@_WV?$stream_output_adapter@_W@__crt_stdio_output@@@__crt_stdio_output@@AEAA_NAEBUparameter_data@12@W4parameter_type@12@_WW4length_modifier@2@@Z 00000001400331ec f i libucrt:output.obj
 0001:00032470       ?is_positional_parameter_reappearance_consistent@?$positional_parameter_base@_WV?$string_output_adapter@_W@__crt_stdio_output@@@__crt_stdio_output@@AEAA_NAEBUparameter_data@12@W4parameter_type@12@_WW4length_modifier@2@@Z 0000000140033470 f i libucrt:output.obj
 0001:000326f4       ?maximum_signed_value@__crt_strtox@@YAJK@Z 00000001400336f4 f i libucrt:output.obj
 0001:000326fc       ?minimum_signed_value@__crt_strtox@@YAJK@Z 00000001400336fc f i libucrt:output.obj
 0001:00032704       ?narrow_null_string@?$output_processor@DV?$stream_output_adapter@D@__crt_stdio_output@@V?$format_validation_base@DV?$stream_output_adapter@D@__crt_stdio_output@@@2@@__crt_stdio_output@@CAPEADXZ 0000000140033704 f i libucrt:output.obj
 0001:00032710       ?narrow_null_string@?$output_processor@DV?$stream_output_adapter@D@__crt_stdio_output@@V?$positional_parameter_base@DV?$stream_output_adapter@D@__crt_stdio_output@@@2@@__crt_stdio_output@@CAPEADXZ 0000000140033710 f i libucrt:output.obj
 0001:0003271c       ?narrow_null_string@?$output_processor@DV?$stream_output_adapter@D@__crt_stdio_output@@V?$standard_base@DV?$stream_output_adapter@D@__crt_stdio_output@@@2@@__crt_stdio_output@@CAPEADXZ 000000014003371c f i libucrt:output.obj
 0001:00032728       ?narrow_null_string@?$output_processor@DV?$string_output_adapter@D@__crt_stdio_output@@V?$format_validation_base@DV?$string_output_adapter@D@__crt_stdio_output@@@2@@__crt_stdio_output@@CAPEADXZ 0000000140033728 f i libucrt:output.obj
 0001:00032734       ?narrow_null_string@?$output_processor@DV?$string_output_adapter@D@__crt_stdio_output@@V?$positional_parameter_base@DV?$string_output_adapter@D@__crt_stdio_output@@@2@@__crt_stdio_output@@CAPEADXZ 0000000140033734 f i libucrt:output.obj
 0001:00032740       ?narrow_null_string@?$output_processor@DV?$string_output_adapter@D@__crt_stdio_output@@V?$standard_base@DV?$string_output_adapter@D@__crt_stdio_output@@@2@@__crt_stdio_output@@CAPEADXZ 0000000140033740 f i libucrt:output.obj
 0001:0003274c       ?narrow_null_string@?$output_processor@_WV?$stream_output_adapter@_W@__crt_stdio_output@@V?$format_validation_base@_WV?$stream_output_adapter@_W@__crt_stdio_output@@@2@@__crt_stdio_output@@CAPEADXZ 000000014003374c f i libucrt:output.obj
 0001:00032758       ?narrow_null_string@?$output_processor@_WV?$stream_output_adapter@_W@__crt_stdio_output@@V?$positional_parameter_base@_WV?$stream_output_adapter@_W@__crt_stdio_output@@@2@@__crt_stdio_output@@CAPEADXZ 0000000140033758 f i libucrt:output.obj
 0001:00032764       ?narrow_null_string@?$output_processor@_WV?$stream_output_adapter@_W@__crt_stdio_output@@V?$standard_base@_WV?$stream_output_adapter@_W@__crt_stdio_output@@@2@@__crt_stdio_output@@CAPEADXZ 0000000140033764 f i libucrt:output.obj
 0001:00032770       ?narrow_null_string@?$output_processor@_WV?$string_output_adapter@_W@__crt_stdio_output@@V?$format_validation_base@_WV?$string_output_adapter@_W@__crt_stdio_output@@@2@@__crt_stdio_output@@CAPEADXZ 0000000140033770 f i libucrt:output.obj
 0001:0003277c       ?narrow_null_string@?$output_processor@_WV?$string_output_adapter@_W@__crt_stdio_output@@V?$positional_parameter_base@_WV?$string_output_adapter@_W@__crt_stdio_output@@@2@@__crt_stdio_output@@CAPEADXZ 000000014003377c f i libucrt:output.obj
 0001:00032788       ?narrow_null_string@?$output_processor@_WV?$string_output_adapter@_W@__crt_stdio_output@@V?$standard_base@_WV?$string_output_adapter@_W@__crt_stdio_output@@@2@@__crt_stdio_output@@CAPEADXZ 0000000140033788 f i libucrt:output.obj
 0001:00032794       ?parse_digit@__crt_strtox@@YAID@Z 0000000140033794 f i libucrt:output.obj
 0001:000327d0       ?parse_digit@__crt_strtox@@YAI_W@Z 00000001400337d0 f i libucrt:output.obj
 0001:000329f8       ?parse_int_from_format_string@?$output_processor@DV?$stream_output_adapter@D@__crt_stdio_output@@V?$format_validation_base@DV?$stream_output_adapter@D@__crt_stdio_output@@@2@@__crt_stdio_output@@AEAA_NQEAH@Z 00000001400339f8 f i libucrt:output.obj
 0001:00032aa8       ?parse_int_from_format_string@?$output_processor@DV?$stream_output_adapter@D@__crt_stdio_output@@V?$positional_parameter_base@DV?$stream_output_adapter@D@__crt_stdio_output@@@2@@__crt_stdio_output@@AEAA_NQEAH@Z 0000000140033aa8 f i libucrt:output.obj
 0001:00032b58       ?parse_int_from_format_string@?$output_processor@DV?$stream_output_adapter@D@__crt_stdio_output@@V?$standard_base@DV?$stream_output_adapter@D@__crt_stdio_output@@@2@@__crt_stdio_output@@AEAA_NQEAH@Z 0000000140033b58 f i libucrt:output.obj
 0001:00032c08       ?parse_int_from_format_string@?$output_processor@DV?$string_output_adapter@D@__crt_stdio_output@@V?$format_validation_base@DV?$string_output_adapter@D@__crt_stdio_output@@@2@@__crt_stdio_output@@AEAA_NQEAH@Z 0000000140033c08 f i libucrt:output.obj
 0001:00032cb8       ?parse_int_from_format_string@?$output_processor@DV?$string_output_adapter@D@__crt_stdio_output@@V?$positional_parameter_base@DV?$string_output_adapter@D@__crt_stdio_output@@@2@@__crt_stdio_output@@AEAA_NQEAH@Z 0000000140033cb8 f i libucrt:output.obj
 0001:00032d68       ?parse_int_from_format_string@?$output_processor@DV?$string_output_adapter@D@__crt_stdio_output@@V?$standard_base@DV?$string_output_adapter@D@__crt_stdio_output@@@2@@__crt_stdio_output@@AEAA_NQEAH@Z 0000000140033d68 f i libucrt:output.obj
 0001:00032e18       ?parse_int_from_format_string@?$output_processor@_WV?$stream_output_adapter@_W@__crt_stdio_output@@V?$format_validation_base@_WV?$stream_output_adapter@_W@__crt_stdio_output@@@2@@__crt_stdio_output@@AEAA_NQEAH@Z 0000000140033e18 f i libucrt:output.obj
 0001:00032ecc       ?parse_int_from_format_string@?$output_processor@_WV?$stream_output_adapter@_W@__crt_stdio_output@@V?$positional_parameter_base@_WV?$stream_output_adapter@_W@__crt_stdio_output@@@2@@__crt_stdio_output@@AEAA_NQEAH@Z 0000000140033ecc f i libucrt:output.obj
 0001:00032f80       ?parse_int_from_format_string@?$output_processor@_WV?$stream_output_adapter@_W@__crt_stdio_output@@V?$standard_base@_WV?$stream_output_adapter@_W@__crt_stdio_output@@@2@@__crt_stdio_output@@AEAA_NQEAH@Z 0000000140033f80 f i libucrt:output.obj
 0001:00033034       ?parse_int_from_format_string@?$output_processor@_WV?$string_output_adapter@_W@__crt_stdio_output@@V?$format_validation_base@_WV?$string_output_adapter@_W@__crt_stdio_output@@@2@@__crt_stdio_output@@AEAA_NQEAH@Z 0000000140034034 f i libucrt:output.obj
 0001:000330e8       ?parse_int_from_format_string@?$output_processor@_WV?$string_output_adapter@_W@__crt_stdio_output@@V?$positional_parameter_base@_WV?$string_output_adapter@_W@__crt_stdio_output@@@2@@__crt_stdio_output@@AEAA_NQEAH@Z 00000001400340e8 f i libucrt:output.obj
 0001:0003319c       ?parse_int_from_format_string@?$output_processor@_WV?$string_output_adapter@_W@__crt_stdio_output@@V?$standard_base@_WV?$string_output_adapter@_W@__crt_stdio_output@@@2@@__crt_stdio_output@@AEAA_NQEAH@Z 000000014003419c f i libucrt:output.obj
 0001:00033250       ?process@?$output_processor@DV?$stream_output_adapter@D@__crt_stdio_output@@V?$format_validation_base@DV?$stream_output_adapter@D@__crt_stdio_output@@@2@@__crt_stdio_output@@QEAAHXZ 0000000140034250 f i libucrt:output.obj
 0001:000336d4       ?process@?$output_processor@DV?$stream_output_adapter@D@__crt_stdio_output@@V?$positional_parameter_base@DV?$stream_output_adapter@D@__crt_stdio_output@@@2@@__crt_stdio_output@@QEAAHXZ 00000001400346d4 f i libucrt:output.obj
 0001:00033c14       ?process@?$output_processor@DV?$stream_output_adapter@D@__crt_stdio_output@@V?$standard_base@DV?$stream_output_adapter@D@__crt_stdio_output@@@2@@__crt_stdio_output@@QEAAHXZ 0000000140034c14 f i libucrt:output.obj
 0001:00034090       ?process@?$output_processor@DV?$string_output_adapter@D@__crt_stdio_output@@V?$format_validation_base@DV?$string_output_adapter@D@__crt_stdio_output@@@2@@__crt_stdio_output@@QEAAHXZ 0000000140035090 f i libucrt:output.obj
 0001:000344f4       ?process@?$output_processor@DV?$string_output_adapter@D@__crt_stdio_output@@V?$positional_parameter_base@DV?$string_output_adapter@D@__crt_stdio_output@@@2@@__crt_stdio_output@@QEAAHXZ 00000001400354f4 f i libucrt:output.obj
 0001:00034a10       ?process@?$output_processor@DV?$string_output_adapter@D@__crt_stdio_output@@V?$standard_base@DV?$string_output_adapter@D@__crt_stdio_output@@@2@@__crt_stdio_output@@QEAAHXZ 0000000140035a10 f i libucrt:output.obj
 0001:00034e70       ?process@?$output_processor@_WV?$stream_output_adapter@_W@__crt_stdio_output@@V?$format_validation_base@_WV?$stream_output_adapter@_W@__crt_stdio_output@@@2@@__crt_stdio_output@@QEAAHXZ 0000000140035e70 f i libucrt:output.obj
 0001:00035204       ?process@?$output_processor@_WV?$stream_output_adapter@_W@__crt_stdio_output@@V?$positional_parameter_base@_WV?$stream_output_adapter@_W@__crt_stdio_output@@@2@@__crt_stdio_output@@QEAAHXZ 0000000140036204 f i libucrt:output.obj
 0001:00035650       ?process@?$output_processor@_WV?$stream_output_adapter@_W@__crt_stdio_output@@V?$standard_base@_WV?$stream_output_adapter@_W@__crt_stdio_output@@@2@@__crt_stdio_output@@QEAAHXZ 0000000140036650 f i libucrt:output.obj
 0001:000359d4       ?process@?$output_processor@_WV?$string_output_adapter@_W@__crt_stdio_output@@V?$format_validation_base@_WV?$string_output_adapter@_W@__crt_stdio_output@@@2@@__crt_stdio_output@@QEAAHXZ 00000001400369d4 f i libucrt:output.obj
 0001:00035d60       ?process@?$output_processor@_WV?$string_output_adapter@_W@__crt_stdio_output@@V?$positional_parameter_base@_WV?$string_output_adapter@_W@__crt_stdio_output@@@2@@__crt_stdio_output@@QEAAHXZ 0000000140036d60 f i libucrt:output.obj
 0001:000361a4       ?process@?$output_processor@_WV?$string_output_adapter@_W@__crt_stdio_output@@V?$standard_base@_WV?$string_output_adapter@_W@__crt_stdio_output@@@2@@__crt_stdio_output@@QEAAHXZ 00000001400371a4 f i libucrt:output.obj
 0001:00036530       ?restore_state@?$c_string_character_source@D@__crt_strtox@@QEAA_NQEBD@Z 0000000140037530 f i libucrt:output.obj
 0001:00036538       ?restore_state@?$c_string_character_source@_W@__crt_strtox@@QEAA_NQEB_W@Z 0000000140037538 f i libucrt:output.obj
 0001:00036540       ?save_state@?$c_string_character_source@D@__crt_strtox@@QEBAPEBDXZ 0000000140037540 f i libucrt:output.obj
 0001:00036544       ?save_state@?$c_string_character_source@_W@__crt_strtox@@QEBAPEB_WXZ 0000000140037544 f i libucrt:output.obj
 0001:00036548       ?set_flag@?$output_processor@DV?$stream_output_adapter@D@__crt_stdio_output@@V?$format_validation_base@DV?$stream_output_adapter@D@__crt_stdio_output@@@2@@__crt_stdio_output@@AEAAXI@Z 0000000140037548 f i libucrt:output.obj
 0001:0003654c       ?set_flag@?$output_processor@DV?$stream_output_adapter@D@__crt_stdio_output@@V?$positional_parameter_base@DV?$stream_output_adapter@D@__crt_stdio_output@@@2@@__crt_stdio_output@@AEAAXI@Z 000000014003754c f i libucrt:output.obj
 0001:00036550       ?set_flag@?$output_processor@DV?$stream_output_adapter@D@__crt_stdio_output@@V?$standard_base@DV?$stream_output_adapter@D@__crt_stdio_output@@@2@@__crt_stdio_output@@AEAAXI@Z 0000000140037550 f i libucrt:output.obj
 0001:00036554       ?set_flag@?$output_processor@DV?$string_output_adapter@D@__crt_stdio_output@@V?$format_validation_base@DV?$string_output_adapter@D@__crt_stdio_output@@@2@@__crt_stdio_output@@AEAAXI@Z 0000000140037554 f i libucrt:output.obj
 0001:00036558       ?set_flag@?$output_processor@DV?$string_output_adapter@D@__crt_stdio_output@@V?$positional_parameter_base@DV?$string_output_adapter@D@__crt_stdio_output@@@2@@__crt_stdio_output@@AEAAXI@Z 0000000140037558 f i libucrt:output.obj
 0001:0003655c       ?set_flag@?$output_processor@DV?$string_output_adapter@D@__crt_stdio_output@@V?$standard_base@DV?$string_output_adapter@D@__crt_stdio_output@@@2@@__crt_stdio_output@@AEAAXI@Z 000000014003755c f i libucrt:output.obj
 0001:00036560       ?set_flag@?$output_processor@_WV?$stream_output_adapter@_W@__crt_stdio_output@@V?$format_validation_base@_WV?$stream_output_adapter@_W@__crt_stdio_output@@@2@@__crt_stdio_output@@AEAAXI@Z 0000000140037560 f i libucrt:output.obj
 0001:00036564       ?set_flag@?$output_processor@_WV?$stream_output_adapter@_W@__crt_stdio_output@@V?$positional_parameter_base@_WV?$stream_output_adapter@_W@__crt_stdio_output@@@2@@__crt_stdio_output@@AEAAXI@Z 0000000140037564 f i libucrt:output.obj
 0001:00036568       ?set_flag@?$output_processor@_WV?$stream_output_adapter@_W@__crt_stdio_output@@V?$standard_base@_WV?$stream_output_adapter@_W@__crt_stdio_output@@@2@@__crt_stdio_output@@AEAAXI@Z 0000000140037568 f i libucrt:output.obj
 0001:0003656c       ?set_flag@?$output_processor@_WV?$string_output_adapter@_W@__crt_stdio_output@@V?$format_validation_base@_WV?$string_output_adapter@_W@__crt_stdio_output@@@2@@__crt_stdio_output@@AEAAXI@Z 000000014003756c f i libucrt:output.obj
 0001:00036570       ?set_flag@?$output_processor@_WV?$string_output_adapter@_W@__crt_stdio_output@@V?$positional_parameter_base@_WV?$string_output_adapter@_W@__crt_stdio_output@@@2@@__crt_stdio_output@@AEAAXI@Z 0000000140037570 f i libucrt:output.obj
 0001:00036574       ?set_flag@?$output_processor@_WV?$string_output_adapter@_W@__crt_stdio_output@@V?$standard_base@_WV?$string_output_adapter@_W@__crt_stdio_output@@@2@@__crt_stdio_output@@AEAAXI@Z 0000000140037574 f i libucrt:output.obj
 0001:00036578       ?should_format@?$positional_parameter_base@DV?$stream_output_adapter@D@__crt_stdio_output@@@__crt_stdio_output@@IEAA_NXZ 0000000140037578 f i libucrt:output.obj
 0001:00036598       ?should_format@?$positional_parameter_base@DV?$string_output_adapter@D@__crt_stdio_output@@@__crt_stdio_output@@IEAA_NXZ 0000000140037598 f i libucrt:output.obj
 0001:000365b8       ?should_format@?$positional_parameter_base@_WV?$stream_output_adapter@_W@__crt_stdio_output@@@__crt_stdio_output@@IEAA_NXZ 00000001400375b8 f i libucrt:output.obj
 0001:000365d8       ?should_format@?$positional_parameter_base@_WV?$string_output_adapter@_W@__crt_stdio_output@@@__crt_stdio_output@@IEAA_NXZ 00000001400375d8 f i libucrt:output.obj
 0001:000365f8       ?should_format@?$standard_base@DV?$stream_output_adapter@D@__crt_stdio_output@@@__crt_stdio_output@@IEAA_NXZ 00000001400375f8 f i libucrt:output.obj
 0001:000365fc       ?should_format@?$standard_base@DV?$string_output_adapter@D@__crt_stdio_output@@@__crt_stdio_output@@IEAA_NXZ 00000001400375fc f i libucrt:output.obj
 0001:00036600       ?should_format@?$standard_base@_WV?$stream_output_adapter@_W@__crt_stdio_output@@@__crt_stdio_output@@IEAA_NXZ 0000000140037600 f i libucrt:output.obj
 0001:00036604       ?should_format@?$standard_base@_WV?$string_output_adapter@_W@__crt_stdio_output@@@__crt_stdio_output@@IEAA_NXZ 0000000140037604 f i libucrt:output.obj
 0001:00036608       ?should_skip_normal_state_processing@?$positional_parameter_base@DV?$stream_output_adapter@D@__crt_stdio_output@@@__crt_stdio_output@@IEAA_NXZ 0000000140037608 f i libucrt:output.obj
 0001:0003663c       ?should_skip_normal_state_processing@?$positional_parameter_base@DV?$string_output_adapter@D@__crt_stdio_output@@@__crt_stdio_output@@IEAA_NXZ 000000014003763c f i libucrt:output.obj
 0001:00036670       ?should_skip_normal_state_processing@?$positional_parameter_base@_WV?$stream_output_adapter@_W@__crt_stdio_output@@@__crt_stdio_output@@IEAA_NXZ 0000000140037670 f i libucrt:output.obj
 0001:000366a4       ?should_skip_normal_state_processing@?$positional_parameter_base@_WV?$string_output_adapter@_W@__crt_stdio_output@@@__crt_stdio_output@@IEAA_NXZ 00000001400376a4 f i libucrt:output.obj
 0001:000366d8       ?should_skip_normal_state_processing@?$standard_base@DV?$stream_output_adapter@D@__crt_stdio_output@@@__crt_stdio_output@@IEAA_NXZ 00000001400376d8 f i libucrt:output.obj
 0001:000366dc       ?should_skip_normal_state_processing@?$standard_base@DV?$string_output_adapter@D@__crt_stdio_output@@@__crt_stdio_output@@IEAA_NXZ 00000001400376dc f i libucrt:output.obj
 0001:000366e0       ?should_skip_normal_state_processing@?$standard_base@_WV?$stream_output_adapter@_W@__crt_stdio_output@@@__crt_stdio_output@@IEAA_NXZ 00000001400376e0 f i libucrt:output.obj
 0001:000366e4       ?should_skip_normal_state_processing@?$standard_base@_WV?$string_output_adapter@_W@__crt_stdio_output@@@__crt_stdio_output@@IEAA_NXZ 00000001400376e4 f i libucrt:output.obj
 0001:000366e8       ?should_skip_type_state_output@?$positional_parameter_base@DV?$stream_output_adapter@D@__crt_stdio_output@@@__crt_stdio_output@@IEBA_NXZ 00000001400376e8 f i libucrt:output.obj
 0001:00036708       ?should_skip_type_state_output@?$positional_parameter_base@DV?$string_output_adapter@D@__crt_stdio_output@@@__crt_stdio_output@@IEBA_NXZ 0000000140037708 f i libucrt:output.obj
 0001:00036728       ?should_skip_type_state_output@?$positional_parameter_base@_WV?$stream_output_adapter@_W@__crt_stdio_output@@@__crt_stdio_output@@IEBA_NXZ 0000000140037728 f i libucrt:output.obj
 0001:00036748       ?should_skip_type_state_output@?$positional_parameter_base@_WV?$string_output_adapter@_W@__crt_stdio_output@@@__crt_stdio_output@@IEBA_NXZ 0000000140037748 f i libucrt:output.obj
 0001:00036768       ?should_skip_type_state_output@?$standard_base@DV?$stream_output_adapter@D@__crt_stdio_output@@@__crt_stdio_output@@IEBA_NXZ 0000000140037768 f i libucrt:output.obj
 0001:0003676c       ?should_skip_type_state_output@?$standard_base@DV?$string_output_adapter@D@__crt_stdio_output@@@__crt_stdio_output@@IEBA_NXZ 000000014003776c f i libucrt:output.obj
 0001:00036770       ?should_skip_type_state_output@?$standard_base@_WV?$stream_output_adapter@_W@__crt_stdio_output@@@__crt_stdio_output@@IEBA_NXZ 0000000140037770 f i libucrt:output.obj
 0001:00036774       ?should_skip_type_state_output@?$standard_base@_WV?$string_output_adapter@_W@__crt_stdio_output@@@__crt_stdio_output@@IEBA_NXZ 0000000140037774 f i libucrt:output.obj
 0001:00036778       ?state_case_dot@?$output_processor@DV?$stream_output_adapter@D@__crt_stdio_output@@V?$format_validation_base@DV?$stream_output_adapter@D@__crt_stdio_output@@@2@@__crt_stdio_output@@AEAA_NXZ 0000000140037778 f i libucrt:output.obj
 0001:00036780       ?state_case_dot@?$output_processor@DV?$stream_output_adapter@D@__crt_stdio_output@@V?$positional_parameter_base@DV?$stream_output_adapter@D@__crt_stdio_output@@@2@@__crt_stdio_output@@AEAA_NXZ 0000000140037780 f i libucrt:output.obj
 0001:00036788       ?state_case_dot@?$output_processor@DV?$stream_output_adapter@D@__crt_stdio_output@@V?$standard_base@DV?$stream_output_adapter@D@__crt_stdio_output@@@2@@__crt_stdio_output@@AEAA_NXZ 0000000140037788 f i libucrt:output.obj
 0001:00036790       ?state_case_dot@?$output_processor@DV?$string_output_adapter@D@__crt_stdio_output@@V?$format_validation_base@DV?$string_output_adapter@D@__crt_stdio_output@@@2@@__crt_stdio_output@@AEAA_NXZ 0000000140037790 f i libucrt:output.obj
 0001:00036798       ?state_case_dot@?$output_processor@DV?$string_output_adapter@D@__crt_stdio_output@@V?$positional_parameter_base@DV?$string_output_adapter@D@__crt_stdio_output@@@2@@__crt_stdio_output@@AEAA_NXZ 0000000140037798 f i libucrt:output.obj
 0001:000367a0       ?state_case_dot@?$output_processor@DV?$string_output_adapter@D@__crt_stdio_output@@V?$standard_base@DV?$string_output_adapter@D@__crt_stdio_output@@@2@@__crt_stdio_output@@AEAA_NXZ 00000001400377a0 f i libucrt:output.obj
 0001:000367a8       ?state_case_dot@?$output_processor@_WV?$stream_output_adapter@_W@__crt_stdio_output@@V?$format_validation_base@_WV?$stream_output_adapter@_W@__crt_stdio_output@@@2@@__crt_stdio_output@@AEAA_NXZ 00000001400377a8 f i libucrt:output.obj
 0001:000367b0       ?state_case_dot@?$output_processor@_WV?$stream_output_adapter@_W@__crt_stdio_output@@V?$positional_parameter_base@_WV?$stream_output_adapter@_W@__crt_stdio_output@@@2@@__crt_stdio_output@@AEAA_NXZ 00000001400377b0 f i libucrt:output.obj
 0001:000367b8       ?state_case_dot@?$output_processor@_WV?$stream_output_adapter@_W@__crt_stdio_output@@V?$standard_base@_WV?$stream_output_adapter@_W@__crt_stdio_output@@@2@@__crt_stdio_output@@AEAA_NXZ 00000001400377b8 f i libucrt:output.obj
 0001:000367c0       ?state_case_dot@?$output_processor@_WV?$string_output_adapter@_W@__crt_stdio_output@@V?$format_validation_base@_WV?$string_output_adapter@_W@__crt_stdio_output@@@2@@__crt_stdio_output@@AEAA_NXZ 00000001400377c0 f i libucrt:output.obj
 0001:000367c8       ?state_case_dot@?$output_processor@_WV?$string_output_adapter@_W@__crt_stdio_output@@V?$positional_parameter_base@_WV?$string_output_adapter@_W@__crt_stdio_output@@@2@@__crt_stdio_output@@AEAA_NXZ 00000001400377c8 f i libucrt:output.obj
 0001:000367d0       ?state_case_dot@?$output_processor@_WV?$string_output_adapter@_W@__crt_stdio_output@@V?$standard_base@_WV?$string_output_adapter@_W@__crt_stdio_output@@@2@@__crt_stdio_output@@AEAA_NXZ 00000001400377d0 f i libucrt:output.obj
 0001:000367d8       ?state_case_flag@?$output_processor@DV?$stream_output_adapter@D@__crt_stdio_output@@V?$format_validation_base@DV?$stream_output_adapter@D@__crt_stdio_output@@@2@@__crt_stdio_output@@AEAA_NXZ 00000001400377d8 f i libucrt:output.obj
 0001:0003681c       ?state_case_flag@?$output_processor@DV?$stream_output_adapter@D@__crt_stdio_output@@V?$positional_parameter_base@DV?$stream_output_adapter@D@__crt_stdio_output@@@2@@__crt_stdio_output@@AEAA_NXZ 000000014003781c f i libucrt:output.obj
 0001:00036860       ?state_case_flag@?$output_processor@DV?$stream_output_adapter@D@__crt_stdio_output@@V?$standard_base@DV?$stream_output_adapter@D@__crt_stdio_output@@@2@@__crt_stdio_output@@AEAA_NXZ 0000000140037860 f i libucrt:output.obj
 0001:000368a4       ?state_case_flag@?$output_processor@DV?$string_output_adapter@D@__crt_stdio_output@@V?$format_validation_base@DV?$string_output_adapter@D@__crt_stdio_output@@@2@@__crt_stdio_output@@AEAA_NXZ 00000001400378a4 f i libucrt:output.obj
 0001:000368e8       ?state_case_flag@?$output_processor@DV?$string_output_adapter@D@__crt_stdio_output@@V?$positional_parameter_base@DV?$string_output_adapter@D@__crt_stdio_output@@@2@@__crt_stdio_output@@AEAA_NXZ 00000001400378e8 f i libucrt:output.obj
 0001:0003692c       ?state_case_flag@?$output_processor@DV?$string_output_adapter@D@__crt_stdio_output@@V?$standard_base@DV?$string_output_adapter@D@__crt_stdio_output@@@2@@__crt_stdio_output@@AEAA_NXZ 000000014003792c f i libucrt:output.obj
 0001:00036970       ?state_case_flag@?$output_processor@_WV?$stream_output_adapter@_W@__crt_stdio_output@@V?$format_validation_base@_WV?$stream_output_adapter@_W@__crt_stdio_output@@@2@@__crt_stdio_output@@AEAA_NXZ 0000000140037970 f i libucrt:output.obj
 0001:000369c8       ?state_case_flag@?$output_processor@_WV?$stream_output_adapter@_W@__crt_stdio_output@@V?$positional_parameter_base@_WV?$stream_output_adapter@_W@__crt_stdio_output@@@2@@__crt_stdio_output@@AEAA_NXZ 00000001400379c8 f i libucrt:output.obj
 0001:00036a20       ?state_case_flag@?$output_processor@_WV?$stream_output_adapter@_W@__crt_stdio_output@@V?$standard_base@_WV?$stream_output_adapter@_W@__crt_stdio_output@@@2@@__crt_stdio_output@@AEAA_NXZ 0000000140037a20 f i libucrt:output.obj
 0001:00036a78       ?state_case_flag@?$output_processor@_WV?$string_output_adapter@_W@__crt_stdio_output@@V?$format_validation_base@_WV?$string_output_adapter@_W@__crt_stdio_output@@@2@@__crt_stdio_output@@AEAA_NXZ 0000000140037a78 f i libucrt:output.obj
 0001:00036ad0       ?state_case_flag@?$output_processor@_WV?$string_output_adapter@_W@__crt_stdio_output@@V?$positional_parameter_base@_WV?$string_output_adapter@_W@__crt_stdio_output@@@2@@__crt_stdio_output@@AEAA_NXZ 0000000140037ad0 f i libucrt:output.obj
 0001:00036b28       ?state_case_flag@?$output_processor@_WV?$string_output_adapter@_W@__crt_stdio_output@@V?$standard_base@_WV?$string_output_adapter@_W@__crt_stdio_output@@@2@@__crt_stdio_output@@AEAA_NXZ 0000000140037b28 f i libucrt:output.obj
 0001:00036b80       ?state_case_normal@?$output_processor@DV?$stream_output_adapter@D@__crt_stdio_output@@V?$format_validation_base@DV?$stream_output_adapter@D@__crt_stdio_output@@@2@@__crt_stdio_output@@AEAA_NXZ 0000000140037b80 f i libucrt:output.obj
 0001:00036d28       ?state_case_normal@?$output_processor@DV?$stream_output_adapter@D@__crt_stdio_output@@V?$positional_parameter_base@DV?$stream_output_adapter@D@__crt_stdio_output@@@2@@__crt_stdio_output@@AEAA_NXZ 0000000140037d28 f i libucrt:output.obj
 0001:00036f08       ?state_case_normal@?$output_processor@DV?$stream_output_adapter@D@__crt_stdio_output@@V?$standard_base@DV?$stream_output_adapter@D@__crt_stdio_output@@@2@@__crt_stdio_output@@AEAA_NXZ 0000000140037f08 f i libucrt:output.obj
 0001:000370b0       ?state_case_normal@?$output_processor@DV?$string_output_adapter@D@__crt_stdio_output@@V?$format_validation_base@DV?$string_output_adapter@D@__crt_stdio_output@@@2@@__crt_stdio_output@@AEAA_NXZ 00000001400380b0 f i libucrt:output.obj
 0001:00037250       ?state_case_normal@?$output_processor@DV?$string_output_adapter@D@__crt_stdio_output@@V?$positional_parameter_base@DV?$string_output_adapter@D@__crt_stdio_output@@@2@@__crt_stdio_output@@AEAA_NXZ 0000000140038250 f i libucrt:output.obj
 0001:00037424       ?state_case_normal@?$output_processor@DV?$string_output_adapter@D@__crt_stdio_output@@V?$standard_base@DV?$string_output_adapter@D@__crt_stdio_output@@@2@@__crt_stdio_output@@AEAA_NXZ 0000000140038424 f i libucrt:output.obj
 0001:000375c4       ?state_case_normal@?$output_processor@_WV?$stream_output_adapter@_W@__crt_stdio_output@@V?$format_validation_base@_WV?$stream_output_adapter@_W@__crt_stdio_output@@@2@@__crt_stdio_output@@AEAA_NXZ 00000001400385c4 f i libucrt:output.obj
 0001:00037638       ?state_case_normal@?$output_processor@_WV?$stream_output_adapter@_W@__crt_stdio_output@@V?$positional_parameter_base@_WV?$stream_output_adapter@_W@__crt_stdio_output@@@2@@__crt_stdio_output@@AEAA_NXZ 0000000140038638 f i libucrt:output.obj
 0001:000376dc       ?state_case_normal@?$output_processor@_WV?$stream_output_adapter@_W@__crt_stdio_output@@V?$standard_base@_WV?$stream_output_adapter@_W@__crt_stdio_output@@@2@@__crt_stdio_output@@AEAA_NXZ 00000001400386dc f i libucrt:output.obj
 0001:00037750       ?state_case_normal@?$output_processor@_WV?$string_output_adapter@_W@__crt_stdio_output@@V?$format_validation_base@_WV?$string_output_adapter@_W@__crt_stdio_output@@@2@@__crt_stdio_output@@AEAA_NXZ 0000000140038750 f i libucrt:output.obj
 0001:000377bc       ?state_case_normal@?$output_processor@_WV?$string_output_adapter@_W@__crt_stdio_output@@V?$positional_parameter_base@_WV?$string_output_adapter@_W@__crt_stdio_output@@@2@@__crt_stdio_output@@AEAA_NXZ 00000001400387bc f i libucrt:output.obj
 0001:00037854       ?state_case_normal@?$output_processor@_WV?$string_output_adapter@_W@__crt_stdio_output@@V?$standard_base@_WV?$string_output_adapter@_W@__crt_stdio_output@@@2@@__crt_stdio_output@@AEAA_NXZ 0000000140038854 f i libucrt:output.obj
 0001:000378c0       ?state_case_normal_common@?$output_processor@DV?$stream_output_adapter@D@__crt_stdio_output@@V?$format_validation_base@DV?$stream_output_adapter@D@__crt_stdio_output@@@2@@__crt_stdio_output@@AEAA_NXZ 00000001400388c0 f i libucrt:output.obj
 0001:00037a34       ?state_case_normal_common@?$output_processor@DV?$stream_output_adapter@D@__crt_stdio_output@@V?$positional_parameter_base@DV?$stream_output_adapter@D@__crt_stdio_output@@@2@@__crt_stdio_output@@AEAA_NXZ 0000000140038a34 f i libucrt:output.obj
 0001:00037ba8       ?state_case_normal_common@?$output_processor@DV?$stream_output_adapter@D@__crt_stdio_output@@V?$standard_base@DV?$stream_output_adapter@D@__crt_stdio_output@@@2@@__crt_stdio_output@@AEAA_NXZ 0000000140038ba8 f i libucrt:output.obj
 0001:00037d1c       ?state_case_normal_common@?$output_processor@DV?$string_output_adapter@D@__crt_stdio_output@@V?$format_validation_base@DV?$string_output_adapter@D@__crt_stdio_output@@@2@@__crt_stdio_output@@AEAA_NXZ 0000000140038d1c f i libucrt:output.obj
 0001:00037e88       ?state_case_normal_common@?$output_processor@DV?$string_output_adapter@D@__crt_stdio_output@@V?$positional_parameter_base@DV?$string_output_adapter@D@__crt_stdio_output@@@2@@__crt_stdio_output@@AEAA_NXZ 0000000140038e88 f i libucrt:output.obj
 0001:00037ff4       ?state_case_normal_common@?$output_processor@DV?$string_output_adapter@D@__crt_stdio_output@@V?$standard_base@DV?$string_output_adapter@D@__crt_stdio_output@@@2@@__crt_stdio_output@@AEAA_NXZ 0000000140038ff4 f i libucrt:output.obj
 0001:00038160       ?state_case_normal_common@?$output_processor@_WV?$stream_output_adapter@_W@__crt_stdio_output@@V?$format_validation_base@_WV?$stream_output_adapter@_W@__crt_stdio_output@@@2@@__crt_stdio_output@@AEAA_NXZ 0000000140039160 f i libucrt:output.obj
 0001:000381d4       ?state_case_normal_common@?$output_processor@_WV?$stream_output_adapter@_W@__crt_stdio_output@@V?$positional_parameter_base@_WV?$stream_output_adapter@_W@__crt_stdio_output@@@2@@__crt_stdio_output@@AEAA_NXZ 00000001400391d4 f i libucrt:output.obj
 0001:00038248       ?state_case_normal_common@?$output_processor@_WV?$stream_output_adapter@_W@__crt_stdio_output@@V?$standard_base@_WV?$stream_output_adapter@_W@__crt_stdio_output@@@2@@__crt_stdio_output@@AEAA_NXZ 0000000140039248 f i libucrt:output.obj
 0001:000382bc       ?state_case_normal_common@?$output_processor@_WV?$string_output_adapter@_W@__crt_stdio_output@@V?$format_validation_base@_WV?$string_output_adapter@_W@__crt_stdio_output@@@2@@__crt_stdio_output@@AEAA_NXZ 00000001400392bc f i libucrt:output.obj
 0001:00038328       ?state_case_normal_common@?$output_processor@_WV?$string_output_adapter@_W@__crt_stdio_output@@V?$positional_parameter_base@_WV?$string_output_adapter@_W@__crt_stdio_output@@@2@@__crt_stdio_output@@AEAA_NXZ 0000000140039328 f i libucrt:output.obj
 0001:00038394       ?state_case_normal_common@?$output_processor@_WV?$string_output_adapter@_W@__crt_stdio_output@@V?$standard_base@_WV?$string_output_adapter@_W@__crt_stdio_output@@@2@@__crt_stdio_output@@AEAA_NXZ 0000000140039394 f i libucrt:output.obj
 0001:00038400       ?state_case_normal_tchar@?$output_processor@DV?$stream_output_adapter@D@__crt_stdio_output@@V?$format_validation_base@DV?$stream_output_adapter@D@__crt_stdio_output@@@2@@__crt_stdio_output@@AEAA_ND@Z 0000000140039400 f i libucrt:output.obj
 0001:00038514       ?state_case_normal_tchar@?$output_processor@DV?$stream_output_adapter@D@__crt_stdio_output@@V?$positional_parameter_base@DV?$stream_output_adapter@D@__crt_stdio_output@@@2@@__crt_stdio_output@@AEAA_ND@Z 0000000140039514 f i libucrt:output.obj
 0001:00038628       ?state_case_normal_tchar@?$output_processor@DV?$stream_output_adapter@D@__crt_stdio_output@@V?$standard_base@DV?$stream_output_adapter@D@__crt_stdio_output@@@2@@__crt_stdio_output@@AEAA_ND@Z 0000000140039628 f i libucrt:output.obj
 0001:0003873c       ?state_case_normal_tchar@?$output_processor@DV?$string_output_adapter@D@__crt_stdio_output@@V?$format_validation_base@DV?$string_output_adapter@D@__crt_stdio_output@@@2@@__crt_stdio_output@@AEAA_ND@Z 000000014003973c f i libucrt:output.obj
 0001:00038850       ?state_case_normal_tchar@?$output_processor@DV?$string_output_adapter@D@__crt_stdio_output@@V?$positional_parameter_base@DV?$string_output_adapter@D@__crt_stdio_output@@@2@@__crt_stdio_output@@AEAA_ND@Z 0000000140039850 f i libucrt:output.obj
 0001:00038964       ?state_case_normal_tchar@?$output_processor@DV?$string_output_adapter@D@__crt_stdio_output@@V?$standard_base@DV?$string_output_adapter@D@__crt_stdio_output@@@2@@__crt_stdio_output@@AEAA_ND@Z 0000000140039964 f i libucrt:output.obj
 0001:00038a78       ?state_case_normal_tchar@?$output_processor@_WV?$stream_output_adapter@_W@__crt_stdio_output@@V?$format_validation_base@_WV?$stream_output_adapter@_W@__crt_stdio_output@@@2@@__crt_stdio_output@@AEAA_N_W@Z 0000000140039a78 f i libucrt:output.obj
 0001:00038a80       ?state_case_normal_tchar@?$output_processor@_WV?$stream_output_adapter@_W@__crt_stdio_output@@V?$positional_parameter_base@_WV?$stream_output_adapter@_W@__crt_stdio_output@@@2@@__crt_stdio_output@@AEAA_N_W@Z 0000000140039a80 f i libucrt:output.obj
 0001:00038a88       ?state_case_normal_tchar@?$output_processor@_WV?$stream_output_adapter@_W@__crt_stdio_output@@V?$standard_base@_WV?$stream_output_adapter@_W@__crt_stdio_output@@@2@@__crt_stdio_output@@AEAA_N_W@Z 0000000140039a88 f i libucrt:output.obj
 0001:00038a90       ?state_case_normal_tchar@?$output_processor@_WV?$string_output_adapter@_W@__crt_stdio_output@@V?$format_validation_base@_WV?$string_output_adapter@_W@__crt_stdio_output@@@2@@__crt_stdio_output@@AEAA_N_W@Z 0000000140039a90 f i libucrt:output.obj
 0001:00038a98       ?state_case_normal_tchar@?$output_processor@_WV?$string_output_adapter@_W@__crt_stdio_output@@V?$positional_parameter_base@_WV?$string_output_adapter@_W@__crt_stdio_output@@@2@@__crt_stdio_output@@AEAA_N_W@Z 0000000140039a98 f i libucrt:output.obj
 0001:00038aa0       ?state_case_normal_tchar@?$output_processor@_WV?$string_output_adapter@_W@__crt_stdio_output@@V?$standard_base@_WV?$string_output_adapter@_W@__crt_stdio_output@@@2@@__crt_stdio_output@@AEAA_N_W@Z 0000000140039aa0 f i libucrt:output.obj
 0001:00038aa8       ?state_case_percent@?$output_processor@DV?$stream_output_adapter@D@__crt_stdio_output@@V?$format_validation_base@DV?$stream_output_adapter@D@__crt_stdio_output@@@2@@__crt_stdio_output@@AEAA_NXZ 0000000140039aa8 f i libucrt:output.obj
 0001:00038ac4       ?state_case_percent@?$output_processor@DV?$stream_output_adapter@D@__crt_stdio_output@@V?$positional_parameter_base@DV?$stream_output_adapter@D@__crt_stdio_output@@@2@@__crt_stdio_output@@AEAA_NXZ 0000000140039ac4 f i libucrt:output.obj
 0001:00038ae0       ?state_case_percent@?$output_processor@DV?$stream_output_adapter@D@__crt_stdio_output@@V?$standard_base@DV?$stream_output_adapter@D@__crt_stdio_output@@@2@@__crt_stdio_output@@AEAA_NXZ 0000000140039ae0 f i libucrt:output.obj
 0001:00038afc       ?state_case_percent@?$output_processor@DV?$string_output_adapter@D@__crt_stdio_output@@V?$format_validation_base@DV?$string_output_adapter@D@__crt_stdio_output@@@2@@__crt_stdio_output@@AEAA_NXZ 0000000140039afc f i libucrt:output.obj
 0001:00038b18       ?state_case_percent@?$output_processor@DV?$string_output_adapter@D@__crt_stdio_output@@V?$positional_parameter_base@DV?$string_output_adapter@D@__crt_stdio_output@@@2@@__crt_stdio_output@@AEAA_NXZ 0000000140039b18 f i libucrt:output.obj
 0001:00038b34       ?state_case_percent@?$output_processor@DV?$string_output_adapter@D@__crt_stdio_output@@V?$standard_base@DV?$string_output_adapter@D@__crt_stdio_output@@@2@@__crt_stdio_output@@AEAA_NXZ 0000000140039b34 f i libucrt:output.obj
 0001:00038b50       ?state_case_percent@?$output_processor@_WV?$stream_output_adapter@_W@__crt_stdio_output@@V?$format_validation_base@_WV?$stream_output_adapter@_W@__crt_stdio_output@@@2@@__crt_stdio_output@@AEAA_NXZ 0000000140039b50 f i libucrt:output.obj
 0001:00038b6c       ?state_case_percent@?$output_processor@_WV?$stream_output_adapter@_W@__crt_stdio_output@@V?$positional_parameter_base@_WV?$stream_output_adapter@_W@__crt_stdio_output@@@2@@__crt_stdio_output@@AEAA_NXZ 0000000140039b6c f i libucrt:output.obj
 0001:00038b88       ?state_case_percent@?$output_processor@_WV?$stream_output_adapter@_W@__crt_stdio_output@@V?$standard_base@_WV?$stream_output_adapter@_W@__crt_stdio_output@@@2@@__crt_stdio_output@@AEAA_NXZ 0000000140039b88 f i libucrt:output.obj
 0001:00038ba4       ?state_case_percent@?$output_processor@_WV?$string_output_adapter@_W@__crt_stdio_output@@V?$format_validation_base@_WV?$string_output_adapter@_W@__crt_stdio_output@@@2@@__crt_stdio_output@@AEAA_NXZ 0000000140039ba4 f i libucrt:output.obj
 0001:00038bc0       ?state_case_percent@?$output_processor@_WV?$string_output_adapter@_W@__crt_stdio_output@@V?$positional_parameter_base@_WV?$string_output_adapter@_W@__crt_stdio_output@@@2@@__crt_stdio_output@@AEAA_NXZ 0000000140039bc0 f i libucrt:output.obj
 0001:00038bdc       ?state_case_percent@?$output_processor@_WV?$string_output_adapter@_W@__crt_stdio_output@@V?$standard_base@_WV?$string_output_adapter@_W@__crt_stdio_output@@@2@@__crt_stdio_output@@AEAA_NXZ 0000000140039bdc f i libucrt:output.obj
 0001:00038bf8       ?state_case_precision@?$output_processor@DV?$stream_output_adapter@D@__crt_stdio_output@@V?$format_validation_base@DV?$stream_output_adapter@D@__crt_stdio_output@@@2@@__crt_stdio_output@@AEAA_NXZ 0000000140039bf8 f i libucrt:output.obj
 0001:00038c34       ?state_case_precision@?$output_processor@DV?$stream_output_adapter@D@__crt_stdio_output@@V?$positional_parameter_base@DV?$stream_output_adapter@D@__crt_stdio_output@@@2@@__crt_stdio_output@@AEAA_NXZ 0000000140039c34 f i libucrt:output.obj
 0001:00038c90       ?state_case_precision@?$output_processor@DV?$stream_output_adapter@D@__crt_stdio_output@@V?$standard_base@DV?$stream_output_adapter@D@__crt_stdio_output@@@2@@__crt_stdio_output@@AEAA_NXZ 0000000140039c90 f i libucrt:output.obj
 0001:00038ccc       ?state_case_precision@?$output_processor@DV?$string_output_adapter@D@__crt_stdio_output@@V?$format_validation_base@DV?$string_output_adapter@D@__crt_stdio_output@@@2@@__crt_stdio_output@@AEAA_NXZ 0000000140039ccc f i libucrt:output.obj
 0001:00038d08       ?state_case_precision@?$output_processor@DV?$string_output_adapter@D@__crt_stdio_output@@V?$positional_parameter_base@DV?$string_output_adapter@D@__crt_stdio_output@@@2@@__crt_stdio_output@@AEAA_NXZ 0000000140039d08 f i libucrt:output.obj
 0001:00038d64       ?state_case_precision@?$output_processor@DV?$string_output_adapter@D@__crt_stdio_output@@V?$standard_base@DV?$string_output_adapter@D@__crt_stdio_output@@@2@@__crt_stdio_output@@AEAA_NXZ 0000000140039d64 f i libucrt:output.obj
 0001:00038da0       ?state_case_precision@?$output_processor@_WV?$stream_output_adapter@_W@__crt_stdio_output@@V?$format_validation_base@_WV?$stream_output_adapter@_W@__crt_stdio_output@@@2@@__crt_stdio_output@@AEAA_NXZ 0000000140039da0 f i libucrt:output.obj
 0001:00038de0       ?state_case_precision@?$output_processor@_WV?$stream_output_adapter@_W@__crt_stdio_output@@V?$positional_parameter_base@_WV?$stream_output_adapter@_W@__crt_stdio_output@@@2@@__crt_stdio_output@@AEAA_NXZ 0000000140039de0 f i libucrt:output.obj
 0001:00038e40       ?state_case_precision@?$output_processor@_WV?$stream_output_adapter@_W@__crt_stdio_output@@V?$standard_base@_WV?$stream_output_adapter@_W@__crt_stdio_output@@@2@@__crt_stdio_output@@AEAA_NXZ 0000000140039e40 f i libucrt:output.obj
 0001:00038e80       ?state_case_precision@?$output_processor@_WV?$string_output_adapter@_W@__crt_stdio_output@@V?$format_validation_base@_WV?$string_output_adapter@_W@__crt_stdio_output@@@2@@__crt_stdio_output@@AEAA_NXZ 0000000140039e80 f i libucrt:output.obj
 0001:00038ec0       ?state_case_precision@?$output_processor@_WV?$string_output_adapter@_W@__crt_stdio_output@@V?$positional_parameter_base@_WV?$string_output_adapter@_W@__crt_stdio_output@@@2@@__crt_stdio_output@@AEAA_NXZ 0000000140039ec0 f i libucrt:output.obj
 0001:00038f20       ?state_case_precision@?$output_processor@_WV?$string_output_adapter@_W@__crt_stdio_output@@V?$standard_base@_WV?$string_output_adapter@_W@__crt_stdio_output@@@2@@__crt_stdio_output@@AEAA_NXZ 0000000140039f20 f i libucrt:output.obj
 0001:00038f60       ?state_case_size@?$output_processor@DV?$stream_output_adapter@D@__crt_stdio_output@@V?$format_validation_base@DV?$stream_output_adapter@D@__crt_stdio_output@@@2@@__crt_stdio_output@@AEAA_NXZ 0000000140039f60 f i libucrt:output.obj
 0001:00039148       ?state_case_size@?$output_processor@DV?$stream_output_adapter@D@__crt_stdio_output@@V?$positional_parameter_base@DV?$stream_output_adapter@D@__crt_stdio_output@@@2@@__crt_stdio_output@@AEAA_NXZ 000000014003a148 f i libucrt:output.obj
 0001:00039330       ?state_case_size@?$output_processor@DV?$stream_output_adapter@D@__crt_stdio_output@@V?$standard_base@DV?$stream_output_adapter@D@__crt_stdio_output@@@2@@__crt_stdio_output@@AEAA_NXZ 000000014003a330 f i libucrt:output.obj
 0001:00039518       ?state_case_size@?$output_processor@DV?$string_output_adapter@D@__crt_stdio_output@@V?$format_validation_base@DV?$string_output_adapter@D@__crt_stdio_output@@@2@@__crt_stdio_output@@AEAA_NXZ 000000014003a518 f i libucrt:output.obj
 0001:00039700       ?state_case_size@?$output_processor@DV?$string_output_adapter@D@__crt_stdio_output@@V?$positional_parameter_base@DV?$string_output_adapter@D@__crt_stdio_output@@@2@@__crt_stdio_output@@AEAA_NXZ 000000014003a700 f i libucrt:output.obj
 0001:000398e8       ?state_case_size@?$output_processor@DV?$string_output_adapter@D@__crt_stdio_output@@V?$standard_base@DV?$string_output_adapter@D@__crt_stdio_output@@@2@@__crt_stdio_output@@AEAA_NXZ 000000014003a8e8 f i libucrt:output.obj
 0001:00039ad0       ?state_case_size@?$output_processor@_WV?$stream_output_adapter@_W@__crt_stdio_output@@V?$format_validation_base@_WV?$stream_output_adapter@_W@__crt_stdio_output@@@2@@__crt_stdio_output@@AEAA_NXZ 000000014003aad0 f i libucrt:output.obj
 0001:00039ce8       ?state_case_size@?$output_processor@_WV?$stream_output_adapter@_W@__crt_stdio_output@@V?$positional_parameter_base@_WV?$stream_output_adapter@_W@__crt_stdio_output@@@2@@__crt_stdio_output@@AEAA_NXZ 000000014003ace8 f i libucrt:output.obj
 0001:00039f00       ?state_case_size@?$output_processor@_WV?$stream_output_adapter@_W@__crt_stdio_output@@V?$standard_base@_WV?$stream_output_adapter@_W@__crt_stdio_output@@@2@@__crt_stdio_output@@AEAA_NXZ 000000014003af00 f i libucrt:output.obj
 0001:0003a118       ?state_case_size@?$output_processor@_WV?$string_output_adapter@_W@__crt_stdio_output@@V?$format_validation_base@_WV?$string_output_adapter@_W@__crt_stdio_output@@@2@@__crt_stdio_output@@AEAA_NXZ 000000014003b118 f i libucrt:output.obj
 0001:0003a330       ?state_case_size@?$output_processor@_WV?$string_output_adapter@_W@__crt_stdio_output@@V?$positional_parameter_base@_WV?$string_output_adapter@_W@__crt_stdio_output@@@2@@__crt_stdio_output@@AEAA_NXZ 000000014003b330 f i libucrt:output.obj
 0001:0003a548       ?state_case_size@?$output_processor@_WV?$string_output_adapter@_W@__crt_stdio_output@@V?$standard_base@_WV?$string_output_adapter@_W@__crt_stdio_output@@@2@@__crt_stdio_output@@AEAA_NXZ 000000014003b548 f i libucrt:output.obj
 0001:0003a760       ?state_case_type@?$output_processor@DV?$stream_output_adapter@D@__crt_stdio_output@@V?$format_validation_base@DV?$stream_output_adapter@D@__crt_stdio_output@@@2@@__crt_stdio_output@@AEAA_NXZ 000000014003b760 f i libucrt:output.obj
 0001:0003aca4       ?state_case_type@?$output_processor@DV?$stream_output_adapter@D@__crt_stdio_output@@V?$positional_parameter_base@DV?$stream_output_adapter@D@__crt_stdio_output@@@2@@__crt_stdio_output@@AEAA_NXZ 000000014003bca4 f i libucrt:output.obj
 0001:0003b224       ?state_case_type@?$output_processor@DV?$stream_output_adapter@D@__crt_stdio_output@@V?$standard_base@DV?$stream_output_adapter@D@__crt_stdio_output@@@2@@__crt_stdio_output@@AEAA_NXZ 000000014003c224 f i libucrt:output.obj
 0001:0003b768       ?state_case_type@?$output_processor@DV?$string_output_adapter@D@__crt_stdio_output@@V?$format_validation_base@DV?$string_output_adapter@D@__crt_stdio_output@@@2@@__crt_stdio_output@@AEAA_NXZ 000000014003c768 f i libucrt:output.obj
 0001:0003bc6c       ?state_case_type@?$output_processor@DV?$string_output_adapter@D@__crt_stdio_output@@V?$positional_parameter_base@DV?$string_output_adapter@D@__crt_stdio_output@@@2@@__crt_stdio_output@@AEAA_NXZ 000000014003cc6c f i libucrt:output.obj
 0001:0003c188       ?state_case_type@?$output_processor@DV?$string_output_adapter@D@__crt_stdio_output@@V?$standard_base@DV?$string_output_adapter@D@__crt_stdio_output@@@2@@__crt_stdio_output@@AEAA_NXZ 000000014003d188 f i libucrt:output.obj
 0001:0003c68c       ?state_case_type@?$output_processor@_WV?$stream_output_adapter@_W@__crt_stdio_output@@V?$format_validation_base@_WV?$stream_output_adapter@_W@__crt_stdio_output@@@2@@__crt_stdio_output@@AEAA_NXZ 000000014003d68c f i libucrt:output.obj
 0001:0003cc80       ?state_case_type@?$output_processor@_WV?$stream_output_adapter@_W@__crt_stdio_output@@V?$positional_parameter_base@_WV?$stream_output_adapter@_W@__crt_stdio_output@@@2@@__crt_stdio_output@@AEAA_NXZ 000000014003dc80 f i libucrt:output.obj
 0001:0003d290       ?state_case_type@?$output_processor@_WV?$stream_output_adapter@_W@__crt_stdio_output@@V?$standard_base@_WV?$stream_output_adapter@_W@__crt_stdio_output@@@2@@__crt_stdio_output@@AEAA_NXZ 000000014003e290 f i libucrt:output.obj
 0001:0003d884       ?state_case_type@?$output_processor@_WV?$string_output_adapter@_W@__crt_stdio_output@@V?$format_validation_base@_WV?$string_output_adapter@_W@__crt_stdio_output@@@2@@__crt_stdio_output@@AEAA_NXZ 000000014003e884 f i libucrt:output.obj
 0001:0003de04       ?state_case_type@?$output_processor@_WV?$string_output_adapter@_W@__crt_stdio_output@@V?$positional_parameter_base@_WV?$string_output_adapter@_W@__crt_stdio_output@@@2@@__crt_stdio_output@@AEAA_NXZ 000000014003ee04 f i libucrt:output.obj
 0001:0003e3b8       ?state_case_type@?$output_processor@_WV?$string_output_adapter@_W@__crt_stdio_output@@V?$standard_base@_WV?$string_output_adapter@_W@__crt_stdio_output@@@2@@__crt_stdio_output@@AEAA_NXZ 000000014003f3b8 f i libucrt:output.obj
 0001:0003e938       ?state_case_width@?$output_processor@DV?$stream_output_adapter@D@__crt_stdio_output@@V?$format_validation_base@DV?$stream_output_adapter@D@__crt_stdio_output@@@2@@__crt_stdio_output@@AEAA_NXZ 000000014003f938 f i libucrt:output.obj
 0001:0003e978       ?state_case_width@?$output_processor@DV?$stream_output_adapter@D@__crt_stdio_output@@V?$positional_parameter_base@DV?$stream_output_adapter@D@__crt_stdio_output@@@2@@__crt_stdio_output@@AEAA_NXZ 000000014003f978 f i libucrt:output.obj
 0001:0003e9dc       ?state_case_width@?$output_processor@DV?$stream_output_adapter@D@__crt_stdio_output@@V?$standard_base@DV?$stream_output_adapter@D@__crt_stdio_output@@@2@@__crt_stdio_output@@AEAA_NXZ 000000014003f9dc f i libucrt:output.obj
 0001:0003ea1c       ?state_case_width@?$output_processor@DV?$string_output_adapter@D@__crt_stdio_output@@V?$format_validation_base@DV?$string_output_adapter@D@__crt_stdio_output@@@2@@__crt_stdio_output@@AEAA_NXZ 000000014003fa1c f i libucrt:output.obj
 0001:0003ea5c       ?state_case_width@?$output_processor@DV?$string_output_adapter@D@__crt_stdio_output@@V?$positional_parameter_base@DV?$string_output_adapter@D@__crt_stdio_output@@@2@@__crt_stdio_output@@AEAA_NXZ 000000014003fa5c f i libucrt:output.obj
 0001:0003eac0       ?state_case_width@?$output_processor@DV?$string_output_adapter@D@__crt_stdio_output@@V?$standard_base@DV?$string_output_adapter@D@__crt_stdio_output@@@2@@__crt_stdio_output@@AEAA_NXZ 000000014003fac0 f i libucrt:output.obj
 0001:0003eb00       ?state_case_width@?$output_processor@_WV?$stream_output_adapter@_W@__crt_stdio_output@@V?$format_validation_base@_WV?$stream_output_adapter@_W@__crt_stdio_output@@@2@@__crt_stdio_output@@AEAA_NXZ 000000014003fb00 f i libucrt:output.obj
 0001:0003eb40       ?state_case_width@?$output_processor@_WV?$stream_output_adapter@_W@__crt_stdio_output@@V?$positional_parameter_base@_WV?$stream_output_adapter@_W@__crt_stdio_output@@@2@@__crt_stdio_output@@AEAA_NXZ 000000014003fb40 f i libucrt:output.obj
 0001:0003eba8       ?state_case_width@?$output_processor@_WV?$stream_output_adapter@_W@__crt_stdio_output@@V?$standard_base@_WV?$stream_output_adapter@_W@__crt_stdio_output@@@2@@__crt_stdio_output@@AEAA_NXZ 000000014003fba8 f i libucrt:output.obj
 0001:0003ebe8       ?state_case_width@?$output_processor@_WV?$string_output_adapter@_W@__crt_stdio_output@@V?$format_validation_base@_WV?$string_output_adapter@_W@__crt_stdio_output@@@2@@__crt_stdio_output@@AEAA_NXZ 000000014003fbe8 f i libucrt:output.obj
 0001:0003ec28       ?state_case_width@?$output_processor@_WV?$string_output_adapter@_W@__crt_stdio_output@@V?$positional_parameter_base@_WV?$string_output_adapter@_W@__crt_stdio_output@@@2@@__crt_stdio_output@@AEAA_NXZ 000000014003fc28 f i libucrt:output.obj
 0001:0003ec90       ?state_case_width@?$output_processor@_WV?$string_output_adapter@_W@__crt_stdio_output@@V?$standard_base@_WV?$string_output_adapter@_W@__crt_stdio_output@@@2@@__crt_stdio_output@@AEAA_NXZ 000000014003fc90 f i libucrt:output.obj
 0001:0003ecd0       ?state_count@?$format_validation_base@DV?$stream_output_adapter@D@__crt_stdio_output@@@__crt_stdio_output@@KAIXZ 000000014003fcd0 f i libucrt:output.obj
 0001:0003ecd8       ?state_count@?$format_validation_base@DV?$string_output_adapter@D@__crt_stdio_output@@@__crt_stdio_output@@KAIXZ 000000014003fcd8 f i libucrt:output.obj
 0001:0003ece0       ?state_count@?$format_validation_base@_WV?$stream_output_adapter@_W@__crt_stdio_output@@@__crt_stdio_output@@KAIXZ 000000014003fce0 f i libucrt:output.obj
 0001:0003ece8       ?state_count@?$format_validation_base@_WV?$string_output_adapter@_W@__crt_stdio_output@@@__crt_stdio_output@@KAIXZ 000000014003fce8 f i libucrt:output.obj
 0001:0003ecf0       ?state_count@?$standard_base@DV?$stream_output_adapter@D@__crt_stdio_output@@@__crt_stdio_output@@KAIXZ 000000014003fcf0 f i libucrt:output.obj
 0001:0003ecf8       ?state_count@?$standard_base@DV?$string_output_adapter@D@__crt_stdio_output@@@__crt_stdio_output@@KAIXZ 000000014003fcf8 f i libucrt:output.obj
 0001:0003ed00       ?state_count@?$standard_base@_WV?$stream_output_adapter@_W@__crt_stdio_output@@@__crt_stdio_output@@KAIXZ 000000014003fd00 f i libucrt:output.obj
 0001:0003ed08       ?state_count@?$standard_base@_WV?$string_output_adapter@_W@__crt_stdio_output@@@__crt_stdio_output@@KAIXZ 000000014003fd08 f i libucrt:output.obj
 0001:0003ed10       ?state_transition_table@?$format_validation_base@DV?$stream_output_adapter@D@__crt_stdio_output@@@__crt_stdio_output@@KAAEBV?$spectre_mitigated_lookup_table@Ustate_transition_pair@__crt_stdio_output@@$0IA@@2@XZ 000000014003fd10 f i libucrt:output.obj
 0001:0003ed1c       ?state_transition_table@?$format_validation_base@DV?$string_output_adapter@D@__crt_stdio_output@@@__crt_stdio_output@@KAAEBV?$spectre_mitigated_lookup_table@Ustate_transition_pair@__crt_stdio_output@@$0IA@@2@XZ 000000014003fd1c f i libucrt:output.obj
 0001:0003ed28       ?state_transition_table@?$format_validation_base@_WV?$stream_output_adapter@_W@__crt_stdio_output@@@__crt_stdio_output@@KAAEBV?$spectre_mitigated_lookup_table@Ustate_transition_pair@__crt_stdio_output@@$0IA@@2@XZ 000000014003fd28 f i libucrt:output.obj
 0001:0003ed34       ?state_transition_table@?$format_validation_base@_WV?$string_output_adapter@_W@__crt_stdio_output@@@__crt_stdio_output@@KAAEBV?$spectre_mitigated_lookup_table@Ustate_transition_pair@__crt_stdio_output@@$0IA@@2@XZ 000000014003fd34 f i libucrt:output.obj
 0001:0003ed40       ?state_transition_table@?$standard_base@DV?$stream_output_adapter@D@__crt_stdio_output@@@__crt_stdio_output@@KAAEBV?$spectre_mitigated_lookup_table@Ustate_transition_pair@__crt_stdio_output@@$0IA@@2@XZ 000000014003fd40 f i libucrt:output.obj
 0001:0003ed4c       ?state_transition_table@?$standard_base@DV?$string_output_adapter@D@__crt_stdio_output@@@__crt_stdio_output@@KAAEBV?$spectre_mitigated_lookup_table@Ustate_transition_pair@__crt_stdio_output@@$0IA@@2@XZ 000000014003fd4c f i libucrt:output.obj
 0001:0003ed58       ?state_transition_table@?$standard_base@_WV?$stream_output_adapter@_W@__crt_stdio_output@@@__crt_stdio_output@@KAAEBV?$spectre_mitigated_lookup_table@Ustate_transition_pair@__crt_stdio_output@@$0IA@@2@XZ 000000014003fd58 f i libucrt:output.obj
 0001:0003ed64       ?state_transition_table@?$standard_base@_WV?$string_output_adapter@_W@__crt_stdio_output@@@__crt_stdio_output@@KAAEBV?$spectre_mitigated_lookup_table@Ustate_transition_pair@__crt_stdio_output@@$0IA@@2@XZ 000000014003fd64 f i libucrt:output.obj
 0001:0003ed70       ?tchar_string@?$common_data@D@__crt_stdio_output@@IEAAAEAPEADD@Z 000000014003fd70 f i libucrt:output.obj
 0001:0003ed78       ?tchar_string@?$common_data@D@__crt_stdio_output@@IEAAAEAPEADXZ 000000014003fd78 f i libucrt:output.obj
 0001:0003ed80       ?tchar_string@?$common_data@_W@__crt_stdio_output@@IEAAAEAPEA_WXZ 000000014003fd80 f i libucrt:output.obj
 0001:0003ed88       ?tchar_string@?$common_data@_W@__crt_stdio_output@@IEAAAEAPEA_W_W@Z 000000014003fd88 f i libucrt:output.obj
 0001:0003ed90       ?to_integer_size@__crt_stdio_output@@YA_KW4length_modifier@1@@Z 000000014003fd90 f i libucrt:output.obj
 0001:0003ede8       ?type_case_X@?$output_processor@DV?$stream_output_adapter@D@__crt_stdio_output@@V?$format_validation_base@DV?$stream_output_adapter@D@__crt_stdio_output@@@2@@__crt_stdio_output@@AEAA_NXZ 000000014003fde8 f i libucrt:output.obj
 0001:0003edf0       ?type_case_X@?$output_processor@DV?$stream_output_adapter@D@__crt_stdio_output@@V?$positional_parameter_base@DV?$stream_output_adapter@D@__crt_stdio_output@@@2@@__crt_stdio_output@@AEAA_NXZ 000000014003fdf0 f i libucrt:output.obj
 0001:0003edf8       ?type_case_X@?$output_processor@DV?$stream_output_adapter@D@__crt_stdio_output@@V?$standard_base@DV?$stream_output_adapter@D@__crt_stdio_output@@@2@@__crt_stdio_output@@AEAA_NXZ 000000014003fdf8 f i libucrt:output.obj
 0001:0003ee00       ?type_case_X@?$output_processor@DV?$string_output_adapter@D@__crt_stdio_output@@V?$format_validation_base@DV?$string_output_adapter@D@__crt_stdio_output@@@2@@__crt_stdio_output@@AEAA_NXZ 000000014003fe00 f i libucrt:output.obj
 0001:0003ee08       ?type_case_X@?$output_processor@DV?$string_output_adapter@D@__crt_stdio_output@@V?$positional_parameter_base@DV?$string_output_adapter@D@__crt_stdio_output@@@2@@__crt_stdio_output@@AEAA_NXZ 000000014003fe08 f i libucrt:output.obj
 0001:0003ee10       ?type_case_X@?$output_processor@DV?$string_output_adapter@D@__crt_stdio_output@@V?$standard_base@DV?$string_output_adapter@D@__crt_stdio_output@@@2@@__crt_stdio_output@@AEAA_NXZ 000000014003fe10 f i libucrt:output.obj
 0001:0003ee18       ?type_case_X@?$output_processor@_WV?$stream_output_adapter@_W@__crt_stdio_output@@V?$format_validation_base@_WV?$stream_output_adapter@_W@__crt_stdio_output@@@2@@__crt_stdio_output@@AEAA_NXZ 000000014003fe18 f i libucrt:output.obj
 0001:0003ee20       ?type_case_X@?$output_processor@_WV?$stream_output_adapter@_W@__crt_stdio_output@@V?$positional_parameter_base@_WV?$stream_output_adapter@_W@__crt_stdio_output@@@2@@__crt_stdio_output@@AEAA_NXZ 000000014003fe20 f i libucrt:output.obj
 0001:0003ee28       ?type_case_X@?$output_processor@_WV?$stream_output_adapter@_W@__crt_stdio_output@@V?$standard_base@_WV?$stream_output_adapter@_W@__crt_stdio_output@@@2@@__crt_stdio_output@@AEAA_NXZ 000000014003fe28 f i libucrt:output.obj
 0001:0003ee30       ?type_case_X@?$output_processor@_WV?$string_output_adapter@_W@__crt_stdio_output@@V?$format_validation_base@_WV?$string_output_adapter@_W@__crt_stdio_output@@@2@@__crt_stdio_output@@AEAA_NXZ 000000014003fe30 f i libucrt:output.obj
 0001:0003ee38       ?type_case_X@?$output_processor@_WV?$string_output_adapter@_W@__crt_stdio_output@@V?$positional_parameter_base@_WV?$string_output_adapter@_W@__crt_stdio_output@@@2@@__crt_stdio_output@@AEAA_NXZ 000000014003fe38 f i libucrt:output.obj
 0001:0003ee40       ?type_case_X@?$output_processor@_WV?$string_output_adapter@_W@__crt_stdio_output@@V?$standard_base@_WV?$string_output_adapter@_W@__crt_stdio_output@@@2@@__crt_stdio_output@@AEAA_NXZ 000000014003fe40 f i libucrt:output.obj
 0001:0003ee48       ?type_case_Z@?$output_processor@DV?$stream_output_adapter@D@__crt_stdio_output@@V?$format_validation_base@DV?$stream_output_adapter@D@__crt_stdio_output@@@2@@__crt_stdio_output@@AEAA_NXZ 000000014003fe48 f i libucrt:output.obj
 0001:0003eee4       ?type_case_Z@?$output_processor@DV?$stream_output_adapter@D@__crt_stdio_output@@V?$positional_parameter_base@DV?$stream_output_adapter@D@__crt_stdio_output@@@2@@__crt_stdio_output@@AEAA_NXZ 000000014003fee4 f i libucrt:output.obj
 0001:0003efb4       ?type_case_Z@?$output_processor@DV?$stream_output_adapter@D@__crt_stdio_output@@V?$standard_base@DV?$stream_output_adapter@D@__crt_stdio_output@@@2@@__crt_stdio_output@@AEAA_NXZ 000000014003ffb4 f i libucrt:output.obj
 0001:0003f050       ?type_case_Z@?$output_processor@DV?$string_output_adapter@D@__crt_stdio_output@@V?$format_validation_base@DV?$string_output_adapter@D@__crt_stdio_output@@@2@@__crt_stdio_output@@AEAA_NXZ 0000000140040050 f i libucrt:output.obj
 0001:0003f0ec       ?type_case_Z@?$output_processor@DV?$string_output_adapter@D@__crt_stdio_output@@V?$positional_parameter_base@DV?$string_output_adapter@D@__crt_stdio_output@@@2@@__crt_stdio_output@@AEAA_NXZ 00000001400400ec f i libucrt:output.obj
 0001:0003f1bc       ?type_case_Z@?$output_processor@DV?$string_output_adapter@D@__crt_stdio_output@@V?$standard_base@DV?$string_output_adapter@D@__crt_stdio_output@@@2@@__crt_stdio_output@@AEAA_NXZ 00000001400401bc f i libucrt:output.obj
 0001:0003f258       ?type_case_Z@?$output_processor@_WV?$stream_output_adapter@_W@__crt_stdio_output@@V?$format_validation_base@_WV?$stream_output_adapter@_W@__crt_stdio_output@@@2@@__crt_stdio_output@@AEAA_NXZ 0000000140040258 f i libucrt:output.obj
 0001:0003f2f4       ?type_case_Z@?$output_processor@_WV?$stream_output_adapter@_W@__crt_stdio_output@@V?$positional_parameter_base@_WV?$stream_output_adapter@_W@__crt_stdio_output@@@2@@__crt_stdio_output@@AEAA_NXZ 00000001400402f4 f i libucrt:output.obj
 0001:0003f3b0       ?type_case_Z@?$output_processor@_WV?$stream_output_adapter@_W@__crt_stdio_output@@V?$standard_base@_WV?$stream_output_adapter@_W@__crt_stdio_output@@@2@@__crt_stdio_output@@AEAA_NXZ 00000001400403b0 f i libucrt:output.obj
 0001:0003f44c       ?type_case_Z@?$output_processor@_WV?$string_output_adapter@_W@__crt_stdio_output@@V?$format_validation_base@_WV?$string_output_adapter@_W@__crt_stdio_output@@@2@@__crt_stdio_output@@AEAA_NXZ 000000014004044c f i libucrt:output.obj
 0001:0003f4e8       ?type_case_Z@?$output_processor@_WV?$string_output_adapter@_W@__crt_stdio_output@@V?$positional_parameter_base@_WV?$string_output_adapter@_W@__crt_stdio_output@@@2@@__crt_stdio_output@@AEAA_NXZ 00000001400404e8 f i libucrt:output.obj
 0001:0003f5a4       ?type_case_Z@?$output_processor@_WV?$string_output_adapter@_W@__crt_stdio_output@@V?$standard_base@_WV?$string_output_adapter@_W@__crt_stdio_output@@@2@@__crt_stdio_output@@AEAA_NXZ 00000001400405a4 f i libucrt:output.obj
 0001:0003f640       ?type_case_a@?$output_processor@DV?$stream_output_adapter@D@__crt_stdio_output@@V?$format_validation_base@DV?$stream_output_adapter@D@__crt_stdio_output@@@2@@__crt_stdio_output@@AEAA_NXZ 0000000140040640 f i libucrt:output.obj
 0001:0003f928       ?type_case_a@?$output_processor@DV?$stream_output_adapter@D@__crt_stdio_output@@V?$positional_parameter_base@DV?$stream_output_adapter@D@__crt_stdio_output@@@2@@__crt_stdio_output@@AEAA_NXZ 0000000140040928 f i libucrt:output.obj
 0001:0003fc44       ?type_case_a@?$output_processor@DV?$stream_output_adapter@D@__crt_stdio_output@@V?$standard_base@DV?$stream_output_adapter@D@__crt_stdio_output@@@2@@__crt_stdio_output@@AEAA_NXZ 0000000140040c44 f i libucrt:output.obj
 0001:0003ff2c       ?type_case_a@?$output_processor@DV?$string_output_adapter@D@__crt_stdio_output@@V?$format_validation_base@DV?$string_output_adapter@D@__crt_stdio_output@@@2@@__crt_stdio_output@@AEAA_NXZ 0000000140040f2c f i libucrt:output.obj
 0001:00040214       ?type_case_a@?$output_processor@DV?$string_output_adapter@D@__crt_stdio_output@@V?$positional_parameter_base@DV?$string_output_adapter@D@__crt_stdio_output@@@2@@__crt_stdio_output@@AEAA_NXZ 0000000140041214 f i libucrt:output.obj
 0001:00040530       ?type_case_a@?$output_processor@DV?$string_output_adapter@D@__crt_stdio_output@@V?$standard_base@DV?$string_output_adapter@D@__crt_stdio_output@@@2@@__crt_stdio_output@@AEAA_NXZ 0000000140041530 f i libucrt:output.obj
 0001:00040818       ?type_case_a@?$output_processor@_WV?$stream_output_adapter@_W@__crt_stdio_output@@V?$format_validation_base@_WV?$stream_output_adapter@_W@__crt_stdio_output@@@2@@__crt_stdio_output@@AEAA_NXZ 0000000140041818 f i libucrt:output.obj
 0001:00040b18       ?type_case_a@?$output_processor@_WV?$stream_output_adapter@_W@__crt_stdio_output@@V?$positional_parameter_base@_WV?$stream_output_adapter@_W@__crt_stdio_output@@@2@@__crt_stdio_output@@AEAA_NXZ 0000000140041b18 f i libucrt:output.obj
 0001:00040e50       ?type_case_a@?$output_processor@_WV?$stream_output_adapter@_W@__crt_stdio_output@@V?$standard_base@_WV?$stream_output_adapter@_W@__crt_stdio_output@@@2@@__crt_stdio_output@@AEAA_NXZ 0000000140041e50 f i libucrt:output.obj
 0001:00041150       ?type_case_a@?$output_processor@_WV?$string_output_adapter@_W@__crt_stdio_output@@V?$format_validation_base@_WV?$string_output_adapter@_W@__crt_stdio_output@@@2@@__crt_stdio_output@@AEAA_NXZ 0000000140042150 f i libucrt:output.obj
 0001:00041450       ?type_case_a@?$output_processor@_WV?$string_output_adapter@_W@__crt_stdio_output@@V?$positional_parameter_base@_WV?$string_output_adapter@_W@__crt_stdio_output@@@2@@__crt_stdio_output@@AEAA_NXZ 0000000140042450 f i libucrt:output.obj
 0001:00041788       ?type_case_a@?$output_processor@_WV?$string_output_adapter@_W@__crt_stdio_output@@V?$standard_base@_WV?$string_output_adapter@_W@__crt_stdio_output@@@2@@__crt_stdio_output@@AEAA_NXZ 0000000140042788 f i libucrt:output.obj
 0001:00041a88       ?type_case_c@?$output_processor@DV?$stream_output_adapter@D@__crt_stdio_output@@V?$format_validation_base@DV?$stream_output_adapter@D@__crt_stdio_output@@@2@@__crt_stdio_output@@AEAA_NXZ 0000000140042a88 f i libucrt:output.obj
 0001:00041a90       ?type_case_c@?$output_processor@DV?$stream_output_adapter@D@__crt_stdio_output@@V?$positional_parameter_base@DV?$stream_output_adapter@D@__crt_stdio_output@@@2@@__crt_stdio_output@@AEAA_NXZ 0000000140042a90 f i libucrt:output.obj
 0001:00041a98       ?type_case_c@?$output_processor@DV?$stream_output_adapter@D@__crt_stdio_output@@V?$standard_base@DV?$stream_output_adapter@D@__crt_stdio_output@@@2@@__crt_stdio_output@@AEAA_NXZ 0000000140042a98 f i libucrt:output.obj
 0001:00041aa0       ?type_case_c@?$output_processor@DV?$string_output_adapter@D@__crt_stdio_output@@V?$format_validation_base@DV?$string_output_adapter@D@__crt_stdio_output@@@2@@__crt_stdio_output@@AEAA_NXZ 0000000140042aa0 f i libucrt:output.obj
 0001:00041aa8       ?type_case_c@?$output_processor@DV?$string_output_adapter@D@__crt_stdio_output@@V?$positional_parameter_base@DV?$string_output_adapter@D@__crt_stdio_output@@@2@@__crt_stdio_output@@AEAA_NXZ 0000000140042aa8 f i libucrt:output.obj
 0001:00041ab0       ?type_case_c@?$output_processor@DV?$string_output_adapter@D@__crt_stdio_output@@V?$standard_base@DV?$string_output_adapter@D@__crt_stdio_output@@@2@@__crt_stdio_output@@AEAA_NXZ 0000000140042ab0 f i libucrt:output.obj
 0001:00041ab8       ?type_case_c@?$output_processor@_WV?$stream_output_adapter@_W@__crt_stdio_output@@V?$format_validation_base@_WV?$stream_output_adapter@_W@__crt_stdio_output@@@2@@__crt_stdio_output@@AEAA_NXZ 0000000140042ab8 f i libucrt:output.obj
 0001:00041ac0       ?type_case_c@?$output_processor@_WV?$stream_output_adapter@_W@__crt_stdio_output@@V?$positional_parameter_base@_WV?$stream_output_adapter@_W@__crt_stdio_output@@@2@@__crt_stdio_output@@AEAA_NXZ 0000000140042ac0 f i libucrt:output.obj
 0001:00041ac8       ?type_case_c@?$output_processor@_WV?$stream_output_adapter@_W@__crt_stdio_output@@V?$standard_base@_WV?$stream_output_adapter@_W@__crt_stdio_output@@@2@@__crt_stdio_output@@AEAA_NXZ 0000000140042ac8 f i libucrt:output.obj
 0001:00041ad0       ?type_case_c@?$output_processor@_WV?$string_output_adapter@_W@__crt_stdio_output@@V?$format_validation_base@_WV?$string_output_adapter@_W@__crt_stdio_output@@@2@@__crt_stdio_output@@AEAA_NXZ 0000000140042ad0 f i libucrt:output.obj
 0001:00041ad8       ?type_case_c@?$output_processor@_WV?$string_output_adapter@_W@__crt_stdio_output@@V?$positional_parameter_base@_WV?$string_output_adapter@_W@__crt_stdio_output@@@2@@__crt_stdio_output@@AEAA_NXZ 0000000140042ad8 f i libucrt:output.obj
 0001:00041ae0       ?type_case_c@?$output_processor@_WV?$string_output_adapter@_W@__crt_stdio_output@@V?$standard_base@_WV?$string_output_adapter@_W@__crt_stdio_output@@@2@@__crt_stdio_output@@AEAA_NXZ 0000000140042ae0 f i libucrt:output.obj
 0001:00041ae8       ?type_case_c_tchar@?$output_processor@DV?$stream_output_adapter@D@__crt_stdio_output@@V?$format_validation_base@DV?$stream_output_adapter@D@__crt_stdio_output@@@2@@__crt_stdio_output@@AEAA_ND@Z 0000000140042ae8 f i libucrt:output.obj
 0001:00041bf0       ?type_case_c_tchar@?$output_processor@DV?$stream_output_adapter@D@__crt_stdio_output@@V?$positional_parameter_base@DV?$stream_output_adapter@D@__crt_stdio_output@@@2@@__crt_stdio_output@@AEAA_ND@Z 0000000140042bf0 f i libucrt:output.obj
 0001:00041d50       ?type_case_c_tchar@?$output_processor@DV?$stream_output_adapter@D@__crt_stdio_output@@V?$standard_base@DV?$stream_output_adapter@D@__crt_stdio_output@@@2@@__crt_stdio_output@@AEAA_ND@Z 0000000140042d50 f i libucrt:output.obj
 0001:00041e58       ?type_case_c_tchar@?$output_processor@DV?$string_output_adapter@D@__crt_stdio_output@@V?$format_validation_base@DV?$string_output_adapter@D@__crt_stdio_output@@@2@@__crt_stdio_output@@AEAA_ND@Z 0000000140042e58 f i libucrt:output.obj
 0001:00041f60       ?type_case_c_tchar@?$output_processor@DV?$string_output_adapter@D@__crt_stdio_output@@V?$positional_parameter_base@DV?$string_output_adapter@D@__crt_stdio_output@@@2@@__crt_stdio_output@@AEAA_ND@Z 0000000140042f60 f i libucrt:output.obj
 0001:000420c0       ?type_case_c_tchar@?$output_processor@DV?$string_output_adapter@D@__crt_stdio_output@@V?$standard_base@DV?$string_output_adapter@D@__crt_stdio_output@@@2@@__crt_stdio_output@@AEAA_ND@Z 00000001400430c0 f i libucrt:output.obj
 0001:000421c8       ?type_case_c_tchar@?$output_processor@_WV?$stream_output_adapter@_W@__crt_stdio_output@@V?$format_validation_base@_WV?$stream_output_adapter@_W@__crt_stdio_output@@@2@@__crt_stdio_output@@AEAA_N_W@Z 00000001400431c8 f i libucrt:output.obj
 0001:000422c0       ?type_case_c_tchar@?$output_processor@_WV?$stream_output_adapter@_W@__crt_stdio_output@@V?$positional_parameter_base@_WV?$stream_output_adapter@_W@__crt_stdio_output@@@2@@__crt_stdio_output@@AEAA_N_W@Z 00000001400432c0 f i libucrt:output.obj
 0001:000423f4       ?type_case_c_tchar@?$output_processor@_WV?$stream_output_adapter@_W@__crt_stdio_output@@V?$standard_base@_WV?$stream_output_adapter@_W@__crt_stdio_output@@@2@@__crt_stdio_output@@AEAA_N_W@Z 00000001400433f4 f i libucrt:output.obj
 0001:000424ec       ?type_case_c_tchar@?$output_processor@_WV?$string_output_adapter@_W@__crt_stdio_output@@V?$format_validation_base@_WV?$string_output_adapter@_W@__crt_stdio_output@@@2@@__crt_stdio_output@@AEAA_N_W@Z 00000001400434ec f i libucrt:output.obj
 0001:000425e4       ?type_case_c_tchar@?$output_processor@_WV?$string_output_adapter@_W@__crt_stdio_output@@V?$positional_parameter_base@_WV?$string_output_adapter@_W@__crt_stdio_output@@@2@@__crt_stdio_output@@AEAA_N_W@Z 00000001400435e4 f i libucrt:output.obj
 0001:00042718       ?type_case_c_tchar@?$output_processor@_WV?$string_output_adapter@_W@__crt_stdio_output@@V?$standard_base@_WV?$string_output_adapter@_W@__crt_stdio_output@@@2@@__crt_stdio_output@@AEAA_N_W@Z 0000000140043718 f i libucrt:output.obj
 0001:00042810       ?type_case_d@?$output_processor@DV?$stream_output_adapter@D@__crt_stdio_output@@V?$format_validation_base@DV?$stream_output_adapter@D@__crt_stdio_output@@@2@@__crt_stdio_output@@AEAA_NXZ 0000000140043810 f i libucrt:output.obj
 0001:00042820       ?type_case_d@?$output_processor@DV?$stream_output_adapter@D@__crt_stdio_output@@V?$positional_parameter_base@DV?$stream_output_adapter@D@__crt_stdio_output@@@2@@__crt_stdio_output@@AEAA_NXZ 0000000140043820 f i libucrt:output.obj
 0001:00042830       ?type_case_d@?$output_processor@DV?$stream_output_adapter@D@__crt_stdio_output@@V?$standard_base@DV?$stream_output_adapter@D@__crt_stdio_output@@@2@@__crt_stdio_output@@AEAA_NXZ 0000000140043830 f i libucrt:output.obj
 0001:00042840       ?type_case_d@?$output_processor@DV?$string_output_adapter@D@__crt_stdio_output@@V?$format_validation_base@DV?$string_output_adapter@D@__crt_stdio_output@@@2@@__crt_stdio_output@@AEAA_NXZ 0000000140043840 f i libucrt:output.obj
 0001:00042850       ?type_case_d@?$output_processor@DV?$string_output_adapter@D@__crt_stdio_output@@V?$positional_parameter_base@DV?$string_output_adapter@D@__crt_stdio_output@@@2@@__crt_stdio_output@@AEAA_NXZ 0000000140043850 f i libucrt:output.obj
 0001:00042860       ?type_case_d@?$output_processor@DV?$string_output_adapter@D@__crt_stdio_output@@V?$standard_base@DV?$string_output_adapter@D@__crt_stdio_output@@@2@@__crt_stdio_output@@AEAA_NXZ 0000000140043860 f i libucrt:output.obj
 0001:00042870       ?type_case_d@?$output_processor@_WV?$stream_output_adapter@_W@__crt_stdio_output@@V?$format_validation_base@_WV?$stream_output_adapter@_W@__crt_stdio_output@@@2@@__crt_stdio_output@@AEAA_NXZ 0000000140043870 f i libucrt:output.obj
 0001:00042880       ?type_case_d@?$output_processor@_WV?$stream_output_adapter@_W@__crt_stdio_output@@V?$positional_parameter_base@_WV?$stream_output_adapter@_W@__crt_stdio_output@@@2@@__crt_stdio_output@@AEAA_NXZ 0000000140043880 f i libucrt:output.obj
 0001:00042890       ?type_case_d@?$output_processor@_WV?$stream_output_adapter@_W@__crt_stdio_output@@V?$standard_base@_WV?$stream_output_adapter@_W@__crt_stdio_output@@@2@@__crt_stdio_output@@AEAA_NXZ 0000000140043890 f i libucrt:output.obj
 0001:000428a0       ?type_case_d@?$output_processor@_WV?$string_output_adapter@_W@__crt_stdio_output@@V?$format_validation_base@_WV?$string_output_adapter@_W@__crt_stdio_output@@@2@@__crt_stdio_output@@AEAA_NXZ 00000001400438a0 f i libucrt:output.obj
 0001:000428b0       ?type_case_d@?$output_processor@_WV?$string_output_adapter@_W@__crt_stdio_output@@V?$positional_parameter_base@_WV?$string_output_adapter@_W@__crt_stdio_output@@@2@@__crt_stdio_output@@AEAA_NXZ 00000001400438b0 f i libucrt:output.obj
 0001:000428c0       ?type_case_d@?$output_processor@_WV?$string_output_adapter@_W@__crt_stdio_output@@V?$standard_base@_WV?$string_output_adapter@_W@__crt_stdio_output@@@2@@__crt_stdio_output@@AEAA_NXZ 00000001400438c0 f i libucrt:output.obj
 0001:000428d0       ?type_case_n@?$output_processor@DV?$stream_output_adapter@D@__crt_stdio_output@@V?$format_validation_base@DV?$stream_output_adapter@D@__crt_stdio_output@@@2@@__crt_stdio_output@@AEAA_NXZ 00000001400438d0 f i libucrt:output.obj
 0001:000429b4       ?type_case_n@?$output_processor@DV?$stream_output_adapter@D@__crt_stdio_output@@V?$positional_parameter_base@DV?$stream_output_adapter@D@__crt_stdio_output@@@2@@__crt_stdio_output@@AEAA_NXZ 00000001400439b4 f i libucrt:output.obj
 0001:00042ad0       ?type_case_n@?$output_processor@DV?$stream_output_adapter@D@__crt_stdio_output@@V?$standard_base@DV?$stream_output_adapter@D@__crt_stdio_output@@@2@@__crt_stdio_output@@AEAA_NXZ 0000000140043ad0 f i libucrt:output.obj
 0001:00042bb4       ?type_case_n@?$output_processor@DV?$string_output_adapter@D@__crt_stdio_output@@V?$format_validation_base@DV?$string_output_adapter@D@__crt_stdio_output@@@2@@__crt_stdio_output@@AEAA_NXZ 0000000140043bb4 f i libucrt:output.obj
 0001:00042c98       ?type_case_n@?$output_processor@DV?$string_output_adapter@D@__crt_stdio_output@@V?$positional_parameter_base@DV?$string_output_adapter@D@__crt_stdio_output@@@2@@__crt_stdio_output@@AEAA_NXZ 0000000140043c98 f i libucrt:output.obj
 0001:00042db4       ?type_case_n@?$output_processor@DV?$string_output_adapter@D@__crt_stdio_output@@V?$standard_base@DV?$string_output_adapter@D@__crt_stdio_output@@@2@@__crt_stdio_output@@AEAA_NXZ 0000000140043db4 f i libucrt:output.obj
 0001:00042e98       ?type_case_n@?$output_processor@_WV?$stream_output_adapter@_W@__crt_stdio_output@@V?$format_validation_base@_WV?$stream_output_adapter@_W@__crt_stdio_output@@@2@@__crt_stdio_output@@AEAA_NXZ 0000000140043e98 f i libucrt:output.obj
 0001:00042f7c       ?type_case_n@?$output_processor@_WV?$stream_output_adapter@_W@__crt_stdio_output@@V?$positional_parameter_base@_WV?$stream_output_adapter@_W@__crt_stdio_output@@@2@@__crt_stdio_output@@AEAA_NXZ 0000000140043f7c f i libucrt:output.obj
 0001:00043098       ?type_case_n@?$output_processor@_WV?$stream_output_adapter@_W@__crt_stdio_output@@V?$standard_base@_WV?$stream_output_adapter@_W@__crt_stdio_output@@@2@@__crt_stdio_output@@AEAA_NXZ 0000000140044098 f i libucrt:output.obj
 0001:0004317c       ?type_case_n@?$output_processor@_WV?$string_output_adapter@_W@__crt_stdio_output@@V?$format_validation_base@_WV?$string_output_adapter@_W@__crt_stdio_output@@@2@@__crt_stdio_output@@AEAA_NXZ 000000014004417c f i libucrt:output.obj
 0001:00043260       ?type_case_n@?$output_processor@_WV?$string_output_adapter@_W@__crt_stdio_output@@V?$positional_parameter_base@_WV?$string_output_adapter@_W@__crt_stdio_output@@@2@@__crt_stdio_output@@AEAA_NXZ 0000000140044260 f i libucrt:output.obj
 0001:0004337c       ?type_case_n@?$output_processor@_WV?$string_output_adapter@_W@__crt_stdio_output@@V?$standard_base@_WV?$string_output_adapter@_W@__crt_stdio_output@@@2@@__crt_stdio_output@@AEAA_NXZ 000000014004437c f i libucrt:output.obj
 0001:00043460       ?type_case_o@?$output_processor@DV?$stream_output_adapter@D@__crt_stdio_output@@V?$format_validation_base@DV?$stream_output_adapter@D@__crt_stdio_output@@@2@@__crt_stdio_output@@AEAA_NXZ 0000000140044460 f i libucrt:output.obj
 0001:00043480       ?type_case_o@?$output_processor@DV?$stream_output_adapter@D@__crt_stdio_output@@V?$positional_parameter_base@DV?$stream_output_adapter@D@__crt_stdio_output@@@2@@__crt_stdio_output@@AEAA_NXZ 0000000140044480 f i libucrt:output.obj
 0001:000434a0       ?type_case_o@?$output_processor@DV?$stream_output_adapter@D@__crt_stdio_output@@V?$standard_base@DV?$stream_output_adapter@D@__crt_stdio_output@@@2@@__crt_stdio_output@@AEAA_NXZ 00000001400444a0 f i libucrt:output.obj
 0001:000434c0       ?type_case_o@?$output_processor@DV?$string_output_adapter@D@__crt_stdio_output@@V?$format_validation_base@DV?$string_output_adapter@D@__crt_stdio_output@@@2@@__crt_stdio_output@@AEAA_NXZ 00000001400444c0 f i libucrt:output.obj
 0001:000434e0       ?type_case_o@?$output_processor@DV?$string_output_adapter@D@__crt_stdio_output@@V?$positional_parameter_base@DV?$string_output_adapter@D@__crt_stdio_output@@@2@@__crt_stdio_output@@AEAA_NXZ 00000001400444e0 f i libucrt:output.obj
 0001:00043500       ?type_case_o@?$output_processor@DV?$string_output_adapter@D@__crt_stdio_output@@V?$standard_base@DV?$string_output_adapter@D@__crt_stdio_output@@@2@@__crt_stdio_output@@AEAA_NXZ 0000000140044500 f i libucrt:output.obj
 0001:00043520       ?type_case_o@?$output_processor@_WV?$stream_output_adapter@_W@__crt_stdio_output@@V?$format_validation_base@_WV?$stream_output_adapter@_W@__crt_stdio_output@@@2@@__crt_stdio_output@@AEAA_NXZ 0000000140044520 f i libucrt:output.obj
 0001:00043540       ?type_case_o@?$output_processor@_WV?$stream_output_adapter@_W@__crt_stdio_output@@V?$positional_parameter_base@_WV?$stream_output_adapter@_W@__crt_stdio_output@@@2@@__crt_stdio_output@@AEAA_NXZ 0000000140044540 f i libucrt:output.obj
 0001:00043560       ?type_case_o@?$output_processor@_WV?$stream_output_adapter@_W@__crt_stdio_output@@V?$standard_base@_WV?$stream_output_adapter@_W@__crt_stdio_output@@@2@@__crt_stdio_output@@AEAA_NXZ 0000000140044560 f i libucrt:output.obj
 0001:00043580       ?type_case_o@?$output_processor@_WV?$string_output_adapter@_W@__crt_stdio_output@@V?$format_validation_base@_WV?$string_output_adapter@_W@__crt_stdio_output@@@2@@__crt_stdio_output@@AEAA_NXZ 0000000140044580 f i libucrt:output.obj
 0001:000435a0       ?type_case_o@?$output_processor@_WV?$string_output_adapter@_W@__crt_stdio_output@@V?$positional_parameter_base@_WV?$string_output_adapter@_W@__crt_stdio_output@@@2@@__crt_stdio_output@@AEAA_NXZ 00000001400445a0 f i libucrt:output.obj
 0001:000435c0       ?type_case_o@?$output_processor@_WV?$string_output_adapter@_W@__crt_stdio_output@@V?$standard_base@_WV?$string_output_adapter@_W@__crt_stdio_output@@@2@@__crt_stdio_output@@AEAA_NXZ 00000001400445c0 f i libucrt:output.obj
 0001:000435e0       ?type_case_p@?$output_processor@DV?$stream_output_adapter@D@__crt_stdio_output@@V?$format_validation_base@DV?$stream_output_adapter@D@__crt_stdio_output@@@2@@__crt_stdio_output@@AEAA_NXZ 00000001400445e0 f i libucrt:output.obj
 0001:000435fc       ?type_case_p@?$output_processor@DV?$stream_output_adapter@D@__crt_stdio_output@@V?$positional_parameter_base@DV?$stream_output_adapter@D@__crt_stdio_output@@@2@@__crt_stdio_output@@AEAA_NXZ 00000001400445fc f i libucrt:output.obj
 0001:00043618       ?type_case_p@?$output_processor@DV?$stream_output_adapter@D@__crt_stdio_output@@V?$standard_base@DV?$stream_output_adapter@D@__crt_stdio_output@@@2@@__crt_stdio_output@@AEAA_NXZ 0000000140044618 f i libucrt:output.obj
 0001:00043634       ?type_case_p@?$output_processor@DV?$string_output_adapter@D@__crt_stdio_output@@V?$format_validation_base@DV?$string_output_adapter@D@__crt_stdio_output@@@2@@__crt_stdio_output@@AEAA_NXZ 0000000140044634 f i libucrt:output.obj
 0001:00043650       ?type_case_p@?$output_processor@DV?$string_output_adapter@D@__crt_stdio_output@@V?$positional_parameter_base@DV?$string_output_adapter@D@__crt_stdio_output@@@2@@__crt_stdio_output@@AEAA_NXZ 0000000140044650 f i libucrt:output.obj
 0001:0004366c       ?type_case_p@?$output_processor@DV?$string_output_adapter@D@__crt_stdio_output@@V?$standard_base@DV?$string_output_adapter@D@__crt_stdio_output@@@2@@__crt_stdio_output@@AEAA_NXZ 000000014004466c f i libucrt:output.obj
 0001:00043688       ?type_case_p@?$output_processor@_WV?$stream_output_adapter@_W@__crt_stdio_output@@V?$format_validation_base@_WV?$stream_output_adapter@_W@__crt_stdio_output@@@2@@__crt_stdio_output@@AEAA_NXZ 0000000140044688 f i libucrt:output.obj
 0001:000436a4       ?type_case_p@?$output_processor@_WV?$stream_output_adapter@_W@__crt_stdio_output@@V?$positional_parameter_base@_WV?$stream_output_adapter@_W@__crt_stdio_output@@@2@@__crt_stdio_output@@AEAA_NXZ 00000001400446a4 f i libucrt:output.obj
 0001:000436c0       ?type_case_p@?$output_processor@_WV?$stream_output_adapter@_W@__crt_stdio_output@@V?$standard_base@_WV?$stream_output_adapter@_W@__crt_stdio_output@@@2@@__crt_stdio_output@@AEAA_NXZ 00000001400446c0 f i libucrt:output.obj
 0001:000436dc       ?type_case_p@?$output_processor@_WV?$string_output_adapter@_W@__crt_stdio_output@@V?$format_validation_base@_WV?$string_output_adapter@_W@__crt_stdio_output@@@2@@__crt_stdio_output@@AEAA_NXZ 00000001400446dc f i libucrt:output.obj
 0001:000436f8       ?type_case_p@?$output_processor@_WV?$string_output_adapter@_W@__crt_stdio_output@@V?$positional_parameter_base@_WV?$string_output_adapter@_W@__crt_stdio_output@@@2@@__crt_stdio_output@@AEAA_NXZ 00000001400446f8 f i libucrt:output.obj
 0001:00043714       ?type_case_p@?$output_processor@_WV?$string_output_adapter@_W@__crt_stdio_output@@V?$standard_base@_WV?$string_output_adapter@_W@__crt_stdio_output@@@2@@__crt_stdio_output@@AEAA_NXZ 0000000140044714 f i libucrt:output.obj
 0001:00043730       ?type_case_s@?$output_processor@DV?$stream_output_adapter@D@__crt_stdio_output@@V?$format_validation_base@DV?$stream_output_adapter@D@__crt_stdio_output@@@2@@__crt_stdio_output@@AEAA_NXZ 0000000140044730 f i libucrt:output.obj
 0001:000437f0       ?type_case_s@?$output_processor@DV?$stream_output_adapter@D@__crt_stdio_output@@V?$positional_parameter_base@DV?$stream_output_adapter@D@__crt_stdio_output@@@2@@__crt_stdio_output@@AEAA_NXZ 00000001400447f0 f i libucrt:output.obj
 0001:000438dc       ?type_case_s@?$output_processor@DV?$stream_output_adapter@D@__crt_stdio_output@@V?$standard_base@DV?$stream_output_adapter@D@__crt_stdio_output@@@2@@__crt_stdio_output@@AEAA_NXZ 00000001400448dc f i libucrt:output.obj
 0001:0004399c       ?type_case_s@?$output_processor@DV?$string_output_adapter@D@__crt_stdio_output@@V?$format_validation_base@DV?$string_output_adapter@D@__crt_stdio_output@@@2@@__crt_stdio_output@@AEAA_NXZ 000000014004499c f i libucrt:output.obj
 0001:00043a5c       ?type_case_s@?$output_processor@DV?$string_output_adapter@D@__crt_stdio_output@@V?$positional_parameter_base@DV?$string_output_adapter@D@__crt_stdio_output@@@2@@__crt_stdio_output@@AEAA_NXZ 0000000140044a5c f i libucrt:output.obj
 0001:00043b48       ?type_case_s@?$output_processor@DV?$string_output_adapter@D@__crt_stdio_output@@V?$standard_base@DV?$string_output_adapter@D@__crt_stdio_output@@@2@@__crt_stdio_output@@AEAA_NXZ 0000000140044b48 f i libucrt:output.obj
 0001:00043c08       ?type_case_s@?$output_processor@_WV?$stream_output_adapter@_W@__crt_stdio_output@@V?$format_validation_base@_WV?$stream_output_adapter@_W@__crt_stdio_output@@@2@@__crt_stdio_output@@AEAA_NXZ 0000000140044c08 f i libucrt:output.obj
 0001:00043ccc       ?type_case_s@?$output_processor@_WV?$stream_output_adapter@_W@__crt_stdio_output@@V?$positional_parameter_base@_WV?$stream_output_adapter@_W@__crt_stdio_output@@@2@@__crt_stdio_output@@AEAA_NXZ 0000000140044ccc f i libucrt:output.obj
 0001:00043db0       ?type_case_s@?$output_processor@_WV?$stream_output_adapter@_W@__crt_stdio_output@@V?$standard_base@_WV?$stream_output_adapter@_W@__crt_stdio_output@@@2@@__crt_stdio_output@@AEAA_NXZ 0000000140044db0 f i libucrt:output.obj
 0001:00043e74       ?type_case_s@?$output_processor@_WV?$string_output_adapter@_W@__crt_stdio_output@@V?$format_validation_base@_WV?$string_output_adapter@_W@__crt_stdio_output@@@2@@__crt_stdio_output@@AEAA_NXZ 0000000140044e74 f i libucrt:output.obj
 0001:00043f38       ?type_case_s@?$output_processor@_WV?$string_output_adapter@_W@__crt_stdio_output@@V?$positional_parameter_base@_WV?$string_output_adapter@_W@__crt_stdio_output@@@2@@__crt_stdio_output@@AEAA_NXZ 0000000140044f38 f i libucrt:output.obj
 0001:0004401c       ?type_case_s@?$output_processor@_WV?$string_output_adapter@_W@__crt_stdio_output@@V?$standard_base@_WV?$string_output_adapter@_W@__crt_stdio_output@@@2@@__crt_stdio_output@@AEAA_NXZ 000000014004501c f i libucrt:output.obj
 0001:000440e0       ?type_case_s_compute_narrow_string_length@?$output_processor@DV?$stream_output_adapter@D@__crt_stdio_output@@V?$format_validation_base@DV?$stream_output_adapter@D@__crt_stdio_output@@@2@@__crt_stdio_output@@AEAAHHD@Z 00000001400450e0 f i libucrt:output.obj
 0001:000440f0       ?type_case_s_compute_narrow_string_length@?$output_processor@DV?$stream_output_adapter@D@__crt_stdio_output@@V?$positional_parameter_base@DV?$stream_output_adapter@D@__crt_stdio_output@@@2@@__crt_stdio_output@@AEAAHHD@Z 00000001400450f0 f i libucrt:output.obj
 0001:00044100       ?type_case_s_compute_narrow_string_length@?$output_processor@DV?$stream_output_adapter@D@__crt_stdio_output@@V?$standard_base@DV?$stream_output_adapter@D@__crt_stdio_output@@@2@@__crt_stdio_output@@AEAAHHD@Z 0000000140045100 f i libucrt:output.obj
 0001:00044110       ?type_case_s_compute_narrow_string_length@?$output_processor@DV?$string_output_adapter@D@__crt_stdio_output@@V?$format_validation_base@DV?$string_output_adapter@D@__crt_stdio_output@@@2@@__crt_stdio_output@@AEAAHHD@Z 0000000140045110 f i libucrt:output.obj
 0001:00044120       ?type_case_s_compute_narrow_string_length@?$output_processor@DV?$string_output_adapter@D@__crt_stdio_output@@V?$positional_parameter_base@DV?$string_output_adapter@D@__crt_stdio_output@@@2@@__crt_stdio_output@@AEAAHHD@Z 0000000140045120 f i libucrt:output.obj
 0001:00044130       ?type_case_s_compute_narrow_string_length@?$output_processor@DV?$string_output_adapter@D@__crt_stdio_output@@V?$standard_base@DV?$string_output_adapter@D@__crt_stdio_output@@@2@@__crt_stdio_output@@AEAAHHD@Z 0000000140045130 f i libucrt:output.obj
 0001:00044140       ?type_case_s_compute_narrow_string_length@?$output_processor@_WV?$stream_output_adapter@_W@__crt_stdio_output@@V?$format_validation_base@_WV?$stream_output_adapter@_W@__crt_stdio_output@@@2@@__crt_stdio_output@@AEAAHH_W@Z 0000000140045140 f i libucrt:output.obj
 0001:000441d0       ?type_case_s_compute_narrow_string_length@?$output_processor@_WV?$stream_output_adapter@_W@__crt_stdio_output@@V?$positional_parameter_base@_WV?$stream_output_adapter@_W@__crt_stdio_output@@@2@@__crt_stdio_output@@AEAAHH_W@Z 00000001400451d0 f i libucrt:output.obj
 0001:00044260       ?type_case_s_compute_narrow_string_length@?$output_processor@_WV?$stream_output_adapter@_W@__crt_stdio_output@@V?$standard_base@_WV?$stream_output_adapter@_W@__crt_stdio_output@@@2@@__crt_stdio_output@@AEAAHH_W@Z 0000000140045260 f i libucrt:output.obj
 0001:000442f0       ?type_case_s_compute_narrow_string_length@?$output_processor@_WV?$string_output_adapter@_W@__crt_stdio_output@@V?$format_validation_base@_WV?$string_output_adapter@_W@__crt_stdio_output@@@2@@__crt_stdio_output@@AEAAHH_W@Z 00000001400452f0 f i libucrt:output.obj
 0001:00044380       ?type_case_s_compute_narrow_string_length@?$output_processor@_WV?$string_output_adapter@_W@__crt_stdio_output@@V?$positional_parameter_base@_WV?$string_output_adapter@_W@__crt_stdio_output@@@2@@__crt_stdio_output@@AEAAHH_W@Z 0000000140045380 f i libucrt:output.obj
 0001:00044410       ?type_case_s_compute_narrow_string_length@?$output_processor@_WV?$string_output_adapter@_W@__crt_stdio_output@@V?$standard_base@_WV?$string_output_adapter@_W@__crt_stdio_output@@@2@@__crt_stdio_output@@AEAAHH_W@Z 0000000140045410 f i libucrt:output.obj
 0001:000444a0       ?type_case_u@?$output_processor@DV?$stream_output_adapter@D@__crt_stdio_output@@V?$format_validation_base@DV?$stream_output_adapter@D@__crt_stdio_output@@@2@@__crt_stdio_output@@AEAA_NXZ 00000001400454a0 f i libucrt:output.obj
 0001:000444a8       ?type_case_u@?$output_processor@DV?$stream_output_adapter@D@__crt_stdio_output@@V?$positional_parameter_base@DV?$stream_output_adapter@D@__crt_stdio_output@@@2@@__crt_stdio_output@@AEAA_NXZ 00000001400454a8 f i libucrt:output.obj
 0001:000444b0       ?type_case_u@?$output_processor@DV?$stream_output_adapter@D@__crt_stdio_output@@V?$standard_base@DV?$stream_output_adapter@D@__crt_stdio_output@@@2@@__crt_stdio_output@@AEAA_NXZ 00000001400454b0 f i libucrt:output.obj
 0001:000444b8       ?type_case_u@?$output_processor@DV?$string_output_adapter@D@__crt_stdio_output@@V?$format_validation_base@DV?$string_output_adapter@D@__crt_stdio_output@@@2@@__crt_stdio_output@@AEAA_NXZ 00000001400454b8 f i libucrt:output.obj
 0001:000444c0       ?type_case_u@?$output_processor@DV?$string_output_adapter@D@__crt_stdio_output@@V?$positional_parameter_base@DV?$string_output_adapter@D@__crt_stdio_output@@@2@@__crt_stdio_output@@AEAA_NXZ 00000001400454c0 f i libucrt:output.obj
 0001:000444c8       ?type_case_u@?$output_processor@DV?$string_output_adapter@D@__crt_stdio_output@@V?$standard_base@DV?$string_output_adapter@D@__crt_stdio_output@@@2@@__crt_stdio_output@@AEAA_NXZ 00000001400454c8 f i libucrt:output.obj
 0001:000444d0       ?type_case_u@?$output_processor@_WV?$stream_output_adapter@_W@__crt_stdio_output@@V?$format_validation_base@_WV?$stream_output_adapter@_W@__crt_stdio_output@@@2@@__crt_stdio_output@@AEAA_NXZ 00000001400454d0 f i libucrt:output.obj
 0001:000444d8       ?type_case_u@?$output_processor@_WV?$stream_output_adapter@_W@__crt_stdio_output@@V?$positional_parameter_base@_WV?$stream_output_adapter@_W@__crt_stdio_output@@@2@@__crt_stdio_output@@AEAA_NXZ 00000001400454d8 f i libucrt:output.obj
 0001:000444e0       ?type_case_u@?$output_processor@_WV?$stream_output_adapter@_W@__crt_stdio_output@@V?$standard_base@_WV?$stream_output_adapter@_W@__crt_stdio_output@@@2@@__crt_stdio_output@@AEAA_NXZ 00000001400454e0 f i libucrt:output.obj
 0001:000444e8       ?type_case_u@?$output_processor@_WV?$string_output_adapter@_W@__crt_stdio_output@@V?$format_validation_base@_WV?$string_output_adapter@_W@__crt_stdio_output@@@2@@__crt_stdio_output@@AEAA_NXZ 00000001400454e8 f i libucrt:output.obj
 0001:000444f0       ?type_case_u@?$output_processor@_WV?$string_output_adapter@_W@__crt_stdio_output@@V?$positional_parameter_base@_WV?$string_output_adapter@_W@__crt_stdio_output@@@2@@__crt_stdio_output@@AEAA_NXZ 00000001400454f0 f i libucrt:output.obj
 0001:000444f8       ?type_case_u@?$output_processor@_WV?$string_output_adapter@_W@__crt_stdio_output@@V?$standard_base@_WV?$string_output_adapter@_W@__crt_stdio_output@@@2@@__crt_stdio_output@@AEAA_NXZ 00000001400454f8 f i libucrt:output.obj
 0001:00044500       ?type_case_x@?$output_processor@DV?$stream_output_adapter@D@__crt_stdio_output@@V?$format_validation_base@DV?$stream_output_adapter@D@__crt_stdio_output@@@2@@__crt_stdio_output@@AEAA_NXZ 0000000140045500 f i libucrt:output.obj
 0001:00044508       ?type_case_x@?$output_processor@DV?$stream_output_adapter@D@__crt_stdio_output@@V?$positional_parameter_base@DV?$stream_output_adapter@D@__crt_stdio_output@@@2@@__crt_stdio_output@@AEAA_NXZ 0000000140045508 f i libucrt:output.obj
 0001:00044510       ?type_case_x@?$output_processor@DV?$stream_output_adapter@D@__crt_stdio_output@@V?$standard_base@DV?$stream_output_adapter@D@__crt_stdio_output@@@2@@__crt_stdio_output@@AEAA_NXZ 0000000140045510 f i libucrt:output.obj
 0001:00044518       ?type_case_x@?$output_processor@DV?$string_output_adapter@D@__crt_stdio_output@@V?$format_validation_base@DV?$string_output_adapter@D@__crt_stdio_output@@@2@@__crt_stdio_output@@AEAA_NXZ 0000000140045518 f i libucrt:output.obj
 0001:00044520       ?type_case_x@?$output_processor@DV?$string_output_adapter@D@__crt_stdio_output@@V?$positional_parameter_base@DV?$string_output_adapter@D@__crt_stdio_output@@@2@@__crt_stdio_output@@AEAA_NXZ 0000000140045520 f i libucrt:output.obj
 0001:00044528       ?type_case_x@?$output_processor@DV?$string_output_adapter@D@__crt_stdio_output@@V?$standard_base@DV?$string_output_adapter@D@__crt_stdio_output@@@2@@__crt_stdio_output@@AEAA_NXZ 0000000140045528 f i libucrt:output.obj
 0001:00044530       ?type_case_x@?$output_processor@_WV?$stream_output_adapter@_W@__crt_stdio_output@@V?$format_validation_base@_WV?$stream_output_adapter@_W@__crt_stdio_output@@@2@@__crt_stdio_output@@AEAA_NXZ 0000000140045530 f i libucrt:output.obj
 0001:00044538       ?type_case_x@?$output_processor@_WV?$stream_output_adapter@_W@__crt_stdio_output@@V?$positional_parameter_base@_WV?$stream_output_adapter@_W@__crt_stdio_output@@@2@@__crt_stdio_output@@AEAA_NXZ 0000000140045538 f i libucrt:output.obj
 0001:00044540       ?type_case_x@?$output_processor@_WV?$stream_output_adapter@_W@__crt_stdio_output@@V?$standard_base@_WV?$stream_output_adapter@_W@__crt_stdio_output@@@2@@__crt_stdio_output@@AEAA_NXZ 0000000140045540 f i libucrt:output.obj
 0001:00044548       ?type_case_x@?$output_processor@_WV?$string_output_adapter@_W@__crt_stdio_output@@V?$format_validation_base@_WV?$string_output_adapter@_W@__crt_stdio_output@@@2@@__crt_stdio_output@@AEAA_NXZ 0000000140045548 f i libucrt:output.obj
 0001:00044550       ?type_case_x@?$output_processor@_WV?$string_output_adapter@_W@__crt_stdio_output@@V?$positional_parameter_base@_WV?$string_output_adapter@_W@__crt_stdio_output@@@2@@__crt_stdio_output@@AEAA_NXZ 0000000140045550 f i libucrt:output.obj
 0001:00044558       ?type_case_x@?$output_processor@_WV?$string_output_adapter@_W@__crt_stdio_output@@V?$standard_base@_WV?$string_output_adapter@_W@__crt_stdio_output@@@2@@__crt_stdio_output@@AEAA_NXZ 0000000140045558 f i libucrt:output.obj
 0001:00044560       ?unget@?$c_string_character_source@D@__crt_strtox@@QEAAXD@Z 0000000140045560 f i libucrt:output.obj
 0001:00044594       ?unget@?$c_string_character_source@_W@__crt_strtox@@QEAAX_W@Z 0000000140045594 f i libucrt:output.obj
 0001:000445cc       ?unset_flag@?$output_processor@DV?$stream_output_adapter@D@__crt_stdio_output@@V?$format_validation_base@DV?$stream_output_adapter@D@__crt_stdio_output@@@2@@__crt_stdio_output@@AEAAXI@Z 00000001400455cc f i libucrt:output.obj
 0001:000445d4       ?unset_flag@?$output_processor@DV?$stream_output_adapter@D@__crt_stdio_output@@V?$positional_parameter_base@DV?$stream_output_adapter@D@__crt_stdio_output@@@2@@__crt_stdio_output@@AEAAXI@Z 00000001400455d4 f i libucrt:output.obj
 0001:000445dc       ?unset_flag@?$output_processor@DV?$stream_output_adapter@D@__crt_stdio_output@@V?$standard_base@DV?$stream_output_adapter@D@__crt_stdio_output@@@2@@__crt_stdio_output@@AEAAXI@Z 00000001400455dc f i libucrt:output.obj
 0001:000445e4       ?unset_flag@?$output_processor@DV?$string_output_adapter@D@__crt_stdio_output@@V?$format_validation_base@DV?$string_output_adapter@D@__crt_stdio_output@@@2@@__crt_stdio_output@@AEAAXI@Z 00000001400455e4 f i libucrt:output.obj
 0001:000445ec       ?unset_flag@?$output_processor@DV?$string_output_adapter@D@__crt_stdio_output@@V?$positional_parameter_base@DV?$string_output_adapter@D@__crt_stdio_output@@@2@@__crt_stdio_output@@AEAAXI@Z 00000001400455ec f i libucrt:output.obj
 0001:000445f4       ?unset_flag@?$output_processor@DV?$string_output_adapter@D@__crt_stdio_output@@V?$standard_base@DV?$string_output_adapter@D@__crt_stdio_output@@@2@@__crt_stdio_output@@AEAAXI@Z 00000001400455f4 f i libucrt:output.obj
 0001:000445fc       ?unset_flag@?$output_processor@_WV?$stream_output_adapter@_W@__crt_stdio_output@@V?$format_validation_base@_WV?$stream_output_adapter@_W@__crt_stdio_output@@@2@@__crt_stdio_output@@AEAAXI@Z 00000001400455fc f i libucrt:output.obj
 0001:00044604       ?unset_flag@?$output_processor@_WV?$stream_output_adapter@_W@__crt_stdio_output@@V?$positional_parameter_base@_WV?$stream_output_adapter@_W@__crt_stdio_output@@@2@@__crt_stdio_output@@AEAAXI@Z 0000000140045604 f i libucrt:output.obj
 0001:0004460c       ?unset_flag@?$output_processor@_WV?$stream_output_adapter@_W@__crt_stdio_output@@V?$standard_base@_WV?$stream_output_adapter@_W@__crt_stdio_output@@@2@@__crt_stdio_output@@AEAAXI@Z 000000014004560c f i libucrt:output.obj
 0001:00044614       ?unset_flag@?$output_processor@_WV?$string_output_adapter@_W@__crt_stdio_output@@V?$format_validation_base@_WV?$string_output_adapter@_W@__crt_stdio_output@@@2@@__crt_stdio_output@@AEAAXI@Z 0000000140045614 f i libucrt:output.obj
 0001:0004461c       ?unset_flag@?$output_processor@_WV?$string_output_adapter@_W@__crt_stdio_output@@V?$positional_parameter_base@_WV?$string_output_adapter@_W@__crt_stdio_output@@@2@@__crt_stdio_output@@AEAAXI@Z 000000014004561c f i libucrt:output.obj
 0001:00044624       ?unset_flag@?$output_processor@_WV?$string_output_adapter@_W@__crt_stdio_output@@V?$standard_base@_WV?$string_output_adapter@_W@__crt_stdio_output@@@2@@__crt_stdio_output@@AEAAXI@Z 0000000140045624 f i libucrt:output.obj
 0001:0004462c       ?update_field_width@?$positional_parameter_base@DV?$stream_output_adapter@D@__crt_stdio_output@@@__crt_stdio_output@@IEAA_NXZ 000000014004562c f i libucrt:output.obj
 0001:000447f8       ?update_field_width@?$positional_parameter_base@DV?$string_output_adapter@D@__crt_stdio_output@@@__crt_stdio_output@@IEAA_NXZ 00000001400457f8 f i libucrt:output.obj
 0001:000449c4       ?update_field_width@?$positional_parameter_base@_WV?$stream_output_adapter@_W@__crt_stdio_output@@@__crt_stdio_output@@IEAA_NXZ 00000001400459c4 f i libucrt:output.obj
 0001:00044b94       ?update_field_width@?$positional_parameter_base@_WV?$string_output_adapter@_W@__crt_stdio_output@@@__crt_stdio_output@@IEAA_NXZ 0000000140045b94 f i libucrt:output.obj
 0001:00044d64       ?update_field_width@?$standard_base@DV?$stream_output_adapter@D@__crt_stdio_output@@@__crt_stdio_output@@IEAA_NXZ 0000000140045d64 f i libucrt:output.obj
 0001:00044d80       ?update_field_width@?$standard_base@DV?$string_output_adapter@D@__crt_stdio_output@@@__crt_stdio_output@@IEAA_NXZ 0000000140045d80 f i libucrt:output.obj
 0001:00044d9c       ?update_field_width@?$standard_base@_WV?$stream_output_adapter@_W@__crt_stdio_output@@@__crt_stdio_output@@IEAA_NXZ 0000000140045d9c f i libucrt:output.obj
 0001:00044db8       ?update_field_width@?$standard_base@_WV?$string_output_adapter@_W@__crt_stdio_output@@@__crt_stdio_output@@IEAA_NXZ 0000000140045db8 f i libucrt:output.obj
 0001:00044de0       ?update_locale@__crt_cached_ptd_host@@AEAAXXZ 0000000140045de0 f i libucrt:output.obj
 0001:00044df0       ?update_locale_slow@__crt_cached_ptd_host@@AEAAXXZ 0000000140045df0 f i libucrt:output.obj
 0001:00044e84       ?update_precision@?$positional_parameter_base@DV?$stream_output_adapter@D@__crt_stdio_output@@@__crt_stdio_output@@IEAA_NXZ 0000000140045e84 f i libucrt:output.obj
 0001:00045050       ?update_precision@?$positional_parameter_base@DV?$string_output_adapter@D@__crt_stdio_output@@@__crt_stdio_output@@IEAA_NXZ 0000000140046050 f i libucrt:output.obj
 0001:0004521c       ?update_precision@?$positional_parameter_base@_WV?$stream_output_adapter@_W@__crt_stdio_output@@@__crt_stdio_output@@IEAA_NXZ 000000014004621c f i libucrt:output.obj
 0001:000453ec       ?update_precision@?$positional_parameter_base@_WV?$string_output_adapter@_W@__crt_stdio_output@@@__crt_stdio_output@@IEAA_NXZ 00000001400463ec f i libucrt:output.obj
 0001:000455bc       ?update_precision@?$standard_base@DV?$stream_output_adapter@D@__crt_stdio_output@@@__crt_stdio_output@@IEAA_NXZ 00000001400465bc f i libucrt:output.obj
 0001:000455d8       ?update_precision@?$standard_base@DV?$string_output_adapter@D@__crt_stdio_output@@@__crt_stdio_output@@IEAA_NXZ 00000001400465d8 f i libucrt:output.obj
 0001:000455f4       ?update_precision@?$standard_base@_WV?$stream_output_adapter@_W@__crt_stdio_output@@@__crt_stdio_output@@IEAA_NXZ 00000001400465f4 f i libucrt:output.obj
 0001:00045610       ?update_precision@?$standard_base@_WV?$string_output_adapter@_W@__crt_stdio_output@@@__crt_stdio_output@@IEAA_NXZ 0000000140046610 f i libucrt:output.obj
 0001:0004562c       ?validate@?$c_string_character_source@D@__crt_strtox@@QEBA_NXZ 000000014004662c f i libucrt:output.obj
 0001:0004565c       ?validate@?$c_string_character_source@_W@__crt_strtox@@QEBA_NXZ 000000014004665c f i libucrt:output.obj
 0001:0004568c       ?validate@?$stream_output_adapter@D@__crt_stdio_output@@QEBA_NAEAV__crt_cached_ptd_host@@@Z 000000014004668c f i libucrt:output.obj
 0001:000456dc       ?validate@?$stream_output_adapter@_W@__crt_stdio_output@@QEBA_NAEAV__crt_cached_ptd_host@@@Z 00000001400466dc f i libucrt:output.obj
 0001:00045724       ?validate@?$string_output_adapter@D@__crt_stdio_output@@QEBA_NAEAV__crt_cached_ptd_host@@@Z 0000000140046724 f i libucrt:output.obj
 0001:0004576c       ?validate@?$string_output_adapter@_W@__crt_stdio_output@@QEBA_NAEAV__crt_cached_ptd_host@@@Z 000000014004676c f i libucrt:output.obj
 0001:000457b4       ?validate_and_store_parameter_data@?$positional_parameter_base@DV?$stream_output_adapter@D@__crt_stdio_output@@@__crt_stdio_output@@AEAA_NAEAUparameter_data@12@W4parameter_type@12@DW4length_modifier@2@@Z 00000001400467b4 f i libucrt:output.obj
 0001:00045830       ?validate_and_store_parameter_data@?$positional_parameter_base@DV?$string_output_adapter@D@__crt_stdio_output@@@__crt_stdio_output@@AEAA_NAEAUparameter_data@12@W4parameter_type@12@DW4length_modifier@2@@Z 0000000140046830 f i libucrt:output.obj
 0001:000458ac       ?validate_and_store_parameter_data@?$positional_parameter_base@_WV?$stream_output_adapter@_W@__crt_stdio_output@@@__crt_stdio_output@@AEAA_NAEAUparameter_data@12@W4parameter_type@12@_WW4length_modifier@2@@Z 00000001400468ac f i libucrt:output.obj
 0001:00045928       ?validate_and_store_parameter_data@?$positional_parameter_base@_WV?$string_output_adapter@_W@__crt_stdio_output@@@__crt_stdio_output@@AEAA_NAEAUparameter_data@12@W4parameter_type@12@_WW4length_modifier@2@@Z 0000000140046928 f i libucrt:output.obj
 0001:000459a4       ?validate_and_update_state_at_beginning_of_format_character@?$positional_parameter_base@DV?$stream_output_adapter@D@__crt_stdio_output@@@__crt_stdio_output@@IEAA_NXZ 00000001400469a4 f i libucrt:output.obj
 0001:00045b38       ?validate_and_update_state_at_beginning_of_format_character@?$positional_parameter_base@DV?$string_output_adapter@D@__crt_stdio_output@@@__crt_stdio_output@@IEAA_NXZ 0000000140046b38 f i libucrt:output.obj
 0001:00045ccc       ?validate_and_update_state_at_beginning_of_format_character@?$positional_parameter_base@_WV?$stream_output_adapter@_W@__crt_stdio_output@@@__crt_stdio_output@@IEAA_NXZ 0000000140046ccc f i libucrt:output.obj
 0001:00045e70       ?validate_and_update_state_at_beginning_of_format_character@?$positional_parameter_base@_WV?$string_output_adapter@_W@__crt_stdio_output@@@__crt_stdio_output@@IEAA_NXZ 0000000140046e70 f i libucrt:output.obj
 0001:00046014       ?validate_and_update_state_at_beginning_of_format_character@?$standard_base@DV?$stream_output_adapter@D@__crt_stdio_output@@@__crt_stdio_output@@IEAA_NXZ 0000000140047014 f i libucrt:output.obj
 0001:00046018       ?validate_and_update_state_at_beginning_of_format_character@?$standard_base@DV?$string_output_adapter@D@__crt_stdio_output@@@__crt_stdio_output@@IEAA_NXZ 0000000140047018 f i libucrt:output.obj
 0001:0004601c       ?validate_and_update_state_at_beginning_of_format_character@?$standard_base@_WV?$stream_output_adapter@_W@__crt_stdio_output@@@__crt_stdio_output@@IEAA_NXZ 000000014004701c f i libucrt:output.obj
 0001:00046020       ?validate_and_update_state_at_beginning_of_format_character@?$standard_base@_WV?$string_output_adapter@_W@__crt_stdio_output@@@__crt_stdio_output@@IEAA_NXZ 0000000140047020 f i libucrt:output.obj
 0001:00046024       ?validate_and_update_state_at_end_of_format_string@?$format_validation_base@DV?$stream_output_adapter@D@__crt_stdio_output@@@__crt_stdio_output@@IEAA_NXZ 0000000140047024 f i libucrt:output.obj
 0001:0004607c       ?validate_and_update_state_at_end_of_format_string@?$format_validation_base@DV?$string_output_adapter@D@__crt_stdio_output@@@__crt_stdio_output@@IEAA_NXZ 000000014004707c f i libucrt:output.obj
 0001:000460d4       ?validate_and_update_state_at_end_of_format_string@?$format_validation_base@_WV?$stream_output_adapter@_W@__crt_stdio_output@@@__crt_stdio_output@@IEAA_NXZ 00000001400470d4 f i libucrt:output.obj
 0001:0004612c       ?validate_and_update_state_at_end_of_format_string@?$format_validation_base@_WV?$string_output_adapter@_W@__crt_stdio_output@@@__crt_stdio_output@@IEAA_NXZ 000000014004712c f i libucrt:output.obj
 0001:00046184       ?validate_and_update_state_at_end_of_format_string@?$positional_parameter_base@DV?$stream_output_adapter@D@__crt_stdio_output@@@__crt_stdio_output@@IEAA_NXZ 0000000140047184 f i libucrt:output.obj
 0001:00046268       ?validate_and_update_state_at_end_of_format_string@?$positional_parameter_base@DV?$string_output_adapter@D@__crt_stdio_output@@@__crt_stdio_output@@IEAA_NXZ 0000000140047268 f i libucrt:output.obj
 0001:0004634c       ?validate_and_update_state_at_end_of_format_string@?$positional_parameter_base@_WV?$stream_output_adapter@_W@__crt_stdio_output@@@__crt_stdio_output@@IEAA_NXZ 000000014004734c f i libucrt:output.obj
 0001:00046430       ?validate_and_update_state_at_end_of_format_string@?$positional_parameter_base@_WV?$string_output_adapter@_W@__crt_stdio_output@@@__crt_stdio_output@@IEAA_NXZ 0000000140047430 f i libucrt:output.obj
 0001:00046514       ?validate_and_update_state_at_end_of_format_string@?$standard_base@DV?$stream_output_adapter@D@__crt_stdio_output@@@__crt_stdio_output@@IEBA_NXZ 0000000140047514 f i libucrt:output.obj
 0001:00046518       ?validate_and_update_state_at_end_of_format_string@?$standard_base@DV?$string_output_adapter@D@__crt_stdio_output@@@__crt_stdio_output@@IEBA_NXZ 0000000140047518 f i libucrt:output.obj
 0001:0004651c       ?validate_and_update_state_at_end_of_format_string@?$standard_base@_WV?$stream_output_adapter@_W@__crt_stdio_output@@@__crt_stdio_output@@IEBA_NXZ 000000014004751c f i libucrt:output.obj
 0001:00046520       ?validate_and_update_state_at_end_of_format_string@?$standard_base@_WV?$string_output_adapter@_W@__crt_stdio_output@@@__crt_stdio_output@@IEBA_NXZ 0000000140047520 f i libucrt:output.obj
 0001:00046524       ?validate_state_for_type_case_a@?$positional_parameter_base@DV?$stream_output_adapter@D@__crt_stdio_output@@@__crt_stdio_output@@IEAA_NXZ 0000000140047524 f i libucrt:output.obj
 0001:00046640       ?validate_state_for_type_case_a@?$positional_parameter_base@DV?$string_output_adapter@D@__crt_stdio_output@@@__crt_stdio_output@@IEAA_NXZ 0000000140047640 f i libucrt:output.obj
 0001:0004675c       ?validate_state_for_type_case_a@?$positional_parameter_base@_WV?$stream_output_adapter@_W@__crt_stdio_output@@@__crt_stdio_output@@IEAA_NXZ 000000014004775c f i libucrt:output.obj
 0001:0004687c       ?validate_state_for_type_case_a@?$positional_parameter_base@_WV?$string_output_adapter@_W@__crt_stdio_output@@@__crt_stdio_output@@IEAA_NXZ 000000014004787c f i libucrt:output.obj
 0001:0004699c       ?validate_state_for_type_case_a@?$standard_base@DV?$stream_output_adapter@D@__crt_stdio_output@@@__crt_stdio_output@@IEBA_NXZ 000000014004799c f i libucrt:output.obj
 0001:000469a0       ?validate_state_for_type_case_a@?$standard_base@DV?$string_output_adapter@D@__crt_stdio_output@@@__crt_stdio_output@@IEBA_NXZ 00000001400479a0 f i libucrt:output.obj
 0001:000469a4       ?validate_state_for_type_case_a@?$standard_base@_WV?$stream_output_adapter@_W@__crt_stdio_output@@@__crt_stdio_output@@IEBA_NXZ 00000001400479a4 f i libucrt:output.obj
 0001:000469a8       ?validate_state_for_type_case_a@?$standard_base@_WV?$string_output_adapter@_W@__crt_stdio_output@@@__crt_stdio_output@@IEBA_NXZ 00000001400479a8 f i libucrt:output.obj
 0001:000469ac       ?validate_stream_is_ansi_if_required@?$__acrt_stdio_char_traits@D@@SA_NQEAU_iobuf@@@Z 00000001400479ac f i libucrt:output.obj
 0001:00046a70       ?validate_stream_is_ansi_if_required@?$__acrt_stdio_char_traits@_W@@SA_NQEAU_iobuf@@@Z 0000000140047a70 f i libucrt:output.obj
 0001:00046a74       ?wide_character_to_digit@__crt_strtox@@YAH_W@Z 0000000140047a74 f i libucrt:output.obj
 0001:00046c7c       ?wide_null_string@?$output_processor@DV?$stream_output_adapter@D@__crt_stdio_output@@V?$format_validation_base@DV?$stream_output_adapter@D@__crt_stdio_output@@@2@@__crt_stdio_output@@CAPEA_WXZ 0000000140047c7c f i libucrt:output.obj
 0001:00046c88       ?wide_null_string@?$output_processor@DV?$stream_output_adapter@D@__crt_stdio_output@@V?$positional_parameter_base@DV?$stream_output_adapter@D@__crt_stdio_output@@@2@@__crt_stdio_output@@CAPEA_WXZ 0000000140047c88 f i libucrt:output.obj
 0001:00046c94       ?wide_null_string@?$output_processor@DV?$stream_output_adapter@D@__crt_stdio_output@@V?$standard_base@DV?$stream_output_adapter@D@__crt_stdio_output@@@2@@__crt_stdio_output@@CAPEA_WXZ 0000000140047c94 f i libucrt:output.obj
 0001:00046ca0       ?wide_null_string@?$output_processor@DV?$string_output_adapter@D@__crt_stdio_output@@V?$format_validation_base@DV?$string_output_adapter@D@__crt_stdio_output@@@2@@__crt_stdio_output@@CAPEA_WXZ 0000000140047ca0 f i libucrt:output.obj
 0001:00046cac       ?wide_null_string@?$output_processor@DV?$string_output_adapter@D@__crt_stdio_output@@V?$positional_parameter_base@DV?$string_output_adapter@D@__crt_stdio_output@@@2@@__crt_stdio_output@@CAPEA_WXZ 0000000140047cac f i libucrt:output.obj
 0001:00046cb8       ?wide_null_string@?$output_processor@DV?$string_output_adapter@D@__crt_stdio_output@@V?$standard_base@DV?$string_output_adapter@D@__crt_stdio_output@@@2@@__crt_stdio_output@@CAPEA_WXZ 0000000140047cb8 f i libucrt:output.obj
 0001:00046cc4       ?wide_null_string@?$output_processor@_WV?$stream_output_adapter@_W@__crt_stdio_output@@V?$format_validation_base@_WV?$stream_output_adapter@_W@__crt_stdio_output@@@2@@__crt_stdio_output@@CAPEA_WXZ 0000000140047cc4 f i libucrt:output.obj
 0001:00046cd0       ?wide_null_string@?$output_processor@_WV?$stream_output_adapter@_W@__crt_stdio_output@@V?$positional_parameter_base@_WV?$stream_output_adapter@_W@__crt_stdio_output@@@2@@__crt_stdio_output@@CAPEA_WXZ 0000000140047cd0 f i libucrt:output.obj
 0001:00046cdc       ?wide_null_string@?$output_processor@_WV?$stream_output_adapter@_W@__crt_stdio_output@@V?$standard_base@_WV?$stream_output_adapter@_W@__crt_stdio_output@@@2@@__crt_stdio_output@@CAPEA_WXZ 0000000140047cdc f i libucrt:output.obj
 0001:00046ce8       ?wide_null_string@?$output_processor@_WV?$string_output_adapter@_W@__crt_stdio_output@@V?$format_validation_base@_WV?$string_output_adapter@_W@__crt_stdio_output@@@2@@__crt_stdio_output@@CAPEA_WXZ 0000000140047ce8 f i libucrt:output.obj
 0001:00046cf4       ?wide_null_string@?$output_processor@_WV?$string_output_adapter@_W@__crt_stdio_output@@V?$positional_parameter_base@_WV?$string_output_adapter@_W@__crt_stdio_output@@@2@@__crt_stdio_output@@CAPEA_WXZ 0000000140047cf4 f i libucrt:output.obj
 0001:00046d00       ?wide_null_string@?$output_processor@_WV?$string_output_adapter@_W@__crt_stdio_output@@V?$standard_base@_WV?$string_output_adapter@_W@__crt_stdio_output@@@2@@__crt_stdio_output@@CAPEA_WXZ 0000000140047d00 f i libucrt:output.obj
 0001:00046d0c       ?write_character@?$output_adapter_common@DV?$stream_output_adapter@D@__crt_stdio_output@@@__crt_stdio_output@@QEBAXDQEAHAEAV__crt_cached_ptd_host@@@Z 0000000140047d0c f i libucrt:output.obj
 0001:00046d6c       ?write_character@?$output_adapter_common@_WV?$stream_output_adapter@_W@__crt_stdio_output@@@__crt_stdio_output@@QEBAX_WQEAHAEAV__crt_cached_ptd_host@@@Z 0000000140047d6c f i libucrt:output.obj
 0001:00046dd0       ?write_character@?$string_output_adapter@D@__crt_stdio_output@@QEBA_NDQEAHAEAV__crt_cached_ptd_host@@@Z 0000000140047dd0 f i libucrt:output.obj
 0001:00046e28       ?write_character@?$string_output_adapter@_W@__crt_stdio_output@@QEBA_N_WQEAHAEAV__crt_cached_ptd_host@@@Z 0000000140047e28 f i libucrt:output.obj
 0001:00046e84       ?write_character_without_count_update@?$stream_output_adapter@D@__crt_stdio_output@@QEBA_NDAEAV__crt_cached_ptd_host@@@Z 0000000140047e84 f i libucrt:output.obj
 0001:00046ed4       ?write_character_without_count_update@?$stream_output_adapter@_W@__crt_stdio_output@@QEBA_N_WAEAV__crt_cached_ptd_host@@@Z 0000000140047ed4 f i libucrt:output.obj
 0001:00046f28       ?write_stored_string_tchar@?$output_processor@DV?$stream_output_adapter@D@__crt_stdio_output@@V?$format_validation_base@DV?$stream_output_adapter@D@__crt_stdio_output@@@2@@__crt_stdio_output@@AEAA_ND@Z 0000000140047f28 f i libucrt:output.obj
 0001:000470a8       ?write_stored_string_tchar@?$output_processor@DV?$stream_output_adapter@D@__crt_stdio_output@@V?$positional_parameter_base@DV?$stream_output_adapter@D@__crt_stdio_output@@@2@@__crt_stdio_output@@AEAA_ND@Z 00000001400480a8 f i libucrt:output.obj
 0001:00047228       ?write_stored_string_tchar@?$output_processor@DV?$stream_output_adapter@D@__crt_stdio_output@@V?$standard_base@DV?$stream_output_adapter@D@__crt_stdio_output@@@2@@__crt_stdio_output@@AEAA_ND@Z 0000000140048228 f i libucrt:output.obj
 0001:000473a8       ?write_stored_string_tchar@?$output_processor@DV?$string_output_adapter@D@__crt_stdio_output@@V?$format_validation_base@DV?$string_output_adapter@D@__crt_stdio_output@@@2@@__crt_stdio_output@@AEAA_ND@Z 00000001400483a8 f i libucrt:output.obj
 0001:000474c8       ?write_stored_string_tchar@?$output_processor@DV?$string_output_adapter@D@__crt_stdio_output@@V?$positional_parameter_base@DV?$string_output_adapter@D@__crt_stdio_output@@@2@@__crt_stdio_output@@AEAA_ND@Z 00000001400484c8 f i libucrt:output.obj
 0001:000475e8       ?write_stored_string_tchar@?$output_processor@DV?$string_output_adapter@D@__crt_stdio_output@@V?$standard_base@DV?$string_output_adapter@D@__crt_stdio_output@@@2@@__crt_stdio_output@@AEAA_ND@Z 00000001400485e8 f i libucrt:output.obj
 0001:00047708       ?write_stored_string_tchar@?$output_processor@_WV?$stream_output_adapter@_W@__crt_stdio_output@@V?$format_validation_base@_WV?$stream_output_adapter@_W@__crt_stdio_output@@@2@@__crt_stdio_output@@AEAA_N_W@Z 0000000140048708 f i libucrt:output.obj
 0001:0004788c       ?write_stored_string_tchar@?$output_processor@_WV?$stream_output_adapter@_W@__crt_stdio_output@@V?$positional_parameter_base@_WV?$stream_output_adapter@_W@__crt_stdio_output@@@2@@__crt_stdio_output@@AEAA_N_W@Z 000000014004888c f i libucrt:output.obj
 0001:00047a10       ?write_stored_string_tchar@?$output_processor@_WV?$stream_output_adapter@_W@__crt_stdio_output@@V?$standard_base@_WV?$stream_output_adapter@_W@__crt_stdio_output@@@2@@__crt_stdio_output@@AEAA_N_W@Z 0000000140048a10 f i libucrt:output.obj
 0001:00047b94       ?write_stored_string_tchar@?$output_processor@_WV?$string_output_adapter@_W@__crt_stdio_output@@V?$format_validation_base@_WV?$string_output_adapter@_W@__crt_stdio_output@@@2@@__crt_stdio_output@@AEAA_N_W@Z 0000000140048b94 f i libucrt:output.obj
 0001:00047cec       ?write_stored_string_tchar@?$output_processor@_WV?$string_output_adapter@_W@__crt_stdio_output@@V?$positional_parameter_base@_WV?$string_output_adapter@_W@__crt_stdio_output@@@2@@__crt_stdio_output@@AEAA_N_W@Z 0000000140048cec f i libucrt:output.obj
 0001:00047e44       ?write_stored_string_tchar@?$output_processor@_WV?$string_output_adapter@_W@__crt_stdio_output@@V?$standard_base@_WV?$string_output_adapter@_W@__crt_stdio_output@@@2@@__crt_stdio_output@@AEAA_N_W@Z 0000000140048e44 f i libucrt:output.obj
 0001:00047f9c       ?write_string@?$stream_output_adapter@D@__crt_stdio_output@@QEBAXQEBDHQEAHAEAV__crt_cached_ptd_host@@@Z 0000000140048f9c f i libucrt:output.obj
 0001:00047fcc       ?write_string@?$stream_output_adapter@_W@__crt_stdio_output@@QEBAXQEB_WHQEAHAEAV__crt_cached_ptd_host@@@Z 0000000140048fcc f i libucrt:output.obj
 0001:00047ffc       ?write_string@?$string_output_adapter@D@__crt_stdio_output@@QEBAXQEBDHQEAHAEAV__crt_cached_ptd_host@@@Z 0000000140048ffc f i libucrt:output.obj
 0001:000480c8       ?write_string@?$string_output_adapter@_W@__crt_stdio_output@@QEBAXQEB_WHQEAHAEAV__crt_cached_ptd_host@@@Z 00000001400490c8 f i libucrt:output.obj
 0001:00048198       ?write_string_impl@?$output_adapter_common@DV?$stream_output_adapter@D@__crt_stdio_output@@@__crt_stdio_output@@IEBAXQEBDHQEAHAEAV__crt_cached_ptd_host@@@Z 0000000140049198 f i libucrt:output.obj
 0001:00048298       ?write_string_impl@?$output_adapter_common@_WV?$stream_output_adapter@_W@__crt_stdio_output@@@__crt_stdio_output@@IEBAXQEB_WHQEAHAEAV__crt_cached_ptd_host@@@Z 0000000140049298 f i libucrt:output.obj
 0001:000483ac       __acrt_disable_global_locale_sync 00000001400493ac f i libucrt:output.obj
 0001:000483b4       __acrt_isleadbyte_l_noupdate 00000001400493b4 f i libucrt:output.obj
 0001:000483e0       __acrt_locale_get_ctype_array_value 00000001400493e0 f i libucrt:output.obj
 0001:00048400       __ascii_iswalpha           0000000140049400 f i libucrt:output.obj
 0001:00048420       __ascii_toupper            0000000140049420 f i libucrt:output.obj
 0001:00048434       __ascii_towupper           0000000140049434 f i libucrt:output.obj
 0001:00048444       __stdio_common_vfprintf    0000000140049444 f   libucrt:output.obj
 0001:000485b4       __stdio_common_vfprintf_p  00000001400495b4 f   libucrt:output.obj
 0001:00048724       __stdio_common_vfprintf_s  0000000140049724 f   libucrt:output.obj
 0001:00048894       __stdio_common_vfwprintf   0000000140049894 f   libucrt:output.obj
 0001:00048a04       __stdio_common_vfwprintf_p 0000000140049a04 f   libucrt:output.obj
 0001:00048b74       __stdio_common_vfwprintf_s 0000000140049b74 f   libucrt:output.obj
 0001:00048ce4       __stdio_common_vsnprintf_s 0000000140049ce4 f   libucrt:output.obj
 0001:00048f30       __stdio_common_vsnwprintf_s 0000000140049f30 f   libucrt:output.obj
 0001:00049180       __stdio_common_vsprintf    000000014004a180 f   libucrt:output.obj
 0001:00049468       __stdio_common_vsprintf_p  000000014004a468 f   libucrt:output.obj
 0001:0004954c       __stdio_common_vsprintf_s  000000014004a54c f   libucrt:output.obj
 0001:000496a4       __stdio_common_vswprintf   000000014004a6a4 f   libucrt:output.obj
 0001:00049994       __stdio_common_vswprintf_p 000000014004a994 f   libucrt:output.obj
 0001:00049a78       __stdio_common_vswprintf_s 000000014004aa78 f   libucrt:output.obj
 0001:00049bd0       _ctype_fast_check_internal 000000014004abd0 f i libucrt:output.obj
 0001:00049be8       _isdigit_fast_internal     000000014004abe8 f i libucrt:output.obj
 0001:00049c04       _tolower_fast_internal     000000014004ac04 f i libucrt:output.obj
 0001:00049c30       strcmp                     000000014004ac30 f   libucrt:strcmp.obj
 0001:00049cd0       strcat                     000000014004acd0 f   libucrt:strcat.obj
 0001:00049d70       strcpy                     000000014004ad70 f   libucrt:strcat.obj
 0001:00049d73       ___entry_from_strcat_in_strcpy 000000014004ad73     libucrt:strcat.obj
 0001:00049e90       strlen                     000000014004ae90 f   libucrt:strlen.obj
 0001:00049f80       strncpy                    000000014004af80 f   libucrt:strncpy.obj
 0001:0004a140       calloc                     000000014004b140 f   libucrt:calloc.obj
 0001:0004a148       free                       000000014004b148 f   libucrt:free.obj
 0001:0004a160       ??$?B$$A6AXPEAXK0@Z@__crt_fast_encoded_nullptr_t@@QEBAP6AXPEAXK0@ZXZ 000000014004b160 f i libucrt:exit.obj
 0001:0004a1f0       ??$__crt_fast_decode_pointer@P6AXPEAXK0@Z@@YAP6AXPEAXK0@ZQ6AX0K0@Z@Z 000000014004b1f0 f i libucrt:exit.obj
 0001:0004a20c       ??$__crt_fast_encode_pointer@P6AXPEAXK0@Z@@YAP6AXPEAXK0@ZQ6AX0K0@Z@Z 000000014004b20c f i libucrt:exit.obj
 0001:0004a234       ??$__crt_get_proc_address@P6AXI@Z@@YAP6AXI@ZQEAUHINSTANCE__@@QEBD@Z 000000014004b234 f i libucrt:exit.obj
 0001:0004a268       ??0?$__crt_unique_handle_t@U__crt_hmodule_traits@@@@QEAA@QEAUHINSTANCE__@@@Z 000000014004b268 f i libucrt:exit.obj
 0001:0004a270       ??1?$__crt_unique_handle_t@U__crt_hmodule_traits@@@@QEAA@XZ 000000014004b270 f i libucrt:exit.obj
 0001:0004a3ac       ?__acrt_select_exit_lock@@YA?AW4__acrt_lock_id@@XZ 000000014004b3ac f i libucrt:exit.obj
 0001:0004a3b4       ?__crt_fast_encode_pointer@@YA?AU__crt_fast_encoded_nullptr_t@@$$T@Z 000000014004b3b4 f i libucrt:exit.obj
 0001:0004a3bc       ?__crt_rotate_pointer_value@@YA_K_KH@Z 000000014004b3bc f i libucrt:exit.obj
 0001:0004a3d8       ?close@?$__crt_unique_handle_t@U__crt_hmodule_traits@@@@QEAAXXZ 000000014004b3d8 f i libucrt:exit.obj
 0001:0004a404       ?close@__crt_hmodule_traits@@SA_NPEAUHINSTANCE__@@@Z 000000014004b404 f i libucrt:exit.obj
 0001:0004a558       ?get@?$__crt_unique_handle_t@U__crt_hmodule_traits@@@@QEBAPEAUHINSTANCE__@@XZ 000000014004b558 f i libucrt:exit.obj
 0001:0004a55c       ?get_address_of@?$__crt_unique_handle_t@U__crt_hmodule_traits@@@@QEAAPEAPEAUHINSTANCE__@@XZ 000000014004b55c f i libucrt:exit.obj
 0001:0004a560       ?get_invalid_value@__crt_hmodule_traits@@SAPEAUHINSTANCE__@@XZ 000000014004b560 f i libucrt:exit.obj
 0001:0004a684       _Exit                      000000014004b684 f   libucrt:exit.obj
 0001:0004a694       __acrt_initialize_thread_local_exit_callback 000000014004b694 f   libucrt:exit.obj
 0001:0004a6a0       _c_exit                    000000014004b6a0 f   libucrt:exit.obj
 0001:0004a6b4       _cexit                     000000014004b6b4 f   libucrt:exit.obj
 0001:0004a6c4       _exit                      000000014004b6c4 f   libucrt:exit.obj
 0001:0004a6d4       _is_c_termination_complete 000000014004b6d4 f   libucrt:exit.obj
 0001:0004a6e0       _register_thread_local_exe_atexit_callback 000000014004b6e0 f   libucrt:exit.obj
 0001:0004a730       exit                       000000014004b730 f   libucrt:exit.obj
 0001:0004a73c       quick_exit                 000000014004b73c f   libucrt:exit.obj
 0001:0004a770       _seh_filter_dll            000000014004b770 f   libucrt:exception_filter.obj
 0001:0004a788       _seh_filter_exe            000000014004b788 f   libucrt:exception_filter.obj
 0001:0004aa7c       __acrt_report_runtime_error 000000014004ba7c f   libucrt:report_runtime_error.obj
 0001:0004ac30       _invoke_watson_if_error    000000014004bc30 f i libucrt:report_runtime_error.obj
 0001:0004ac70       _query_app_type            000000014004bc70 f   libucrt:report_runtime_error.obj
 0001:0004ac78       _set_app_type              000000014004bc78 f   libucrt:report_runtime_error.obj
 0001:0004ac80       ??$__crt_fast_decode_pointer@P6AHPEAU_exception@@@Z@@YAP6AHPEAU_exception@@@ZQ6AH0@Z@Z 000000014004bc80 f i libucrt:matherr.obj
 0001:0004ac9c       ??$__crt_fast_encode_pointer@P6AHPEAU_exception@@@Z@@YAP6AHPEAU_exception@@@ZQ6AH0@Z@Z 000000014004bc9c f i libucrt:matherr.obj
 0001:0004acc4       ?get_current_state_index@__crt_state_management@@YA_KXZ 000000014004bcc4 f i libucrt:matherr.obj
 0001:0004acc8       ?initialize@?$dual_state_global@P6AHPEAU_exception@@@Z@__crt_state_management@@QEAAXQ6AHPEAU_exception@@@Z@Z 000000014004bcc8 f i libucrt:matherr.obj
 0001:0004acd8       ?value@?$dual_state_global@P6AHPEAU_exception@@@Z@__crt_state_management@@QEAAAEAP6AHPEAU_exception@@@ZXZ 000000014004bcd8 f i libucrt:matherr.obj
 0001:0004acdc       __acrt_has_user_matherr    000000014004bcdc f   libucrt:matherr.obj
 0001:0004ad04       __acrt_initialize_user_matherr 000000014004bd04 f   libucrt:matherr.obj
 0001:0004ad10       __acrt_invoke_user_matherr 000000014004bd10 f   libucrt:matherr.obj
 0001:0004ad5c       __setusermatherr           000000014004bd5c f   libucrt:matherr.obj
 0001:0004ad8c       ??$?RE@__crt_internal_free_policy@@QEBAXQEBE@Z 000000014004bd8c f i libucrt:argv_parsing.obj
 0001:0004ad98       ??$?RPEAD@__crt_internal_free_policy@@QEBAXQEBQEAD@Z 000000014004bd98 f i libucrt:argv_parsing.obj
 0001:0004ada4       ??$?RPEA_W@__crt_internal_free_policy@@QEBAXQEBQEA_W@Z 000000014004bda4 f i libucrt:argv_parsing.obj
 0001:0004b15c       ??$get_module_file_name@$$TAEAY0BAF@DH@?$__crt_char_traits@D@@SAK$$QEA$$TAEAY0BAF@D$$QEAH@Z 000000014004c15c f i libucrt:argv_parsing.obj
 0001:0004b16c       ??$get_module_file_name@$$TAEAY0BAF@_WH@?$__crt_char_traits@_W@@SAK$$QEA$$TAEAY0BAF@_W$$QEAH@Z 000000014004c16c f i libucrt:argv_parsing.obj
 0001:0004b5c0       ??$set_program_name@PEAD@?$__crt_char_traits@D@@SAX$$QEAPEAD@Z 000000014004c5c0 f i libucrt:argv_parsing.obj
 0001:0004b5d0       ??$set_program_name@PEA_W@?$__crt_char_traits@_W@@SAX$$QEAPEA_W@Z 000000014004c5d0 f i libucrt:argv_parsing.obj
 0001:0004b5f0       ??0?$__crt_unique_heap_ptr@EU__crt_internal_free_policy@@@@QEAA@QEAE@Z 000000014004c5f0 f i libucrt:argv_parsing.obj
 0001:0004b5f8       ??0?$__crt_unique_heap_ptr@PEADU__crt_internal_free_policy@@@@QEAA@QEAPEAD@Z 000000014004c5f8 f i libucrt:argv_parsing.obj
 0001:0004b600       ??0?$__crt_unique_heap_ptr@PEA_WU__crt_internal_free_policy@@@@QEAA@QEAPEA_W@Z 000000014004c600 f i libucrt:argv_parsing.obj
 0001:0004b608       ??1?$__crt_unique_heap_ptr@EU__crt_internal_free_policy@@@@QEAA@XZ 000000014004c608 f i libucrt:argv_parsing.obj
 0001:0004b62c       ??1?$__crt_unique_heap_ptr@PEADU__crt_internal_free_policy@@@@QEAA@XZ 000000014004c62c f i libucrt:argv_parsing.obj
 0001:0004b650       ??1?$__crt_unique_heap_ptr@PEA_WU__crt_internal_free_policy@@@@QEAA@XZ 000000014004c650 f i libucrt:argv_parsing.obj
 0001:0004b674       ??B?$__crt_unique_heap_ptr@EU__crt_internal_free_policy@@@@QEBA_NXZ 000000014004c674 f i libucrt:argv_parsing.obj
 0001:0004b6c8       ?detach@?$__crt_unique_heap_ptr@EU__crt_internal_free_policy@@@@QEAAPEAEXZ 000000014004c6c8 f i libucrt:argv_parsing.obj
 0001:0004b6d4       ?detach@?$__crt_unique_heap_ptr@PEADU__crt_internal_free_policy@@@@QEAAPEAPEADXZ 000000014004c6d4 f i libucrt:argv_parsing.obj
 0001:0004b6e0       ?detach@?$__crt_unique_heap_ptr@PEA_WU__crt_internal_free_policy@@@@QEAAPEAPEA_WXZ 000000014004c6e0 f i libucrt:argv_parsing.obj
 0001:0004b708       ?get@?$__crt_unique_heap_ptr@EU__crt_internal_free_policy@@@@QEBAPEAEXZ 000000014004c708 f i libucrt:argv_parsing.obj
 0001:0004b70c       ?get@?$__crt_unique_heap_ptr@PEADU__crt_internal_free_policy@@@@QEBAPEAPEADXZ 000000014004c70c f i libucrt:argv_parsing.obj
 0001:0004b710       ?get@?$__crt_unique_heap_ptr@PEA_WU__crt_internal_free_policy@@@@QEBAPEAPEA_WXZ 000000014004c710 f i libucrt:argv_parsing.obj
 0001:0004b714       ?get_address_of@?$__crt_unique_heap_ptr@PEADU__crt_internal_free_policy@@@@QEAAPEAPEAPEADXZ 000000014004c714 f i libucrt:argv_parsing.obj
 0001:0004b718       ?get_address_of@?$__crt_unique_heap_ptr@PEA_WU__crt_internal_free_policy@@@@QEAAPEAPEAPEA_WXZ 000000014004c718 f i libucrt:argv_parsing.obj
 0001:0004b74c       ?is_valid@?$__crt_unique_heap_ptr@EU__crt_internal_free_policy@@@@QEBA_NXZ 000000014004c74c f i libucrt:argv_parsing.obj
 0001:0004b758       ?release@?$__crt_unique_heap_ptr@EU__crt_internal_free_policy@@@@QEAAXXZ 000000014004c758 f i libucrt:argv_parsing.obj
 0001:0004b77c       ?release@?$__crt_unique_heap_ptr@PEADU__crt_internal_free_policy@@@@QEAAXXZ 000000014004c77c f i libucrt:argv_parsing.obj
 0001:0004b7a0       ?release@?$__crt_unique_heap_ptr@PEA_WU__crt_internal_free_policy@@@@QEAAXXZ 000000014004c7a0 f i libucrt:argv_parsing.obj
 0001:0004b7e4       __acrt_allocate_buffer_for_argv 000000014004c7e4 f   libucrt:argv_parsing.obj
 0001:0004b858       _configure_narrow_argv     000000014004c858 f   libucrt:argv_parsing.obj
 0001:0004ba40       _configure_wide_argv       000000014004ca40 f   libucrt:argv_parsing.obj
 0001:0004bc24       _set_pgmptr                000000014004cc24 f i libucrt:argv_parsing.obj
 0001:0004bc30       _set_wpgmptr               000000014004cc30 f i libucrt:argv_parsing.obj
 0001:0004bc3c       ??$?R_W@__crt_internal_free_policy@@QEBAXQEB_W@Z 000000014004cc3c f i libucrt:environment_initialization.obj
 0001:0004c2b0       ??$get_environment_from_os@$$V@?$__crt_char_traits@D@@SAPEADXZ 000000014004d2b0 f i libucrt:environment_initialization.obj
 0001:0004c2b8       ??$get_environment_from_os@$$V@?$__crt_char_traits@_W@@SAPEA_WXZ 000000014004d2b8 f i libucrt:environment_initialization.obj
 0001:0004c4c0       ??$set_variable_in_environment_nolock@PEADH@?$__crt_char_traits@D@@SAH$$QEAPEAD$$QEAH@Z 000000014004d4c0 f i libucrt:environment_initialization.obj
 0001:0004c4cc       ??$set_variable_in_environment_nolock@PEA_WH@?$__crt_char_traits@_W@@SAH$$QEAPEA_W$$QEAH@Z 000000014004d4cc f i libucrt:environment_initialization.obj
 0001:0004c4d8       ??$tcscpy_s@PEADAEB_KAEAPEAD@?$__crt_char_traits@D@@SAH$$QEAPEADAEB_KAEAPEAD@Z 000000014004d4d8 f i libucrt:environment_initialization.obj
 0001:0004c4ec       ??$tcscpy_s@PEA_WAEB_KAEAPEA_W@?$__crt_char_traits@_W@@SAH$$QEAPEA_WAEB_KAEAPEA_W@Z 000000014004d4ec f i libucrt:environment_initialization.obj
 0001:0004c500       ??$tcslen@AEAPEAD@?$__crt_char_traits@D@@SA_KAEAPEAD@Z 000000014004d500 f i libucrt:environment_initialization.obj
 0001:0004c518       ??$tcslen@AEAPEA_W@?$__crt_char_traits@_W@@SA_KAEAPEA_W@Z 000000014004d518 f i libucrt:environment_initialization.obj
 0001:0004c530       ??$uninitialize@A6AXAEAPEAPEAD@_E@?$dual_state_global@PEAPEAD@__crt_state_management@@QEAAXA6AXAEAPEAPEAD@_E@Z 000000014004d530 f i libucrt:environment_initialization.obj
 0001:0004c59c       ??$uninitialize@A6AXAEAPEAPEA_W@_E@?$dual_state_global@PEAPEA_W@__crt_state_management@@QEAAXA6AXAEAPEAPEA_W@_E@Z 000000014004d59c f i libucrt:environment_initialization.obj
 0001:0004c648       ??0?$__crt_unique_heap_ptr@_WU__crt_internal_free_policy@@@@QEAA@QEA_W@Z 000000014004d648 f i libucrt:environment_initialization.obj
 0001:0004c650       ??1?$__crt_unique_heap_ptr@_WU__crt_internal_free_policy@@@@QEAA@XZ 000000014004d650 f i libucrt:environment_initialization.obj
 0001:0004c674       ??B?$__crt_unique_heap_ptr@PEADU__crt_internal_free_policy@@@@QEBA_NXZ 000000014004d674 f i libucrt:environment_initialization.obj
 0001:0004c680       ??B?$__crt_unique_heap_ptr@PEA_WU__crt_internal_free_policy@@@@QEBA_NXZ 000000014004d680 f i libucrt:environment_initialization.obj
 0001:0004c68c       ??B?$__crt_unique_heap_ptr@_WU__crt_internal_free_policy@@@@QEBA_NXZ 000000014004d68c f i libucrt:environment_initialization.obj
 0001:0004c698       ?__crt_compute_required_transform_buffer_count@@YA_KIQEBD@Z 000000014004d698 f i libucrt:environment_initialization.obj
 0001:0004c6c8       ?__crt_compute_required_transform_buffer_count@@YA_KIQEB_W@Z 000000014004d6c8 f i libucrt:environment_initialization.obj
 0001:0004c704       ?__crt_transform_string@@YA_KIQEBDQEA_W_K@Z 000000014004d704 f i libucrt:environment_initialization.obj
 0001:0004c730       ?__crt_transform_string@@YA_KIQEB_WQEAD_K@Z 000000014004d730 f i libucrt:environment_initialization.obj
 0001:0004c76c       ?detach@?$__crt_unique_heap_ptr@DU__crt_internal_free_policy@@@@QEAAPEADXZ 000000014004d76c f i libucrt:environment_initialization.obj
 0001:0004c778       ?detach@?$__crt_unique_heap_ptr@_WU__crt_internal_free_policy@@@@QEAAPEA_WXZ 000000014004d778 f i libucrt:environment_initialization.obj
 0001:0004c784       ?get@?$__crt_unique_heap_ptr@_WU__crt_internal_free_policy@@@@QEBAPEA_WXZ 000000014004d784 f i libucrt:environment_initialization.obj
 0001:0004c7d0       ?initialize@?$dual_state_global@PEAPEAD@__crt_state_management@@QEAAXQEAPEAD@Z 000000014004d7d0 f i libucrt:environment_initialization.obj
 0001:0004c7e0       ?initialize@?$dual_state_global@PEAPEA_W@__crt_state_management@@QEAAXQEAPEA_W@Z 000000014004d7e0 f i libucrt:environment_initialization.obj
 0001:0004c7f0       ?is_valid@?$__crt_unique_heap_ptr@PEADU__crt_internal_free_policy@@@@QEBA_NXZ 000000014004d7f0 f i libucrt:environment_initialization.obj
 0001:0004c7fc       ?is_valid@?$__crt_unique_heap_ptr@PEA_WU__crt_internal_free_policy@@@@QEBA_NXZ 000000014004d7fc f i libucrt:environment_initialization.obj
 0001:0004c808       ?is_valid@?$__crt_unique_heap_ptr@_WU__crt_internal_free_policy@@@@QEBA_NXZ 000000014004d808 f i libucrt:environment_initialization.obj
 0001:0004c820       ?release@?$__crt_unique_heap_ptr@_WU__crt_internal_free_policy@@@@QEAAXXZ 000000014004d820 f i libucrt:environment_initialization.obj
 0001:0004c844       ?value@?$dual_state_global@PEAPEAD@__crt_state_management@@QEAAAEAPEAPEADXZ 000000014004d844 f i libucrt:environment_initialization.obj
 0001:0004c848       ?value@?$dual_state_global@PEAPEA_W@__crt_state_management@@QEAAAEAPEAPEA_WXZ 000000014004d848 f i libucrt:environment_initialization.obj
 0001:0004c84c       __dcrt_get_or_create_narrow_environment_nolock 000000014004d84c f   libucrt:environment_initialization.obj
 0001:0004c898       __dcrt_get_or_create_wide_environment_nolock 000000014004d898 f   libucrt:environment_initialization.obj
 0001:0004c8e4       __dcrt_uninitialize_environments_nolock 000000014004d8e4 f   libucrt:environment_initialization.obj
 0001:0004c938       __p__environ               000000014004d938 f   libucrt:environment_initialization.obj
 0001:0004c944       __p__wenviron              000000014004d944 f   libucrt:environment_initialization.obj
 0001:0004c950       _get_initial_narrow_environment 000000014004d950 f   libucrt:environment_initialization.obj
 0001:0004c9b4       _get_initial_wide_environment 000000014004d9b4 f   libucrt:environment_initialization.obj
 0001:0004ca18       _initialize_narrow_environment 000000014004da18 f   libucrt:environment_initialization.obj
 0001:0004ca20       _initialize_wide_environment 000000014004da20 f   libucrt:environment_initialization.obj
 0001:0004ca28       _initterm                  000000014004da28 f   libucrt:initterm.obj
 0001:0004ca7c       _initterm_e                000000014004da7c f   libucrt:initterm.obj
 0001:0004cad4       ??$__crt_interlocked_read@H@@YAHPEDH@Z 000000014004dad4 f i libucrt:setmode.obj
 0001:0004cad8       ?value@?$dual_state_global@H@__crt_state_management@@QEAAAEAHXZ 000000014004dad8 f i libucrt:setmode.obj
 0001:0004cadc       _get_fmode                 000000014004dadc f   libucrt:setmode.obj
 0001:0004cb18       _set_fmode                 000000014004db18 f   libucrt:setmode.obj
 0001:0004cb64       _setmode                   000000014004db64 f   libucrt:setmode.obj
 0001:0004ccc8       _setmode_nolock            000000014004dcc8 f   libucrt:setmode.obj
 0001:0004cde8       __acrt_initialize_command_line 000000014004dde8 f   libucrt:argv_data.obj
 0001:0004ce18       __acrt_uninitialize_command_line 000000014004de18 f   libucrt:argv_data.obj
 0001:0004ce1c       __p___argc                 000000014004de1c f   libucrt:argv_data.obj
 0001:0004ce28       __p___argv                 000000014004de28 f   libucrt:argv_data.obj
 0001:0004ce34       __p___wargv                000000014004de34 f   libucrt:argv_data.obj
 0001:0004ce40       __p__acmdln                000000014004de40 f   libucrt:argv_data.obj
 0001:0004ce4c       __p__pgmptr                000000014004de4c f   libucrt:argv_data.obj
 0001:0004ce58       __p__wcmdln                000000014004de58 f   libucrt:argv_data.obj
 0001:0004ce64       __p__wpgmptr               000000014004de64 f   libucrt:argv_data.obj
 0001:0004ce70       _get_pgmptr                000000014004de70 f   libucrt:argv_data.obj
 0001:0004ceb4       _get_wpgmptr               000000014004deb4 f   libucrt:argv_data.obj
 0001:0004cefc       ??$?RU__crt_locale_data@@@__crt_internal_free_policy@@QEBAXQEBU__crt_locale_data@@@Z 000000014004defc f i libucrt:wsetlocale.obj
 0001:0004cf08       ??$?RU__crt_locale_pointers@@@__crt_internal_free_policy@@QEBAXQEBU__crt_locale_pointers@@@Z 000000014004df08 f i libucrt:wsetlocale.obj
 0001:0004cf14       ??$?RU__crt_multibyte_data@@@__crt_internal_free_policy@@QEBAXQEBU__crt_multibyte_data@@@Z 000000014004df14 f i libucrt:wsetlocale.obj
 0001:0004d414       ??0?$__crt_unique_heap_ptr@U__crt_locale_data@@U__crt_internal_free_policy@@@@QEAA@QEAU__crt_locale_data@@@Z 000000014004e414 f i libucrt:wsetlocale.obj
 0001:0004d41c       ??0?$__crt_unique_heap_ptr@U__crt_locale_pointers@@U__crt_internal_free_policy@@@@QEAA@QEAU__crt_locale_pointers@@@Z 000000014004e41c f i libucrt:wsetlocale.obj
 0001:0004d424       ??0?$__crt_unique_heap_ptr@U__crt_multibyte_data@@U__crt_internal_free_policy@@@@QEAA@QEAU__crt_multibyte_data@@@Z 000000014004e424 f i libucrt:wsetlocale.obj
 0001:0004d42c       ??0_expandlocale_locale_name_cache@@QEAA@QEA_W_KQEAU__crt_qualified_locale_data@@@Z 000000014004e42c f i libucrt:wsetlocale.obj
 0001:0004d49c       ??1?$__crt_unique_heap_ptr@U__crt_locale_data@@U__crt_internal_free_policy@@@@QEAA@XZ 000000014004e49c f i libucrt:wsetlocale.obj
 0001:0004d4c0       ??1?$__crt_unique_heap_ptr@U__crt_locale_pointers@@U__crt_internal_free_policy@@@@QEAA@XZ 000000014004e4c0 f i libucrt:wsetlocale.obj
 0001:0004d4e4       ??1?$__crt_unique_heap_ptr@U__crt_multibyte_data@@U__crt_internal_free_policy@@@@QEAA@XZ 000000014004e4e4 f i libucrt:wsetlocale.obj
 0001:0004d508       ??1_expandlocale_locale_name_cache@@QEAA@XZ 000000014004e508 f i libucrt:wsetlocale.obj
 0001:0004d564       ??B?$__crt_unique_heap_ptr@U__crt_locale_data@@U__crt_internal_free_policy@@@@QEBA_NXZ 000000014004e564 f i libucrt:wsetlocale.obj
 0001:0004d570       ??B?$__crt_unique_heap_ptr@U__crt_locale_pointers@@U__crt_internal_free_policy@@@@QEBA_NXZ 000000014004e570 f i libucrt:wsetlocale.obj
 0001:0004d57c       ??B?$__crt_unique_heap_ptr@U__crt_multibyte_data@@U__crt_internal_free_policy@@@@QEBA_NXZ 000000014004e57c f i libucrt:wsetlocale.obj
 0001:0004d888       ?commit_locale_name@_expandlocale_locale_name_cache@@QEAAXQEB_W_K@Z 000000014004e888 f i libucrt:wsetlocale.obj
 0001:0004d91c       ?commit_locale_name_cache_already_updated@_expandlocale_locale_name_cache@@QEAAXQEB_W_K@Z 000000014004e91c f i libucrt:wsetlocale.obj
 0001:0004d96c       ?detach@?$__crt_unique_heap_ptr@U__crt_locale_data@@U__crt_internal_free_policy@@@@QEAAPEAU__crt_locale_data@@XZ 000000014004e96c f i libucrt:wsetlocale.obj
 0001:0004d978       ?detach@?$__crt_unique_heap_ptr@U__crt_locale_pointers@@U__crt_internal_free_policy@@@@QEAAPEAU__crt_locale_pointers@@XZ 000000014004e978 f i libucrt:wsetlocale.obj
 0001:0004d984       ?detach@?$__crt_unique_heap_ptr@U__crt_multibyte_data@@U__crt_internal_free_policy@@@@QEAAPEAU__crt_multibyte_data@@XZ 000000014004e984 f i libucrt:wsetlocale.obj
 0001:0004d990       ?get@?$__crt_unique_heap_ptr@U__crt_locale_data@@U__crt_internal_free_policy@@@@QEBAPEAU__crt_locale_data@@XZ 000000014004e990 f i libucrt:wsetlocale.obj
 0001:0004d994       ?get@?$__crt_unique_heap_ptr@U__crt_locale_pointers@@U__crt_internal_free_policy@@@@QEBAPEAU__crt_locale_pointers@@XZ 000000014004e994 f i libucrt:wsetlocale.obj
 0001:0004d998       ?get@?$__crt_unique_heap_ptr@U__crt_multibyte_data@@U__crt_internal_free_policy@@@@QEBAPEAU__crt_multibyte_data@@XZ 000000014004e998 f i libucrt:wsetlocale.obj
 0001:0004d99c       ?is_valid@?$__crt_unique_heap_ptr@U__crt_locale_data@@U__crt_internal_free_policy@@@@QEBA_NXZ 000000014004e99c f i libucrt:wsetlocale.obj
 0001:0004d9a8       ?is_valid@?$__crt_unique_heap_ptr@U__crt_locale_pointers@@U__crt_internal_free_policy@@@@QEBA_NXZ 000000014004e9a8 f i libucrt:wsetlocale.obj
 0001:0004d9b4       ?is_valid@?$__crt_unique_heap_ptr@U__crt_multibyte_data@@U__crt_internal_free_policy@@@@QEBA_NXZ 000000014004e9b4 f i libucrt:wsetlocale.obj
 0001:0004d9c0       ?release@?$__crt_unique_heap_ptr@U__crt_locale_data@@U__crt_internal_free_policy@@@@QEAAXXZ 000000014004e9c0 f i libucrt:wsetlocale.obj
 0001:0004d9e4       ?release@?$__crt_unique_heap_ptr@U__crt_locale_pointers@@U__crt_internal_free_policy@@@@QEAAXXZ 000000014004e9e4 f i libucrt:wsetlocale.obj
 0001:0004da08       ?release@?$__crt_unique_heap_ptr@U__crt_multibyte_data@@U__crt_internal_free_policy@@@@QEAAXXZ 000000014004ea08 f i libucrt:wsetlocale.obj
 0001:0004da2c       ?value@?$dual_state_global@PEAU__crt_locale_data@@@__crt_state_management@@QEAAAEAPEAU__crt_locale_data@@XZ 000000014004ea2c f i libucrt:wsetlocale.obj
 0001:0004da30       __acrt_copy_locale_name    000000014004ea30 f   libucrt:wsetlocale.obj
 0001:0004dad4       __acrt_set_locale_changed  000000014004ead4 f   libucrt:wsetlocale.obj
 0001:0004dae4       __acrt_uninitialize_locale 000000014004eae4 f   libucrt:wsetlocale.obj
 0001:0004db20       __ascii_tolower            000000014004eb20 f i libucrt:wsetlocale.obj
 0001:0004db34       __ascii_towlower           000000014004eb34 f i libucrt:wsetlocale.obj
 0001:0004db44       __lc_lctowcs               000000014004eb44 f   libucrt:wsetlocale.obj
 0001:0004dc10       __lc_wcstolc               000000014004ec10 f   libucrt:wsetlocale.obj
 0001:0004ddd0       _configthreadlocale        000000014004edd0 f   libucrt:wsetlocale.obj
 0001:0004df44       _create_locale             000000014004ef44 f   libucrt:wsetlocale.obj
 0001:0004e574       _free_locale               000000014004f574 f   libucrt:wsetlocale.obj
 0001:0004e640       _get_current_locale        000000014004f640 f   libucrt:wsetlocale.obj
 0001:0004e72c       _wcreate_locale            000000014004f72c f   libucrt:wsetlocale.obj
 0001:0004e8c8       _wcscats                   000000014004f8c8 f   libucrt:wsetlocale.obj
 0001:0004e948       _wsetlocale                000000014004f948 f   libucrt:wsetlocale.obj
 0001:0004fae0       ?value@?$dual_state_global@J@__crt_state_management@@QEAAAEAJXZ 0000000140050ae0 f i libucrt:new_mode.obj
 0001:0004fae4       _query_new_mode            0000000140050ae4 f   libucrt:new_mode.obj
 0001:0004faf0       _set_new_mode              0000000140050af0 f   libucrt:new_mode.obj
 0001:0004fb28       __p__commode               0000000140050b28 f   libucrt:ncommode.obj
 0001:0004fb34       ??$?B$$A6AXXZ@__crt_fast_encoded_nullptr_t@@QEBAP6AXXZXZ 0000000140050b34 f i libucrt:onexit.obj
 0001:0004fb40       ??$?BP6AXXZ@__crt_fast_encoded_nullptr_t@@QEBAPEAP6AXXZXZ 0000000140050b40 f i libucrt:onexit.obj
 0001:0004fb4c       ??$?RP6AXXZ@__crt_internal_free_policy@@QEBAXQEBQ6AXXZ@Z 0000000140050b4c f i libucrt:onexit.obj
 0001:0004fc5c       ??$__crt_fast_decode_pointer@P6AXXZ@@YAP6AXXZQ6AXXZ@Z 0000000140050c5c f i libucrt:onexit.obj
 0001:0004fc78       ??$__crt_fast_decode_pointer@PEAP6AXXZ@@YAPEAP6AXXZQEAP6AXXZ@Z 0000000140050c78 f i libucrt:onexit.obj
 0001:0004fc94       ??$__crt_fast_encode_pointer@P6AHXZ@@YAP6AHXZQ6AHXZ@Z 0000000140050c94 f i libucrt:onexit.obj
 0001:0004fcbc       ??$__crt_fast_encode_pointer@P6AXXZ@@YAP6AXXZQ6AXXZ@Z 0000000140050cbc f i libucrt:onexit.obj
 0001:0004fce4       ??$__crt_fast_encode_pointer@PEAP6AXXZ@@YAPEAP6AXXZQEAP6AXXZ@Z 0000000140050ce4 f i libucrt:onexit.obj
 0001:0004fd54       ??0?$__crt_unique_heap_ptr@P6AXXZU__crt_internal_free_policy@@@@QEAA@QEAP6AXXZ@Z 0000000140050d54 f i libucrt:onexit.obj
 0001:0004fd5c       ??1?$__crt_unique_heap_ptr@P6AXXZU__crt_internal_free_policy@@@@QEAA@XZ 0000000140050d5c f i libucrt:onexit.obj
 0001:0004fd80       ??1scoped_global_state_reset@__crt_state_management@@QEAA@XZ 0000000140050d80 f i libucrt:onexit.obj
 0001:00050128       ?detach@?$__crt_unique_heap_ptr@P6AXXZU__crt_internal_free_policy@@@@QEAAPEAP6AXXZXZ 0000000140051128 f i libucrt:onexit.obj
 0001:00050134       ?release@?$__crt_unique_heap_ptr@P6AXXZU__crt_internal_free_policy@@@@QEAAXXZ 0000000140051134 f i libucrt:onexit.obj
 0001:00050158       _crt_at_quick_exit         0000000140051158 f   libucrt:onexit.obj
 0001:0005016c       _crt_atexit                000000014005116c f   libucrt:onexit.obj
 0001:00050180       _execute_onexit_table      0000000140051180 f   libucrt:onexit.obj
 0001:000501d4       _initialize_onexit_table   00000001400511d4 f   libucrt:onexit.obj
 0001:00050204       _register_onexit_function  0000000140051204 f   libucrt:onexit.obj
 0001:000503e4       ??$?BX@__crt_fast_encoded_nullptr_t@@QEBAPEAXXZ 00000001400513e4 f i libucrt:initialization.obj
 0001:000503f0       ??$__crt_fast_encode_pointer@PEAX@@YAPEAXQEAX@Z 00000001400513f0 f i libucrt:initialization.obj
 0001:000504d8       ?__acrt_stdio_is_initialized@@YA_NXZ 00000001400514d8 f i libucrt:initialization.obj
 0001:000504e8       ?initialize@?$dual_state_global@PEAU__crt_locale_data@@@__crt_state_management@@QEAAXQEAU__crt_locale_data@@@Z 00000001400514e8 f i libucrt:initialization.obj
 0001:000504f8       __acrt_initialize          00000001400514f8 f   libucrt:initialization.obj
 0001:00050510       __acrt_thread_attach       0000000140051510 f   libucrt:initialization.obj
 0001:0005052c       __acrt_thread_detach       000000014005152c f   libucrt:initialization.obj
 0001:00050540       __acrt_uninitialize        0000000140051540 f   libucrt:initialization.obj
 0001:00050584       __acrt_uninitialize_critical 0000000140051584 f   libucrt:initialization.obj
 0001:000505b0       _get_terminate             00000001400515b0 f   libucrt:terminate.obj
 0001:000505dc       set_terminate              00000001400515dc f   libucrt:terminate.obj
 0001:00050614       terminate                  0000000140051614 f   libucrt:terminate.obj
 0001:00050648       malloc                     0000000140051648 f   libucrt:malloc.obj
 0001:000506cc       strcpy_s                   00000001400516cc f   libucrt:strcpy_s.obj
 0001:00050744       _set_abort_behavior        0000000140051744 f   libucrt:abort.obj
 0001:00050768       abort                      0000000140051768 f   libucrt:abort.obj
 0001:000507d4       ??$is_overflow_condition@_K@__crt_strtox@@YA_NI_K@Z 00000001400517d4 f i libucrt:atox.obj
 0001:00050818       ??$make_c_string_character_source@D$$T@__crt_strtox@@YA?AV?$c_string_character_source@D@0@QEBD$$T@Z 0000000140051818 f i libucrt:atox.obj
 0001:00050830       ??$make_c_string_character_source@_W$$T@__crt_strtox@@YA?AV?$c_string_character_source@_W@0@QEB_W$$T@Z 0000000140051830 f i libucrt:atox.obj
 0001:00050848       ??$parse_integer@KV?$c_string_character_source@D@__crt_strtox@@$00@__crt_strtox@@YAKAEAV__crt_cached_ptd_host@@V?$c_string_character_source@D@0@H_N@Z 0000000140051848 f i libucrt:atox.obj
 0001:00050bf0       ??$parse_integer@KV?$c_string_character_source@_W@__crt_strtox@@$00@__crt_strtox@@YAKAEAV__crt_cached_ptd_host@@V?$c_string_character_source@_W@0@H_N@Z 0000000140051bf0 f i libucrt:atox.obj
 0001:00051570       ??$parse_integer@_KV?$c_string_character_source@D@__crt_strtox@@$00@__crt_strtox@@YA_KAEAV__crt_cached_ptd_host@@V?$c_string_character_source@D@0@H_N@Z 0000000140052570 f i libucrt:atox.obj
 0001:00051904       ??$parse_integer@_KV?$c_string_character_source@_W@__crt_strtox@@$00@__crt_strtox@@YA_KAEAV__crt_cached_ptd_host@@V?$c_string_character_source@_W@0@H_N@Z 0000000140052904 f i libucrt:atox.obj
 0001:00052268       ??$parse_integer_from_string@JD$$T@__crt_strtox@@YAJQEBD$$THQEAU__crt_locale_pointers@@@Z 0000000140053268 f i libucrt:atox.obj
 0001:00052354       ??$parse_integer_from_string@J_W$$T@__crt_strtox@@YAJQEB_W$$THQEAU__crt_locale_pointers@@@Z 0000000140053354 f i libucrt:atox.obj
 0001:00052440       ??$parse_integer_from_string@_JD$$T@__crt_strtox@@YA_JQEBD$$THQEAU__crt_locale_pointers@@@Z 0000000140053440 f i libucrt:atox.obj
 0001:00052530       ??$parse_integer_from_string@_J_W$$T@__crt_strtox@@YA_JQEB_W$$THQEAU__crt_locale_pointers@@@Z 0000000140053530 f i libucrt:atox.obj
 0001:00052620       ?is_space@__crt_strtox@@YA_NDQEAU__crt_locale_pointers@@@Z 0000000140053620 f i libucrt:atox.obj
 0001:00052648       ?is_space@__crt_strtox@@YA_N_WPEAU__crt_locale_pointers@@@Z 0000000140053648 f i libucrt:atox.obj
 0001:00052668       ?maximum_signed_value@__crt_strtox@@YA_J_K@Z 0000000140053668 f i libucrt:atox.obj
 0001:00052678       ?minimum_signed_value@__crt_strtox@@YA_J_K@Z 0000000140053678 f i libucrt:atox.obj
 0001:00052688       __acrt_get_locale_data_prefix 0000000140053688 f i libucrt:atox.obj
 0001:0005268c       _atoi64                    000000014005368c f   libucrt:atox.obj
 0001:0005276c       _atoi64_l                  000000014005376c f   libucrt:atox.obj
 0001:00052858       _atoi_l                    0000000140053858 f   libucrt:atox.obj
 0001:00052940       _atol_l                    0000000140053940 f   libucrt:atox.obj
 0001:00052a28       _atoll_l                   0000000140053a28 f   libucrt:atox.obj
 0001:00052b14       _chvalidchk_l              0000000140053b14 f i libucrt:atox.obj
 0001:00052b90       _ischartype_l              0000000140053b90 f i libucrt:atox.obj
 0001:00052c24       _wtoi                      0000000140053c24 f   libucrt:atox.obj
 0001:00052d00       _wtoi64                    0000000140053d00 f   libucrt:atox.obj
 0001:00052de0       _wtoi64_l                  0000000140053de0 f   libucrt:atox.obj
 0001:00052ecc       _wtoi_l                    0000000140053ecc f   libucrt:atox.obj
 0001:00052fb4       _wtol                      0000000140053fb4 f   libucrt:atox.obj
 0001:00053090       _wtol_l                    0000000140054090 f   libucrt:atox.obj
 0001:00053178       _wtoll                     0000000140054178 f   libucrt:atox.obj
 0001:00053258       _wtoll_l                   0000000140054258 f   libucrt:atox.obj
 0001:00053344       atoi                       0000000140054344 f   libucrt:atox.obj
 0001:00053420       atol                       0000000140054420 f   libucrt:atox.obj
 0001:000534fc       atoll                      00000001400544fc f   libucrt:atox.obj
 0001:000535f0       strncmp                    00000001400545f0 f   libucrt:strncmp.obj
 0001:00053690       wcsncmp                    0000000140054690 f   libucrt:wcsncmp.obj
 0001:000536c8       ??$__crt_fast_decode_pointer@P6AXPEB_W00I_K@Z@@YAP6AXPEB_W00I_K@ZQ6AX000I1@Z@Z 00000001400546c8 f i libucrt:invalid_parameter.obj
 0001:000536e4       ??$__crt_fast_encode_pointer@P6AXPEB_W00I_K@Z@@YAP6AXPEB_W00I_K@ZQ6AX000I1@Z@Z 00000001400546e4 f i libucrt:invalid_parameter.obj
 0001:0005370c       ??$initialize_from_array@$$BY00Q6AXPEB_W00I_K@Z@?$dual_state_global@P6AXPEB_W00I_K@Z@__crt_state_management@@QEAAXAEAY00Q6AXPEB_W00I_K@Z@Z 000000014005470c f i libucrt:invalid_parameter.obj
 0001:0005379c       ?check_synchronize_global_state_index@__crt_cached_ptd_host@@AEAA_KXZ 000000014005479c f i libucrt:invalid_parameter.obj
 0001:000537e0       ?dangerous_get_state_array@?$dual_state_global@P6AXPEB_W00I_K@Z@__crt_state_management@@QEAAPEAP6AXPEB_W00I_K@ZXZ 00000001400547e0 f i libucrt:invalid_parameter.obj
 0001:000537e4       ?get_current_global_state_index@__crt_cached_ptd_host@@QEAA_KXZ 00000001400547e4 f i libucrt:invalid_parameter.obj
 0001:00053834       ?get_raw_ptd_noexit@__crt_cached_ptd_host@@QEAAPEAU__acrt_ptd@@XZ 0000000140054834 f i libucrt:invalid_parameter.obj
 0001:000538b8       ?try_synchronize_per_thread_data@__crt_cached_ptd_host@@AEAAPEAU__acrt_ptd@@XZ 00000001400548b8 f i libucrt:invalid_parameter.obj
 0001:00053934       ?value@?$dual_state_global@P6AXPEB_W00I_K@Z@__crt_state_management@@QEAAAEAP6AXPEB_W00I_K@ZAEAV__crt_cached_ptd_host@@@Z 0000000140054934 f i libucrt:invalid_parameter.obj
 0001:00053994       ?value@?$dual_state_global@P6AXPEB_W00I_K@Z@__crt_state_management@@QEAAAEAP6AXPEB_W00I_K@ZXZ 0000000140054994 f i libucrt:invalid_parameter.obj
 0001:00053998       __acrt_call_reportfault    0000000140054998 f   libucrt:invalid_parameter.obj
 0001:00053b4c       __acrt_initialize_invalid_parameter_handler 0000000140054b4c f   libucrt:invalid_parameter.obj
 0001:00053b58       _get_invalid_parameter_handler 0000000140054b58 f   libucrt:invalid_parameter.obj
 0001:00053b78       _get_thread_local_invalid_parameter_handler 0000000140054b78 f   libucrt:invalid_parameter.obj
 0001:00053b98       _invalid_parameter         0000000140054b98 f   libucrt:invalid_parameter.obj
 0001:00053c5c       _invalid_parameter_internal 0000000140054c5c f   libucrt:invalid_parameter.obj
 0001:00053d5c       _invalid_parameter_noinfo  0000000140054d5c f   libucrt:invalid_parameter.obj
 0001:00053d84       _invalid_parameter_noinfo_noreturn 0000000140054d84 f   libucrt:invalid_parameter.obj
 0001:00053dc0       _invoke_watson             0000000140054dc0 f   libucrt:invalid_parameter.obj
 0001:00053e18       _set_invalid_parameter_handler 0000000140054e18 f   libucrt:invalid_parameter.obj
 0001:00053e5c       _set_thread_local_invalid_parameter_handler 0000000140054e5c f   libucrt:invalid_parameter.obj
 0001:00053e8c       ?get_doserrno@__crt_cached_ptd_host@@QEAA@XZ 0000000140054e8c f i libucrt:errno.obj
 0001:00053e94       ?set@?$cached@K@__crt_cached_ptd_host@@QEAAKK@Z 0000000140054e94 f i libucrt:errno.obj
 0001:00053ea0       __acrt_errno_from_os_error 0000000140054ea0 f   libucrt:errno.obj
 0001:00053ef8       __acrt_errno_map_os_error  0000000140054ef8 f   libucrt:errno.obj
 0001:00053f50       __acrt_errno_map_os_error_ptd 0000000140054f50 f   libucrt:errno.obj
 0001:00053f7c       __doserrno                 0000000140054f7c f   libucrt:errno.obj
 0001:00053fa4       _errno                     0000000140054fa4 f   libucrt:errno.obj
 0001:00053fcc       _get_doserrno              0000000140054fcc f   libucrt:errno.obj
 0001:00054018       _get_errno                 0000000140055018 f   libucrt:errno.obj
 0001:00054064       _set_doserrno              0000000140055064 f   libucrt:errno.obj
 0001:000540ac       _set_errno                 00000001400550ac f   libucrt:errno.obj
 0001:000540f4       _calloc_base               00000001400550f4 f   libucrt:calloc_base.obj
 0001:00054194       _free_base                 0000000140055194 f   libucrt:free_base.obj
 0001:00054224       ??$?B$$A6AHPEA_WK_J@Z@__crt_fast_encoded_nullptr_t@@QEBAP6AHPEA_WK_J@ZXZ 0000000140055224 f i libucrt:winapi_thunks.obj
 0001:000542f8       ??$__crt_fast_decode_pointer@P6AHPEA_WK_J@Z@@YAP6AHPEA_WK_J@ZQ6AH0K1@Z@Z 00000001400552f8 f i libucrt:winapi_thunks.obj
 0001:00054314       ??$__crt_fast_decode_pointer@PEAX@@YAPEAXQEAX@Z 0000000140055314 f i libucrt:winapi_thunks.obj
 0001:00054330       ??$__crt_fast_encode_pointer@P6AHPEA_WK_J@Z@@YAP6AHPEA_WK_J@ZQ6AH0K1@Z@Z 0000000140055330 f i libucrt:winapi_thunks.obj
 0001:0005503c       GetCurrentThreadEffectiveToken 000000014005603c f i libucrt:winapi_thunks.obj
 0001:00055048       __acrt_AppPolicyGetProcessTerminationMethodInternal 0000000140056048 f   libucrt:winapi_thunks.obj
 0001:000550b8       __acrt_AppPolicyGetShowDeveloperDiagnosticInternal 00000001400560b8 f   libucrt:winapi_thunks.obj
 0001:00055128       __acrt_AppPolicyGetThreadInitializationTypeInternal 0000000140056128 f   libucrt:winapi_thunks.obj
 0001:00055198       __acrt_AppPolicyGetWindowingModelInternal 0000000140056198 f   libucrt:winapi_thunks.obj
 0001:00055208       __acrt_AreFileApisANSI     0000000140056208 f   libucrt:winapi_thunks.obj
 0001:00055260       __acrt_CompareStringEx     0000000140056260 f   libucrt:winapi_thunks.obj
 0001:00055388       __acrt_EnumSystemLocalesEx 0000000140056388 f   libucrt:winapi_thunks.obj
 0001:00055450       __acrt_FlsAlloc            0000000140056450 f   libucrt:winapi_thunks.obj
 0001:00055458       __acrt_FlsFree             0000000140056458 f   libucrt:winapi_thunks.obj
 0001:00055460       __acrt_FlsGetValue         0000000140056460 f   libucrt:winapi_thunks.obj
 0001:00055468       __acrt_FlsSetValue         0000000140056468 f   libucrt:winapi_thunks.obj
 0001:00055470       __acrt_GetDateFormatEx     0000000140056470 f   libucrt:winapi_thunks.obj
 0001:00055560       __acrt_GetEnabledXStateFeatures 0000000140056560 f   libucrt:winapi_thunks.obj
 0001:000555b4       __acrt_GetLocaleInfoEx     00000001400565b4 f   libucrt:winapi_thunks.obj
 0001:00055668       __acrt_GetSystemTimePreciseAsFileTime 0000000140056668 f   libucrt:winapi_thunks.obj
 0001:000556d4       __acrt_GetTempPath2W       00000001400566d4 f   libucrt:winapi_thunks.obj
 0001:0005574c       __acrt_GetTimeFormatEx     000000014005674c f   libucrt:winapi_thunks.obj
 0001:0005582c       __acrt_GetUserDefaultLocaleName 000000014005682c f   libucrt:winapi_thunks.obj
 0001:000558b4       __acrt_GetXStateFeaturesMask 00000001400568b4 f   libucrt:winapi_thunks.obj
 0001:00055928       __acrt_InitializeCriticalSectionEx 0000000140056928 f   libucrt:winapi_thunks.obj
 0001:000559b4       __acrt_IsValidLocaleName   00000001400569b4 f   libucrt:winapi_thunks.obj
 0001:00055a30       __acrt_LCIDToLocaleName    0000000140056a30 f   libucrt:winapi_thunks.obj
 0001:00055ad4       __acrt_LCMapStringEx       0000000140056ad4 f   libucrt:winapi_thunks.obj
 0001:00055bfc       __acrt_LocaleNameToLCID    0000000140056bfc f   libucrt:winapi_thunks.obj
 0001:00055c70       __acrt_LocateXStateFeature 0000000140056c70 f   libucrt:winapi_thunks.obj
 0001:00055cf4       __acrt_MessageBoxA         0000000140056cf4 f   libucrt:winapi_thunks.obj
 0001:00055d90       __acrt_MessageBoxW         0000000140056d90 f   libucrt:winapi_thunks.obj
 0001:00055e2c       __acrt_RoInitialize        0000000140056e2c f   libucrt:winapi_thunks.obj
 0001:00055e88       __acrt_RoUninitialize      0000000140056e88 f   libucrt:winapi_thunks.obj
 0001:00055ed4       __acrt_RtlGenRandom        0000000140056ed4 f   libucrt:winapi_thunks.obj
 0001:00055f44       __acrt_SetThreadStackGuarantee 0000000140056f44 f   libucrt:winapi_thunks.obj
 0001:00055fa4       __acrt_can_show_message_box 0000000140056fa4 f   libucrt:winapi_thunks.obj
 0001:0005602c       __acrt_can_use_vista_locale_apis 000000014005702c f   libucrt:winapi_thunks.obj
 0001:00056068       __acrt_can_use_xstate_apis 0000000140057068 f   libucrt:winapi_thunks.obj
 0001:000560a4       __acrt_eagerly_load_locale_apis 00000001400570a4 f   libucrt:winapi_thunks.obj
 0001:00056254       __acrt_get_parent_window   0000000140057254 f   libucrt:winapi_thunks.obj
 0001:00056304       __acrt_initialize_winapi_thunks 0000000140057304 f   libucrt:winapi_thunks.obj
 0001:00056330       __acrt_is_interactive      0000000140057330 f   libucrt:winapi_thunks.obj
 0001:00056448       __acrt_uninitialize_winapi_thunks 0000000140057448 f   libucrt:winapi_thunks.obj
 0001:0005649c       ??0__crt_stdio_stream@@QEAA@QEAU__crt_stdio_stream_data@@@Z 000000014005749c f i libucrt:closeall.obj
 0001:000564a4       _fcloseall                 00000001400574a4 f   libucrt:closeall.obj
 0001:00056bf0       __acrt_stdio_flush_nolock  0000000140057bf0 f   libucrt:fflush.obj
 0001:00056ca0       _fflush_nolock             0000000140057ca0 f   libucrt:fflush.obj
 0001:00056da8       _flushall                  0000000140057da8 f   libucrt:fflush.obj
 0001:00056db0       fflush                     0000000140057db0 f   libucrt:fflush.obj
 0001:00056e30       __acrt_stdio_free_buffer_nolock 0000000140057e30 f   libucrt:_freebuf.obj
 0001:0005711c       __acrt_initialize_lowio    000000014005811c f   libucrt:ioinit.obj
 0001:00057168       __acrt_uninitialize_lowio  0000000140058168 f   libucrt:ioinit.obj
 0001:000571b8       _fileno                    00000001400581b8 f   libucrt:fileno.obj
 0001:000573dc       _close                     00000001400583dc f   libucrt:close.obj
 0001:0005749c       _close_internal            000000014005849c f   libucrt:close.obj
 0001:00057590       _close_nolock              0000000140058590 f   libucrt:close.obj
 0001:00057650       _close_nolock_internal     0000000140058650 f   libucrt:close.obj
 0001:00057750       ??$?RU__crt_stdio_stream_data@@@__crt_internal_free_policy@@QEBAXQEBU__crt_stdio_stream_data@@@Z 0000000140058750 f i libucrt:stream.obj
 0001:0005775c       ??0?$__crt_unique_heap_ptr@U__crt_stdio_stream_data@@U__crt_internal_free_policy@@@@QEAA@QEAU__crt_stdio_stream_data@@@Z 000000014005875c f i libucrt:stream.obj
 0001:00057764       ??0__crt_stdio_stream@@QEAA@XZ 0000000140058764 f i libucrt:stream.obj
 0001:00057770       ??1?$__crt_unique_heap_ptr@U__crt_stdio_stream_data@@U__crt_internal_free_policy@@@@QEAA@XZ 0000000140058770 f i libucrt:stream.obj
 0001:00057794       ?__acrt_stdio_allocate_stream@@YA?AV__crt_stdio_stream@@XZ 0000000140058794 f   libucrt:stream.obj
 0001:00057800       ?__acrt_stdio_free_stream@@YAXV__crt_stdio_stream@@@Z 0000000140058800 f   libucrt:stream.obj
 0001:00057824       ?deallocate@__crt_stdio_stream@@QEAAXXZ 0000000140058824 f i libucrt:stream.obj
 0001:00057830       ?detach@?$__crt_unique_heap_ptr@U__crt_stdio_stream_data@@U__crt_internal_free_policy@@@@QEAAPEAU__crt_stdio_stream_data@@XZ 0000000140058830 f i libucrt:stream.obj
 0001:00057964       ?lock@__crt_stdio_stream@@QEBAXXZ 0000000140058964 f i libucrt:stream.obj
 0001:00057970       ?release@?$__crt_unique_heap_ptr@U__crt_stdio_stream_data@@U__crt_internal_free_policy@@@@QEAAXXZ 0000000140058970 f i libucrt:stream.obj
 0001:00057994       ?try_allocate@__crt_stdio_stream@@QEAA_NXZ 0000000140058994 f i libucrt:stream.obj
 0001:000579bc       ??$?RU__acrt_ptd@@@__crt_internal_free_policy@@QEBAXQEBU__acrt_ptd@@@Z 00000001400589bc f i libucrt:per_thread_data.obj
 0001:00057c7c       ??0?$__crt_unique_heap_ptr@U__acrt_ptd@@U__crt_internal_free_policy@@@@QEAA@QEAU__acrt_ptd@@@Z 0000000140058c7c f i libucrt:per_thread_data.obj
 0001:00057c84       ??1?$__crt_unique_heap_ptr@U__acrt_ptd@@U__crt_internal_free_policy@@@@QEAA@XZ 0000000140058c84 f i libucrt:per_thread_data.obj
 0001:00057ca8       ??B?$__crt_unique_heap_ptr@U__acrt_ptd@@U__crt_internal_free_policy@@@@QEBA_NXZ 0000000140058ca8 f i libucrt:per_thread_data.obj
 0001:00057f78       ?dangerous_get_state_array@?$dual_state_global@PEAU__crt_locale_data@@@__crt_state_management@@QEAAPEAPEAU__crt_locale_data@@XZ 0000000140058f78 f i libucrt:per_thread_data.obj
 0001:0005820c       ?detach@?$__crt_unique_heap_ptr@U__acrt_ptd@@U__crt_internal_free_policy@@@@QEAAPEAU__acrt_ptd@@XZ 000000014005920c f i libucrt:per_thread_data.obj
 0001:00058218       ?get@?$__crt_unique_heap_ptr@U__acrt_ptd@@U__crt_internal_free_policy@@@@QEBAPEAU__acrt_ptd@@XZ 0000000140059218 f i libucrt:per_thread_data.obj
 0001:000584c0       ?is_valid@?$__crt_unique_heap_ptr@U__acrt_ptd@@U__crt_internal_free_policy@@@@QEBA_NXZ 00000001400594c0 f i libucrt:per_thread_data.obj
 0001:000584cc       ?release@?$__crt_unique_heap_ptr@U__acrt_ptd@@U__crt_internal_free_policy@@@@QEAAXXZ 00000001400594cc f i libucrt:per_thread_data.obj
 0001:00058588       __acrt_freeptd             0000000140059588 f   libucrt:per_thread_data.obj
 0001:000585dc       __acrt_getptd              00000001400595dc f   libucrt:per_thread_data.obj
 0001:000586e4       __acrt_getptd_head         00000001400596e4 f   libucrt:per_thread_data.obj
 0001:000587b0       __acrt_getptd_noexit       00000001400597b0 f   libucrt:per_thread_data.obj
 0001:000588ac       __acrt_getptd_noexit_explicit 00000001400598ac f   libucrt:per_thread_data.obj
 0001:0005899c       __acrt_initialize_ptd      000000014005999c f   libucrt:per_thread_data.obj
 0001:000589e4       __acrt_uninitialize_ptd    00000001400599e4 f   libucrt:per_thread_data.obj
 0001:00058a10       __threadhandle             0000000140059a10 f   libucrt:per_thread_data.obj
 0001:00058a18       __threadid                 0000000140059a18 f   libucrt:per_thread_data.obj
 0001:00058a20       __p___mb_cur_max           0000000140059a20 f   libucrt:nlsdata.obj
 0001:00058a5c       ??$__acrt_stdio_parse_mode@D@@YA?AU__acrt_stdio_stream_mode@@QEBD@Z 0000000140059a5c f i libucrt:openfile.obj
 0001:00058dd0       ??$__acrt_stdio_parse_mode@_W@@YA?AU__acrt_stdio_stream_mode@@QEB_W@Z 0000000140059dd0 f i libucrt:openfile.obj
 0001:0005930c       ??$tcsncmp@AEAPEBDAEAY02$$CBD_K@?$__crt_char_traits@D@@SAHAEAPEBDAEAY02$$CBD$$QEA_K@Z 000000014005a30c f i libucrt:openfile.obj
 0001:0005931c       ??$tcsncmp@AEAPEB_WAEAY02$$CB_W_K@?$__crt_char_traits@_W@@SAHAEAPEB_WAEAY02$$CB_W$$QEA_K@Z 000000014005a31c f i libucrt:openfile.obj
 0001:0005932c       ??$tcsnicmp@AEAPEBDAEAY04$$CBD_K@?$__crt_char_traits@D@@SAHAEAPEBDAEAY04$$CBD$$QEA_K@Z 000000014005a32c f i libucrt:openfile.obj
 0001:0005933c       ??$tcsnicmp@AEAPEBDAEAY06$$CBD_K@?$__crt_char_traits@D@@SAHAEAPEBDAEAY06$$CBD$$QEA_K@Z 000000014005a33c f i libucrt:openfile.obj
 0001:0005934c       ??$tcsnicmp@AEAPEBDAEAY07$$CBD_K@?$__crt_char_traits@D@@SAHAEAPEBDAEAY07$$CBD$$QEA_K@Z 000000014005a34c f i libucrt:openfile.obj
 0001:0005935c       ??$tcsnicmp@AEAPEB_WAEAY04$$CB_W_K@?$__crt_char_traits@_W@@SAHAEAPEB_WAEAY04$$CB_W$$QEA_K@Z 000000014005a35c f i libucrt:openfile.obj
 0001:0005936c       ??$tcsnicmp@AEAPEB_WAEAY06$$CB_W_K@?$__crt_char_traits@_W@@SAHAEAPEB_WAEAY06$$CB_W$$QEA_K@Z 000000014005a36c f i libucrt:openfile.obj
 0001:0005937c       ??$tcsnicmp@AEAPEB_WAEAY07$$CB_W_K@?$__crt_char_traits@_W@@SAHAEAPEB_WAEAY07$$CB_W$$QEA_K@Z 000000014005a37c f i libucrt:openfile.obj
 0001:0005938c       ??$tsopen_s@PEAHAEBQEBDAEBHAEBHH@?$__crt_char_traits@D@@SAH$$QEAPEAHAEBQEBDAEBH2$$QEAH@Z 000000014005a38c f i libucrt:openfile.obj
 0001:000593b4       ??$tsopen_s@PEAHAEBQEB_WAEBHAEBHH@?$__crt_char_traits@_W@@SAH$$QEAPEAHAEBQEB_WAEBH2$$QEAH@Z 000000014005a3b4 f i libucrt:openfile.obj
 0001:000593dc       ?__acrt_stdio_parse_mode_D@@YA_NAEAU__acrt_stdio_stream_mode@@@Z 000000014005a3dc f i libucrt:openfile.obj
 0001:000593f4       ?__acrt_stdio_parse_mode_N@@YA_NAEAU__acrt_stdio_stream_mode@@@Z 000000014005a3f4 f i libucrt:openfile.obj
 0001:000593fc       ?__acrt_stdio_parse_mode_R@@YA_NAEAU__acrt_stdio_stream_mode@@AEA_N@Z 000000014005a3fc f i libucrt:openfile.obj
 0001:00059414       ?__acrt_stdio_parse_mode_S@@YA_NAEAU__acrt_stdio_stream_mode@@AEA_N@Z 000000014005a414 f i libucrt:openfile.obj
 0001:0005942c       ?__acrt_stdio_parse_mode_T@@YA_NAEAU__acrt_stdio_stream_mode@@@Z 000000014005a42c f i libucrt:openfile.obj
 0001:00059448       ?__acrt_stdio_parse_mode_b@@YA_NAEAU__acrt_stdio_stream_mode@@@Z 000000014005a448 f i libucrt:openfile.obj
 0001:00059464       ?__acrt_stdio_parse_mode_c@@YA_NAEAU__acrt_stdio_stream_mode@@AEA_N@Z 000000014005a464 f i libucrt:openfile.obj
 0001:0005947c       ?__acrt_stdio_parse_mode_n@@YA_NAEAU__acrt_stdio_stream_mode@@AEA_N@Z 000000014005a47c f i libucrt:openfile.obj
 0001:00059494       ?__acrt_stdio_parse_mode_plus@@YA_NAEAU__acrt_stdio_stream_mode@@AEA_N@Z 000000014005a494 f i libucrt:openfile.obj
 0001:000594cc       ?__acrt_stdio_parse_mode_t@@YA_NAEAU__acrt_stdio_stream_mode@@@Z 000000014005a4cc f i libucrt:openfile.obj
 0001:000594e8       ?__acrt_stdio_parse_mode_x@@YA_NAEAU__acrt_stdio_stream_mode@@@Z 000000014005a4e8 f i libucrt:openfile.obj
 0001:00059504       _openfile                  000000014005a504 f   libucrt:openfile.obj
 0001:000595c8       _wopenfile                 000000014005a5c8 f   libucrt:openfile.obj
 0001:00059f54       _read                      000000014005af54 f   libucrt:read.obj
 0001:0005a0bc       _read_nolock               000000014005b0bc f   libucrt:read.obj
 0001:0005aa78       __acrt_stdio_refill_and_read_narrow_nolock 000000014005ba78 f   libucrt:_filbuf.obj
 0001:0005ac38       __acrt_stdio_refill_and_read_wide_nolock 000000014005bc38 f   libucrt:_filbuf.obj
 0001:0005b240       _lseek                     000000014005c240 f   libucrt:lseek.obj
 0001:0005b300       _lseek_internal            000000014005c300 f   libucrt:lseek.obj
 0001:0005b308       _lseek_nolock              000000014005c308 f   libucrt:lseek.obj
 0001:0005b3c8       _lseek_nolock_internal     000000014005c3c8 f   libucrt:lseek.obj
 0001:0005b3d0       _lseeki64                  000000014005c3d0 f   libucrt:lseek.obj
 0001:0005b490       _lseeki64_internal         000000014005c490 f   libucrt:lseek.obj
 0001:0005b498       _lseeki64_nolock           000000014005c498 f   libucrt:lseek.obj
 0001:0005b558       _lseeki64_nolock_internal  000000014005c558 f   libucrt:lseek.obj
 0001:0005c170       _isleadbyte_fast_internal  000000014005d170 f i libucrt:write.obj
 0001:0005c190       _write                     000000014005d190 f   libucrt:write.obj
 0001:0005c250       _write_internal            000000014005d250 f   libucrt:write.obj
 0001:0005c3b4       _write_nolock              000000014005d3b4 f   libucrt:write.obj
 0001:0005cc88       __acrt_stdio_flush_and_write_narrow_nolock 000000014005dc88 f   libucrt:_flsbuf.obj
 0001:0005cd88       __acrt_stdio_flush_and_write_wide_nolock 000000014005dd88 f   libucrt:_flsbuf.obj
 0001:0005ce88       ?has_temporary_buffer@__crt_stdio_stream@@QEBA_NXZ 000000014005de88 f i libucrt:_sftbuf.obj
 0001:0005ce98       __acrt_should_use_temporary_buffer 000000014005de98 f   libucrt:_sftbuf.obj
 0001:0005cef4       __acrt_stdio_begin_temporary_buffering_nolock 000000014005def4 f   libucrt:_sftbuf.obj
 0001:0005cfec       __acrt_stdio_end_temporary_buffering_nolock 000000014005dfec f   libucrt:_sftbuf.obj
 0001:0005d038       _malloc_base               000000014005e038 f   libucrt:malloc_base.obj
 0001:0005db7c       ??1?$__crt_simd_cleanup_guard@$00@@QEAA@XZ 000000014005eb7c f i libucrt:strnlen.obj
 0001:0005db80       ??1?$__crt_simd_cleanup_guard@$0A@@@QEAA@XZ 000000014005eb80 f i libucrt:strnlen.obj
 0001:0005db84       ?compare_equals@?$__crt_simd_traits@$00E@@SA?AT__m256i@@T2@0@Z 000000014005eb84 f i libucrt:strnlen.obj
 0001:0005db90       ?compare_equals@?$__crt_simd_traits@$00G@@SA?AT__m256i@@T2@0@Z 000000014005eb90 f i libucrt:strnlen.obj
 0001:0005db9c       ?compare_equals@?$__crt_simd_traits@$0A@E@@SA?AT__m128i@@T2@0@Z 000000014005eb9c f i libucrt:strnlen.obj
 0001:0005dba8       ?compare_equals@?$__crt_simd_traits@$0A@G@@SA?AT__m128i@@T2@0@Z 000000014005eba8 f i libucrt:strnlen.obj
 0001:0005dbb4       ?compute_byte_mask@?$__crt_simd_pack_traits@$00@@SAHT__m256i@@@Z 000000014005ebb4 f i libucrt:strnlen.obj
 0001:0005dbc4       ?compute_byte_mask@?$__crt_simd_pack_traits@$0A@@@SAHT__m128i@@@Z 000000014005ebc4 f i libucrt:strnlen.obj
 0001:0005dbd0       ?get_zero_pack@?$__crt_simd_pack_traits@$00@@SA?AT__m256i@@XZ 000000014005ebd0 f i libucrt:strnlen.obj
 0001:0005dbd8       ?get_zero_pack@?$__crt_simd_pack_traits@$0A@@@SA?AT__m128i@@XZ 000000014005ebd8 f i libucrt:strnlen.obj
 0001:0005dbdc       strnlen                    000000014005ebdc f   libucrt:strnlen.obj
 0001:0005dd80       wcslen                     000000014005ed80 f   libucrt:strnlen.obj
 0001:0005def4       wcsnlen                    000000014005eef4 f   libucrt:strnlen.obj
 0001:0005e140       ?value@?$dual_state_global@PEAU__crt_multibyte_data@@@__crt_state_management@@QEAAAEAPEAU__crt_multibyte_data@@XZ 000000014005f140 f i libucrt:locale_update.obj
 0001:0005e144       ?value_explicit@?$dual_state_global@PEAU__crt_locale_data@@@__crt_state_management@@QEAAAEAPEAU__crt_locale_data@@_K@Z 000000014005f144 f i libucrt:locale_update.obj
 0001:0005e14c       ?value_explicit@?$dual_state_global@PEAU__crt_multibyte_data@@@__crt_state_management@@QEAAAEAPEAU__crt_multibyte_data@@_K@Z 000000014005f14c f i libucrt:locale_update.obj
 0001:0005e154       __acrt_should_sync_with_global_locale 000000014005f154 f i libucrt:locale_update.obj
 0001:0005e168       __acrt_update_locale_info  000000014005f168 f   libucrt:locale_update.obj
 0001:0005e1a8       __acrt_update_locale_info_explicit 000000014005f1a8 f   libucrt:locale_update.obj
 0001:0005e1ec       __acrt_update_multibyte_info 000000014005f1ec f   libucrt:locale_update.obj
 0001:0005e22c       __acrt_update_multibyte_info_explicit 000000014005f22c f   libucrt:locale_update.obj
 0001:0005e270       ?__acrt_fp_classify@@YA?AW4__acrt_fp_class@@AEBN@Z 000000014005f270 f i libucrt:cvt.obj
 0001:0005e2e4       ?__acrt_fp_is_negative@@YA_NAEBN@Z 000000014005f2e4 f i libucrt:cvt.obj
 0001:0005f260       ?strrchr@@YAPEADQEADH@Z    0000000140060260 f i libucrt:cvt.obj
 0001:0005f268       __acrt_fp_format           0000000140060268 f   libucrt:cvt.obj
 0001:0005f608       ?value_or@?$cached@H@__crt_cached_ptd_host@@QEBAHH@Z 0000000140060608 f i libucrt:wctomb.obj
 0001:0005f618       _wctomb_internal           0000000140060618 f   libucrt:wctomb.obj
 0001:0005f834       _wctomb_l                  0000000140060834 f   libucrt:wctomb.obj
 0001:0005f95c       _wctomb_s_l                000000014006095c f   libucrt:wctomb.obj
 0001:0005fa34       wctomb                     0000000140060a34 f   libucrt:wctomb.obj
 0001:0005fb2c       wctomb_s                   0000000140060b2c f   libucrt:wctomb.obj
 0001:0005fbf4       _mbtowc_internal           0000000140060bf4 f   libucrt:mbtowc.obj
 0001:0005fdcc       _mbtowc_l                  0000000140060dcc f   libucrt:mbtowc.obj
 0001:0005fe98       mbtowc                     0000000140060e98 f   libucrt:mbtowc.obj
 0001:0005ff58       _get_printf_count_output   0000000140060f58 f   libucrt:printf_count_output.obj
 0001:0005ff78       _set_printf_count_output   0000000140060f78 f   libucrt:printf_count_output.obj
 0001:0006006c       _fputwc_nolock             000000014006106c f   libucrt:fputwc.obj
 0001:0006012c       _fputwc_nolock_internal    000000014006112c f   libucrt:fputwc.obj
 0001:00060318       _fputwchar                 0000000140061318 f   libucrt:fputwc.obj
 0001:00060344       _putwc_nolock              0000000140061344 f   libucrt:fputwc.obj
 0001:0006034c       fputwc                     000000014006134c f   libucrt:fputwc.obj
 0001:0006040c       putwc                      000000014006140c f   libucrt:fputwc.obj
 0001:00060414       putwchar                   0000000140061414 f   libucrt:fputwc.obj
 0001:000605dc       _fputc_nolock              00000001400615dc f   libucrt:fputc.obj
 0001:000606b4       _fputc_nolock_internal     00000001400616b4 f   libucrt:fputc.obj
 0001:000606d0       _fputchar                  00000001400616d0 f   libucrt:fputc.obj
 0001:000606fc       _putc_nolock               00000001400616fc f   libucrt:fputc.obj
 0001:00060704       fputc                      0000000140061704 f   libucrt:fputc.obj
 0001:000607c4       putc                       00000001400617c4 f   libucrt:fputc.obj
 0001:000607cc       putchar                    00000001400617cc f   libucrt:fputc.obj
 0001:000607d4       __acrt_initialize_locks    00000001400617d4 f   libucrt:locks.obj
 0001:00060830       __acrt_lock                0000000140061830 f   libucrt:locks.obj
 0001:00060850       __acrt_uninitialize_locks  0000000140061850 f   libucrt:locks.obj
 0001:00060894       __acrt_unlock              0000000140061894 f   libucrt:locks.obj
 0001:000608b4       _lock_locales              00000001400618b4 f   libucrt:locks.obj
 0001:000608d8       _unlock_locales            00000001400618d8 f   libucrt:locks.obj
 0001:000608ec       __acrt_app_verifier_enabled 00000001400618ec f   libucrt:peb_access.obj
 0001:0006090c       __acrt_is_secure_process   000000014006190c f   libucrt:peb_access.obj
 0001:00060b14       __acrt_get_begin_thread_init_policy 0000000140061b14 f   libucrt:win_policies.obj
 0001:00060b64       __acrt_get_developer_information_policy 0000000140061b64 f   libucrt:win_policies.obj
 0001:00060bb8       __acrt_get_process_end_policy 0000000140061bb8 f   libucrt:win_policies.obj
 0001:00060bf4       __acrt_get_windowing_model_policy 0000000140061bf4 f   libucrt:win_policies.obj
 0001:00060c74       _set_error_mode            0000000140061c74 f   libucrt:set_error_mode.obj
 0001:00060d68       wcscat_s                   0000000140061d68 f   libucrt:wcscat_s.obj
 0001:00060e84       wcscpy_s                   0000000140061e84 f   libucrt:wcscpy_s.obj
 0001:00061034       wcsncpy_s                  0000000140062034 f   libucrt:wcsncpy_s.obj
 0001:0006130c       ??$message_box@$$TAEBQEBDAEBQEBDK@?$__crt_char_traits@D@@SAH$$QEA$$TAEBQEBD1$$QEAK@Z 000000014006230c f i libucrt:crtmbox.obj
 0001:00061324       ??$message_box@$$TAEBQEB_WAEBQEB_WK@?$__crt_char_traits@_W@@SAH$$QEA$$TAEBQEB_W1$$QEAK@Z 0000000140062324 f i libucrt:crtmbox.obj
 0001:0006133c       ??$message_box@PEAUHWND__@@AEBQEBDAEBQEBDAEBI@?$__crt_char_traits@D@@SAH$$QEAPEAUHWND__@@AEBQEBD1AEBI@Z 000000014006233c f i libucrt:crtmbox.obj
 0001:00061354       ??$message_box@PEAUHWND__@@AEBQEB_WAEBQEB_WAEBI@?$__crt_char_traits@_W@@SAH$$QEAPEAUHWND__@@AEBQEB_W1AEBI@Z 0000000140062354 f i libucrt:crtmbox.obj
 0001:0006136c       ??$output_debug_string@AEBQEBD@?$__crt_char_traits@D@@SAXAEBQEBD@Z 000000014006236c f i libucrt:crtmbox.obj
 0001:00061378       ??$output_debug_string@AEBQEB_W@?$__crt_char_traits@_W@@SAXAEBQEB_W@Z 0000000140062378 f i libucrt:crtmbox.obj
 0001:00061384       __acrt_show_narrow_message_box 0000000140062384 f   libucrt:crtmbox.obj
 0001:00061450       __acrt_show_wide_message_box 0000000140062450 f   libucrt:crtmbox.obj
 0001:00061550       ??$__acrt_convert_wcs_mbs_cp@D_WV<lambda_7c9dea7b4ca7285d2cdb541a38da6275>@@U__crt_win32_buffer_internal_dynamic_resizing@@@@YAHQEBDAEAV?$__crt_win32_buffer@_WU__crt_win32_buffer_internal_dynamic_resizing@@@@AEBV<lambda_7c9dea7b4ca7285d2cdb541a38da6275>@@I@Z 0000000140062550 f i libucrt:argv_wildcards.obj
 0001:00061728       ??$__acrt_convert_wcs_mbs_cp@_WDV<lambda_d8593a27d1aa8c02be35c86a17d324c4>@@U__crt_win32_buffer_internal_dynamic_resizing@@@@YAHQEB_WAEAV?$__crt_win32_buffer@DU__crt_win32_buffer_internal_dynamic_resizing@@@@AEBV<lambda_d8593a27d1aa8c02be35c86a17d324c4>@@I@Z 0000000140062728 f i libucrt:argv_wildcards.obj
 0001:00061918       ??$__acrt_mbs_to_wcs_cp@U__crt_win32_buffer_internal_dynamic_resizing@@@@YAHQEBDAEAV?$__crt_win32_buffer@_WU__crt_win32_buffer_internal_dynamic_resizing@@@@I@Z 0000000140062918 f i libucrt:argv_wildcards.obj
 0001:00061928       ??$__acrt_wcs_to_mbs_cp@U__crt_win32_buffer_internal_dynamic_resizing@@@@YAHQEB_WAEAV?$__crt_win32_buffer@DU__crt_win32_buffer_internal_dynamic_resizing@@@@I@Z 0000000140062928 f i libucrt:argv_wildcards.obj
 0001:00062ad8       ??$tcslen@AEBQEBD@?$__crt_char_traits@D@@SA_KAEBQEBD@Z 0000000140063ad8 f i libucrt:argv_wildcards.obj
 0001:00062af0       ??$tcslen@AEBQEB_W@?$__crt_char_traits@_W@@SA_KAEBQEB_W@Z 0000000140063af0 f i libucrt:argv_wildcards.obj
 0001:00062b08       ??$tcsncpy_s@AEAPEAD_KAEAPEADAEB_K@?$__crt_char_traits@D@@SAHAEAPEAD$$QEA_K0AEB_K@Z 0000000140063b08 f i libucrt:argv_wildcards.obj
 0001:00062b20       ??$tcsncpy_s@AEAPEA_W_KAEAPEA_WAEB_K@?$__crt_char_traits@_W@@SAHAEAPEA_W$$QEA_K0AEB_K@Z 0000000140063b20 f i libucrt:argv_wildcards.obj
 0001:00062b38       ??$tcsncpy_s@PEADAEB_KAEBQEBDAEB_K@?$__crt_char_traits@D@@SAH$$QEAPEADAEB_KAEBQEBD1@Z 0000000140063b38 f i libucrt:argv_wildcards.obj
 0001:00062b50       ??$tcsncpy_s@PEAD_KAEBQEBDAEB_K@?$__crt_char_traits@D@@SAH$$QEAPEAD$$QEA_KAEBQEBDAEB_K@Z 0000000140063b50 f i libucrt:argv_wildcards.obj
 0001:00062b68       ??$tcsncpy_s@PEA_WAEB_KAEBQEB_WAEB_K@?$__crt_char_traits@_W@@SAH$$QEAPEA_WAEB_KAEBQEB_W1@Z 0000000140063b68 f i libucrt:argv_wildcards.obj
 0001:00062b80       ??$tcsncpy_s@PEA_W_KAEBQEB_WAEB_K@?$__crt_char_traits@_W@@SAH$$QEAPEA_W$$QEA_KAEBQEB_WAEB_K@Z 0000000140063b80 f i libucrt:argv_wildcards.obj
 0001:00062b98       ??$tcspbrk@AEAPEADAEAY02$$CBD@?$__crt_char_traits@D@@SAPEADAEAPEADAEAY02$$CBD@Z 0000000140063b98 f i libucrt:argv_wildcards.obj
 0001:00062ba4       ??$tcspbrk@AEAPEA_WAEAY02$$CB_W@?$__crt_char_traits@_W@@SAPEA_WAEAPEA_WAEAY02$$CB_W@Z 0000000140063ba4 f i libucrt:argv_wildcards.obj
 0001:00062bb0       ??0?$__crt_unique_handle_t@U__crt_findfile_traits@@@@QEAA@QEAX@Z 0000000140063bb0 f i libucrt:argv_wildcards.obj
 0001:00062bb8       ??0?$__crt_win32_buffer@DU__crt_win32_buffer_internal_dynamic_resizing@@@@QEAA@XZ 0000000140063bb8 f i libucrt:argv_wildcards.obj
 0001:00062bdc       ??0?$__crt_win32_buffer@_WU__crt_win32_buffer_internal_dynamic_resizing@@@@QEAA@XZ 0000000140063bdc f i libucrt:argv_wildcards.obj
 0001:00062c30       ??0_LocaleUpdate@@QEAA@QEAU__crt_locale_pointers@@@Z 0000000140063c30 f i libucrt:argv_wildcards.obj
 0001:00062cf4       ??1?$__crt_unique_handle_t@U__crt_findfile_traits@@@@QEAA@XZ 0000000140063cf4 f i libucrt:argv_wildcards.obj
 0001:00062d20       ??1?$__crt_win32_buffer@DU__crt_win32_buffer_internal_dynamic_resizing@@@@QEAA@XZ 0000000140063d20 f i libucrt:argv_wildcards.obj
 0001:00062d4c       ??1?$__crt_win32_buffer@_WU__crt_win32_buffer_internal_dynamic_resizing@@@@QEAA@XZ 0000000140063d4c f i libucrt:argv_wildcards.obj
 0001:00062e08       ??1_LocaleUpdate@@QEAA@XZ  0000000140063e08 f i libucrt:argv_wildcards.obj
 0001:00062e38       ??R<lambda_7c9dea7b4ca7285d2cdb541a38da6275>@@QEBA@IQEBDQEA_W_K@Z 0000000140063e38 f i libucrt:argv_wildcards.obj
 0001:00062ee8       ??R<lambda_d8593a27d1aa8c02be35c86a17d324c4>@@QEBA@IQEB_WQEAD_K@Z 0000000140063ee8 f i libucrt:argv_wildcards.obj
 0001:00062f24       ?GetLocaleT@_LocaleUpdate@@QEAAPEAU__crt_locale_pointers@@XZ 0000000140063f24 f i libucrt:argv_wildcards.obj
 0001:00062f2c       ?__acrt_get_utf8_acp_compatibility_codepage@@YAIXZ 0000000140063f2c f i libucrt:argv_wildcards.obj
 0001:00062f88       ?_deallocate@?$__crt_win32_buffer@DU__crt_win32_buffer_internal_dynamic_resizing@@@@AEAAXXZ 0000000140063f88 f i libucrt:argv_wildcards.obj
 0001:00062fb4       ?_deallocate@?$__crt_win32_buffer@_WU__crt_win32_buffer_internal_dynamic_resizing@@@@AEAAXXZ 0000000140063fb4 f i libucrt:argv_wildcards.obj
 0001:00062fe0       ?allocate@?$__crt_win32_buffer@DU__crt_win32_buffer_internal_dynamic_resizing@@@@QEAAH_K@Z 0000000140063fe0 f i libucrt:argv_wildcards.obj
 0001:0006305c       ?allocate@?$__crt_win32_buffer@_WU__crt_win32_buffer_internal_dynamic_resizing@@@@QEAAH_K@Z 000000014006405c f i libucrt:argv_wildcards.obj
 0001:000630d8       ?allocate@__crt_win32_buffer_internal_dynamic_resizing@@SAHQEAPEAX_KAEBV__crt_win32_buffer_empty_debug_info@@@Z 00000001400640d8 f i libucrt:argv_wildcards.obj
 0001:00063338       ?capacity@?$__crt_win32_buffer@DU__crt_win32_buffer_internal_dynamic_resizing@@@@QEBA_KXZ 0000000140064338 f i libucrt:argv_wildcards.obj
 0001:00063340       ?capacity@?$__crt_win32_buffer@_WU__crt_win32_buffer_internal_dynamic_resizing@@@@QEBA_KXZ 0000000140064340 f i libucrt:argv_wildcards.obj
 0001:00063348       ?close@?$__crt_unique_handle_t@U__crt_findfile_traits@@@@QEAAXXZ 0000000140064348 f i libucrt:argv_wildcards.obj
 0001:00063374       ?close@__crt_findfile_traits@@SA_NPEAX@Z 0000000140064374 f i libucrt:argv_wildcards.obj
 0001:00063390       ?data@?$__crt_win32_buffer@DU__crt_win32_buffer_internal_dynamic_resizing@@@@QEAAPEADXZ 0000000140064390 f i libucrt:argv_wildcards.obj
 0001:00063398       ?data@?$__crt_win32_buffer@_WU__crt_win32_buffer_internal_dynamic_resizing@@@@QEAAPEA_WXZ 0000000140064398 f i libucrt:argv_wildcards.obj
 0001:000633a0       ?deallocate@__crt_win32_buffer_internal_dynamic_resizing@@SAXQEAXAEBV__crt_win32_buffer_empty_debug_info@@@Z 00000001400643a0 f i libucrt:argv_wildcards.obj
 0001:000633a8       ?debug_info@?$__crt_win32_buffer@DU__crt_win32_buffer_internal_dynamic_resizing@@@@QEBAAEBV__crt_win32_buffer_empty_debug_info@@XZ 00000001400643a8 f i libucrt:argv_wildcards.obj
 0001:000633ac       ?debug_info@?$__crt_win32_buffer@_WU__crt_win32_buffer_internal_dynamic_resizing@@@@QEBAAEBV__crt_win32_buffer_empty_debug_info@@XZ 00000001400643ac f i libucrt:argv_wildcards.obj
 0001:000635b0       ?get@?$__crt_unique_handle_t@U__crt_findfile_traits@@@@QEBAPEAXXZ 00000001400645b0 f i libucrt:argv_wildcards.obj
 0001:00063684       ?get_invalid_value@__crt_findfile_traits@@SAPEAXXZ 0000000140064684 f i libucrt:argv_wildcards.obj
 0001:0006376c       ?set_to_nullptr@?$__crt_win32_buffer@DU__crt_win32_buffer_internal_dynamic_resizing@@@@QEAAXXZ 000000014006476c f i libucrt:argv_wildcards.obj
 0001:000637b4       ?set_to_nullptr@?$__crt_win32_buffer@_WU__crt_win32_buffer_internal_dynamic_resizing@@@@QEAAXXZ 00000001400647b4 f i libucrt:argv_wildcards.obj
 0001:000637fc       ?size@?$__crt_win32_buffer@DU__crt_win32_buffer_internal_dynamic_resizing@@@@QEAAX_K@Z 00000001400647fc f i libucrt:argv_wildcards.obj
 0001:00063804       ?size@?$__crt_win32_buffer@_WU__crt_win32_buffer_internal_dynamic_resizing@@@@QEAAX_K@Z 0000000140064804 f i libucrt:argv_wildcards.obj
 0001:0006382c       ?strpbrk@@YAPEADQEADQEBD@Z 000000014006482c f i libucrt:argv_wildcards.obj
 0001:00063834       ?wcspbrk@@YAPEA_WPEA_WPEB_W@Z 0000000140064834 f i libucrt:argv_wildcards.obj
 0001:0006383c       __acrt_expand_narrow_argv_wildcards 000000014006483c f   libucrt:argv_wildcards.obj
 0001:00063844       __acrt_expand_wide_argv_wildcards 0000000140064844 f   libucrt:argv_wildcards.obj
 0001:0006384c       ??$__acrt_convert_wcs_mbs_cp@_WDV<lambda_f788ae46380686e8b737efdd8c720d07>@@U__crt_win32_buffer_no_resizing@@@@YAHQEB_WAEAV?$__crt_win32_buffer@DU__crt_win32_buffer_no_resizing@@@@AEBV<lambda_f788ae46380686e8b737efdd8c720d07>@@I@Z 000000014006484c f i libucrt:getmodulefilenamea.obj
 0001:000639ac       ??$__acrt_wcs_to_mbs_cp@U__crt_win32_buffer_no_resizing@@@@YAHQEB_WAEAV?$__crt_win32_buffer@DU__crt_win32_buffer_no_resizing@@@@I@Z 00000001400649ac f i libucrt:getmodulefilenamea.obj
 0001:000639bc       ??0?$__crt_win32_buffer@DU__crt_win32_buffer_no_resizing@@@@QEAA@QEAD_K@Z 00000001400649bc f i libucrt:getmodulefilenamea.obj
 0001:000639e0       ??1?$__crt_win32_buffer@DU__crt_win32_buffer_no_resizing@@@@QEAA@XZ 00000001400649e0 f i libucrt:getmodulefilenamea.obj
 0001:000639f0       ??R<lambda_f788ae46380686e8b737efdd8c720d07>@@QEBA@IQEB_WQEAD_K@Z 00000001400649f0 f i libucrt:getmodulefilenamea.obj
 0001:00063a2c       ?_deallocate@?$__crt_win32_buffer@DU__crt_win32_buffer_no_resizing@@@@AEAAXXZ 0000000140064a2c f i libucrt:getmodulefilenamea.obj
 0001:00063a3c       ?allocate@?$__crt_win32_buffer@DU__crt_win32_buffer_no_resizing@@@@QEAAH_K@Z 0000000140064a3c f i libucrt:getmodulefilenamea.obj
 0001:00063a78       ?allocate@__crt_win32_buffer_no_resizing@@SAHQEAPEAX_KAEBV__crt_win32_buffer_empty_debug_info@@@Z 0000000140064a78 f i libucrt:getmodulefilenamea.obj
 0001:00063a94       ?capacity@?$__crt_win32_buffer@DU__crt_win32_buffer_no_resizing@@@@QEBA_KXZ 0000000140064a94 f i libucrt:getmodulefilenamea.obj
 0001:00063a9c       ?data@?$__crt_win32_buffer@DU__crt_win32_buffer_no_resizing@@@@QEAAPEADXZ 0000000140064a9c f i libucrt:getmodulefilenamea.obj
 0001:00063aa4       ?deallocate@__crt_win32_buffer_no_resizing@@SAXQEAXAEBV__crt_win32_buffer_empty_debug_info@@@Z 0000000140064aa4 f i libucrt:getmodulefilenamea.obj
 0001:00063aa8       ?debug_info@?$__crt_win32_buffer@DU__crt_win32_buffer_no_resizing@@@@QEBAAEBV__crt_win32_buffer_empty_debug_info@@XZ 0000000140064aa8 f i libucrt:getmodulefilenamea.obj
 0001:00063aac       ?set_to_nullptr@?$__crt_win32_buffer@DU__crt_win32_buffer_no_resizing@@@@QEAAXXZ 0000000140064aac f i libucrt:getmodulefilenamea.obj
 0001:00063ac8       ?size@?$__crt_win32_buffer@DU__crt_win32_buffer_no_resizing@@@@QEAAX_K@Z 0000000140064ac8 f i libucrt:getmodulefilenamea.obj
 0001:00063ad0       ?size@?$__crt_win32_buffer@DU__crt_win32_buffer_no_resizing@@@@QEBA_KXZ 0000000140064ad0 f i libucrt:getmodulefilenamea.obj
 0001:00063ad8       __acrt_GetModuleFileNameA  0000000140064ad8 f   libucrt:getmodulefilenamea.obj
 0001:00063eb8       ??$initialize_from_array@$$BY10BAA@E@?$dual_state_global@PEAE@__crt_state_management@@QEAAXAEAY10BAA@E@Z 0000000140064eb8 f i libucrt:mbctype.obj
 0001:00063ebc       ??$initialize_from_array@$$BY10BAB@E@?$dual_state_global@PEAE@__crt_state_management@@QEAAXAEAY10BAB@E@Z 0000000140064ebc f i libucrt:mbctype.obj
 0001:00064148       ?dangerous_get_state_array@?$dual_state_global@PEAE@__crt_state_management@@QEAAPEAPEAEXZ 0000000140065148 f i libucrt:mbctype.obj
 0001:0006414c       ?dangerous_get_state_array@?$dual_state_global@PEAU__crt_multibyte_data@@@__crt_state_management@@QEAAPEAPEAU__crt_multibyte_data@@XZ 000000014006514c f i libucrt:mbctype.obj
 0001:000641ec       ?initialize@?$dual_state_global@PEAU__crt_multibyte_data@@@__crt_state_management@@QEAAXQEAU__crt_multibyte_data@@@Z 00000001400651ec f i libucrt:mbctype.obj
 0001:00064910       ?value@?$dual_state_global@PEAE@__crt_state_management@@QEAAAEAPEAEXZ 0000000140065910 f i libucrt:mbctype.obj
 0001:00064914       __acrt_initialize_multibyte 0000000140065914 f   libucrt:mbctype.obj
 0001:0006498c       __acrt_update_thread_multibyte_data 000000014006598c f   libucrt:mbctype.obj
 0001:000649b0       __p__mbcasemap             00000001400659b0 f   libucrt:mbctype.obj
 0001:000649bc       __p__mbctype               00000001400659bc f   libucrt:mbctype.obj
 0001:000649c8       _getmbcp                   00000001400659c8 f   libucrt:mbctype.obj
 0001:00064a10       _setmbcp                   0000000140065a10 f   libucrt:mbctype.obj
 0001:00064a40       _setmbcp_nolock            0000000140065a40 f   libucrt:mbctype.obj
 0001:00064ee4       _ismbbalnum                0000000140065ee4 f   libucrt:ismbbyte.obj
 0001:00064f00       _ismbbalnum_l              0000000140065f00 f   libucrt:ismbbyte.obj
 0001:00064f20       _ismbbalpha                0000000140065f20 f   libucrt:ismbbyte.obj
 0001:00064f3c       _ismbbalpha_l              0000000140065f3c f   libucrt:ismbbyte.obj
 0001:00064f5c       _ismbbblank                0000000140065f5c f   libucrt:ismbbyte.obj
 0001:00064f80       _ismbbblank_l              0000000140065f80 f   libucrt:ismbbyte.obj
 0001:00064fa8       _ismbbgraph                0000000140065fa8 f   libucrt:ismbbyte.obj
 0001:00064fc4       _ismbbgraph_l              0000000140065fc4 f   libucrt:ismbbyte.obj
 0001:00064fe4       _ismbbkalnum               0000000140065fe4 f   libucrt:ismbbyte.obj
 0001:00064ffc       _ismbbkalnum_l             0000000140065ffc f   libucrt:ismbbyte.obj
 0001:00065018       _ismbbkana                 0000000140066018 f   libucrt:ismbbyte.obj
 0001:00065020       _ismbbkana_l               0000000140066020 f   libucrt:ismbbyte.obj
 0001:000650a0       _ismbbkprint               00000001400660a0 f   libucrt:ismbbyte.obj
 0001:000650b8       _ismbbkprint_l             00000001400660b8 f   libucrt:ismbbyte.obj
 0001:000650d4       _ismbbkpunct               00000001400660d4 f   libucrt:ismbbyte.obj
 0001:000650ec       _ismbbkpunct_l             00000001400660ec f   libucrt:ismbbyte.obj
 0001:00065108       _ismbblead                 0000000140066108 f   libucrt:ismbbyte.obj
 0001:00065120       _ismbblead_l               0000000140066120 f   libucrt:ismbbyte.obj
 0001:0006513c       _ismbbprint                000000014006613c f   libucrt:ismbbyte.obj
 0001:00065158       _ismbbprint_l              0000000140066158 f   libucrt:ismbbyte.obj
 0001:00065178       _ismbbpunct                0000000140066178 f   libucrt:ismbbyte.obj
 0001:00065190       _ismbbpunct_l              0000000140066190 f   libucrt:ismbbyte.obj
 0001:000651ac       _ismbbtrail                00000001400661ac f   libucrt:ismbbyte.obj
 0001:000651c4       _ismbbtrail_l              00000001400661c4 f   libucrt:ismbbyte.obj
 0001:00065290       __acrt_MultiByteToWideChar 0000000140066290 f   libucrt:multibytetowidechar.obj
 0001:000653ec       __acrt_WideCharToMultiByte 00000001400663ec f   libucrt:widechartomultibyte.obj
 0001:000655c8       __dcrt_get_narrow_environment_from_os 00000001400665c8 f   libucrt:get_environment_from_os.obj
 0001:0006571c       __dcrt_get_wide_environment_from_os 000000014006671c f   libucrt:get_environment_from_os.obj
 0001:00066458       ??$get_or_create_environment_nolock@$$V@?$__crt_char_traits@D@@SAPEAPEADXZ 0000000140067458 f i libucrt:setenv.obj
 0001:00066460       ??$get_or_create_environment_nolock@$$V@?$__crt_char_traits@_W@@SAPEAPEA_WXZ 0000000140067460 f i libucrt:setenv.obj
 0001:00066468       ??$set_environment_variable@AEBQEADQEAD@?$__crt_char_traits@D@@SAHAEBQEAD$$QEBQEAD@Z 0000000140067468 f i libucrt:setenv.obj
 0001:00066478       ??$set_environment_variable@AEBQEA_WQEA_W@?$__crt_char_traits@_W@@SAHAEBQEA_W$$QEBQEA_W@Z 0000000140067478 f i libucrt:setenv.obj
 0001:00066488       ??$tcschr@AEBQEADD@?$__crt_char_traits@D@@SAPEADAEBQEAD$$QEAD@Z 0000000140067488 f i libucrt:setenv.obj
 0001:00066498       ??$tcschr@AEBQEA_WD@?$__crt_char_traits@_W@@SAPEA_WAEBQEA_W$$QEAD@Z 0000000140067498 f i libucrt:setenv.obj
 0001:000664a8       ??$tcscpy_s@AEAPEADAEB_KAEAPEAD@?$__crt_char_traits@D@@SAHAEAPEADAEB_K0@Z 00000001400674a8 f i libucrt:setenv.obj
 0001:000664bc       ??$tcscpy_s@AEAPEA_WAEB_KAEAPEA_W@?$__crt_char_traits@_W@@SAHAEAPEA_WAEB_K0@Z 00000001400674bc f i libucrt:setenv.obj
 0001:000664d0       ??$tcscpy_s@AEBQEADAEB_KAEBQEAD@?$__crt_char_traits@D@@SAHAEBQEADAEB_K0@Z 00000001400674d0 f i libucrt:setenv.obj
 0001:000664e4       ??$tcscpy_s@AEBQEA_WAEB_KAEBQEA_W@?$__crt_char_traits@_W@@SAHAEBQEA_WAEB_K0@Z 00000001400674e4 f i libucrt:setenv.obj
 0001:000664f8       ??$tcslen@AEBQEAD@?$__crt_char_traits@D@@SA_KAEBQEAD@Z 00000001400674f8 f i libucrt:setenv.obj
 0001:00066510       ??$tcslen@AEBQEA_W@?$__crt_char_traits@_W@@SA_KAEBQEA_W@Z 0000000140067510 f i libucrt:setenv.obj
 0001:00066528       ??$tcsnicoll@AEBQEBDAEAPEADAEB_K@?$__crt_char_traits@D@@SAHAEBQEBDAEAPEADAEB_K@Z 0000000140067528 f i libucrt:setenv.obj
 0001:0006653c       ??$tcsnicoll@AEBQEB_WAEAPEA_WAEB_K@?$__crt_char_traits@_W@@SAHAEBQEB_WAEAPEA_WAEB_K@Z 000000014006753c f i libucrt:setenv.obj
 0001:00066598       ?strchr@@YAPEADQEADH@Z     0000000140067598 f i libucrt:setenv.obj
 0001:000665a0       ?wcschr@@YAPEA_WPEA_W_W@Z  00000001400675a0 f i libucrt:setenv.obj
 0001:000665a8       __dcrt_set_variable_in_narrow_environment_nolock 00000001400675a8 f   libucrt:setenv.obj
 0001:000665b0       __dcrt_set_variable_in_wide_environment_nolock 00000001400675b0 f   libucrt:setenv.obj
 0001:000665b8       ??$?RU__crt_lowio_handle_data@@@__crt_internal_free_policy@@QEBAXQEBU__crt_lowio_handle_data@@@Z 00000001400675b8 f i libucrt:osfinfo.obj
 0001:000665c4       ??0?$__crt_unique_heap_ptr@U__crt_lowio_handle_data@@U__crt_internal_free_policy@@@@QEAA@QEAU__crt_lowio_handle_data@@@Z 00000001400675c4 f i libucrt:osfinfo.obj
 0001:000665cc       ??1?$__crt_unique_heap_ptr@U__crt_lowio_handle_data@@U__crt_internal_free_policy@@@@QEAA@XZ 00000001400675cc f i libucrt:osfinfo.obj
 0001:000665f0       ??B?$__crt_unique_heap_ptr@U__crt_lowio_handle_data@@U__crt_internal_free_policy@@@@QEBA_NXZ 00000001400675f0 f i libucrt:osfinfo.obj
 0001:000665fc       ?detach@?$__crt_unique_heap_ptr@U__crt_lowio_handle_data@@U__crt_internal_free_policy@@@@QEAAPEAU__crt_lowio_handle_data@@XZ 00000001400675fc f i libucrt:osfinfo.obj
 0001:00066608       ?get@?$__crt_unique_heap_ptr@U__crt_lowio_handle_data@@U__crt_internal_free_policy@@@@QEBAPEAU__crt_lowio_handle_data@@XZ 0000000140067608 f i libucrt:osfinfo.obj
 0001:0006660c       ?is_valid@?$__crt_unique_heap_ptr@U__crt_lowio_handle_data@@U__crt_internal_free_policy@@@@QEBA_NXZ 000000014006760c f i libucrt:osfinfo.obj
 0001:00066618       ?release@?$__crt_unique_heap_ptr@U__crt_lowio_handle_data@@U__crt_internal_free_policy@@@@QEAAXXZ 0000000140067618 f i libucrt:osfinfo.obj
 0001:0006663c       __acrt_lowio_create_handle_array 000000014006763c f   libucrt:osfinfo.obj
 0001:0006670c       __acrt_lowio_destroy_handle_array 000000014006770c f   libucrt:osfinfo.obj
 0001:00066770       __acrt_lowio_ensure_fh_exists 0000000140067770 f   libucrt:osfinfo.obj
 0001:00066844       __acrt_lowio_lock_fh       0000000140067844 f   libucrt:osfinfo.obj
 0001:00066874       __acrt_lowio_set_os_handle 0000000140067874 f   libucrt:osfinfo.obj
 0001:00066964       __acrt_lowio_unlock_fh     0000000140067964 f   libucrt:osfinfo.obj
 0001:00066994       _alloc_osfhnd              0000000140067994 f   libucrt:osfinfo.obj
 0001:00066b24       _free_osfhnd               0000000140067b24 f   libucrt:osfinfo.obj
 0001:00066c0c       _get_osfhandle             0000000140067c0c f   libucrt:osfinfo.obj
 0001:00066ca0       _open_osfhandle            0000000140067ca0 f   libucrt:osfinfo.obj
 0001:00066de0       ?dangerous_get_state_array@?$dual_state_global@H@__crt_state_management@@QEAAPEAHXZ 0000000140067de0 f i libucrt:txtmode.obj
 0001:00066de4       __acrt_initialize_fmode    0000000140067de4 f   libucrt:txtmode.obj
 0001:00066e04       __p__fmode                 0000000140067e04 f   libucrt:txtmode.obj
 0001:00066e10       ??$?RG@__crt_internal_free_policy@@QEBAXQEBG@Z 0000000140067e10 f i libucrt:initctype.obj
 0001:00066e1c       ??$?RJ@__crt_internal_free_policy@@QEBAXQEBJ@Z 0000000140067e1c f i libucrt:initctype.obj
 0001:00066e28       ??0?$__crt_unique_heap_ptr@GU__crt_internal_free_policy@@@@QEAA@QEAG@Z 0000000140067e28 f i libucrt:initctype.obj
 0001:00066e30       ??0?$__crt_unique_heap_ptr@JU__crt_internal_free_policy@@@@QEAA@QEAJ@Z 0000000140067e30 f i libucrt:initctype.obj
 0001:00066e38       ??1?$__crt_unique_heap_ptr@GU__crt_internal_free_policy@@@@QEAA@XZ 0000000140067e38 f i libucrt:initctype.obj
 0001:00066e5c       ??1?$__crt_unique_heap_ptr@JU__crt_internal_free_policy@@@@QEAA@XZ 0000000140067e5c f i libucrt:initctype.obj
 0001:00066e80       ?detach@?$__crt_unique_heap_ptr@GU__crt_internal_free_policy@@@@QEAAPEAGXZ 0000000140067e80 f i libucrt:initctype.obj
 0001:00066e8c       ?detach@?$__crt_unique_heap_ptr@JU__crt_internal_free_policy@@@@QEAAPEAJXZ 0000000140067e8c f i libucrt:initctype.obj
 0001:00066e98       ?release@?$__crt_unique_heap_ptr@GU__crt_internal_free_policy@@@@QEAAXXZ 0000000140067e98 f i libucrt:initctype.obj
 0001:00066ebc       ?release@?$__crt_unique_heap_ptr@JU__crt_internal_free_policy@@@@QEAAXXZ 0000000140067ebc f i libucrt:initctype.obj
 0001:00066ee0       ___lc_codepage_func        0000000140067ee0 f   libucrt:initctype.obj
 0001:00066f1c       ___lc_collate_cp_func      0000000140067f1c f   libucrt:initctype.obj
 0001:00066f58       ___lc_locale_name_func     0000000140067f58 f   libucrt:initctype.obj
 0001:00066f98       ___mb_cur_max_func         0000000140067f98 f   libucrt:initctype.obj
 0001:00066fd4       ___mb_cur_max_l_func       0000000140067fd4 f   libucrt:initctype.obj
 0001:00066fe8       __acrt_locale_initialize_ctype 0000000140067fe8 f   libucrt:initctype.obj
 0001:000677e4       ??$?RUlconv@@@__crt_internal_free_policy@@QEBAXQEBUlconv@@@Z 00000001400687e4 f i libucrt:initmon.obj
 0001:000677f0       ??0?$__crt_unique_heap_ptr@Ulconv@@U__crt_internal_free_policy@@@@QEAA@QEAUlconv@@@Z 00000001400687f0 f i libucrt:initmon.obj
 0001:000677f8       ??1?$__crt_unique_heap_ptr@Ulconv@@U__crt_internal_free_policy@@@@QEAA@XZ 00000001400687f8 f i libucrt:initmon.obj
 0001:0006781c       ?detach@?$__crt_unique_heap_ptr@Ulconv@@U__crt_internal_free_policy@@@@QEAAPEAUlconv@@XZ 000000014006881c f i libucrt:initmon.obj
 0001:00067828       ?release@?$__crt_unique_heap_ptr@Ulconv@@U__crt_internal_free_policy@@@@QEAAXXZ 0000000140068828 f i libucrt:initmon.obj
 0001:0006784c       __acrt_locale_free_monetary 000000014006884c f   libucrt:initmon.obj
 0001:00067998       __acrt_locale_initialize_monetary 0000000140068998 f   libucrt:initmon.obj
 0001:0006803c       __acrt_locale_free_numeric 000000014006903c f   libucrt:initnum.obj
 0001:000680c4       __acrt_locale_initialize_numeric 00000001400690c4 f   libucrt:initnum.obj
 0001:000684a4       ??$?RU__crt_lc_time_data@@@__crt_internal_free_policy@@QEBAXQEBU__crt_lc_time_data@@@Z 00000001400694a4 f i libucrt:inittime.obj
 0001:000684f8       ??0?$__crt_unique_heap_ptr@U__crt_lc_time_data@@U__crt_internal_free_policy@@@@QEAA@QEAU__crt_lc_time_data@@@Z 00000001400694f8 f i libucrt:inittime.obj
 0001:00068500       ??1?$__crt_unique_heap_ptr@U__crt_lc_time_data@@U__crt_internal_free_policy@@@@QEAA@XZ 0000000140069500 f i libucrt:inittime.obj
 0001:00068524       ??B?$__crt_unique_heap_ptr@U__crt_lc_time_data@@U__crt_internal_free_policy@@@@QEBA_NXZ 0000000140069524 f i libucrt:inittime.obj
 0001:00068530       ?detach@?$__crt_unique_heap_ptr@U__crt_lc_time_data@@U__crt_internal_free_policy@@@@QEAAPEAU__crt_lc_time_data@@XZ 0000000140069530 f i libucrt:inittime.obj
 0001:0006857c       ?get@?$__crt_unique_heap_ptr@U__crt_lc_time_data@@U__crt_internal_free_policy@@@@QEBAPEAU__crt_lc_time_data@@XZ 000000014006957c f i libucrt:inittime.obj
 0001:00068a2c       ?is_valid@?$__crt_unique_heap_ptr@U__crt_lc_time_data@@U__crt_internal_free_policy@@@@QEBA_NXZ 0000000140069a2c f i libucrt:inittime.obj
 0001:00068a38       ?release@?$__crt_unique_heap_ptr@U__crt_lc_time_data@@U__crt_internal_free_policy@@@@QEAAXXZ 0000000140069a38 f i libucrt:inittime.obj
 0001:00068a5c       __acrt_locale_free_time    0000000140069a5c f   libucrt:inittime.obj
 0001:00068ba8       __acrt_locale_initialize_time 0000000140069ba8 f   libucrt:inittime.obj
 0001:00068c6c       __pctype_func              0000000140069c6c f   libucrt:ctype.obj
 0001:00068ca8       __pwctype_func             0000000140069ca8 f   libucrt:ctype.obj
 0001:00068de8       wcsncat_s                  0000000140069de8 f   libucrt:wcsncat_s.obj
 0001:00068f20       wcscspn                    0000000140069f20 f   libucrt:wcscspn.obj
 0001:00068f70       wcspbrk                    0000000140069f70 f   libucrt:wcspbrk.obj
 0001:00068fb4       ??0?$__crt_scoped_stack_ptr@_W@@QEAA@U?$__crt_scoped_stack_ptr_tag@_W@@@Z 0000000140069fb4 f i libucrt:getstringtypea.obj
 0001:00068fbc       ??0?$__crt_scoped_stack_ptr_tag@_W@@QEAA@QEA_W@Z 0000000140069fbc f i libucrt:getstringtypea.obj
 0001:00068fc4       ??1?$__crt_scoped_stack_ptr@_W@@QEAA@XZ 0000000140069fc4 f i libucrt:getstringtypea.obj
 0001:00068ff0       ?get@?$__crt_scoped_stack_ptr@_W@@QEBAPEA_WXZ 0000000140069ff0 f i libucrt:getstringtypea.obj
 0001:00068ff4       _MallocaComputeSize        0000000140069ff4 f i libucrt:getstringtypea.obj
 0001:00069008       _MarkAllocaS               000000014006a008 f i libucrt:getstringtypea.obj
 0001:0006901c       __acrt_GetStringTypeA      000000014006a01c f   libucrt:getstringtypea.obj
 0001:00069210       _freea_crt                 000000014006a210 f i libucrt:getstringtypea.obj
 0001:00069238       __acrt_add_locale_ref      000000014006a238 f   libucrt:locale_refcounting.obj
 0001:000692e8       __acrt_free_locale         000000014006a2e8 f   libucrt:locale_refcounting.obj
 0001:000694bc       __acrt_locale_add_lc_time_reference 000000014006a4bc f   libucrt:locale_refcounting.obj
 0001:000694ec       __acrt_locale_free_lc_time_if_unreferenced 000000014006a4ec f   libucrt:locale_refcounting.obj
 0001:00069530       __acrt_locale_release_lc_time_reference 000000014006a530 f   libucrt:locale_refcounting.obj
 0001:00069560       __acrt_release_locale_ref  000000014006a560 f   libucrt:locale_refcounting.obj
 0001:00069634       __acrt_update_thread_locale_data 000000014006a634 f   libucrt:locale_refcounting.obj
 0001:000696c0       _updatetlocinfoEx_nolock   000000014006a6c0 f   libucrt:locale_refcounting.obj
 0001:0006a198       __acrt_get_qualified_locale 000000014006b198 f   libucrt:get_qualified_locale.obj
 0001:0006af70       __acrt_get_qualified_locale_downlevel 000000014006bf70 f   libucrt:getqloc_downlevel.obj
 0001:0006b290       localeconv                 000000014006c290 f   libucrt:localeconv.obj
 0001:0006b2d0       _recalloc                  000000014006c2d0 f   libucrt:recalloc.obj
 0001:0006b2d8       _recalloc_base             000000014006c2d8 f   libucrt:recalloc.obj
 0001:0006b394       __acrt_getheap             000000014006c394 f   libucrt:heap_handle.obj
 0001:0006b3a0       __acrt_initialize_heap     000000014006c3a0 f   libucrt:heap_handle.obj
 0001:0006b3c4       __acrt_uninitialize_heap   000000014006c3c4 f   libucrt:heap_handle.obj
 0001:0006b3d4       _get_heap_handle           000000014006c3d4 f   libucrt:heap_handle.obj
 0001:0006b3e0       __acrt_execute_initializers 000000014006c3e0 f   libucrt:shared_initialization.obj
 0001:0006b49c       __acrt_execute_uninitializers 000000014006c49c f   libucrt:shared_initialization.obj
 0001:0006b4f4       ??$?B$$A6AH_K@Z@__crt_fast_encoded_nullptr_t@@QEBAP6AH_K@ZXZ 000000014006c4f4 f i libucrt:new_handler.obj
 0001:0006b500       ??$__crt_fast_decode_pointer@P6AH_K@Z@@YAP6AH_K@ZQ6AH0@Z@Z 000000014006c500 f i libucrt:new_handler.obj
 0001:0006b51c       ??$__crt_fast_encode_pointer@P6AH_K@Z@@YAP6AH_K@ZQ6AH0@Z@Z 000000014006c51c f i libucrt:new_handler.obj
 0001:0006b544       ?_set_new_handler@@YAP6AH_K@ZH@Z 000000014006c544 f   libucrt:new_handler.obj
 0001:0006b554       ?initialize@?$dual_state_global@P6AH_K@Z@__crt_state_management@@QEAAXQ6AH_K@Z@Z 000000014006c554 f i libucrt:new_handler.obj
 0001:0006b564       ?value@?$dual_state_global@P6AH_K@Z@__crt_state_management@@QEAAAEAP6AH_K@ZXZ 000000014006c564 f i libucrt:new_handler.obj
 0001:0006b568       __acrt_initialize_new_handler 000000014006c568 f   libucrt:new_handler.obj
 0001:0006b574       _callnewh                  000000014006c574 f   libucrt:new_handler.obj
 0001:0006b5c4       _query_new_handler         000000014006c5c4 f   libucrt:new_handler.obj
 0001:0006b608       _set_new_handler           000000014006c608 f   libucrt:new_handler.obj
 0001:0006b678       ??$?B$$A6AXH@Z@__crt_fast_encoded_nullptr_t@@QEBAP6AXH@ZXZ 000000014006c678 f i libucrt:signal.obj
 0001:0006b710       ??$__crt_fast_decode_pointer@P6AXH@Z@@YAP6AXH@ZQ6AXH@Z@Z 000000014006c710 f i libucrt:signal.obj
 0001:0006b72c       ??$__crt_fast_encode_pointer@P6AXH@Z@@YAP6AXH@ZQ6AXH@Z@Z 000000014006c72c f i libucrt:signal.obj
 0001:0006b8ac       ?initialize@?$dual_state_global@P6AXH@Z@__crt_state_management@@QEAAXQ6AXH@Z@Z 000000014006c8ac f i libucrt:signal.obj
 0001:0006b958       ?value@?$dual_state_global@P6AXH@Z@__crt_state_management@@QEAAAEAP6AXH@ZXZ 000000014006c958 f i libucrt:signal.obj
 0001:0006b95c       __acrt_get_sigabrt_handler 000000014006c95c f   libucrt:signal.obj
 0001:0006b998       __acrt_initialize_signal_handlers 000000014006c998 f   libucrt:signal.obj
 0001:0006b9bc       __fpecode                  000000014006c9bc f   libucrt:signal.obj
 0001:0006b9d4       __pxcptinfoptrs            000000014006c9d4 f   libucrt:signal.obj
 0001:0006b9ec       raise                      000000014006c9ec f   libucrt:signal.obj
 0001:0006bd04       signal                     000000014006cd04 f   libucrt:signal.obj
 0001:0006bf38       _iswctype_l                000000014006cf38 f   libucrt:iswctype.obj
 0001:0006bf40       iswctype                   000000014006cf40 f   libucrt:iswctype.obj
 0001:0006bfc8       _isctype                   000000014006cfc8 f   libucrt:isctype.obj
 0001:0006c004       _isctype_l                 000000014006d004 f   libucrt:isctype.obj
 0001:0006c254       __acrt_DownlevelLCIDToLocaleName 000000014006d254 f   libucrt:lcidtoname_downlevel.obj
 0001:0006c374       __acrt_DownlevelLocaleNameToLCID 000000014006d374 f   libucrt:lcidtoname_downlevel.obj
 0001:0006c5d4       _commit                    000000014006d5d4 f   libucrt:commit.obj
 0001:0006c68c       __ascii_wcsnicmp           000000014006d68c f   libucrt:wcsnicmp.obj
 0001:0006c6ec       _towlower_fast_internal    000000014006d6ec f i libucrt:wcsnicmp.obj
 0001:0006c71c       _towlower_internal         000000014006d71c f i libucrt:wcsnicmp.obj
 0001:0006c760       _wcsnicmp                  000000014006d760 f   libucrt:wcsnicmp.obj
 0001:0006c7b8       _wcsnicmp_l                000000014006d7b8 f   libucrt:wcsnicmp.obj
 0001:0006c960       __ascii_strnicmp           000000014006d960 f   libucrt:strnicmp.obj
 0001:0006c9bc       _strnicmp                  000000014006d9bc f   libucrt:strnicmp.obj
 0001:0006ca20       _strnicmp_l                000000014006da20 f   libucrt:strnicmp.obj
 0001:0006ce98       ??$tsopen_nolock@PEAHAEBQEAHAEBQEBDAEBHAEBHAEBHAEBH@?$__crt_char_traits@D@@SAH$$QEAPEAHAEBQEAHAEBQEBDAEBH333@Z 000000014006de98 f i libucrt:open.obj
 0001:0006cee0       ??$tsopen_nolock@PEAHAEBQEAHAEBQEB_WAEBHAEBHAEBHAEBH@?$__crt_char_traits@_W@@SAH$$QEAPEAHAEBQEAHAEBQEB_WAEBH333@Z 000000014006dee0 f i libucrt:open.obj
 0001:0006cf28       ??$tsopen_nolock@PEAHPEAHAEBQEBDAEBHHAEBHH@?$__crt_char_traits@D@@SAH$$QEAPEAH0AEBQEBDAEBH$$QEAH23@Z 000000014006df28 f i libucrt:open.obj
 0001:0006cf70       ??$tsopen_nolock@PEAHPEAHAEBQEB_WAEBHHAEBHH@?$__crt_char_traits@_W@@SAH$$QEAPEAH0AEBQEB_WAEBH$$QEAH23@Z 000000014006df70 f i libucrt:open.obj
 0001:0006d880       _open                      000000014006e880 f   libucrt:open.obj
 0001:0006d8ac       _sopen                     000000014006e8ac f   libucrt:open.obj
 0001:0006d8fc       _sopen_dispatch            000000014006e8fc f   libucrt:open.obj
 0001:0006d904       _sopen_nolock              000000014006e904 f   libucrt:open.obj
 0001:0006da68       _sopen_s                   000000014006ea68 f   libucrt:open.obj
 0001:0006daa8       _wopen                     000000014006eaa8 f   libucrt:open.obj
 0001:0006dad4       _wsopen                    000000014006ead4 f   libucrt:open.obj
 0001:0006db24       _wsopen_dispatch           000000014006eb24 f   libucrt:open.obj
 0001:0006db2c       _wsopen_nolock             000000014006eb2c f   libucrt:open.obj
 0001:0006e018       _wsopen_s                  000000014006f018 f   libucrt:open.obj
 0001:0006e058       _isatty                    000000014006f058 f   libucrt:isatty.obj
 0001:0006e0d0       __acrt_stdio_allocate_buffer_nolock 000000014006f0d0 f   libucrt:_getbuf.obj
 0001:0006e188       ?__mbrtowc_utf8@__crt_mbstring@@YA_KPEA_WPEBD_KPEAU_Mbstatet@@AEAV__crt_cached_ptd_host@@@Z 000000014006f188 f   libucrt:mbrtowc.obj
 0001:0006e1dc       ?__mbsrtowcs_utf8@__crt_mbstring@@YA_KPEA_WPEAPEBD_KPEAU_Mbstatet@@AEAV__crt_cached_ptd_host@@@Z 000000014006f1dc f   libucrt:mbrtowc.obj
 0001:0006e990       btowc                      000000014006f990 f   libucrt:mbrtowc.obj
 0001:0006eaa0       mbrlen                     000000014006faa0 f   libucrt:mbrtowc.obj
 0001:0006eb98       mbrtowc                    000000014006fb98 f   libucrt:mbrtowc.obj
 0001:0006ecb8       mbsrtowcs                  000000014006fcb8 f   libucrt:mbrtowc.obj
 0001:0006ed84       mbsrtowcs_s                000000014006fd84 f   libucrt:mbrtowc.obj
 0001:0006effc       _putwch                    000000014006fffc f   libucrt:putwch.obj
 0001:0006f048       _putwch_nolock             0000000140070048 f   libucrt:putwch.obj
 0001:0006f094       _putwch_nolock_internal    0000000140070094 f   libucrt:putwch.obj
 0001:0006f1bc       __acrt_fp_strflt_to_string 00000001400701bc f   libucrt:_fptostr.obj
 0001:000708a0       ??0big_integer@__crt_strtox@@QEAA@AEBU01@@Z 00000001400718a0 f i libucrt:cfout.obj
 0001:000708e0       ??0big_integer@__crt_strtox@@QEAA@XZ 00000001400718e0 f i libucrt:cfout.obj
 0001:000709c0       ??4big_integer@__crt_strtox@@QEAAAEAU01@AEBU01@@Z 00000001400719c0 f i libucrt:cfout.obj
 0001:00070a00       ??8__crt_strtox@@YA_NAEBUbig_integer@0@0@Z 0000000140071a00 f i libucrt:cfout.obj
 0001:00070a40       ??9__crt_strtox@@YA_NAEBUbig_integer@0@0@Z 0000000140071a40 f i libucrt:cfout.obj
 0001:00070a90       ?add_carry@__crt_strtox@@YAIAEAIII@Z 0000000140071a90 f i libucrt:cfout.obj
 0001:00070ab0       ?add_multiply_carry@__crt_strtox@@YAIAEAIIII@Z 0000000140071ab0 f i libucrt:cfout.obj
 0001:00070ae0       ?bit_scan_reverse@__crt_strtox@@YAII@Z 0000000140071ae0 f i libucrt:cfout.obj
 0001:00070b00       ?count_sequential_high_zeroes@__crt_strtox@@YAII@Z 0000000140071b00 f i libucrt:cfout.obj
 0001:00070b20       ?divide@__crt_strtox@@YA_KAEAUbig_integer@1@AEBU21@@Z 0000000140071b20 f i libucrt:cfout.obj
 0001:000710f0       ?is_zero@__crt_strtox@@YA_NAEBUbig_integer@1@@Z 00000001400720f0 f i libucrt:cfout.obj
 0001:00071100       ?make_big_integer@__crt_strtox@@YA?AUbig_integer@1@_K@Z 0000000140072100 f i libucrt:cfout.obj
 0001:00071120       ?make_big_integer_power_of_two@__crt_strtox@@YA?AUbig_integer@1@I@Z 0000000140072120 f i libucrt:cfout.obj
 0001:000711a0       ?multiply@__crt_strtox@@YA_NAEAUbig_integer@1@AEBU21@@Z 00000001400721a0 f i libucrt:cfout.obj
 0001:00071620       ?multiply@__crt_strtox@@YA_NAEAUbig_integer@1@I@Z 0000000140072620 f i libucrt:cfout.obj
 0001:00071750       ?multiply_64_32@__crt_strtox@@YA_K_KI@Z 0000000140072750 f i libucrt:cfout.obj
 0001:00071760       ?multiply_by_power_of_ten@__crt_strtox@@YA_NAEAUbig_integer@1@I@Z 0000000140072760 f i libucrt:cfout.obj
 0001:00071e30       ?multiply_core@__crt_strtox@@YAIQEAIII@Z 0000000140072e30 f i libucrt:cfout.obj
 0001:00071e90       ?shift_left@__crt_strtox@@YA_NAEAUbig_integer@1@I@Z 0000000140072e90 f i libucrt:cfout.obj
 0001:0007206c       __acrt_fltout              000000014007306c f   libucrt:cfout.obj
 0001:00073848       __fpe_flt_rounds           0000000140074848 f   libucrt:fegetround.obj
 0001:000738a0       fegetround                 00000001400748a0 f   libucrt:fegetround.obj
 0001:000738bc       ?__c32rtomb_utf8@__crt_mbstring@@YA_KPEAD_UPEAU_Mbstatet@@AEAV__crt_cached_ptd_host@@@Z 00000001400748bc f   libucrt:c32rtomb.obj
 0001:00073988       c32rtomb                   0000000140074988 f   libucrt:c32rtomb.obj
 0001:00073a48       __acrt_OutputDebugStringA  0000000140074a48 f   libucrt:outputdebugstringa.obj
 0001:00073c50       qsort                      0000000140074c50 f   libucrt:qsort.obj
 0001:00074278       strncpy_s                  0000000140075278 f   libucrt:strncpy_s.obj
 0001:00074470       strpbrk                    0000000140075470 f   libucrt:strpbrk.obj
 0001:0007492c       _mbsdec                    000000014007592c f   libucrt:mbsdec.obj
 0001:00074938       _mbsdec_l                  0000000140075938 f   libucrt:mbsdec.obj
 0001:000749f4       ??B?$__crt_scoped_stack_ptr@_W@@QEBA_NXZ 00000001400759f4 f i libucrt:lcmapstringa.obj
 0001:00074e00       __acrt_LCMapStringA        0000000140075e00 f   libucrt:lcmapstringa.obj
 0001:00074ed8       _wcsnicoll                 0000000140075ed8 f   libucrt:wcsnicol.obj
 0001:00074f3c       _wcsnicoll_l               0000000140075f3c f   libucrt:wcsnicol.obj
 0001:00075068       _strnicoll                 0000000140076068 f   libucrt:strnicol.obj
 0001:00075084       _strnicoll_l               0000000140076084 f   libucrt:strnicol.obj
 0001:000751c4       __acrt_SetEnvironmentVariableA 00000001400761c4 f   libucrt:setenvironmentvariablea.obj
 0001:000755a8       __acrt_GetLocaleInfoA      00000001400765a8 f   libucrt:getlocaleinfoa.obj
 0001:00075e48       _i64toa                    0000000140076e48 f   libucrt:xtoa.obj
 0001:00075e88       _i64toa_s                  0000000140076e88 f   libucrt:xtoa.obj
 0001:00075eb4       _i64tow                    0000000140076eb4 f   libucrt:xtoa.obj
 0001:00075ef4       _i64tow_s                  0000000140076ef4 f   libucrt:xtoa.obj
 0001:00075f20       _itoa                      0000000140076f20 f   libucrt:xtoa.obj
 0001:00075f5c       _itoa_s                    0000000140076f5c f   libucrt:xtoa.obj
 0001:00075f84       _itow                      0000000140076f84 f   libucrt:xtoa.obj
 0001:00075fc0       _itow_s                    0000000140076fc0 f   libucrt:xtoa.obj
 0001:00075fe8       _ltoa                      0000000140076fe8 f   libucrt:xtoa.obj
 0001:00076024       _ltoa_s                    0000000140077024 f   libucrt:xtoa.obj
 0001:0007604c       _ltow                      000000014007704c f   libucrt:xtoa.obj
 0001:00076088       _ltow_s                    0000000140077088 f   libucrt:xtoa.obj
 0001:000760b0       _ui64toa                   00000001400770b0 f   libucrt:xtoa.obj
 0001:000760dc       _ui64toa_s                 00000001400770dc f   libucrt:xtoa.obj
 0001:000760f4       _ui64tow                   00000001400770f4 f   libucrt:xtoa.obj
 0001:00076120       _ui64tow_s                 0000000140077120 f   libucrt:xtoa.obj
 0001:00076138       _ultoa                     0000000140077138 f   libucrt:xtoa.obj
 0001:00076164       _ultoa_s                   0000000140077164 f   libucrt:xtoa.obj
 0001:0007617c       _ultow                     000000014007717c f   libucrt:xtoa.obj
 0001:000761a8       _ultow_s                   00000001400771a8 f   libucrt:xtoa.obj
 0001:000761c0       __ascii_wcsicmp            00000001400771c0 f   libucrt:wcsicmp.obj
 0001:00076210       _wcsicmp                   0000000140077210 f   libucrt:wcsicmp.obj
 0001:00076268       _wcsicmp_l                 0000000140077268 f   libucrt:wcsicmp.obj
 0001:000763e8       wcscmp                     00000001400773e8 f   libucrt:wcscmp.obj
 0001:0007642c       _msize                     000000014007742c f   libucrt:msize.obj
 0001:00076434       _msize_base                0000000140077434 f   libucrt:msize.obj
 0001:0007647c       _realloc_base              000000014007747c f   libucrt:realloc_base.obj
 0001:00076514       __acrt_GetStringTypeW      0000000140077514 f   libucrt:getstringtypew.obj
 0001:0007651c       _towlower_l                000000014007751c f   libucrt:towlower.obj
 0001:0007664c       towlower                   000000014007764c f   libucrt:towlower.obj
 0001:0007674c       ??0__crt_seek_guard@@QEAA@H_J@Z 000000014007774c f i libucrt:chsize.obj
 0001:000767b8       ??1__crt_seek_guard@@QEAA@XZ 00000001400777b8 f i libucrt:chsize.obj
 0001:00076954       ?check@?$cached@K@__crt_cached_ptd_host@@QEBA_NK@Z 0000000140077954 f i libucrt:chsize.obj
 0001:00076968       _chsize                    0000000140077968 f   libucrt:chsize.obj
 0001:00076984       _chsize_nolock             0000000140077984 f   libucrt:chsize.obj
 0001:00076a44       _chsize_nolock_internal    0000000140077a44 f   libucrt:chsize.obj
 0001:00076c3c       _chsize_s                  0000000140077c3c f   libucrt:chsize.obj
 0001:00076de0       _umask                     0000000140077de0 f   libucrt:umask.obj
 0001:00076df8       _umask_s                   0000000140077df8 f   libucrt:umask.obj
 0001:00076e44       ?__mbrtoc32_utf8@__crt_mbstring@@YA_KPEA_UPEBD_KPEAU_Mbstatet@@AEAV__crt_cached_ptd_host@@@Z 0000000140077e44 f   libucrt:mbrtoc32.obj
 0001:00077094       mbrtoc32                   0000000140078094 f   libucrt:mbrtoc32.obj
 0001:000772cc       __dcrt_lowio_ensure_console_output_initialized 00000001400782cc f   libucrt:initcon.obj
 0001:00077334       __dcrt_terminate_console_output 0000000140078334 f   libucrt:initcon.obj
 0001:00077358       __dcrt_write_console       0000000140078358 f   libucrt:initcon.obj
 0001:00077448       _controlfp_s               0000000140078448 f   libucrt:contrlfp.obj
 0001:000774c4       fegetenv                   00000001400784c4 f   libucrt:fegetenv.obj
 0001:000774ec       fesetenv                   00000001400784ec f   libucrt:fesetenv.obj
 0001:0007755c       feholdexcept               000000014007855c f   libucrt:feholdexcept.obj
 0001:000775c0       ceil                       00000001400785c0 f   libucrt:ceil.obj
 0001:000776c0       log10                      00000001400786c0 f   libucrt:log10.obj
 0001:00077dd8       ??$__acrt_fenv_shift_bits@W4__acrt_fenv_abstract_control@@@@YA?AW4__acrt_fenv_abstract_control@@W40@0I@Z 0000000140078dd8 f i libucrt:_fenvutils.obj
 0001:00077de4       ??$__acrt_fenv_shift_bits@W4__acrt_fenv_abstract_status@@@@YA?AW4__acrt_fenv_abstract_status@@W40@0I@Z 0000000140078de4 f i libucrt:_fenvutils.obj
 0001:00077df0       ??$__acrt_fenv_translate_bit@W4__acrt_fenv_abstract_control@@W4__acrt_fenv_machine_sse_control@@@@YA?AW4__acrt_fenv_abstract_control@@W4__acrt_fenv_machine_sse_control@@0W40@1@Z 0000000140078df0 f i libucrt:_fenvutils.obj
 0001:00077e00       ??$__acrt_fenv_translate_bit@W4__acrt_fenv_abstract_status@@W4__acrt_fenv_machine_sse_status@@@@YA?AW4__acrt_fenv_abstract_status@@W4__acrt_fenv_machine_sse_status@@0W40@1@Z 0000000140078e00 f i libucrt:_fenvutils.obj
 0001:00077e0c       ??$__acrt_fenv_translate_bit@W4__acrt_fenv_machine_sse_control@@W4__acrt_fenv_abstract_control@@@@YA?AW4__acrt_fenv_machine_sse_control@@W4__acrt_fenv_abstract_control@@0W40@1@Z 0000000140078e0c f i libucrt:_fenvutils.obj
 0001:00077e1c       ??$__acrt_fenv_translate_bit@W4__acrt_fenv_machine_sse_status@@W4__acrt_fenv_abstract_status@@@@YA?AW4__acrt_fenv_machine_sse_status@@W4__acrt_fenv_abstract_status@@0W40@1@Z 0000000140078e1c f i libucrt:_fenvutils.obj
 0001:00077e28       ??$__acrt_fenv_unshift_bits@W4__acrt_fenv_abstract_control@@@@YA?AW4__acrt_fenv_abstract_control@@W40@0I@Z 0000000140078e28 f i libucrt:_fenvutils.obj
 0001:00077e34       ??$__acrt_fenv_unshift_bits@W4__acrt_fenv_abstract_status@@@@YA?AW4__acrt_fenv_abstract_status@@W40@0I@Z 0000000140078e34 f i libucrt:_fenvutils.obj
 0001:0007805c       ??I@YA?AW4__acrt_fenv_abstract_control@@W40@0@Z 000000014007905c f i libucrt:_fenvutils.obj
 0001:00078064       ??I@YA?AW4__acrt_fenv_abstract_status@@W40@0@Z 0000000140079064 f i libucrt:_fenvutils.obj
 0001:0007806c       ??I@YA?AW4__acrt_fenv_machine_sse_control@@W40@0@Z 000000014007906c f i libucrt:_fenvutils.obj
 0001:00078074       ??I@YA?AW4__acrt_fenv_machine_sse_status@@W40@0@Z 0000000140079074 f i libucrt:_fenvutils.obj
 0001:0007807c       ??U@YA?AW4__acrt_fenv_abstract_control@@W40@0@Z 000000014007907c f i libucrt:_fenvutils.obj
 0001:00078084       ??U@YA?AW4__acrt_fenv_abstract_status@@W40@0@Z 0000000140079084 f i libucrt:_fenvutils.obj
 0001:0007808c       ??U@YA?AW4__acrt_fenv_machine_sse_control@@W40@0@Z 000000014007908c f i libucrt:_fenvutils.obj
 0001:00078094       ??_5@YAAEAW4__acrt_fenv_abstract_control@@AEAW40@W40@@Z 0000000140079094 f i libucrt:_fenvutils.obj
 0001:0007809c       ??_5@YAAEAW4__acrt_fenv_abstract_status@@AEAW40@W40@@Z 000000014007909c f i libucrt:_fenvutils.obj
 0001:000780a4       ??_5@YAAEAW4__acrt_fenv_machine_sse_control@@AEAW40@W40@@Z 00000001400790a4 f i libucrt:_fenvutils.obj
 0001:000780ac       ??_5@YAAEAW4__acrt_fenv_machine_sse_status@@AEAW40@W40@@Z 00000001400790ac f i libucrt:_fenvutils.obj
 0001:000780b4       ?__acrt_fenv_shift_abstract_sse_control@@YA?AW4__acrt_fenv_abstract_control@@W41@@Z 00000001400790b4 f i libucrt:_fenvutils.obj
 0001:000780d0       ?__acrt_fenv_shift_abstract_sse_status@@YA?AW4__acrt_fenv_abstract_status@@W41@@Z 00000001400790d0 f i libucrt:_fenvutils.obj
 0001:000780dc       ?__acrt_fenv_unshift_abstract_sse_control@@YA?AW4__acrt_fenv_abstract_control@@W41@@Z 00000001400790dc f i libucrt:_fenvutils.obj
 0001:000780f8       ?__acrt_fenv_unshift_abstract_sse_status@@YA?AW4__acrt_fenv_abstract_status@@W41@@Z 00000001400790f8 f i libucrt:_fenvutils.obj
 0001:00078460       __acrt_fenv_expand_round_control 0000000140079460 f   libucrt:_fenvutils.obj
 0001:00078480       __acrt_fenv_get_common_round_control 0000000140079480 f   libucrt:_fenvutils.obj
 0001:0007848c       __acrt_fenv_get_control    000000014007948c f   libucrt:_fenvutils.obj
 0001:000785a8       __acrt_fenv_get_fp_status_word_from_exception_mask 00000001400795a8 f   libucrt:_fenvutils.obj
 0001:000785b8       __acrt_fenv_get_status     00000001400795b8 f   libucrt:_fenvutils.obj
 0001:00078624       __acrt_fenv_set_control    0000000140079624 f   libucrt:_fenvutils.obj
 0001:000787a8       __acrt_fenv_set_status     00000001400797a8 f   libucrt:_fenvutils.obj
 0001:00078838       ?reset_and_return@__crt_mbstring@@YA_K_KPEAU_Mbstatet@@@Z 0000000140079838 f   libucrt:common_utf8.obj
 0001:00078844       ?return_illegal_sequence@__crt_mbstring@@YA_KPEAU_Mbstatet@@AEAV__crt_cached_ptd_host@@@Z 0000000140079844 f   libucrt:common_utf8.obj
 0001:00078c44       _mbstowcs_l                0000000140079c44 f   libucrt:mbstowcs.obj
 0001:00078d14       _mbstowcs_s_l              0000000140079d14 f   libucrt:mbstowcs.obj
 0001:00078df8       mbstowcs                   0000000140079df8 f   libucrt:mbstowcs.obj
 0001:00078eb8       mbstowcs_s                 0000000140079eb8 f   libucrt:mbstowcs.obj
 0001:00078f8c       __strncnt                  0000000140079f8c f   libucrt:strncnt.obj
 0001:00078fa8       __acrt_CompareStringW      0000000140079fa8 f   libucrt:comparestringw.obj
 0001:000794f8       __acrt_CompareStringA      000000014007a4f8 f   libucrt:comparestringa.obj
 0001:000795a4       __acrt_LCMapStringW        000000014007a5a4 f   libucrt:lcmapstringw.obj
 0001:000797a4       _clearfp                   000000014007a7a4 f   libucrt:ieee.obj
 0001:00079828       _control87                 000000014007a828 f   libucrt:ieee.obj
 0001:00079830       _controlfp                 000000014007a830 f   libucrt:ieee.obj
 0001:0007983c       _fpreset                   000000014007a83c f   libucrt:ieee.obj
 0001:00079930       _set_controlfp             000000014007a930 f   libucrt:ieee.obj
 0001:00079974       _statusfp                  000000014007a974 f   libucrt:ieee.obj
 0001:00079e94       _handle_error              000000014007ae94 f   libucrt:libm_error.obj
 0001:0007a004       _handle_errorf             000000014007b004 f   libucrt:libm_error.obj
 0001:0007a184       _handle_nan                000000014007b184 f   libucrt:libm_error.obj
 0001:0007a1a4       _handle_nanf               000000014007b1a4 f   libucrt:libm_error.obj
 0001:0007a1c0       __acrt_initialize_fma3     000000014007b1c0 f   libucrt:fma3_available.obj
 0001:0007a24c       _get_FMA3_enable           000000014007b24c f   libucrt:fma3_available.obj
 0001:0007a254       _set_FMA3_enable           000000014007b254 f   libucrt:fma3_available.obj
 0001:0007a270       _log10_special             000000014007b270 f   libucrt:log_special.obj
 0001:0007a298       _log10f_special            000000014007b298 f   libucrt:log_special.obj
 0001:0007a2c0       _log_special               000000014007b2c0 f   libucrt:log_special.obj
 0001:0007a3a4       _logf_special              000000014007b3a4 f   libucrt:log_special.obj
 0001:0007a4a0       _get_fpsr                  000000014007b4a0 f   libucrt:fpsr.obj
 0001:0007a4b0       _set_fpsr                  000000014007b4b0 f   libucrt:fpsr.obj
 0001:0007a4ba       _fclrf                     000000014007b4ba f   libucrt:fpsr.obj
 0001:0007a4ce       _frnd                      000000014007b4ce f   libucrt:fpsr.obj
 0001:0007a504       ?should_round_up@__crt_strtox@@YA_N_N000@Z 000000014007b504 f i libucrt:fpexcept.obj
 0001:0007a5ac       _errcode                   000000014007b5ac f   libucrt:fpexcept.obj
 0001:0007a600       _except1                   000000014007b600 f   libucrt:fpexcept.obj
 0001:0007a730       _except2                   000000014007b730 f   libucrt:fpexcept.obj
 0001:0007a8b8       _handle_exc                000000014007b8b8 f   libucrt:fpexcept.obj
 0001:0007ac6c       _handle_qnan2              000000014007bc6c f   libucrt:fpexcept.obj
 0001:0007ac74       _raise_exc                 000000014007bc74 f   libucrt:fpexcept.obj
 0001:0007aca4       _raise_exc_ex              000000014007bca4 f   libucrt:fpexcept.obj
 0001:0007b070       _raise_excf                000000014007c070 f   libucrt:fpexcept.obj
 0001:0007b0a4       _set_errno_from_matherr    000000014007c0a4 f   libucrt:fpexcept.obj
 0001:0007b0e0       _umatherr                  000000014007c0e0 f   libucrt:fpexcept.obj
 0001:0007b1e0       _clrfp                     000000014007c1e0 f   libucrt:fpctrl.obj
 0001:0007b204       _ctrlfp                    000000014007c204 f   libucrt:fpctrl.obj
 0001:0007b2a0       _set_statfp                000000014007c2a0 f   libucrt:fpctrl.obj
 0001:0007b2c8       _statfp                    000000014007c2c8 f   libucrt:fpctrl.obj
 0001:0007b2e0       _add_exp                   000000014007c2e0 f   libucrt:util.obj
 0001:0007b344       _decomp                    000000014007c344 f   libucrt:util.obj
 0001:0007b4c0       _get_exp                   000000014007c4c0 f   libucrt:util.obj
 0001:0007b4e4       _set_bexp                  000000014007c4e4 f   libucrt:util.obj
 0001:0007b520       _set_exp                   000000014007c520 f   libucrt:util.obj
 0001:0007b568       _sptype                    000000014007c568 f   libucrt:util.obj
 0001:0007b5fe       QueryPerformanceCounter    000000014007c5fe f   kernel32:KERNEL32.dll
 0001:0007b604       GetCurrentProcessId        000000014007c604 f   kernel32:KERNEL32.dll
 0001:0007b60a       GetCurrentThreadId         000000014007c60a f   kernel32:KERNEL32.dll
 0001:0007b610       GetSystemTimeAsFileTime    000000014007c610 f   kernel32:KERNEL32.dll
 0001:0007b616       InitializeSListHead        000000014007c616 f   kernel32:KERNEL32.dll
 0001:0007b61c       RtlCaptureContext          000000014007c61c f   kernel32:KERNEL32.dll
 0001:0007b622       RtlLookupFunctionEntry     000000014007c622 f   kernel32:KERNEL32.dll
 0001:0007b628       RtlVirtualUnwind           000000014007c628 f   kernel32:KERNEL32.dll
 0001:0007b62e       IsDebuggerPresent          000000014007c62e f   kernel32:KERNEL32.dll
 0001:0007b634       UnhandledExceptionFilter   000000014007c634 f   kernel32:KERNEL32.dll
 0001:0007b63a       SetUnhandledExceptionFilter 000000014007c63a f   kernel32:KERNEL32.dll
 0001:0007b640       GetStartupInfoW            000000014007c640 f   kernel32:KERNEL32.dll
 0001:0007b646       IsProcessorFeaturePresent  000000014007c646 f   kernel32:KERNEL32.dll
 0001:0007b64c       GetModuleHandleW           000000014007c64c f   kernel32:KERNEL32.dll
 0001:0007b652       RtlUnwindEx                000000014007c652 f   kernel32:KERNEL32.dll
 0001:0007b658       InterlockedPushEntrySList  000000014007c658 f   kernel32:KERNEL32.dll
 0001:0007b65e       InterlockedFlushSList      000000014007c65e f   kernel32:KERNEL32.dll
 0001:0007b664       GetLastError               000000014007c664 f   kernel32:KERNEL32.dll
 0001:0007b66a       SetLastError               000000014007c66a f   kernel32:KERNEL32.dll
 0001:0007b670       EnterCriticalSection       000000014007c670 f   kernel32:KERNEL32.dll
 0001:0007b676       LeaveCriticalSection       000000014007c676 f   kernel32:KERNEL32.dll
 0001:0007b67c       DeleteCriticalSection      000000014007c67c f   kernel32:KERNEL32.dll
 0001:0007b682       InitializeCriticalSectionAndSpinCount 000000014007c682 f   kernel32:KERNEL32.dll
 0001:0007b688       TlsAlloc                   000000014007c688 f   kernel32:KERNEL32.dll
 0001:0007b68e       TlsGetValue                000000014007c68e f   kernel32:KERNEL32.dll
 0001:0007b694       TlsSetValue                000000014007c694 f   kernel32:KERNEL32.dll
 0001:0007b69a       TlsFree                    000000014007c69a f   kernel32:KERNEL32.dll
 0001:0007b6a0       FreeLibrary                000000014007c6a0 f   kernel32:KERNEL32.dll
 0001:0007b6a6       GetProcAddress             000000014007c6a6 f   kernel32:KERNEL32.dll
 0001:0007b6ac       LoadLibraryExW             000000014007c6ac f   kernel32:KERNEL32.dll
 0001:0007b6b2       EncodePointer              000000014007c6b2 f   kernel32:KERNEL32.dll
 0001:0007b6b8       RaiseException             000000014007c6b8 f   kernel32:KERNEL32.dll
 0001:0007b6be       RtlPcToFileHeader          000000014007c6be f   kernel32:KERNEL32.dll
 0001:0007b6c4       ReadFile                   000000014007c6c4 f   kernel32:KERNEL32.dll
 0001:0007b6ca       GetCurrentProcess          000000014007c6ca f   kernel32:KERNEL32.dll
 0001:0007b6d0       ExitProcess                000000014007c6d0 f   kernel32:KERNEL32.dll
 0001:0007b6d6       TerminateProcess           000000014007c6d6 f   kernel32:KERNEL32.dll
 0001:0007b6dc       GetModuleHandleExW         000000014007c6dc f   kernel32:KERNEL32.dll
 0001:0007b6e2       GetStdHandle               000000014007c6e2 f   kernel32:KERNEL32.dll
 0001:0007b6e8       WriteFile                  000000014007c6e8 f   kernel32:KERNEL32.dll
 0001:0007b6ee       GetModuleFileNameW         000000014007c6ee f   kernel32:KERNEL32.dll
 0001:0007b6f4       GetCommandLineA            000000014007c6f4 f   kernel32:KERNEL32.dll
 0001:0007b6fa       GetCommandLineW            000000014007c6fa f   kernel32:KERNEL32.dll
 0001:0007b700       HeapAlloc                  000000014007c700 f   kernel32:KERNEL32.dll
 0001:0007b706       HeapFree                   000000014007c706 f   kernel32:KERNEL32.dll
 0001:0007b70c       GetTempPathW               000000014007c70c f   kernel32:KERNEL32.dll
 0001:0007b712       FlsAlloc                   000000014007c712 f   kernel32:KERNEL32.dll
 0001:0007b718       FlsGetValue                000000014007c718 f   kernel32:KERNEL32.dll
 0001:0007b71e       FlsSetValue                000000014007c71e f   kernel32:KERNEL32.dll
 0001:0007b724       FlsFree                    000000014007c724 f   kernel32:KERNEL32.dll
 0001:0007b72a       GetDateFormatW             000000014007c72a f   kernel32:KERNEL32.dll
 0001:0007b730       GetTimeFormatW             000000014007c730 f   kernel32:KERNEL32.dll
 0001:0007b736       CompareStringW             000000014007c736 f   kernel32:KERNEL32.dll
 0001:0007b73c       LCMapStringW               000000014007c73c f   kernel32:KERNEL32.dll
 0001:0007b742       GetLocaleInfoW             000000014007c742 f   kernel32:KERNEL32.dll
 0001:0007b748       IsValidLocale              000000014007c748 f   kernel32:KERNEL32.dll
 0001:0007b74e       GetUserDefaultLCID         000000014007c74e f   kernel32:KERNEL32.dll
 0001:0007b754       EnumSystemLocalesW         000000014007c754 f   kernel32:KERNEL32.dll
 0001:0007b75a       GetFileType                000000014007c75a f   kernel32:KERNEL32.dll
 0001:0007b760       CloseHandle                000000014007c760 f   kernel32:KERNEL32.dll
 0001:0007b766       GetCurrentThread           000000014007c766 f   kernel32:KERNEL32.dll
 0001:0007b76c       GetConsoleMode             000000014007c76c f   kernel32:KERNEL32.dll
 0001:0007b772       ReadConsoleW               000000014007c772 f   kernel32:KERNEL32.dll
 0001:0007b778       SetFilePointerEx           000000014007c778 f   kernel32:KERNEL32.dll
 0001:0007b77e       GetConsoleOutputCP         000000014007c77e f   kernel32:KERNEL32.dll
 0001:0007b784       GetFileSizeEx              000000014007c784 f   kernel32:KERNEL32.dll
 0001:0007b78a       OutputDebugStringW         000000014007c78a f   kernel32:KERNEL32.dll
 0001:0007b790       FindClose                  000000014007c790 f   kernel32:KERNEL32.dll
 0001:0007b796       FindFirstFileExW           000000014007c796 f   kernel32:KERNEL32.dll
 0001:0007b79c       FindNextFileW              000000014007c79c f   kernel32:KERNEL32.dll
 0001:0007b7a2       IsValidCodePage            000000014007c7a2 f   kernel32:KERNEL32.dll
 0001:0007b7a8       GetACP                     000000014007c7a8 f   kernel32:KERNEL32.dll
 0001:0007b7ae       GetOEMCP                   000000014007c7ae f   kernel32:KERNEL32.dll
 0001:0007b7b4       GetCPInfo                  000000014007c7b4 f   kernel32:KERNEL32.dll
 0001:0007b7ba       MultiByteToWideChar        000000014007c7ba f   kernel32:KERNEL32.dll
 0001:0007b7c0       WideCharToMultiByte        000000014007c7c0 f   kernel32:KERNEL32.dll
 0001:0007b7c6       GetEnvironmentStringsW     000000014007c7c6 f   kernel32:KERNEL32.dll
 0001:0007b7cc       FreeEnvironmentStringsW    000000014007c7cc f   kernel32:KERNEL32.dll
 0001:0007b7d2       SetEnvironmentVariableW    000000014007c7d2 f   kernel32:KERNEL32.dll
 0001:0007b7d8       SetStdHandle               000000014007c7d8 f   kernel32:KERNEL32.dll
 0001:0007b7de       GetStringTypeW             000000014007c7de f   kernel32:KERNEL32.dll
 0001:0007b7e4       GetProcessHeap             000000014007c7e4 f   kernel32:KERNEL32.dll
 0001:0007b7ea       SetConsoleCtrlHandler      000000014007c7ea f   kernel32:KERNEL32.dll
 0001:0007b7f0       FlushFileBuffers           000000014007c7f0 f   kernel32:KERNEL32.dll
 0001:0007b7f6       CreateFileW                000000014007c7f6 f   kernel32:KERNEL32.dll
 0001:0007b7fc       HeapSize                   000000014007c7fc f   kernel32:KERNEL32.dll
 0001:0007b802       HeapReAlloc                000000014007c802 f   kernel32:KERNEL32.dll
 0001:0007b808       SetEndOfFile               000000014007c808 f   kernel32:KERNEL32.dll
 0001:0007b80e       WriteConsoleW              000000014007c80e f   kernel32:KERNEL32.dll
 0001:0007b820       _FindPESection             000000014007c820 f   LIBCMT:pesect.obj
 0001:0007b880       _IsNonwritableInCurrentImage 000000014007c880 f   LIBCMT:pesect.obj
 0001:0007b8e0       _ValidateImageBase         000000014007c8e0 f   LIBCMT:pesect.obj
 0001:0007b918       ??1type_info@@UEAA@XZ      000000014007c918 f   LIBCMT:std_type_info_static.obj
 0001:0007b928       ??_Etype_info@@UEAAPEAXI@Z 000000014007c928 f i LIBCMT:std_type_info_static.obj
 0001:0007b928       ??_Gtype_info@@UEAAPEAXI@Z 000000014007c928 f i LIBCMT:std_type_info_static.obj
 0001:0007b960       __GSHandlerCheck           000000014007c960 f   LIBCMT:gshandler.obj
 0001:0007b984       __GSHandlerCheckCommon     000000014007c984 f   LIBCMT:gshandler.obj
 0001:0007ba10       __security_check_cookie    000000014007ca10 f   LIBCMT:amdsecgs.obj
 0001:0007ba3c       ??3@YAXPEAX_K@Z            000000014007ca3c f   LIBCMT:delete_scalar_size.obj
 0001:0007ba44       __GSHandlerCheck_SEH       000000014007ca44 f   LIBCMT:gshandlerseh.obj
 0001:0007bb00       __chkstk                   000000014007cb00 f   LIBCMT:chkstk.obj
 0001:0007bb00       _alloca_probe              000000014007cb00 f   LIBCMT:chkstk.obj
 0001:0007bb68       __raise_securityfailure    000000014007cb68 f   LIBCMT:gs_report.obj
 0001:0007bbac       __report_gsfailure         000000014007cbac f   LIBCMT:gs_report.obj
 0001:0007bcb4       __report_rangecheckfailure 000000014007ccb4 f   LIBCMT:gs_report.obj
 0001:0007bcd0       __report_securityfailure   000000014007ccd0 f   LIBCMT:gs_report.obj
 0001:0007bd94       __report_securityfailureEx 000000014007cd94 f   LIBCMT:gs_report.obj
 0001:0007c000       __GSHandlerCheck_EH        000000014007d000 f   LIBCMT:gshandlereh.obj
 0001:0007c0a0       ??3@YAXPEAX@Z              000000014007d0a0 f   LIBCMT:delete_scalar.obj
 0001:0007c0a8       __C_specific_handler_noexcept 000000014007d0a8 f   libvcruntime:chandler_noexcept.obj
 0001:0007c110       strrchr                    000000014007d110 f   libvcruntime:strrchr.obj
 0001:0007c298       _local_unwind              000000014007d298 f   libvcruntime:jmpuwind.obj
 0001:0007c2cc       strchr                     000000014007d2cc f   libvcruntime:strchr.obj
 0001:0007c368       wcschr                     000000014007d368 f   libvcruntime:wcschr.obj
 0001:0007c3fe       RtlUnwind                  000000014007d3fe f   kernel32:KERNEL32.dll
 0001:0007f9c0       _guard_dispatch_icall_nop  00000001400809c0 f   LIBCMT:guard_dispatch.obj
 0001:0007f9e0       _guard_xfg_dispatch_icall_nop 00000001400809e0 f   LIBCMT:guard_xfg_dispatch.obj
 0001:00080a20       memset_repstos             0000000140081a20 f   libvcruntime:memset.obj
 0001:00080a40       memset                     0000000140081a40 f   libvcruntime:memset.obj
 0001:00080ee0       memcpy_repmovs             0000000140081ee0 f   libvcruntime:memcpy.obj
 0001:00080f00       memcpy                     0000000140081f00 f   libvcruntime:memcpy.obj
 0001:00080f00       memcpy_$fo_default$        0000000140081f00     libvcruntime:memcpy.obj
 0001:00080f00       memmove                    0000000140081f00 f   libvcruntime:memcpy.obj
 0001:00081730       memcmp                     0000000140082730 f   libvcruntime:memcmp.obj
 0002:00000000       __xc_a                     0000000140086000     LIBCMT:initializers.obj
 0002:00000220       __xc_z                     0000000140086220     LIBCMT:initializers.obj
 0002:00000330       __xi_a                     0000000140086330     LIBCMT:initializers.obj
 0002:00000660       __acrt_stdio_initializer   0000000140086660     libucrt:stdio_initializer.obj
 0002:00000670       __acrt_multibyte_initializer 0000000140086670     libucrt:multibyte_initializer.obj
 0002:00000680       __acrt_fmode_initializer   0000000140086680     libucrt:fmode_initializer.obj
 0002:00000690       __acrt_tran_fma3_initializer 0000000140086690     libucrt:fma3_initializer.obj
 0002:000007a0       __xi_z                     00000001400867a0     LIBCMT:initializers.obj
 0002:000008b0       __xp_a                     00000001400868b0     LIBCMT:initializers.obj
 0002:000009c0       __acrt_locale_terminator   00000001400869c0     libucrt:locale_initializer.obj
 0002:000009d0       __dcrt_console_output_terminator 00000001400869d0     libucrt:console_output_initializer.obj
 0002:00000ae0       __acrt_stdio_terminator    0000000140086ae0     libucrt:stdio_initializer.obj
 0002:00000bf0       __xp_z                     0000000140086bf0     LIBCMT:initializers.obj
 0002:00000d00       __xt_a                     0000000140086d00     LIBCMT:initializers.obj
 0002:00000e10       __xt_z                     0000000140086e10     LIBCMT:initializers.obj
 0002:00000f20       __xmm@ffffffffffffffffffffffffffffffff 0000000140086f20     LIBCMT:utility.obj
 0002:00000f38       _pDestructExceptionObject  0000000140086f38     libvcruntime:ehhelpers.obj
 0002:000017d0       ??_C@_08EHJDFFNH@__based?$CI@ 00000001400877d0     libvcruntime:undname.obj
 0002:000017e0       ??_C@_07KOLFKCDI@__cdecl@  00000001400877e0     libvcruntime:undname.obj
 0002:000017f0       ??_C@_08GHMPAG@__pascal@   00000001400877f0     libvcruntime:undname.obj
 0002:00001800       ??_C@_09IFJBGAPI@__stdcall@ 0000000140087800     libvcruntime:undname.obj
 0002:00001810       ??_C@_0L@NPHFGOKO@__thiscall@ 0000000140087810     libvcruntime:undname.obj
 0002:00001820       ??_C@_0L@JMKHOMEK@__fastcall@ 0000000140087820     libvcruntime:undname.obj
 0002:00001830       ??_C@_0N@BCKKPABJ@__vectorcall@ 0000000140087830     libvcruntime:undname.obj
 0002:00001840       ??_C@_09HIJEGCPM@__clrcall@ 0000000140087840     libvcruntime:undname.obj
 0002:0000184c       ??_C@_06GHPCKEAG@__eabi@   000000014008784c     libvcruntime:undname.obj
 0002:00001858       ??_C@_09IOPIDJLG@__swift_1@ 0000000140087858     libvcruntime:undname.obj
 0002:00001868       ??_C@_09KFNFGKHF@__swift_2@ 0000000140087868     libvcruntime:undname.obj
 0002:00001878       ??_C@_09LMMOFLDE@__swift_3@ 0000000140087878     libvcruntime:undname.obj
 0002:00001888       ??_C@_07JOMMBBKO@__ptr64@  0000000140087888     libvcruntime:undname.obj
 0002:00001898       ??_C@_0L@PILCLIHE@__restrict@ 0000000140087898     libvcruntime:undname.obj
 0002:000018a8       ??_C@_0M@GFIIJFMG@__unaligned@ 00000001400878a8     libvcruntime:undname.obj
 0002:000018b8       ??_C@_09DHDLOLLB@restrict?$CI@ 00000001400878b8     libvcruntime:undname.obj
 0002:000018c4       ??_C@_00CNPNBAHC@@         00000001400878c4     libvcruntime:undname.obj
 0002:000018c8       ??_C@_04NIHEBCM@?5new@     00000001400878c8     libvcruntime:undname.obj
 0002:000018d0       ??_C@_07FPCDHGMM@?5delete@ 00000001400878d0     libvcruntime:undname.obj
 0002:000018dc       ??_C@_01NEMOKFLO@?$DN@     00000001400878dc     libvcruntime:undname.obj
 0002:000018e0       ??_C@_02GPIOPFAK@?$DO?$DO@ 00000001400878e0     libvcruntime:undname.obj
 0002:000018e4       ??_C@_02FODMEDOG@?$DM?$DM@ 00000001400878e4     libvcruntime:undname.obj
 0002:000018e8       ??_C@_01DCLJPIOD@?$CB@     00000001400878e8     libvcruntime:undname.obj
 0002:000018ec       ??_C@_02EGOFBIJA@?$DN?$DN@ 00000001400878ec     libvcruntime:undname.obj
 0002:000018f0       ??_C@_02FDNJECIE@?$CB?$DN@ 00000001400878f0     libvcruntime:undname.obj
 0002:000018f4       ??_C@_02GPECMEKF@?$FL?$FN@ 00000001400878f4     libvcruntime:undname.obj
 0002:000018f8       ??_C@_08LHJFAFGD@operator@ 00000001400878f8     libvcruntime:undname.obj
 0002:00001904       ??_C@_02HBOOOICD@?9?$DO@   0000000140087904     libvcruntime:undname.obj
 0002:00001908       ??_C@_01NBENCBCI@?$CK@     0000000140087908     libvcruntime:undname.obj
 0002:0000190c       ??_C@_02ECNGHCIF@?$CL?$CL@ 000000014008790c     libvcruntime:undname.obj
 0002:00001910       ??_C@_02BAABKJLB@?9?9@     0000000140087910     libvcruntime:undname.obj
 0002:00001914       ??_C@_01JOAMLHOP@?9@       0000000140087914     libvcruntime:undname.obj
 0002:00001918       ??_C@_01MIFGBAGJ@?$CL@     0000000140087918     libvcruntime:undname.obj
 0002:0000191c       ??_C@_01HNPIGOCE@?$CG@     000000014008791c     libvcruntime:undname.obj
 0002:00001920       ??_C@_03MNHNFDLC@?9?$DO?$CK@ 0000000140087920     libvcruntime:undname.obj
 0002:00001924       ??_C@_01KMDKNFGN@?1@       0000000140087924     libvcruntime:undname.obj
 0002:00001928       ??_C@_01FGNFDNOH@?$CF@     0000000140087928     libvcruntime:undname.obj
 0002:0000192c       ??_C@_01MNNFJEPP@?$DM@     000000014008792c     libvcruntime:undname.obj
 0002:00001930       ??_C@_02EHCHHCKH@?$DM?$DN@ 0000000140087930     libvcruntime:undname.obj
 0002:00001934       ??_C@_01PPODPGHN@?$DO@     0000000140087934     libvcruntime:undname.obj
 0002:00001938       ??_C@_02EEKDKGMJ@?$DO?$DN@ 0000000140087938     libvcruntime:undname.obj
 0002:0000193c       ??_C@_01IHBHIGKO@?0@       000000014008793c     libvcruntime:undname.obj
 0002:00001940       ??_C@_02HCKGKOFO@?$CI?$CJ@ 0000000140087940     libvcruntime:undname.obj
 0002:00001944       ??_C@_01PJKLJHI@?$HO@      0000000140087944     libvcruntime:undname.obj
 0002:00001948       ??_C@_01JKBOJNNK@?$FO@     0000000140087948     libvcruntime:undname.obj
 0002:0000194c       ??_C@_01DNKMNLPK@?$HM@     000000014008794c     libvcruntime:undname.obj
 0002:00001950       ??_C@_02PPKAJPJL@?$CG?$CG@ 0000000140087950     libvcruntime:undname.obj
 0002:00001954       ??_C@_02NONPIBCD@?$HM?$HM@ 0000000140087954     libvcruntime:undname.obj
 0002:00001958       ??_C@_02FPIMKNGF@?$CK?$DN@ 0000000140087958     libvcruntime:undname.obj
 0002:0000195c       ??_C@_02FOEOMHFC@?$CL?$DN@ 000000014008795c     libvcruntime:undname.obj
 0002:00001960       ??_C@_02FKMDLLOA@?9?$DN@   0000000140087960     libvcruntime:undname.obj
 0002:00001964       ??_C@_02FJEHGPIO@?1?$DN@   0000000140087964     libvcruntime:undname.obj
 0002:00001968       ??_C@_02FENAOKFI@?$CF?$DN@ 0000000140087968     libvcruntime:undname.obj
 0002:0000196c       ??_C@_03IKFCCPFF@?$DO?$DO?$DN@ 000000014008796c     libvcruntime:undname.obj
 0002:00001970       ??_C@_03CDNPDDLA@?$DM?$DM?$DN@ 0000000140087970     libvcruntime:undname.obj
 0002:00001974       ??_C@_02FGJGFEAB@?$CG?$DN@ 0000000140087974     libvcruntime:undname.obj
 0002:00001978       ??_C@_02DHLNPPGH@?$HM?$DN@ 0000000140087978     libvcruntime:undname.obj
 0002:0000197c       ??_C@_02MHEGNOJ@?$FO?$DN@  000000014008797c     libvcruntime:undname.obj
 0002:00001980       ??_C@_09IFPLHPGF@?$GAvftable?8@ 0000000140087980     libvcruntime:undname.obj
 0002:00001990       ??_C@_09BLBHBJP@?$GAvbtable?8@ 0000000140087990     libvcruntime:undname.obj
 0002:000019a0       ??_C@_07FEEIOKP@?$GAvcall?8@ 00000001400879a0     libvcruntime:undname.obj
 0002:000019b0       ??_C@_08LLFFHHDJ@?$GAtypeof?8@ 00000001400879b0     libvcruntime:undname.obj
 0002:000019c0       ??_C@_0BF@KDPPACIK@?$GAlocal?5static?5guard?8@ 00000001400879c0     libvcruntime:undname.obj
 0002:000019e0       ??_C@_08OBABFOLI@?$GAstring?8@ 00000001400879e0     libvcruntime:undname.obj
 0002:000019f0       ??_C@_0BD@JDLKDPAB@?$GAvbase?5destructor?8@ 00000001400879f0     libvcruntime:undname.obj
 0002:00001a08       ??_C@_0BN@DEGPLNFK@?$GAvector?5deleting?5destructor?8@ 0000000140087a08     libvcruntime:undname.obj
 0002:00001a30       ??_C@_0BO@OBMKPJIG@?$GAdefault?5constructor?5closure?8@ 0000000140087a30     libvcruntime:undname.obj
 0002:00001a58       ??_C@_0BN@IMDCHIKM@?$GAscalar?5deleting?5destructor?8@ 0000000140087a58     libvcruntime:undname.obj
 0002:00001a80       ??_C@_0BO@PFGOCPJJ@?$GAvector?5constructor?5iterator?8@ 0000000140087a80     libvcruntime:undname.obj
 0002:00001aa8       ??_C@_0BN@LFPFMEDL@?$GAvector?5destructor?5iterator?8@ 0000000140087aa8     libvcruntime:undname.obj
 0002:00001ad0       ??_C@_0CE@IKBNEHA@?$GAvector?5vbase?5constructor?5itera@ 0000000140087ad0     libvcruntime:undname.obj
 0002:00001b00       ??_C@_0BL@NILFHHPC@?$GAvirtual?5displacement?5map?8@ 0000000140087b00     libvcruntime:undname.obj
 0002:00001b20       ??_C@_0CB@JONCMFFK@?$GAeh?5vector?5constructor?5iterator@ 0000000140087b20     libvcruntime:undname.obj
 0002:00001b48       ??_C@_0CA@GCEOPDGL@?$GAeh?5vector?5destructor?5iterator?8@ 0000000140087b48     libvcruntime:undname.obj
 0002:00001b70       ??_C@_0CH@OOJPLCPH@?$GAeh?5vector?5vbase?5constructor?5it@ 0000000140087b70     libvcruntime:undname.obj
 0002:00001ba0       ??_C@_0BL@LLKPOHJI@?$GAcopy?5constructor?5closure?8@ 0000000140087ba0     libvcruntime:undname.obj
 0002:00001bc0       ??_C@_0BA@KBCDOMBN@?$GAudt?5returning?8@ 0000000140087bc0     libvcruntime:undname.obj
 0002:00001bd4       ??_C@_03KLGMFNMG@?$GAEH@   0000000140087bd4     libvcruntime:undname.obj
 0002:00001bd8       ??_C@_05KHLCHHI@?$GARTTI@  0000000140087bd8     libvcruntime:undname.obj
 0002:00001be0       ??_C@_0BA@KKLDJDLB@?$GAlocal?5vftable?8@ 0000000140087be0     libvcruntime:undname.obj
 0002:00001bf8       ??_C@_0CE@IIHCMGGL@?$GAlocal?5vftable?5constructor?5clos@ 0000000140087bf8     libvcruntime:undname.obj
 0002:00001c24       ??_C@_06FHBGPFGH@?5new?$FL?$FN@ 0000000140087c24     libvcruntime:undname.obj
 0002:00001c30       ??_C@_09LBNFPBCA@?5delete?$FL?$FN@ 0000000140087c30     libvcruntime:undname.obj
 0002:00001c40       ??_C@_0P@HJKNJFNN@?$GAomni?5callsig?8@ 0000000140087c40     libvcruntime:undname.obj
 0002:00001c58       ??_C@_0BL@CNOONJFP@?$GAplacement?5delete?5closure?8@ 0000000140087c58     libvcruntime:undname.obj
 0002:00001c78       ??_C@_0BN@CKNJLHMB@?$GAplacement?5delete?$FL?$FN?5closure?8@ 0000000140087c78     libvcruntime:undname.obj
 0002:00001ca0       ??_C@_0CG@CFDHKGGD@?$GAmanaged?5vector?5constructor?5ite@ 0000000140087ca0     libvcruntime:undname.obj
 0002:00001cd0       ??_C@_0CF@IMGKMJNO@?$GAmanaged?5vector?5destructor?5iter@ 0000000140087cd0     libvcruntime:undname.obj
 0002:00001d00       ??_C@_0CG@HLDDJMAG@?$GAeh?5vector?5copy?5constructor?5ite@ 0000000140087d00     libvcruntime:undname.obj
 0002:00001d30       ??_C@_0CM@FCBBDIGB@?$GAeh?5vector?5vbase?5copy?5construct@ 0000000140087d30     libvcruntime:undname.obj
 0002:00001d68       ??_C@_0BL@CLIPGLGB@?$GAdynamic?5initializer?5for?5?8@ 0000000140087d68     libvcruntime:undname.obj
 0002:00001d88       ??_C@_0CB@PDBIFEP@?$GAdynamic?5atexit?5destructor?5for?5@ 0000000140087d88     libvcruntime:undname.obj
 0002:00001db0       ??_C@_0CD@CGAJBKEJ@?$GAvector?5copy?5constructor?5iterat@ 0000000140087db0     libvcruntime:undname.obj
 0002:00001de0       ??_C@_0CJ@GJELGAMM@?$GAvector?5vbase?5copy?5constructor?5@ 0000000140087de0     libvcruntime:undname.obj
 0002:00001e18       ??_C@_0CL@FGIJHLCE@?$GAmanaged?5vector?5copy?5constructo@ 0000000140087e18     libvcruntime:undname.obj
 0002:00001e50       ??_C@_0BM@PMGGMLDN@?$GAlocal?5static?5thread?5guard?8@ 0000000140087e50     libvcruntime:undname.obj
 0002:00001e78       ??_C@_0N@BDNMDMOL@operator?5?$CC?$CC?5@ 0000000140087e78     libvcruntime:undname.obj
 0002:00001e88       ??_C@_0BC@GGEBGALA@operator?5co_await@ 0000000140087e88     libvcruntime:undname.obj
 0002:00001ea0       ??_C@_0M@GAAIMMOH@operator?$DM?$DN?$DO@ 0000000140087ea0     libvcruntime:undname.obj
 0002:00001eb0       ??_C@_0BC@DAFEJGAK@?5Type?5Descriptor?8@ 0000000140087eb0     libvcruntime:undname.obj
 0002:00001ec8       ??_C@_0BM@LDKODKLH@?5Base?5Class?5Descriptor?5at?5?$CI@ 0000000140087ec8     libvcruntime:undname.obj
 0002:00001ef0       ??_C@_0BD@LGICGFMM@?5Base?5Class?5Array?8@ 0000000140087ef0     libvcruntime:undname.obj
 0002:00001f08       ??_C@_0BN@MECKDCOJ@?5Class?5Hierarchy?5Descriptor?8@ 0000000140087f08     libvcruntime:undname.obj
 0002:00001f30       ??_C@_0BK@CFCOFLF@?5Complete?5Object?5Locator?8@ 0000000140087f30     libvcruntime:undname.obj
 0002:00001f50       ??_C@_0BG@JNJLAMPM@?$GAanonymous?5namespace?8@ 0000000140087f50     libvcruntime:undname.obj
 0002:00001f6c       ??_C@_04HEJADOOB@CV?3?5@   0000000140087f6c     libvcruntime:undname.obj
 0002:00001f74       ??_C@_02MOLJINC@?3?3@      0000000140087f74     libvcruntime:undname.obj
 0002:00001f78       ??_C@_0BE@JAEOCHPE@template?9parameter?9@ 0000000140087f78     libvcruntime:undname.obj
 0002:00001f90       ??_C@_0BF@LNLGBBNL@?$GAtemplate?9parameter?9@ 0000000140087f90     libvcruntime:undname.obj
 0002:00001fb0       ??_C@_0O@KHGCOMHP@generic?9type?9@ 0000000140087fb0     libvcruntime:undname.obj
 0002:00001fc0       ??_C@_0P@ODDENDLM@?$GAgeneric?9type?9@ 0000000140087fc0     libvcruntime:undname.obj
 0002:00001fd4       ??_C@_02OHHJMEON@?8?8@     0000000140087fd4     libvcruntime:undname.obj
 0002:00001fd8       ??_C@_0BN@IBLMMFAP@?$GAnon?9type?9template?9parameter@ 0000000140087fd8     libvcruntime:undname.obj
 0002:00001ffc       ??_C@_03DLDNIBIK@?$CFlf@   0000000140087ffc     libvcruntime:undname.obj
 0002:00002000       ??_C@_04OFALKAJ@?$DP?$DP_C@ 0000000140088000     libvcruntime:undname.obj
 0002:00002008       ??_C@_03KHICJKCI@?4?4?4@   0000000140088008     libvcruntime:undname.obj
 0002:0000200c       ??_C@_04HIBGFPH@NULL@      000000014008800c     libvcruntime:undname.obj
 0002:00002014       ??_C@_02DPKJAMEF@?$CFd@    0000000140088014     libvcruntime:undname.obj
 0002:00002018       ??_C@_0BK@IHCCFNEL@?$GAtemplate?9type?9parameter?9@ 0000000140088018     libvcruntime:undname.obj
 0002:00002038       ??_C@_0BK@OFCNNNKO@?$GAgeneric?9class?9parameter?9@ 0000000140088038     libvcruntime:undname.obj
 0002:00002058       ??_C@_0BL@NGJBLFIL@?$GAgeneric?9method?9parameter?9@ 0000000140088058     libvcruntime:undname.obj
 0002:00002078       ??_C@_07OHNGEDJK@nullptr@  0000000140088078     libvcruntime:undname.obj
 0002:00002084       ??_C@_06COJIGPIB@lambda@   0000000140088084     libvcruntime:undname.obj
 0002:0000208c       ??_C@_04GKJNKENE@void@     000000014008808c     libvcruntime:undname.obj
 0002:00002098       ??_C@_0BE@EODMJLIF@?$GAtemplate?9parameter@ 0000000140088098     libvcruntime:undname.obj
 0002:000020b0       ??_C@_03OPGICMGF@?$HN?8?5@ 00000001400880b0     libvcruntime:undname.obj
 0002:000020b4       ??_C@_02IGFCGPIL@?$HN?8@   00000001400880b4     libvcruntime:undname.obj
 0002:000020b8       ??_C@_0N@CBHHHENL@?$GAvtordispex?$HL@ 00000001400880b8     libvcruntime:undname.obj
 0002:000020c8       ??_C@_0L@GHPFDFH@?$GAvtordisp?$HL@ 00000001400880c8     libvcruntime:undname.obj
 0002:000020d8       ??_C@_0L@HNGCOGAE@?$GAadjustor?$HL@ 00000001400880d8     libvcruntime:undname.obj
 0002:000020e8       ??_C@_0CB@KJDOOODE@?$GAlocal?5static?5destructor?5helper@ 00000001400880e8     libvcruntime:undname.obj
 0002:00002110       ??_C@_0DB@ILEFOCIJ@?$GAtemplate?5static?5data?5member?5co@ 0000000140088110     libvcruntime:undname.obj
 0002:00002150       ??_C@_0DA@HGFJFBBE@?$GAtemplate?5static?5data?5member?5de@ 0000000140088150     libvcruntime:undname.obj
 0002:00002190       ??_C@_07PGOEDBHP@static?5@ 0000000140088190     libvcruntime:undname.obj
 0002:000021a0       ??_C@_08NIEOINHE@virtual?5@ 00000001400881a0     libvcruntime:undname.obj
 0002:000021b0       ??_C@_09LAPHOOG@private?3?5@ 00000001400881b0     libvcruntime:undname.obj
 0002:000021c0       ??_C@_0M@GAIFPFIP@protected?3?5@ 00000001400881c0     libvcruntime:undname.obj
 0002:000021d0       ??_C@_08GPDDCMKI@public?3?5@ 00000001400881d0     libvcruntime:undname.obj
 0002:000021e0       ??_C@_08KJLFOPNE@?$FLthunk?$FN?3@ 00000001400881e0     libvcruntime:undname.obj
 0002:000021f0       ??_C@_0M@DHNBOJMP@extern?5?$CCC?$CC?5@ 00000001400881f0     libvcruntime:undname.obj
 0002:00002200       ??_C@_02KCKGHPCA@?$CJ?5@   0000000140088200     libvcruntime:undname.obj
 0002:00002204       ??_C@_05CIHEBHNO@char?5@   0000000140088204     libvcruntime:undname.obj
 0002:0000220c       ??_C@_06EHJMALKF@short?5@  000000014008820c     libvcruntime:undname.obj
 0002:00002214       ??_C@_04LAHKHJMA@int?5@    0000000140088214     libvcruntime:undname.obj
 0002:0000221c       ??_C@_05CJIMAING@long?5@   000000014008821c     libvcruntime:undname.obj
 0002:00002228       ??_C@_09EBBEKKIH@unsigned?5@ 0000000140088228     libvcruntime:undname.obj
 0002:00002234       ??_C@_05BEFAKPML@void?5@   0000000140088234     libvcruntime:undname.obj
 0002:00002240       ??_C@_09GAIEOBLP@volatile?5@ 0000000140088240     libvcruntime:undname.obj
 0002:00002250       ??_C@_08PABEKFH@volatile@  0000000140088250     libvcruntime:undname.obj
 0002:00002260       ??_C@_0BA@LKIJLKPP@std?3?3nullptr_t?5@ 0000000140088260     libvcruntime:undname.obj
 0002:00002278       ??_C@_0P@GCOCNKDM@std?3?3nullptr_t@ 0000000140088278     libvcruntime:undname.obj
 0002:00002290       ??_C@_0L@EGPHHEKN@?$DMellipsis?$DO@ 0000000140088290     libvcruntime:undname.obj
 0002:000022a0       ??_C@_04EENFHACM@?0?4?4?4@ 00000001400882a0     libvcruntime:undname.obj
 0002:000022a8       ??_C@_0M@ELJOJFFH@?0?$DMellipsis?$DO@ 00000001400882a8     libvcruntime:undname.obj
 0002:000022b8       ??_C@_09DNHFEOJI@?5noexcept@ 00000001400882b8     libvcruntime:undname.obj
 0002:000022c4       ??_C@_03PBJBJNON@cpu@      00000001400882c4     libvcruntime:undname.obj
 0002:000022c8       ??_C@_03DCBBJBAA@amp@      00000001400882c8     libvcruntime:undname.obj
 0002:000022cc       ??_C@_02KEGNLNML@?0?5@     00000001400882cc     libvcruntime:undname.obj
 0002:000022d0       ??_C@_04ENMBGAPA@char@     00000001400882d0     libvcruntime:undname.obj
 0002:000022d8       ??_C@_05BFKKPKCG@short@    00000001400882d8     libvcruntime:undname.obj
 0002:000022e0       ??_C@_03JBIPMCLC@int@      00000001400882e0     libvcruntime:undname.obj
 0002:000022e4       ??_C@_04GOKPGOLB@long@     00000001400882e4     libvcruntime:undname.obj
 0002:000022ec       ??_C@_05KNFBNCOH@float@    00000001400882ec     libvcruntime:undname.obj
 0002:000022f4       ??_C@_06BNJCAIGJ@double@   00000001400882f4     libvcruntime:undname.obj
 0002:000022fc       ??_C@_04DDKJGDCM@bool@     00000001400882fc     libvcruntime:undname.obj
 0002:00002304       ??_C@_06EBGKOKIG@__int8@   0000000140088304     libvcruntime:undname.obj
 0002:00002310       ??_C@_07ICFHOGAF@__int16@  0000000140088310     libvcruntime:undname.obj
 0002:00002320       ??_C@_07OFLPPHGP@__int32@  0000000140088320     libvcruntime:undname.obj
 0002:00002330       ??_C@_07LFCOJCAC@__int64@  0000000140088330     libvcruntime:undname.obj
 0002:00002340       ??_C@_08GAHOLHEO@__int128@ 0000000140088340     libvcruntime:undname.obj
 0002:00002350       ??_C@_09EEKGDCPH@?$DMunknown?$DO@ 0000000140088350     libvcruntime:undname.obj
 0002:00002360       ??_C@_07CFHGOPCN@char8_t@  0000000140088360     libvcruntime:undname.obj
 0002:00002370       ??_C@_08HBIPOFJB@char16_t@ 0000000140088370     libvcruntime:undname.obj
 0002:00002380       ??_C@_08IECNCBKG@char32_t@ 0000000140088380     libvcruntime:undname.obj
 0002:00002390       ??_C@_07CLGGIAMF@wchar_t@  0000000140088390     libvcruntime:undname.obj
 0002:0000239c       ??_C@_04HAPDLBFF@auto@     000000014008839c     libvcruntime:undname.obj
 0002:000023a8       ??_C@_0P@LHCGKIGK@decltype?$CIauto?$CJ@ 00000001400883a8     libvcruntime:undname.obj
 0002:000023bc       ??_C@_05PCNBGHCF@this?5@   00000001400883bc     libvcruntime:undname.obj
 0002:000023c4       ??_C@_06GCICPBLB@__w64?5@  00000001400883c4     libvcruntime:undname.obj
 0002:000023d0       ??_C@_07NFANNNEC@UNKNOWN@  00000001400883d0     libvcruntime:undname.obj
 0002:000023e0       ??_C@_07EDHNAJHC@signed?5@ 00000001400883e0     libvcruntime:undname.obj
 0002:000023ec       ??_C@_05BNCCCJPP@const@    00000001400883ec     libvcruntime:undname.obj
 0002:000023f8       ??_C@_09EFNPDFFP@?5volatile@ 00000001400883f8     libvcruntime:undname.obj
 0002:00002408       ??_C@_0P@GCIFDJCJ@?$GAunknown?5ecsu?8@ 0000000140088408     libvcruntime:undname.obj
 0002:0000241c       ??_C@_06MOJHIBMG@union?5@  000000014008841c     libvcruntime:undname.obj
 0002:00002428       ??_C@_07DIBCDNGL@struct?5@ 0000000140088428     libvcruntime:undname.obj
 0002:00002434       ??_C@_06LJBABKPM@class?5@  0000000140088434     libvcruntime:undname.obj
 0002:00002440       ??_C@_08KOFANOFK@coclass?5@ 0000000140088440     libvcruntime:undname.obj
 0002:00002450       ??_C@_0N@DLIEFKNA@cointerface?5@ 0000000140088450     libvcruntime:undname.obj
 0002:00002460       ??_C@_05LJGMCFOG@enum?5@   0000000140088460     libvcruntime:undname.obj
 0002:00002468       ??_C@_06LIJLOJAG@const?5@  0000000140088468     libvcruntime:undname.obj
 0002:00002470       ??_C@_02KJPKDIBN@?$CG?5@   0000000140088470     libvcruntime:undname.obj
 0002:00002474       ??_C@_03PCKGMOPB@?$CG?$CG?5@ 0000000140088474     libvcruntime:undname.obj
 0002:00002478       ??_C@_0M@EALIELKG@cli?3?3array?$DM@ 0000000140088478     libvcruntime:undname.obj
 0002:00002488       ??_C@_0O@GKABPPIF@cli?3?3pin_ptr?$DM@ 0000000140088488     libvcruntime:undname.obj
 0002:00002498       ??_C@_02GOGNNPBN@?$CJ?$FL@ 0000000140088498     libvcruntime:undname.obj
 0002:0000249c       ??_C@_06EEGAIFAK@?$HLflat?$HN@ 000000014008849c     libvcruntime:undname.obj
 0002:000024a4       ??_C@_05JIBOFOHK@?$HLfor?5@ 00000001400884a4     libvcruntime:undname.obj
 0002:000024ac       ??_C@_02MDINNEEG@s?5@      00000001400884ac     libvcruntime:undname.obj
 0002:000024b8       ??_7DNameNode@@6B@         00000001400884b8     libvcruntime:undname.obj
 0002:000024e8       ??_7charNode@@6B@          00000001400884e8     libvcruntime:undname.obj
 0002:00002518       ??_7pcharNode@@6B@         0000000140088518     libvcruntime:undname.obj
 0002:00002548       ??_7pDNameNode@@6B@        0000000140088548     libvcruntime:undname.obj
 0002:00002578       ??_7DNameStatusNode@@6B@   0000000140088578     libvcruntime:undname.obj
 0002:000025a8       ??_7pairNode@@6B@          00000001400885a8     libvcruntime:undname.obj
 0002:00002704       ??_C@_04OKOHEJBO@?5?$DP?$DP?5@ 0000000140088704     libvcruntime:undname.obj
 0002:00002710       ?nodes@?1??make@DNameStatusNode@@SAPEBV2@W4DNameStatus@@@Z@4QBV2@B 0000000140088710     libvcruntime:undname.obj
 0002:00002780       ??_C@_1DM@KHCHBNEB@?$AAa?$AAp?$AAi?$AA?9?$AAm?$AAs?$AA?9?$AAw?$AAi?$AAn?$AA?9?$AAc?$AAo?$AAr?$AAe@ 0000000140088780     libvcruntime:winapi_downlevel.obj
 0002:000027c8       ??_C@_1DK@LPPGFMPP@?$AAa?$AAp?$AAi?$AA?9?$AAm?$AAs?$AA?9?$AAw?$AAi?$AAn?$AA?9?$AAc?$AAo?$AAr?$AAe@ 00000001400887c8     libvcruntime:winapi_downlevel.obj
 0002:00002810       ??_C@_1BC@GDMECMAK@?$AAk?$AAe?$AAr?$AAn?$AAe?$AAl?$AA3?$AA2@ 0000000140088810     libvcruntime:winapi_downlevel.obj
 0002:00002828       ??_C@_1BA@PFFKHIOG@?$AAa?$AAp?$AAi?$AA?9?$AAm?$AAs?$AA?9@ 0000000140088828     libvcruntime:winapi_downlevel.obj
 0002:00002850       ??_C@_08KNHFBNJ@FlsAlloc@  0000000140088850     libvcruntime:winapi_downlevel.obj
 0002:00002870       ??_C@_07PEJMOBNF@FlsFree@  0000000140088870     libvcruntime:winapi_downlevel.obj
 0002:00002890       ??_C@_0M@GDNOONDI@FlsGetValue@ 0000000140088890     libvcruntime:winapi_downlevel.obj
 0002:000028b0       ??_C@_0M@JCPCPOEF@FlsSetValue@ 00000001400888b0     libvcruntime:winapi_downlevel.obj
 0002:000028d0       ??_C@_0BM@HCFOFFN@InitializeCriticalSectionEx@ 00000001400888d0     libvcruntime:winapi_downlevel.obj
 0002:000028f8       ?s_negLengthTab@FH4@@3QBCB 00000001400888f8     libvcruntime:risctrnsctrl.obj
 0002:00002910       ?s_shiftTab@FH4@@3QBEB     0000000140088910     libvcruntime:risctrnsctrl.obj
 0002:00002ab0       ??_7exception@std@@6B@     0000000140088ab0     libvcruntime:frame.obj
 0002:00002ac8       ??_C@_0BC@EOODALEL@Unknown?5exception@ 0000000140088ac8     libvcruntime:frame.obj
 0002:00002ae8       ??_7bad_exception@std@@6B@ 0000000140088ae8     libvcruntime:frame.obj
 0002:00002b00       ??_C@_0O@DPKOEFFH@bad?5exception@ 0000000140088b00     libvcruntime:frame.obj
 0002:00002b10       _Fenv1                     0000000140088b10     libucrt:output.obj
 0002:00002b20       ?standard_lookup_table_spectre@__crt_stdio_output@@3V?$spectre_mitigated_lookup_table@Ustate_transition_pair@__crt_stdio_output@@$0IA@@1@B 0000000140088b20     libucrt:output.obj
 0002:00002c60       ?format_validation_lookup_table_spectre@__crt_stdio_output@@3V?$spectre_mitigated_lookup_table@Ustate_transition_pair@__crt_stdio_output@@$0IA@@1@B 0000000140088c60     libucrt:output.obj
 0002:00002d98       ??_C@_1O@CEDCILHN@?$AA?$CI?$AAn?$AAu?$AAl?$AAl?$AA?$CJ@ 0000000140088d98     libucrt:output.obj
 0002:00002da8       ??_C@_06OJHGLDPL@?$CInull?$CJ@ 0000000140088da8     libucrt:output.obj
 0002:00002e40       ??_C@_1BI@BGOHAHKC@?$AAm?$AAs?$AAc?$AAo?$AAr?$AAe?$AAe?$AA?4?$AAd?$AAl?$AAl@ 0000000140088e40     libucrt:exit.obj
 0002:00002e60       ??_C@_0P@MIGLKIOC@CorExitProcess@ 0000000140088e60     libucrt:exit.obj
 0002:00002e80       __acrt_exception_action_table 0000000140088e80     libucrt:exception_filter.obj
 0002:00002f68       __acrt_signal_action_table_count 0000000140088f68     libucrt:exception_filter.obj
 0002:00002f78       __acrt_signal_action_table_size 0000000140088f78     libucrt:exception_filter.obj
 0002:00002f88       __acrt_signal_action_first_fpe_index 0000000140088f88     libucrt:exception_filter.obj
 0002:00002f98       __acrt_signal_action_fpe_count 0000000140088f98     libucrt:exception_filter.obj
 0002:00002fa8       ??_C@_1DE@JNGNBFGO@?$AAR?$AAu?$AAn?$AAt?$AAi?$AAm?$AAe?$AA?5?$AAE?$AAr?$AAr?$AAo?$AAr?$AA?$CB?$AA?6@ 0000000140088fa8     libucrt:report_runtime_error.obj
 0002:00002fe8       ??_C@_1CO@EAEJAADC@?$AA?$DM?$AAp?$AAr?$AAo?$AAg?$AAr?$AAa?$AAm?$AA?5?$AAn?$AAa?$AAm?$AAe?$AA?5?$AAu@ 0000000140088fe8     libucrt:report_runtime_error.obj
 0002:00003020       ??_C@_17LGKOMLJ@?$AA?4?$AA?4?$AA?4@ 0000000140089020     libucrt:report_runtime_error.obj
 0002:0000302c       ??_C@_15IABLJNFO@?$AA?6?$AA?6@ 000000014008902c     libucrt:report_runtime_error.obj
 0002:00003040       ??_C@_1EK@MBDPDCGA@?$AAM?$AAi?$AAc?$AAr?$AAo?$AAs?$AAo?$AAf?$AAt?$AA?5?$AAV?$AAi?$AAs?$AAu?$AAa@ 0000000140089040     libucrt:report_runtime_error.obj
 0002:000031d0       __lc_category              00000001400891d0     libucrt:wsetlocale.obj
 0002:00003280       ??_C@_1O@GIFLHMA@?$AAL?$AAC?$AA_?$AAA?$AAL?$AAL@ 0000000140089280     libucrt:wsetlocale.obj
 0002:00003290       ??_C@_1BG@PPOMIBNJ@?$AAL?$AAC?$AA_?$AAC?$AAO?$AAL?$AAL?$AAA?$AAT?$AAE@ 0000000140089290     libucrt:wsetlocale.obj
 0002:000032b0       ??_C@_1BC@FFJGAPJM@?$AAL?$AAC?$AA_?$AAC?$AAT?$AAY?$AAP?$AAE@ 00000001400892b0     libucrt:wsetlocale.obj
 0002:000032c8       ??_C@_1BI@PCKFNJFB@?$AAL?$AAC?$AA_?$AAM?$AAO?$AAN?$AAE?$AAT?$AAA?$AAR?$AAY@ 00000001400892c8     libucrt:wsetlocale.obj
 0002:000032e8       ??_C@_1BG@ENIEDKID@?$AAL?$AAC?$AA_?$AAN?$AAU?$AAM?$AAE?$AAR?$AAI?$AAC@ 00000001400892e8     libucrt:wsetlocale.obj
 0002:00003308       ??_C@_1BA@HAAOMIIG@?$AAL?$AAC?$AA_?$AAT?$AAI?$AAM?$AAE@ 0000000140089308     libucrt:wsetlocale.obj
 0002:0000331c       ??_C@_15NBPDDFIP@?$AA?$DN?$AA?$DL@ 000000014008931c     libucrt:wsetlocale.obj
 0002:00003324       ??_C@_13PJJBFPED@?$AA?$DL@ 0000000140089324     libucrt:wsetlocale.obj
 0002:00003328       ??_C@_13NMPKAAJP@?$AA?$DN@ 0000000140089328     libucrt:wsetlocale.obj
 0002:0000332c       ??_C@_13IMODFHAA@?$AA?9@   000000014008932c     libucrt:wsetlocale.obj
 0002:00003330       ??_C@_17EFJLDFDO@?$AA?9?$AA_?$AA?4@ 0000000140089330     libucrt:wsetlocale.obj
 0002:0000333c       ??_C@_13FHBKNHDA@?$AAC@    000000014008933c     libucrt:wsetlocale.obj
 0002:00003340       ??_C@_17MBJJLFDM@?$AA_?$AA?4?$AA?0@ 0000000140089340     libucrt:wsetlocale.obj
 0002:0000334c       ??_C@_13ENNFDPBH@?$AA_@    000000014008934c     libucrt:wsetlocale.obj
 0002:00003350       ??_C@_13JOFGPIOO@?$AA?4@   0000000140089350     libucrt:wsetlocale.obj
 0002:000036b0       RtlNtPathSeperatorString   00000001400896b0     libucrt:winapi_thunks.obj
 0002:000036c4       ??_C@_13FPGAJAPJ@?$AA?2@   00000001400896c4     libucrt:winapi_thunks.obj
 0002:000036c8       RtlDosPathSeperatorsString 00000001400896c8     libucrt:winapi_thunks.obj
 0002:000036dc       ??_C@_15MNCACJLI@?$AA?2?$AA?1@ 00000001400896dc     libucrt:winapi_thunks.obj
 0002:000036e8       RtlAlternateDosPathSeperatorString 00000001400896e8     libucrt:winapi_thunks.obj
 0002:000036fc       ??_C@_13CGOKJPIL@?$AA?1@   00000001400896fc     libucrt:winapi_thunks.obj
 0002:000037d0       ??_C@_1EA@JGEFHKEI@?$AAa?$AAp?$AAi?$AA?9?$AAm?$AAs?$AA?9?$AAw?$AAi?$AAn?$AA?9?$AAc?$AAo?$AAr?$AAe@ 00000001400897d0     libucrt:winapi_thunks.obj
 0002:00003820       ??_C@_1DI@KMEPCBPN@?$AAa?$AAp?$AAi?$AA?9?$AAm?$AAs?$AA?9?$AAw?$AAi?$AAn?$AA?9?$AAc?$AAo?$AAr?$AAe@ 0000000140089820     libucrt:winapi_thunks.obj
 0002:00003868       ??_C@_1DI@IJCEHOCB@?$AAa?$AAp?$AAi?$AA?9?$AAm?$AAs?$AA?9?$AAw?$AAi?$AAn?$AA?9?$AAc?$AAo?$AAr?$AAe@ 0000000140089868     libucrt:winapi_thunks.obj
 0002:000038b0       ??_C@_1EI@MPIAOHOC@?$AAa?$AAp?$AAi?$AA?9?$AAm?$AAs?$AA?9?$AAw?$AAi?$AAn?$AA?9?$AAc?$AAo?$AAr?$AAe@ 00000001400898b0     libucrt:winapi_thunks.obj
 0002:00003910       ??_C@_1FK@FPHCKFIE@?$AAa?$AAp?$AAi?$AA?9?$AAm?$AAs?$AA?9?$AAw?$AAi?$AAn?$AA?9?$AAc?$AAo?$AAr?$AAe@ 0000000140089910     libucrt:winapi_thunks.obj
 0002:00003980       ??_C@_1EM@DILCGIIO@?$AAa?$AAp?$AAi?$AA?9?$AAm?$AAs?$AA?9?$AAw?$AAi?$AAn?$AA?9?$AAc?$AAo?$AAr?$AAe@ 0000000140089980     libucrt:winapi_thunks.obj
 0002:000039e0       ??_C@_1DM@LNCGDDPN@?$AAa?$AAp?$AAi?$AA?9?$AAm?$AAs?$AA?9?$AAw?$AAi?$AAn?$AA?9?$AAc?$AAo?$AAr?$AAe@ 00000001400899e0     libucrt:winapi_thunks.obj
 0002:00003a28       ??_C@_1DO@FPAPJEMD@?$AAa?$AAp?$AAi?$AA?9?$AAm?$AAs?$AA?9?$AAw?$AAi?$AAn?$AA?9?$AAc?$AAo?$AAr?$AAe@ 0000000140089a28     libucrt:winapi_thunks.obj
 0002:00003a78       ??_C@_1DK@NDHNAHIO@?$AAa?$AAp?$AAi?$AA?9?$AAm?$AAs?$AA?9?$AAw?$AAi?$AAn?$AA?9?$AAc?$AAo?$AAr?$AAe@ 0000000140089a78     libucrt:winapi_thunks.obj
 0002:00003ac0       ??_C@_1DM@KGHDGBCM@?$AAa?$AAp?$AAi?$AA?9?$AAm?$AAs?$AA?9?$AAw?$AAi?$AAn?$AA?9?$AAc?$AAo?$AAr?$AAe@ 0000000140089ac0     libucrt:winapi_thunks.obj
 0002:00003b10       ??_C@_1EO@IJIOEFOH@?$AAa?$AAp?$AAi?$AA?9?$AAm?$AAs?$AA?9?$AAw?$AAi?$AAn?$AA?9?$AAr?$AAt?$AAc?$AAo@ 0000000140089b10     libucrt:winapi_thunks.obj
 0002:00003b70       ??_C@_1FG@HHGEKANL@?$AAa?$AAp?$AAi?$AA?9?$AAm?$AAs?$AA?9?$AAw?$AAi?$AAn?$AA?9?$AAs?$AAe?$AAc?$AAu@ 0000000140089b70     libucrt:winapi_thunks.obj
 0002:00003be0       ??_C@_1EG@DBIOJECG@?$AAe?$AAx?$AAt?$AA?9?$AAm?$AAs?$AA?9?$AAw?$AAi?$AAn?$AA?9?$AAn?$AAt?$AAu?$AAs@ 0000000140089be0     libucrt:winapi_thunks.obj
 0002:00003c40       ??_C@_1EO@FIHMJCLF@?$AAe?$AAx?$AAt?$AA?9?$AAm?$AAs?$AA?9?$AAw?$AAi?$AAn?$AA?9?$AAn?$AAt?$AAu?$AAs@ 0000000140089c40     libucrt:winapi_thunks.obj
 0002:00003ca0       ??_C@_1BC@DNHGCMLG@?$AAa?$AAd?$AAv?$AAa?$AAp?$AAi?$AA3?$AA2@ 0000000140089ca0     libucrt:winapi_thunks.obj
 0002:00003cb8       ??_C@_1BG@CJPGBMEF@?$AAk?$AAe?$AAr?$AAn?$AAe?$AAl?$AAb?$AAa?$AAs?$AAe@ 0000000140089cb8     libucrt:winapi_thunks.obj
 0002:00003cd8       ??_C@_1M@OAIMIKLP@?$AAn?$AAt?$AAd?$AAl?$AAl@ 0000000140089cd8     libucrt:winapi_thunks.obj
 0002:00003cf0       ??_C@_1EG@DPGNFKGC@?$AAa?$AAp?$AAi?$AA?9?$AAm?$AAs?$AA?9?$AAw?$AAi?$AAn?$AA?9?$AAa?$AAp?$AAp?$AAm@ 0000000140089cf0     libucrt:winapi_thunks.obj
 0002:00003d48       ??_C@_1O@BCCLBEOE@?$AAu?$AAs?$AAe?$AAr?$AA3?$AA2@ 0000000140089d48     libucrt:winapi_thunks.obj
 0002:00003d58       ??_C@_1BA@IAIFMGEF@?$AAe?$AAx?$AAt?$AA?9?$AAm?$AAs?$AA?9@ 0000000140089d58     libucrt:winapi_thunks.obj
 0002:00003d70       ??_C@_0BA@FHFNEAED@AreFileApisANSI@ 0000000140089d70     libucrt:winapi_thunks.obj
 0002:00003d98       ??_C@_0BA@IHGNDAEB@CompareStringEx@ 0000000140089d98     libucrt:winapi_thunks.obj
 0002:00003dc0       ??_C@_0BE@LJANKFHF@EnumSystemLocalesEx@ 0000000140089dc0     libucrt:winapi_thunks.obj
 0002:00003de8       ??_C@_0BA@HNOPNCHB@GetActiveWindow@ 0000000140089de8     libucrt:winapi_thunks.obj
 0002:00003e10       ??_C@_0BA@EPCJIIPD@GetDateFormatEx@ 0000000140089e10     libucrt:winapi_thunks.obj
 0002:00003e38       ??_C@_0O@NNMIPI@GetTempPath2W@ 0000000140089e38     libucrt:winapi_thunks.obj
 0002:00003e58       ??_C@_0BJ@DIBIJBHA@GetEnabledXStateFeatures@ 0000000140089e58     libucrt:winapi_thunks.obj
 0002:00003e88       ??_C@_0BD@HHGDFDBJ@GetLastActivePopup@ 0000000140089e88     libucrt:winapi_thunks.obj
 0002:00003eb0       ??_C@_0BA@ONOKGCMP@GetLocaleInfoEx@ 0000000140089eb0     libucrt:winapi_thunks.obj
 0002:00003ed8       ??_C@_0BI@DFKBFLJE@GetProcessWindowStation@ 0000000140089ed8     libucrt:winapi_thunks.obj
 0002:00003ef8       ??_C@_0BP@FPNJPEJC@GetSystemTimePreciseAsFileTime@ 0000000140089ef8     libucrt:winapi_thunks.obj
 0002:00003f30       ??_C@_0BA@CIJJKCJJ@GetTimeFormatEx@ 0000000140089f30     libucrt:winapi_thunks.obj
 0002:00003f58       ??_C@_0BJ@PBCCBIPI@GetUserDefaultLocaleName@ 0000000140089f58     libucrt:winapi_thunks.obj
 0002:00003f88       ??_C@_0BK@DEKFELLI@GetUserObjectInformationW@ 0000000140089f88     libucrt:winapi_thunks.obj
 0002:00003fb8       ??_C@_0BG@IKLDMBLM@GetXStateFeaturesMask@ 0000000140089fb8     libucrt:winapi_thunks.obj
 0002:00003ff8       ??_C@_0BC@CELBKLLA@IsValidLocaleName@ 0000000140089ff8     libucrt:winapi_thunks.obj
 0002:00004020       ??_C@_0O@KKBNKAPF@LCMapStringEx@ 000000014008a020     libucrt:winapi_thunks.obj
 0002:00004040       ??_C@_0BB@CDHDDLLP@LCIDToLocaleName@ 000000014008a040     libucrt:winapi_thunks.obj
 0002:00004068       ??_C@_0BB@HBDEELFH@LocaleNameToLCID@ 000000014008a068     libucrt:winapi_thunks.obj
 0002:00004090       ??_C@_0BE@KINNKFDA@LocateXStateFeature@ 000000014008a090     libucrt:winapi_thunks.obj
 0002:000040b8       ??_C@_0M@CHKKJDAI@MessageBoxA@ 000000014008a0b8     libucrt:winapi_thunks.obj
 0002:000040d8       ??_C@_0M@DLDCCGNP@MessageBoxW@ 000000014008a0d8     libucrt:winapi_thunks.obj
 0002:000040f0       ??_C@_0N@PPOMPGGK@RoInitialize@ 000000014008a0f0     libucrt:winapi_thunks.obj
 0002:00004108       ??_C@_0P@LLFHBIJD@RoUninitialize@ 000000014008a108     libucrt:winapi_thunks.obj
 0002:00004120       ??_C@_0CF@OJOFEIGO@AppPolicyGetProcessTerminationM@ 000000014008a120     libucrt:winapi_thunks.obj
 0002:00004150       ??_C@_0CF@NNDFDCOC@AppPolicyGetThreadInitializatio@ 000000014008a150     libucrt:winapi_thunks.obj
 0002:00004180       ??_C@_0CE@OICFMIKE@AppPolicyGetShowDeveloperDiagno@ 000000014008a180     libucrt:winapi_thunks.obj
 0002:000041b0       ??_C@_0BL@ODDJNEDA@AppPolicyGetWindowingModel@ 000000014008a1b0     libucrt:winapi_thunks.obj
 0002:000041e0       ??_C@_0BI@BKLFFAPO@SetThreadStackGuarantee@ 000000014008a1e0     libucrt:winapi_thunks.obj
 0002:00004210       ??_C@_0BC@JEAENNKH@SystemFunction036@ 000000014008a210     libucrt:winapi_thunks.obj
 0002:00004230       __lc_time_c                000000014008a230     libucrt:nlsdata.obj
 0002:0000457c       ??_C@_03KOEHGMDN@Sun@      000000014008a57c     libucrt:nlsdata.obj
 0002:00004580       ??_C@_03PDAGKDH@Mon@       000000014008a580     libucrt:nlsdata.obj
 0002:00004584       ??_C@_03NAGEINEP@Tue@      000000014008a584     libucrt:nlsdata.obj
 0002:00004588       ??_C@_03MHOMLAJA@Wed@      000000014008a588     libucrt:nlsdata.obj
 0002:0000458c       ??_C@_03IOFIKPDN@Thu@      000000014008a58c     libucrt:nlsdata.obj
 0002:00004590       ??_C@_03IDIOELNC@Fri@      000000014008a590     libucrt:nlsdata.obj
 0002:00004594       ??_C@_03FEFJNEK@Sat@       000000014008a594     libucrt:nlsdata.obj
 0002:00004598       ??_C@_06OOPIFAJ@Sunday@    000000014008a598     libucrt:nlsdata.obj
 0002:000045a0       ??_C@_06JLEDEDGH@Monday@   000000014008a5a0     libucrt:nlsdata.obj
 0002:000045a8       ??_C@_07BAAGCFCM@Tuesday@  000000014008a5a8     libucrt:nlsdata.obj
 0002:000045b8       ??_C@_09DLIGFAKA@Wednesday@ 000000014008a5b8     libucrt:nlsdata.obj
 0002:000045c8       ??_C@_08HACCIKIA@Thursday@ 000000014008a5c8     libucrt:nlsdata.obj
 0002:000045d4       ??_C@_06JECMNKMI@Friday@   000000014008a5d4     libucrt:nlsdata.obj
 0002:000045e0       ??_C@_08INBOOONO@Saturday@ 000000014008a5e0     libucrt:nlsdata.obj
 0002:000045ec       ??_C@_03JIHJHPIE@Jan@      000000014008a5ec     libucrt:nlsdata.obj
 0002:000045f0       ??_C@_03HJBDCHOM@Feb@      000000014008a5f0     libucrt:nlsdata.obj
 0002:000045f4       ??_C@_03ODNJBKGA@Mar@      000000014008a5f4     libucrt:nlsdata.obj
 0002:000045f8       ??_C@_03LEOLGMJP@Apr@      000000014008a5f8     libucrt:nlsdata.obj
 0002:000045fc       ??_C@_03CNMDKL@May@        000000014008a5fc     libucrt:nlsdata.obj
 0002:00004600       ??_C@_03IDFGHECI@Jun@      000000014008a600     libucrt:nlsdata.obj
 0002:00004604       ??_C@_03LBGABGKK@Jul@      000000014008a604     libucrt:nlsdata.obj
 0002:00004608       ??_C@_03IFJFEIGA@Aug@      000000014008a608     libucrt:nlsdata.obj
 0002:0000460c       ??_C@_03GGCAPAJC@Sep@      000000014008a60c     libucrt:nlsdata.obj
 0002:00004610       ??_C@_03BMAOKBAD@Oct@      000000014008a610     libucrt:nlsdata.obj
 0002:00004614       ??_C@_03JPJOFNIA@Nov@      000000014008a614     libucrt:nlsdata.obj
 0002:00004618       ??_C@_03MKABNOCG@Dec@      000000014008a618     libucrt:nlsdata.obj
 0002:00004620       ??_C@_07CGJPFGJA@January@  000000014008a620     libucrt:nlsdata.obj
 0002:00004630       ??_C@_08GNJGEPFN@February@ 000000014008a630     libucrt:nlsdata.obj
 0002:0000463c       ??_C@_05HPCKOFNC@March@    000000014008a63c     libucrt:nlsdata.obj
 0002:00004644       ??_C@_05DMJDNLEJ@April@    000000014008a644     libucrt:nlsdata.obj
 0002:0000464c       ??_C@_04CNLMGBGM@June@     000000014008a64c     libucrt:nlsdata.obj
 0002:00004654       ??_C@_04MIEPOIFP@July@     000000014008a654     libucrt:nlsdata.obj
 0002:0000465c       ??_C@_06LBBHFDDG@August@   000000014008a65c     libucrt:nlsdata.obj
 0002:00004668       ??_C@_09BHHEALKD@September@ 000000014008a668     libucrt:nlsdata.obj
 0002:00004678       ??_C@_07JJNFCEND@October@  000000014008a678     libucrt:nlsdata.obj
 0002:00004688       ??_C@_08HCHEGEOA@November@ 000000014008a688     libucrt:nlsdata.obj
 0002:00004698       ??_C@_08EDHMEBNP@December@ 000000014008a698     libucrt:nlsdata.obj
 0002:000046a4       ??_C@_02DEDBPAFC@AM@       000000014008a6a4     libucrt:nlsdata.obj
 0002:000046a8       ??_C@_02CJNFDJBF@PM@       000000014008a6a8     libucrt:nlsdata.obj
 0002:000046b0       ??_C@_08BPBNCDIB@MM?1dd?1yy@ 000000014008a6b0     libucrt:nlsdata.obj
 0002:000046c0       ??_C@_0BE@CKGJFCPC@dddd?0?5MMMM?5dd?0?5yyyy@ 000000014008a6c0     libucrt:nlsdata.obj
 0002:000046d8       ??_C@_08JCCMCCIL@HH?3mm?3ss@ 000000014008a6d8     libucrt:nlsdata.obj
 0002:000046e8       ??_C@_17MBGCMIPB@?$AAS?$AAu?$AAn@ 000000014008a6e8     libucrt:nlsdata.obj
 0002:000046f8       ??_C@_17KBOMKBF@?$AAM?$AAo?$AAn@ 000000014008a6f8     libucrt:nlsdata.obj
 0002:00004708       ??_C@_17BMKGEGOJ@?$AAT?$AAu?$AAe@ 000000014008a708     libucrt:nlsdata.obj
 0002:00004718       ??_C@_17CJEDCEPE@?$AAW?$AAe?$AAd@ 000000014008a718     libucrt:nlsdata.obj
 0002:00004728       ??_C@_17PDPHAADD@?$AAT?$AAh?$AAu@ 000000014008a728     libucrt:nlsdata.obj
 0002:00004738       ??_C@_17HFOLPPLP@?$AAF?$AAr?$AAi@ 000000014008a738     libucrt:nlsdata.obj
 0002:00004748       ??_C@_17GGIBDPIH@?$AAS?$AAa?$AAt@ 000000014008a748     libucrt:nlsdata.obj
 0002:00004758       ??_C@_1O@IHNHDHPB@?$AAS?$AAu?$AAn?$AAd?$AAa?$AAy@ 000000014008a758     libucrt:nlsdata.obj
 0002:00004768       ??_C@_1O@MMNBFLIA@?$AAM?$AAo?$AAn?$AAd?$AAa?$AAy@ 000000014008a768     libucrt:nlsdata.obj
 0002:00004778       ??_C@_1BA@ENFBFFEK@?$AAT?$AAu?$AAe?$AAs?$AAd?$AAa?$AAy@ 000000014008a778     libucrt:nlsdata.obj
 0002:00004790       ??_C@_1BE@EBOGMDOH@?$AAW?$AAe?$AAd?$AAn?$AAe?$AAs?$AAd?$AAa?$AAy@ 000000014008a790     libucrt:nlsdata.obj
 0002:000047a8       ??_C@_1BC@HHMNLIHE@?$AAT?$AAh?$AAu?$AAr?$AAs?$AAd?$AAa?$AAy@ 000000014008a7a8     libucrt:nlsdata.obj
 0002:000047c0       ??_C@_1O@PDICJHAG@?$AAF?$AAr?$AAi?$AAd?$AAa?$AAy@ 000000014008a7c0     libucrt:nlsdata.obj
 0002:000047d0       ??_C@_1BC@ENMNNPAJ@?$AAS?$AAa?$AAt?$AAu?$AAr?$AAd?$AAa?$AAy@ 000000014008a7d0     libucrt:nlsdata.obj
 0002:000047e8       ??_C@_17DKNBKCHM@?$AAJ?$AAa?$AAn@ 000000014008a7e8     libucrt:nlsdata.obj
 0002:000047f8       ??_C@_17LMDJEKJN@?$AAF?$AAe?$AAb@ 000000014008a7f8     libucrt:nlsdata.obj
 0002:00004808       ??_C@_17CKNLEDEC@?$AAM?$AAa?$AAr@ 000000014008a808     libucrt:nlsdata.obj
 0002:00004818       ??_C@_17LFPOIHDD@?$AAA?$AAp?$AAr@ 000000014008a818     libucrt:nlsdata.obj
 0002:00004828       ??_C@_17PNNKMEED@?$AAM?$AAa?$AAy@ 000000014008a828     libucrt:nlsdata.obj
 0002:00004838       ??_C@_17KCJGOCPB@?$AAJ?$AAu?$AAn@ 000000014008a838     libucrt:nlsdata.obj
 0002:00004848       ??_C@_17IJPCKHK@?$AAJ?$AAu?$AAl@ 000000014008a848     libucrt:nlsdata.obj
 0002:00004858       ??_C@_17ICPELBCN@?$AAA?$AAu?$AAg@ 000000014008a858     libucrt:nlsdata.obj
 0002:00004868       ??_C@_17HCHCOKMG@?$AAS?$AAe?$AAp@ 000000014008a868     libucrt:nlsdata.obj
 0002:00004878       ??_C@_17FNLKOI@?$AAO?$AAc?$AAt@ 000000014008a878     libucrt:nlsdata.obj
 0002:00004888       ??_C@_17BBDMLCIG@?$AAN?$AAo?$AAv@ 000000014008a888     libucrt:nlsdata.obj
 0002:00004898       ??_C@_17EGKACKIF@?$AAD?$AAe?$AAc@ 000000014008a898     libucrt:nlsdata.obj
 0002:000048a8       ??_C@_1BA@EFMEIEBA@?$AAJ?$AAa?$AAn?$AAu?$AAa?$AAr?$AAy@ 000000014008a8a8     libucrt:nlsdata.obj
 0002:000048c0       ??_C@_1BC@JGDDFFAM@?$AAF?$AAe?$AAb?$AAr?$AAu?$AAa?$AAr?$AAy@ 000000014008a8c0     libucrt:nlsdata.obj
 0002:000048d8       ??_C@_1M@IKEENEDF@?$AAM?$AAa?$AAr?$AAc?$AAh@ 000000014008a8d8     libucrt:nlsdata.obj
 0002:000048e8       ??_C@_1M@GJNLMHFD@?$AAA?$AAp?$AAr?$AAi?$AAl@ 000000014008a8e8     libucrt:nlsdata.obj
 0002:000048f8       ??_C@_19EPFLPGAP@?$AAJ?$AAu?$AAn?$AAe@ 000000014008a8f8     libucrt:nlsdata.obj
 0002:00004908       ??_C@_19BIFMLPCD@?$AAJ?$AAu?$AAl?$AAy@ 000000014008a908     libucrt:nlsdata.obj
 0002:00004918       ??_C@_1O@PAHLKOAC@?$AAA?$AAu?$AAg?$AAu?$AAs?$AAt@ 000000014008a918     libucrt:nlsdata.obj
 0002:00004928       ??_C@_1BE@DKAAMBJL@?$AAS?$AAe?$AAp?$AAt?$AAe?$AAm?$AAb?$AAe?$AAr@ 000000014008a928     libucrt:nlsdata.obj
 0002:00004940       ??_C@_1BA@EPANDLNG@?$AAO?$AAc?$AAt?$AAo?$AAb?$AAe?$AAr@ 000000014008a940     libucrt:nlsdata.obj
 0002:00004958       ??_C@_1BC@BGLIFPF@?$AAN?$AAo?$AAv?$AAe?$AAm?$AAb?$AAe?$AAr@ 000000014008a958     libucrt:nlsdata.obj
 0002:00004970       ??_C@_1BC@FEMKIFH@?$AAD?$AAe?$AAc?$AAe?$AAm?$AAb?$AAe?$AAr@ 000000014008a970     libucrt:nlsdata.obj
 0002:00004988       ??_C@_15ODEHAHHF@?$AAA?$AAM@ 000000014008a988     libucrt:nlsdata.obj
 0002:00004990       ??_C@_15CLMNNGEL@?$AAP?$AAM@ 000000014008a990     libucrt:nlsdata.obj
 0002:00004998       ??_C@_1BC@IEBCMHCM@?$AAM?$AAM?$AA?1?$AAd?$AAd?$AA?1?$AAy?$AAy@ 000000014008a998     libucrt:nlsdata.obj
 0002:000049b0       ??_C@_1CI@KNAKOEBC@?$AAd?$AAd?$AAd?$AAd?$AA?0?$AA?5?$AAM?$AAM?$AAM?$AAM?$AA?5?$AAd?$AAd?$AA?0?$AA?5@ 000000014008a9b0     libucrt:nlsdata.obj
 0002:000049e0       ??_C@_1BC@GDGBMEMK@?$AAH?$AAH?$AA?3?$AAm?$AAm?$AA?3?$AAs?$AAs@ 000000014008a9e0     libucrt:nlsdata.obj
 0002:000049f8       ??_C@_1M@BMHNFIME@?$AAe?$AAn?$AA?9?$AAU?$AAS@ 000000014008a9f8     libucrt:nlsdata.obj
 0002:00004a08       ?ccs@?1???$__acrt_stdio_parse_mode@D@@YA?AU__acrt_stdio_stream_mode@@QEBD@Z@4QBDB 000000014008aa08     libucrt:openfile.obj
 0002:00004a0c       ?utf8_encoding@?1???$__acrt_stdio_parse_mode@D@@YA?AU__acrt_stdio_stream_mode@@QEBD@Z@4QBDB 000000014008aa0c     libucrt:openfile.obj
 0002:00004a18       ?utf16_encoding@?1???$__acrt_stdio_parse_mode@D@@YA?AU__acrt_stdio_stream_mode@@QEBD@Z@4QBDB 000000014008aa18     libucrt:openfile.obj
 0002:00004a24       ?unicode_encoding@?1???$__acrt_stdio_parse_mode@D@@YA?AU__acrt_stdio_stream_mode@@QEBD@Z@4QBDB 000000014008aa24     libucrt:openfile.obj
 0002:00004a2c       ?ccs@?1???$__acrt_stdio_parse_mode@_W@@YA?AU__acrt_stdio_stream_mode@@QEB_W@Z@4QB_WB 000000014008aa2c     libucrt:openfile.obj
 0002:00004a38       ?utf8_encoding@?1???$__acrt_stdio_parse_mode@_W@@YA?AU__acrt_stdio_stream_mode@@QEB_W@Z@4QB_WB 000000014008aa38     libucrt:openfile.obj
 0002:00004a48       ?utf16_encoding@?1???$__acrt_stdio_parse_mode@_W@@YA?AU__acrt_stdio_stream_mode@@QEB_W@Z@4QB_WB 000000014008aa48     libucrt:openfile.obj
 0002:00004a60       ?unicode_encoding@?1???$__acrt_stdio_parse_mode@_W@@YA?AU__acrt_stdio_stream_mode@@QEB_W@Z@4QB_WB 000000014008aa60     libucrt:openfile.obj
 0002:00004b3c       ??_C@_03OEIAHPBN@INF@      000000014008ab3c     libucrt:cvt.obj
 0002:00004b40       ??_C@_03OJHLLCGB@inf@      000000014008ab40     libucrt:cvt.obj
 0002:00004b44       ??_C@_03LKNCIKJB@NAN@      000000014008ab44     libucrt:cvt.obj
 0002:00004b48       ??_C@_03LHCJEHON@nan@      000000014008ab48     libucrt:cvt.obj
 0002:00004b50       ??_C@_09OFJJIMPC@NAN?$CISNAN?$CJ@ 000000014008ab50     libucrt:cvt.obj
 0002:00004b60       ??_C@_09IPFBKMDL@nan?$CIsnan?$CJ@ 000000014008ab60     libucrt:cvt.obj
 0002:00004b70       ??_C@_08IKHNHAJ@NAN?$CIIND?$CJ@ 000000014008ab70     libucrt:cvt.obj
 0002:00004b80       ??_C@_08OFCDMILK@nan?$CIind?$CJ@ 000000014008ab80     libucrt:cvt.obj
 0002:00004b8c       ??_C@_05KLBDPFGC@e?$CL000@ 000000014008ab8c     libucrt:cvt.obj
 0002:00004bc0       ??_C@_1M@HPNHIDJI@?$AAj?$AAa?$AA?9?$AAJ?$AAP@ 000000014008abc0     libucrt:mbctype.obj
 0002:00004bd0       ??_C@_1M@BIBDDEMK@?$AAz?$AAh?$AA?9?$AAC?$AAN@ 000000014008abd0     libucrt:mbctype.obj
 0002:00004be0       ??_C@_1M@JLOOOEGK@?$AAk?$AAo?$AA?9?$AAK?$AAR@ 000000014008abe0     libucrt:mbctype.obj
 0002:00004bf0       ??_C@_1M@CLNBBOPM@?$AAz?$AAh?$AA?9?$AAT?$AAW@ 000000014008abf0     libucrt:mbctype.obj
 0002:00004c00       __newctype                 000000014008ac00     libucrt:ctype.obj
 0002:00004fa0       __newclmap                 000000014008afa0     libucrt:ctype.obj
 0002:00005170       __newcumap                 000000014008b170     libucrt:ctype.obj
 0002:00005340       _wctype                    000000014008b340     libucrt:ctype.obj
 0002:000055b0       __acrt_rg_language         000000014008b5b0     libucrt:get_qualified_locale.obj
 0002:00005a90       __acrt_rg_language_count   000000014008ba90     libucrt:get_qualified_locale.obj
 0002:00005aa0       __acrt_rg_country          000000014008baa0     libucrt:get_qualified_locale.obj
 0002:00005c60       __acrt_rg_country_count    000000014008bc60     libucrt:get_qualified_locale.obj
 0002:00005c70       ??_C@_1BC@LLOKLNP@?$AAa?$AAm?$AAe?$AAr?$AAi?$AAc?$AAa?$AAn@ 000000014008bc70     libucrt:get_qualified_locale.obj
 0002:00005c88       ??_C@_1CC@HEIGCDGG@?$AAa?$AAm?$AAe?$AAr?$AAi?$AAc?$AAa?$AAn?$AA?5?$AAe?$AAn?$AAg?$AAl?$AAi?$AAs@ 000000014008bc88     libucrt:get_qualified_locale.obj
 0002:00005cb0       ??_C@_1CC@IHCNOMIN@?$AAa?$AAm?$AAe?$AAr?$AAi?$AAc?$AAa?$AAn?$AA?9?$AAe?$AAn?$AAg?$AAl?$AAi?$AAs@ 000000014008bcb0     libucrt:get_qualified_locale.obj
 0002:00005cd8       ??_C@_1BG@GKAGPCGG@?$AAa?$AAu?$AAs?$AAt?$AAr?$AAa?$AAl?$AAi?$AAa?$AAn@ 000000014008bcd8     libucrt:get_qualified_locale.obj
 0002:00005cf8       ??_C@_1BA@GMENCENF@?$AAb?$AAe?$AAl?$AAg?$AAi?$AAa?$AAn@ 000000014008bcf8     libucrt:get_qualified_locale.obj
 0002:00005d10       ??_C@_1BC@PJMIIAAN@?$AAc?$AAa?$AAn?$AAa?$AAd?$AAi?$AAa?$AAn@ 000000014008bd10     libucrt:get_qualified_locale.obj
 0002:00005d28       ??_C@_17NOIMNFBF@?$AAc?$AAh?$AAh@ 000000014008bd28     libucrt:get_qualified_locale.obj
 0002:00005d38       ??_C@_17GGDALCHA@?$AAc?$AAh?$AAi@ 000000014008bd38     libucrt:get_qualified_locale.obj
 0002:00005d48       ??_C@_1BA@NPNJKIBL@?$AAc?$AAh?$AAi?$AAn?$AAe?$AAs?$AAe@ 000000014008bd48     libucrt:get_qualified_locale.obj
 0002:00005d60       ??_C@_1CC@DINBAMMJ@?$AAc?$AAh?$AAi?$AAn?$AAe?$AAs?$AAe?$AA?9?$AAh?$AAo?$AAn?$AAg?$AAk?$AAo?$AAn@ 000000014008bd60     libucrt:get_qualified_locale.obj
 0002:00005d88       ??_C@_1CG@IOBJPACO@?$AAc?$AAh?$AAi?$AAn?$AAe?$AAs?$AAe?$AA?9?$AAs?$AAi?$AAm?$AAp?$AAl?$AAi?$AAf@ 000000014008bd88     libucrt:get_qualified_locale.obj
 0002:00005db8       ??_C@_1CE@GAJNDCKG@?$AAc?$AAh?$AAi?$AAn?$AAe?$AAs?$AAe?$AA?9?$AAs?$AAi?$AAn?$AAg?$AAa?$AAp?$AAo@ 000000014008bdb8     libucrt:get_qualified_locale.obj
 0002:00005de8       ??_C@_1CI@PAJPIOOD@?$AAc?$AAh?$AAi?$AAn?$AAe?$AAs?$AAe?$AA?9?$AAt?$AAr?$AAa?$AAd?$AAi?$AAt?$AAi@ 000000014008bde8     libucrt:get_qualified_locale.obj
 0002:00005e18       ??_C@_1BM@NILJBMMD@?$AAd?$AAu?$AAt?$AAc?$AAh?$AA?9?$AAb?$AAe?$AAl?$AAg?$AAi?$AAa?$AAn@ 000000014008be18     libucrt:get_qualified_locale.obj
 0002:00005e40       ??_C@_1CC@OOJPJNEJ@?$AAe?$AAn?$AAg?$AAl?$AAi?$AAs?$AAh?$AA?9?$AAa?$AAm?$AAe?$AAr?$AAi?$AAc?$AAa@ 000000014008be40     libucrt:get_qualified_locale.obj
 0002:00005e68       ??_C@_1BI@IOLFEEM@?$AAe?$AAn?$AAg?$AAl?$AAi?$AAs?$AAh?$AA?9?$AAa?$AAu?$AAs@ 000000014008be68     libucrt:get_qualified_locale.obj
 0002:00005e88       ??_C@_1BO@HFFNLENJ@?$AAe?$AAn?$AAg?$AAl?$AAi?$AAs?$AAh?$AA?9?$AAb?$AAe?$AAl?$AAi?$AAz?$AAe@ 000000014008be88     libucrt:get_qualified_locale.obj
 0002:00005eb0       ??_C@_1BI@HAPKJMPO@?$AAe?$AAn?$AAg?$AAl?$AAi?$AAs?$AAh?$AA?9?$AAc?$AAa?$AAn@ 000000014008beb0     libucrt:get_qualified_locale.obj
 0002:00005ed0       ??_C@_1CE@HLNDMIOJ@?$AAe?$AAn?$AAg?$AAl?$AAi?$AAs?$AAh?$AA?9?$AAc?$AAa?$AAr?$AAi?$AAb?$AAb?$AAe@ 000000014008bed0     libucrt:get_qualified_locale.obj
 0002:00005f00       ??_C@_1BI@LDHJHHAC@?$AAe?$AAn?$AAg?$AAl?$AAi?$AAs?$AAh?$AA?9?$AAi?$AAr?$AAe@ 000000014008bf00     libucrt:get_qualified_locale.obj
 0002:00005f20       ??_C@_1CA@NJMMCFOC@?$AAe?$AAn?$AAg?$AAl?$AAi?$AAs?$AAh?$AA?9?$AAj?$AAa?$AAm?$AAa?$AAi?$AAc?$AAa@ 000000014008bf20     libucrt:get_qualified_locale.obj
 0002:00005f48       ??_C@_1BG@BHJEBBGG@?$AAe?$AAn?$AAg?$AAl?$AAi?$AAs?$AAh?$AA?9?$AAn?$AAz@ 000000014008bf48     libucrt:get_qualified_locale.obj
 0002:00005f68       ??_C@_1CK@FGOEJJCO@?$AAe?$AAn?$AAg?$AAl?$AAi?$AAs?$AAh?$AA?9?$AAs?$AAo?$AAu?$AAt?$AAh?$AA?5?$AAa@ 000000014008bf68     libucrt:get_qualified_locale.obj
 0002:00005fa0       ??_C@_1DE@PDBJPCJ@?$AAe?$AAn?$AAg?$AAl?$AAi?$AAs?$AAh?$AA?9?$AAt?$AAr?$AAi?$AAn?$AAi?$AAd?$AAa@ 000000014008bfa0     libucrt:get_qualified_locale.obj
 0002:00005fe0       ??_C@_1BG@JGCANDME@?$AAe?$AAn?$AAg?$AAl?$AAi?$AAs?$AAh?$AA?9?$AAu?$AAk@ 000000014008bfe0     libucrt:get_qualified_locale.obj
 0002:00006000       ??_C@_1BG@DINKMLE@?$AAe?$AAn?$AAg?$AAl?$AAi?$AAs?$AAh?$AA?9?$AAu?$AAs@ 000000014008c000     libucrt:get_qualified_locale.obj
 0002:00006020       ??_C@_1BI@NMFDBHJE@?$AAe?$AAn?$AAg?$AAl?$AAi?$AAs?$AAh?$AA?9?$AAu?$AAs?$AAa@ 000000014008c020     libucrt:get_qualified_locale.obj
 0002:00006040       ??_C@_1BO@OIHKJKII@?$AAf?$AAr?$AAe?$AAn?$AAc?$AAh?$AA?9?$AAb?$AAe?$AAl?$AAg?$AAi?$AAa?$AAn@ 000000014008c040     libucrt:get_qualified_locale.obj
 0002:00006068       ??_C@_1CA@NKAELJKI@?$AAf?$AAr?$AAe?$AAn?$AAc?$AAh?$AA?9?$AAc?$AAa?$AAn?$AAa?$AAd?$AAi?$AAa?$AAn@ 000000014008c068     libucrt:get_qualified_locale.obj
 0002:00006090       ??_C@_1CE@MGKCNLGN@?$AAf?$AAr?$AAe?$AAn?$AAc?$AAh?$AA?9?$AAl?$AAu?$AAx?$AAe?$AAm?$AAb?$AAo?$AAu@ 000000014008c090     libucrt:get_qualified_locale.obj
 0002:000060c0       ??_C@_1BK@CEGEAILM@?$AAf?$AAr?$AAe?$AAn?$AAc?$AAh?$AA?9?$AAs?$AAw?$AAi?$AAs?$AAs@ 000000014008c0c0     libucrt:get_qualified_locale.obj
 0002:000060e0       ??_C@_1CA@PAFKEOCC@?$AAg?$AAe?$AAr?$AAm?$AAa?$AAn?$AA?9?$AAa?$AAu?$AAs?$AAt?$AAr?$AAi?$AAa?$AAn@ 000000014008c0e0     libucrt:get_qualified_locale.obj
 0002:00006108       ??_C@_1CI@HCFHGOFD@?$AAg?$AAe?$AAr?$AAm?$AAa?$AAn?$AA?9?$AAl?$AAi?$AAc?$AAh?$AAt?$AAe?$AAn?$AAs@ 000000014008c108     libucrt:get_qualified_locale.obj
 0002:00006138       ??_C@_1CE@FEDDNPDG@?$AAg?$AAe?$AAr?$AAm?$AAa?$AAn?$AA?9?$AAl?$AAu?$AAx?$AAe?$AAm?$AAb?$AAo?$AAu@ 000000014008c138     libucrt:get_qualified_locale.obj
 0002:00006168       ??_C@_1BK@LIMINNMN@?$AAg?$AAe?$AAr?$AAm?$AAa?$AAn?$AA?9?$AAs?$AAw?$AAi?$AAs?$AAs@ 000000014008c168     libucrt:get_qualified_locale.obj
 0002:00006188       ??_C@_1BM@LGMDBEPD@?$AAi?$AAr?$AAi?$AAs?$AAh?$AA?9?$AAe?$AAn?$AAg?$AAl?$AAi?$AAs?$AAh@ 000000014008c188     libucrt:get_qualified_locale.obj
 0002:000061b0       ??_C@_1BM@NNCFBAEE@?$AAi?$AAt?$AAa?$AAl?$AAi?$AAa?$AAn?$AA?9?$AAs?$AAw?$AAi?$AAs?$AAs@ 000000014008c1b0     libucrt:get_qualified_locale.obj
 0002:000061d8       ??_C@_1BE@FEDJNPIB@?$AAn?$AAo?$AAr?$AAw?$AAe?$AAg?$AAi?$AAa?$AAn@ 000000014008c1d8     libucrt:get_qualified_locale.obj
 0002:000061f0       ??_C@_1CC@CILKDEIE@?$AAn?$AAo?$AAr?$AAw?$AAe?$AAg?$AAi?$AAa?$AAn?$AA?9?$AAb?$AAo?$AAk?$AAm?$AAa@ 000000014008c1f0     libucrt:get_qualified_locale.obj
 0002:00006218       ??_C@_1CE@DHMMHEPL@?$AAn?$AAo?$AAr?$AAw?$AAe?$AAg?$AAi?$AAa?$AAn?$AA?9?$AAn?$AAy?$AAn?$AAo?$AAr@ 000000014008c218     libucrt:get_qualified_locale.obj
 0002:00006248       ??_C@_1CK@OPNMHECD@?$AAp?$AAo?$AAr?$AAt?$AAu?$AAg?$AAu?$AAe?$AAs?$AAe?$AA?9?$AAb?$AAr?$AAa?$AAz@ 000000014008c248     libucrt:get_qualified_locale.obj
 0002:00006280       ??_C@_1CE@KEEHCDB@?$AAs?$AAp?$AAa?$AAn?$AAi?$AAs?$AAh?$AA?9?$AAa?$AAr?$AAg?$AAe?$AAn?$AAt?$AAi@ 000000014008c280     libucrt:get_qualified_locale.obj
 0002:000062b0       ??_C@_1CA@GIAOLHJD@?$AAs?$AAp?$AAa?$AAn?$AAi?$AAs?$AAh?$AA?9?$AAb?$AAo?$AAl?$AAi?$AAv?$AAi?$AAa@ 000000014008c2b0     libucrt:get_qualified_locale.obj
 0002:000062d8       ??_C@_1BM@OJNDFNPD@?$AAs?$AAp?$AAa?$AAn?$AAi?$AAs?$AAh?$AA?9?$AAc?$AAh?$AAi?$AAl?$AAe@ 000000014008c2d8     libucrt:get_qualified_locale.obj
 0002:00006300       ??_C@_1CC@OCOLPALL@?$AAs?$AAp?$AAa?$AAn?$AAi?$AAs?$AAh?$AA?9?$AAc?$AAo?$AAl?$AAo?$AAm?$AAb?$AAi@ 000000014008c300     libucrt:get_qualified_locale.obj
 0002:00006328       ??_C@_1CG@BPOFMKBB@?$AAs?$AAp?$AAa?$AAn?$AAi?$AAs?$AAh?$AA?9?$AAc?$AAo?$AAs?$AAt?$AAa?$AA?5?$AAr@ 000000014008c328     libucrt:get_qualified_locale.obj
 0002:00006358       ??_C@_1DG@IGOBAPBB@?$AAs?$AAp?$AAa?$AAn?$AAi?$AAs?$AAh?$AA?9?$AAd?$AAo?$AAm?$AAi?$AAn?$AAi?$AAc@ 000000014008c358     libucrt:get_qualified_locale.obj
 0002:00006398       ??_C@_1CA@JHAPGEGI@?$AAs?$AAp?$AAa?$AAn?$AAi?$AAs?$AAh?$AA?9?$AAe?$AAc?$AAu?$AAa?$AAd?$AAo?$AAr@ 000000014008c398     libucrt:get_qualified_locale.obj
 0002:000063c0       ??_C@_1CI@LAPALJPP@?$AAs?$AAp?$AAa?$AAn?$AAi?$AAs?$AAh?$AA?9?$AAe?$AAl?$AA?5?$AAs?$AAa?$AAl?$AAv@ 000000014008c3c0     libucrt:get_qualified_locale.obj
 0002:000063f0       ??_C@_1CE@PDGBOFOM@?$AAs?$AAp?$AAa?$AAn?$AAi?$AAs?$AAh?$AA?9?$AAg?$AAu?$AAa?$AAt?$AAe?$AAm?$AAa@ 000000014008c3f0     libucrt:get_qualified_locale.obj
 0002:00006420       ??_C@_1CC@NBEBAODI@?$AAs?$AAp?$AAa?$AAn?$AAi?$AAs?$AAh?$AA?9?$AAh?$AAo?$AAn?$AAd?$AAu?$AAr?$AAa@ 000000014008c420     libucrt:get_qualified_locale.obj
 0002:00006448       ??_C@_1CA@LLKGHBMF@?$AAs?$AAp?$AAa?$AAn?$AAi?$AAs?$AAh?$AA?9?$AAm?$AAe?$AAx?$AAi?$AAc?$AAa?$AAn@ 000000014008c448     libucrt:get_qualified_locale.obj
 0002:00006470       ??_C@_1BO@LKNDOIGD@?$AAs?$AAp?$AAa?$AAn?$AAi?$AAs?$AAh?$AA?9?$AAm?$AAo?$AAd?$AAe?$AAr?$AAn@ 000000014008c470     libucrt:get_qualified_locale.obj
 0002:00006498       ??_C@_1CE@NMDMOEEB@?$AAs?$AAp?$AAa?$AAn?$AAi?$AAs?$AAh?$AA?9?$AAn?$AAi?$AAc?$AAa?$AAr?$AAa?$AAg@ 000000014008c498     libucrt:get_qualified_locale.obj
 0002:000064c8       ??_C@_1BO@LLCBEJGB@?$AAs?$AAp?$AAa?$AAn?$AAi?$AAs?$AAh?$AA?9?$AAp?$AAa?$AAn?$AAa?$AAm?$AAa@ 000000014008c4c8     libucrt:get_qualified_locale.obj
 0002:000064f0       ??_C@_1CC@FKPGGIHO@?$AAs?$AAp?$AAa?$AAn?$AAi?$AAs?$AAh?$AA?9?$AAp?$AAa?$AAr?$AAa?$AAg?$AAu?$AAa@ 000000014008c4f0     libucrt:get_qualified_locale.obj
 0002:00006518       ??_C@_1BK@CDEIHOOP@?$AAs?$AAp?$AAa?$AAn?$AAi?$AAs?$AAh?$AA?9?$AAp?$AAe?$AAr?$AAu@ 000000014008c518     libucrt:get_qualified_locale.obj
 0002:00006538       ??_C@_1CI@GAHAKKGP@?$AAs?$AAp?$AAa?$AAn?$AAi?$AAs?$AAh?$AA?9?$AAp?$AAu?$AAe?$AAr?$AAt?$AAo?$AA?5@ 000000014008c538     libucrt:get_qualified_locale.obj
 0002:00006568       ??_C@_1CA@NKJBCAGP@?$AAs?$AAp?$AAa?$AAn?$AAi?$AAs?$AAh?$AA?9?$AAu?$AAr?$AAu?$AAg?$AAu?$AAa?$AAy@ 000000014008c568     libucrt:get_qualified_locale.obj
 0002:00006590       ??_C@_1CE@ODILCONM@?$AAs?$AAp?$AAa?$AAn?$AAi?$AAs?$AAh?$AA?9?$AAv?$AAe?$AAn?$AAe?$AAz?$AAu?$AAe@ 000000014008c590     libucrt:get_qualified_locale.obj
 0002:000065c0       ??_C@_1CA@OBNMCGFO@?$AAs?$AAw?$AAe?$AAd?$AAi?$AAs?$AAh?$AA?9?$AAf?$AAi?$AAn?$AAl?$AAa?$AAn?$AAd@ 000000014008c5c0     libucrt:get_qualified_locale.obj
 0002:000065e8       ??_C@_1M@PIPDDPPI@?$AAs?$AAw?$AAi?$AAs?$AAs@ 000000014008c5e8     libucrt:get_qualified_locale.obj
 0002:000065f8       ??_C@_15PJPFLCCM@?$AAu?$AAk@ 000000014008c5f8     libucrt:get_qualified_locale.obj
 0002:00006600       ??_C@_15GMFIMNFM@?$AAu?$AAs@ 000000014008c600     libucrt:get_qualified_locale.obj
 0002:00006608       ??_C@_17HAEBFAGL@?$AAu?$AAs?$AAa@ 000000014008c608     libucrt:get_qualified_locale.obj
 0002:00006618       ??_C@_1BA@DPFJEPHB@?$AAa?$AAm?$AAe?$AAr?$AAi?$AAc?$AAa@ 000000014008c618     libucrt:get_qualified_locale.obj
 0002:00006630       ??_C@_1BA@ELOGGFK@?$AAb?$AAr?$AAi?$AAt?$AAa?$AAi?$AAn@ 000000014008c630     libucrt:get_qualified_locale.obj
 0002:00006648       ??_C@_1M@GHBGIGDA@?$AAc?$AAh?$AAi?$AAn?$AAa@ 000000014008c648     libucrt:get_qualified_locale.obj
 0002:00006658       ??_C@_1M@NCHEJOPO@?$AAc?$AAz?$AAe?$AAc?$AAh@ 000000014008c658     libucrt:get_qualified_locale.obj
 0002:00006668       ??_C@_1BA@BKPAPBLA@?$AAe?$AAn?$AAg?$AAl?$AAa?$AAn?$AAd@ 000000014008c668     libucrt:get_qualified_locale.obj
 0002:00006680       ??_C@_1BM@HKBCKIPC@?$AAg?$AAr?$AAe?$AAa?$AAt?$AA?5?$AAb?$AAr?$AAi?$AAt?$AAa?$AAi?$AAn@ 000000014008c680     libucrt:get_qualified_locale.obj
 0002:000066a8       ??_C@_1BA@PPCHPGJB@?$AAh?$AAo?$AAl?$AAl?$AAa?$AAn?$AAd@ 000000014008c6a8     libucrt:get_qualified_locale.obj
 0002:000066c0       ??_C@_1BE@JBMPEGDG@?$AAh?$AAo?$AAn?$AAg?$AA?9?$AAk?$AAo?$AAn?$AAg@ 000000014008c6c0     libucrt:get_qualified_locale.obj
 0002:000066d8       ??_C@_1BI@KOELBBPJ@?$AAn?$AAe?$AAw?$AA?9?$AAz?$AAe?$AAa?$AAl?$AAa?$AAn?$AAd@ 000000014008c6d8     libucrt:get_qualified_locale.obj
 0002:000066f4       ??_C@_15HIEBHAIO@?$AAn?$AAz@ 000000014008c6f4     libucrt:get_qualified_locale.obj
 0002:00006700       ??_C@_1BC@CHBCPFPI@?$AAp?$AAr?$AA?5?$AAc?$AAh?$AAi?$AAn?$AAa@ 000000014008c700     libucrt:get_qualified_locale.obj
 0002:00006718       ??_C@_1BC@JAOIIFKD@?$AAp?$AAr?$AA?9?$AAc?$AAh?$AAi?$AAn?$AAa@ 000000014008c718     libucrt:get_qualified_locale.obj
 0002:00006730       ??_C@_1BI@BEHPPHKC@?$AAp?$AAu?$AAe?$AAr?$AAt?$AAo?$AA?9?$AAr?$AAi?$AAc?$AAo@ 000000014008c730     libucrt:get_qualified_locale.obj
 0002:00006750       ??_C@_1O@PAEOFKDI@?$AAs?$AAl?$AAo?$AAv?$AAa?$AAk@ 000000014008c750     libucrt:get_qualified_locale.obj
 0002:00006760       ??_C@_1BK@FIHMCKAM@?$AAs?$AAo?$AAu?$AAt?$AAh?$AA?5?$AAa?$AAf?$AAr?$AAi?$AAc?$AAa@ 000000014008c760     libucrt:get_qualified_locale.obj
 0002:00006780       ??_C@_1BI@NAEOODKB@?$AAs?$AAo?$AAu?$AAt?$AAh?$AA?5?$AAk?$AAo?$AAr?$AAe?$AAa@ 000000014008c780     libucrt:get_qualified_locale.obj
 0002:000067a0       ??_C@_1BK@FBDGGIFF@?$AAs?$AAo?$AAu?$AAt?$AAh?$AA?9?$AAa?$AAf?$AAr?$AAi?$AAc?$AAa@ 000000014008c7a0     libucrt:get_qualified_locale.obj
 0002:000067c0       ??_C@_1BI@GHLEJDPK@?$AAs?$AAo?$AAu?$AAt?$AAh?$AA?9?$AAk?$AAo?$AAr?$AAe?$AAa@ 000000014008c7c0     libucrt:get_qualified_locale.obj
 0002:000067e0       ??_C@_1CE@PLHLOMJF@?$AAt?$AAr?$AAi?$AAn?$AAi?$AAd?$AAa?$AAd?$AA?5?$AA?$CG?$AA?5?$AAt?$AAo?$AAb?$AAa@ 000000014008c7e0     libucrt:get_qualified_locale.obj
 0002:00006810       ??_C@_1BO@MODIMHHI@?$AAu?$AAn?$AAi?$AAt?$AAe?$AAd?$AA?9?$AAk?$AAi?$AAn?$AAg?$AAd?$AAo?$AAm@ 000000014008c810     libucrt:get_qualified_locale.obj
 0002:00006838       ??_C@_1BM@FFHJONBJ@?$AAu?$AAn?$AAi?$AAt?$AAe?$AAd?$AA?9?$AAs?$AAt?$AAa?$AAt?$AAe?$AAs@ 000000014008c838     libucrt:get_qualified_locale.obj
 0002:00006860       ??_C@_19MPDNHKDG@?$AAu?$AAt?$AAf?$AA8@ 000000014008c860     libucrt:get_qualified_locale.obj
 0002:00006870       ??_C@_17DNCLJFIF@?$AAA?$AAC?$AAP@ 000000014008c870     libucrt:get_qualified_locale.obj
 0002:00006880       ??_C@_1M@FPEIIFAM@?$AAu?$AAt?$AAf?$AA?9?$AA8@ 000000014008c880     libucrt:get_qualified_locale.obj
 0002:00006890       ??_C@_17CIKBIHLH@?$AAO?$AAC?$AAP@ 000000014008c890     libucrt:get_qualified_locale.obj
 0002:000068a0       __rglangidNotDefault       000000014008c8a0     libucrt:getqloc_downlevel.obj
 0002:000079dc       ??_C@_15EMKDOKLE@?$AAa?$AAr@ 000000014008d9dc     libucrt:lcidtoname_downlevel.obj
 0002:000079e4       ??_C@_15KNPADPLH@?$AAb?$AAg@ 000000014008d9e4     libucrt:lcidtoname_downlevel.obj
 0002:000079ec       ??_C@_15EDMHLDMO@?$AAc?$AAa@ 000000014008d9ec     libucrt:lcidtoname_downlevel.obj
 0002:000079f8       ??_C@_1O@BPEAJADD@?$AAz?$AAh?$AA?9?$AAC?$AAH?$AAS@ 000000014008d9f8     libucrt:lcidtoname_downlevel.obj
 0002:00007a08       ??_C@_15LJNHCMNK@?$AAc?$AAs@ 000000014008da08     libucrt:lcidtoname_downlevel.obj
 0002:00007a10       ??_C@_15FOMCIDHG@?$AAd?$AAa@ 000000014008da10     libucrt:lcidtoname_downlevel.obj
 0002:00007a18       ??_C@_15NBKABECB@?$AAd?$AAe@ 000000014008da18     libucrt:lcidtoname_downlevel.obj
 0002:00007a20       ??_C@_15GHPEIIAO@?$AAe?$AAl@ 000000014008da20     libucrt:lcidtoname_downlevel.obj
 0002:00007a28       ??_C@_15MNPNEAIF@?$AAe?$AAn@ 000000014008da28     libucrt:lcidtoname_downlevel.obj
 0002:00007a30       ??_C@_15GPIOMPMH@?$AAe?$AAs@ 000000014008da30     libucrt:lcidtoname_downlevel.obj
 0002:00007a38       ??_C@_15NGLOAKJC@?$AAf?$AAi@ 000000014008da38     libucrt:lcidtoname_downlevel.obj
 0002:00007a40       ??_C@_15FBKGNKAM@?$AAf?$AAr@ 000000014008da40     libucrt:lcidtoname_downlevel.obj
 0002:00007a48       ??_C@_15KGGCNEFK@?$AAh?$AAe@ 000000014008da48     libucrt:lcidtoname_downlevel.obj
 0002:00007a50       ??_C@_15PGHLIDMF@?$AAh?$AAu@ 000000014008da50     libucrt:lcidtoname_downlevel.obj
 0002:00007a58       ??_C@_15BIEMAPLM@?$AAi?$AAs@ 000000014008da58     libucrt:lcidtoname_downlevel.obj
 0002:00007a60       ??_C@_15IFJLDHAF@?$AAi?$AAt@ 000000014008da60     libucrt:lcidtoname_downlevel.obj
 0002:00007a68       ??_C@_15GEMIOCAG@?$AAj?$AAa@ 000000014008da68     libucrt:lcidtoname_downlevel.obj
 0002:00007a70       ??_C@_15EPELEGJA@?$AAk?$AAo@ 000000014008da70     libucrt:lcidtoname_downlevel.obj
 0002:00007a78       ??_C@_15NDDHIMN@?$AAn?$AAl@ 000000014008da78     libucrt:lcidtoname_downlevel.obj
 0002:00007a80       ??_C@_15BPIGNHCD@?$AAn?$AAo@ 000000014008da80     libucrt:lcidtoname_downlevel.obj
 0002:00007a88       ??_C@_15DEOPBLCG@?$AAp?$AAl@ 000000014008da88     libucrt:lcidtoname_downlevel.obj
 0002:00007a90       ??_C@_15KBECGEFG@?$AAp?$AAt@ 000000014008da90     libucrt:lcidtoname_downlevel.obj
 0002:00007a98       ??_C@_15GLJCBFMD@?$AAr?$AAo@ 000000014008da98     libucrt:lcidtoname_downlevel.obj
 0002:00007aa0       ??_C@_15FEDGKCDI@?$AAr?$AAu@ 000000014008daa0     libucrt:lcidtoname_downlevel.obj
 0002:00007aa8       ??_C@_15GLKMLLHM@?$AAh?$AAr@ 000000014008daa8     libucrt:lcidtoname_downlevel.obj
 0002:00007ab0       ??_C@_15CPKMFBDB@?$AAs?$AAk@ 000000014008dab0     libucrt:lcidtoname_downlevel.obj
 0002:00007ab8       ??_C@_15BAAIOGMK@?$AAs?$AAq@ 000000014008dab8     libucrt:lcidtoname_downlevel.obj
 0002:00007ac0       ??_C@_15INNPNOHD@?$AAs?$AAv@ 000000014008dac0     libucrt:lcidtoname_downlevel.obj
 0002:00007ac8       ??_C@_15CABMMOGH@?$AAt?$AAh@ 000000014008dac8     libucrt:lcidtoname_downlevel.obj
 0002:00007ad0       ??_C@_15BPLIHJJM@?$AAt?$AAr@ 000000014008dad0     libucrt:lcidtoname_downlevel.obj
 0002:00007ad8       ??_C@_15NEOEKKDJ@?$AAu?$AAr@ 000000014008dad8     libucrt:lcidtoname_downlevel.obj
 0002:00007ae0       ??_C@_15NFICGAJK@?$AAi?$AAd@ 000000014008dae0     libucrt:lcidtoname_downlevel.obj
 0002:00007ae8       ??_C@_15HPJPHDM@?$AAb?$AAe@ 000000014008dae8     libucrt:lcidtoname_downlevel.obj
 0002:00007af0       ??_C@_15LCHLGJII@?$AAs?$AAl@ 000000014008daf0     libucrt:lcidtoname_downlevel.obj
 0002:00007af8       ??_C@_15PCFJPHHO@?$AAe?$AAt@ 000000014008daf8     libucrt:lcidtoname_downlevel.obj
 0002:00007b00       ??_C@_15HPFPGODN@?$AAl?$AAv@ 000000014008db00     libucrt:lcidtoname_downlevel.obj
 0002:00007b08       ??_C@_15NFFGKGLG@?$AAl?$AAt@ 000000014008db08     libucrt:lcidtoname_downlevel.obj
 0002:00007b10       ??_C@_15BDAKCCHN@?$AAf?$AAa@ 000000014008db10     libucrt:lcidtoname_downlevel.obj
 0002:00007b18       ??_C@_15NFGIAIAJ@?$AAv?$AAi@ 000000014008db18     libucrt:lcidtoname_downlevel.obj
 0002:00007b20       ??_C@_15LMKNDMHN@?$AAh?$AAy@ 000000014008db20     libucrt:lcidtoname_downlevel.obj
 0002:00007b28       ??_C@_15IJBHMCFL@?$AAa?$AAz@ 000000014008db28     libucrt:lcidtoname_downlevel.obj
 0002:00007b30       ??_C@_15EKOFJABL@?$AAe?$AAu@ 000000014008db30     libucrt:lcidtoname_downlevel.obj
 0002:00007b38       ??_C@_15BGHADCNK@?$AAm?$AAk@ 000000014008db38     libucrt:lcidtoname_downlevel.obj
 0002:00007b40       ??_C@_15JDNICKHM@?$AAa?$AAf@ 000000014008db40     libucrt:lcidtoname_downlevel.obj
 0002:00007b48       ??_C@_15KPJEDBKD@?$AAk?$AAa@ 000000014008db48     libucrt:lcidtoname_downlevel.obj
 0002:00007b50       ??_C@_15PDNFFFEO@?$AAf?$AAo@ 000000014008db50     libucrt:lcidtoname_downlevel.obj
 0002:00007b58       ??_C@_15OMLEGLOC@?$AAh?$AAi@ 000000014008db58     libucrt:lcidtoname_downlevel.obj
 0002:00007b60       ??_C@_15IDNNENKK@?$AAm?$AAs@ 000000014008db60     libucrt:lcidtoname_downlevel.obj
 0002:00007b68       ??_C@_15MACJNBMH@?$AAk?$AAk@ 000000014008db68     libucrt:lcidtoname_downlevel.obj
 0002:00007b70       ??_C@_15DKDJEOND@?$AAk?$AAy@ 000000014008db70     libucrt:lcidtoname_downlevel.obj
 0002:00007b78       ??_C@_15DFGDLJBG@?$AAs?$AAw@ 000000014008db78     libucrt:lcidtoname_downlevel.obj
 0002:00007b80       ??_C@_15BBFAICNG@?$AAu?$AAz@ 000000014008db80     libucrt:lcidtoname_downlevel.obj
 0002:00007b88       ??_C@_15DKNDCGEA@?$AAt?$AAt@ 000000014008db88     libucrt:lcidtoname_downlevel.obj
 0002:00007b90       ??_C@_15MGIFMDPL@?$AAp?$AAa@ 000000014008db90     libucrt:lcidtoname_downlevel.obj
 0002:00007b98       ??_C@_15HCNDBBA@?$AAg?$AAu@ 000000014008db98     libucrt:lcidtoname_downlevel.obj
 0002:00007ba0       ??_C@_15FNBEIBON@?$AAt?$AAa@ 000000014008dba0     libucrt:lcidtoname_downlevel.obj
 0002:00007ba8       ??_C@_15NCHGBGLK@?$AAt?$AAe@ 000000014008dba8     libucrt:lcidtoname_downlevel.obj
 0002:00007bb0       ??_C@_15PHPHCBPF@?$AAk?$AAn@ 000000014008dbb0     libucrt:lcidtoname_downlevel.obj
 0002:00007bb8       ??_C@_15DLGBCKMP@?$AAm?$AAr@ 000000014008dbb8     libucrt:lcidtoname_downlevel.obj
 0002:00007bc0       ??_C@_15EABBLBFF@?$AAs?$AAa@ 000000014008dbc0     libucrt:lcidtoname_downlevel.obj
 0002:00007bc8       ??_C@_15CBKOMCOI@?$AAm?$AAn@ 000000014008dbc8     libucrt:lcidtoname_downlevel.obj
 0002:00007bd0       ??_C@_15CKDMCJAF@?$AAg?$AAl@ 000000014008dbd0     libucrt:lcidtoname_downlevel.obj
 0002:00007bd8       ??_C@_17CNJFBPG@?$AAk?$AAo?$AAk@ 000000014008dbd8     libucrt:lcidtoname_downlevel.obj
 0002:00007be8       ??_C@_17FFBJICPL@?$AAs?$AAy?$AAr@ 000000014008dbe8     libucrt:lcidtoname_downlevel.obj
 0002:00007bf8       ??_C@_17KPNDCPAF@?$AAd?$AAi?$AAv@ 000000014008dbf8     libucrt:lcidtoname_downlevel.obj
 0002:00007c04       ??_C@_11LOCGONAA@@         000000014008dc04     libucrt:lcidtoname_downlevel.obj
 0002:00007c08       ??_C@_1M@OKAHONE@?$AAa?$AAr?$AA?9?$AAS?$AAA@ 000000014008dc08     libucrt:lcidtoname_downlevel.obj
 0002:00007c18       ??_C@_1M@FFFIGIGK@?$AAb?$AAg?$AA?9?$AAB?$AAG@ 000000014008dc18     libucrt:lcidtoname_downlevel.obj
 0002:00007c28       ??_C@_1M@BJNKEDC@?$AAc?$AAa?$AA?9?$AAE?$AAS@ 000000014008dc28     libucrt:lcidtoname_downlevel.obj
 0002:00007c38       ??_C@_1M@IJJHFJHA@?$AAc?$AAs?$AA?9?$AAC?$AAZ@ 000000014008dc38     libucrt:lcidtoname_downlevel.obj
 0002:00007c48       ??_C@_1M@CLPEOBGI@?$AAd?$AAa?$AA?9?$AAD?$AAK@ 000000014008dc48     libucrt:lcidtoname_downlevel.obj
 0002:00007c58       ??_C@_1M@MCMADGCB@?$AAd?$AAe?$AA?9?$AAD?$AAE@ 000000014008dc58     libucrt:lcidtoname_downlevel.obj
 0002:00007c68       ??_C@_1M@OOCKEMAM@?$AAe?$AAl?$AA?9?$AAG?$AAR@ 000000014008dc68     libucrt:lcidtoname_downlevel.obj
 0002:00007c78       ??_C@_1M@DDNJFGID@?$AAf?$AAi?$AA?9?$AAF?$AAI@ 000000014008dc78     libucrt:lcidtoname_downlevel.obj
 0002:00007c88       ??_C@_1M@GLIPPMAC@?$AAf?$AAr?$AA?9?$AAF?$AAR@ 000000014008dc88     libucrt:lcidtoname_downlevel.obj
 0002:00007c98       ??_C@_1M@GFMCHPE@?$AAh?$AAe?$AA?9?$AAI?$AAL@ 000000014008dc98     libucrt:lcidtoname_downlevel.obj
 0002:00007ca8       ??_C@_1M@MHLPGNKM@?$AAh?$AAu?$AA?9?$AAH?$AAU@ 000000014008dca8     libucrt:lcidtoname_downlevel.obj
 0002:00007cb8       ??_C@_1M@LPDDNNPN@?$AAi?$AAs?$AA?9?$AAI?$AAS@ 000000014008dcb8     libucrt:lcidtoname_downlevel.obj
 0002:00007cc8       ??_C@_1M@MADIPODN@?$AAi?$AAt?$AA?9?$AAI?$AAT@ 000000014008dcc8     libucrt:lcidtoname_downlevel.obj
 0002:00007cd8       ??_C@_1M@IHBJJGG@?$AAn?$AAl?$AA?9?$AAN?$AAL@ 000000014008dcd8     libucrt:lcidtoname_downlevel.obj
 0002:00007ce8       ??_C@_1M@EANAGDL@?$AAn?$AAb?$AA?9?$AAN?$AAO@ 000000014008dce8     libucrt:lcidtoname_downlevel.obj
 0002:00007cf8       ??_C@_1M@NEIEMEGP@?$AAp?$AAl?$AA?9?$AAP?$AAL@ 000000014008dcf8     libucrt:lcidtoname_downlevel.obj
 0002:00007d08       ??_C@_1M@BOCFIGEP@?$AAp?$AAt?$AA?9?$AAB?$AAR@ 000000014008dd08     libucrt:lcidtoname_downlevel.obj
 0002:00007d18       ??_C@_1M@IMPFOPBG@?$AAr?$AAo?$AA?9?$AAR?$AAO@ 000000014008dd18     libucrt:lcidtoname_downlevel.obj
 0002:00007d28       ??_C@_1M@IDNNEJMM@?$AAr?$AAu?$AA?9?$AAR?$AAU@ 000000014008dd28     libucrt:lcidtoname_downlevel.obj
 0002:00007d38       ??_C@_1M@LILEEOGM@?$AAh?$AAr?$AA?9?$AAH?$AAR@ 000000014008dd38     libucrt:lcidtoname_downlevel.obj
 0002:00007d48       ??_C@_1M@FKIFEHPB@?$AAs?$AAk?$AA?9?$AAS?$AAK@ 000000014008dd48     libucrt:lcidtoname_downlevel.obj
 0002:00007d58       ??_C@_1M@LJMAMNPJ@?$AAs?$AAq?$AA?9?$AAA?$AAL@ 000000014008dd58     libucrt:lcidtoname_downlevel.obj
 0002:00007d68       ??_C@_1M@GIAKDKJK@?$AAs?$AAv?$AA?9?$AAS?$AAE@ 000000014008dd68     libucrt:lcidtoname_downlevel.obj
