 PdfFilter

 Timestamp is 674c1d5f (Sun Dec  1 13:55:03 2024)

 Preferred load address is 0000000180000000

 Start         Length     Name                   Class
 0001:00000000 00013e80H .text$di                CODE
 0001:00013e80 0014ae90H .text$mn                CODE
 0001:0015ed10 00001140H .text$mn$00             CODE
 0001:0015fe50 00001f30H .text$mn$21             CODE
 0001:00161d80 00002520H .text$x                 CODE
 0001:001642a0 00001074H .text$yd                CODE
 0002:00000000 00000110H .CRT$XCA                DATA
 0002:00000110 000001e0H .CRT$XCU                DATA
 0002:000002f0 00000110H .CRT$XCZ                DATA
 0002:00000400 00000110H .CRT$XIA                DATA
 0002:00000510 00000158H .CRT$XIC                DATA
 0002:00000668 00000110H .CRT$XIZ                DATA
 0002:00000778 00000008H .CRT$XLA                DATA
 0002:00000780 00000008H .CRT$XLZ                DATA
 0002:00000788 00000110H .CRT$XPA                DATA
 0002:00000898 00000120H .CRT$XPX                DATA
 0002:000009b8 00000110H .CRT$XPXA               DATA
 0002:00000ac8 00000110H .CRT$XPZ                DATA
 0002:00000bd8 00000110H .CRT$XTA                DATA
 0002:00000ce8 00000118H .CRT$XTZ                DATA
 0002:00000e00 0002b880H .rdata                  DATA
 0002:0002c680 00000300H .rdata$00               DATA
 0002:0002c980 00000200H .rdata$CastGuardVftablesA DATA
 0002:0002cb80 000001a0H .rdata$CastGuardVftablesC DATA
 0002:0002cd20 00000130H .rdata$T                DATA
 0002:0002ce50 00000c30H .rdata$r                DATA
 0002:0002da80 00000188H .rdata$zzzdbg           DATA
 0002:0002dc08 00000110H .rtc$IAA                DATA
 0002:0002dd18 00000110H .rtc$IZZ                DATA
 0002:0002de28 00000110H .rtc$TAA                DATA
 0002:0002df38 00000110H .rtc$TZZ                DATA
 0002:0002e048 00010a70H .xdata                  DATA
 0002:0003eab8 00000728H .xdata$x                DATA
 0002:0003f1e0 000001c7H .edata                  DATA
 0003:00000000 000020f0H .data                   DATA
 0003:000020f0 00000420H .data$r                 DATA
 0003:00002510 00000230H .data$rs                DATA
 0003:00002740 0000edb9H .bss                    DATA
 0004:00000000 0000e190H .pdata                  DATA
 0005:00000000 00001880H .idata$5                DATA
 0005:00001880 0000012cH .idata$2                DATA
 0005:000019ac 00000014H .idata$3                DATA
 0005:000019c0 00001880H .idata$4                DATA
 0005:00003240 00002b6bH .idata$6                DATA
 0006:00000000 00000108H .tls                    DATA
 0006:00000108 00000112H .tls$                   DATA
 0006:0000021a 00000101H .tls$ZZZ                DATA
 0007:00000000 00000175H .00cfg                  DATA
 0008:00000000 000001c0H .rsrc$01                DATA
 0008:000001c0 000005e0H .rsrc$02                DATA

  Address         Publics by Value              Rva+Base               Lib:Object

 0000:00000000       __AbsoluteZero             0000000000000000     <absolute>
 0000:00000000       ___safe_se_handler_count   0000000000000000     <absolute>
 0000:00000000       ___safe_se_handler_table   0000000000000000     <absolute>
 0000:00000000       __arm64x_extra_rfe_table   0000000000000000     <absolute>
 0000:00000000       __arm64x_extra_rfe_table_size 0000000000000000     <absolute>
 0000:00000000       __arm64x_native_entrypoint 0000000000000000     <absolute>
 0000:00000000       __arm64x_redirection_metadata 0000000000000000     <absolute>
 0000:00000000       __arm64x_redirection_metadata_count 0000000000000000     <absolute>
 0000:00000000       __dynamic_value_reloc_table 0000000000000000     <absolute>
 0000:00000000       __enclave_config           0000000000000000     <absolute>
 0000:00000000       __guard_check_icall_a64n_fptr 0000000000000000     <absolute>
 0000:00000000       __guard_eh_cont_count      0000000000000000     <absolute>
 0000:00000000       __guard_eh_cont_table      0000000000000000     <absolute>
 0000:00000000       __guard_fids_count         0000000000000000     <absolute>
 0000:00000000       __guard_fids_table         0000000000000000     <absolute>
 0000:00000000       __guard_iat_count          0000000000000000     <absolute>
 0000:00000000       __guard_iat_table          0000000000000000     <absolute>
 0000:00000000       __guard_longjmp_count      0000000000000000     <absolute>
 0000:00000000       __guard_longjmp_table      0000000000000000     <absolute>
 0000:00000000       __hybrid_auxiliary_delayload_iat 0000000000000000     <absolute>
 0000:00000000       __hybrid_auxiliary_delayload_iat_copy 0000000000000000     <absolute>
 0000:00000000       __hybrid_auxiliary_iat     0000000000000000     <absolute>
 0000:00000000       __hybrid_auxiliary_iat_copy 0000000000000000     <absolute>
 0000:00000000       __hybrid_code_map          0000000000000000     <absolute>
 0000:00000000       __hybrid_code_map_count    0000000000000000     <absolute>
 0000:00000000       __hybrid_image_info_bitfield 0000000000000000     <absolute>
 0000:00000000       __volatile_metadata        0000000000000000     <absolute>
 0000:00000000       __x64_code_ranges_to_entry_points 0000000000000000     <absolute>
 0000:00000000       __x64_code_ranges_to_entry_points_count 0000000000000000     <absolute>
 0000:00000100       __guard_flags              0000000000000100     <absolute>
 0000:00000000       __ImageBase                0000000180000000     <linker-defined>
 0001:00013e80       ?_uploadDebugReport@@YAXPEBD_N1@Z 0000000180014e80 f   CrashHandlerNoOp.obj
 0001:00013ec0       ??_H@YAXPEAX_K1P6APEAX0@Z@Z 0000000180014ec0 f i CrashHandlerNoOp.obj
 0001:00013f40       ?__empty_global_delete@@YAXPEAX@Z 0000000180014f40 f i CrashHandlerNoOp.obj
 0001:00013f50       ?__empty_global_delete@@YAXPEAXW4align_val_t@std@@@Z 0000000180014f50 f i CrashHandlerNoOp.obj
 0001:00013f60       ?__empty_global_delete@@YAXPEAX_K@Z 0000000180014f60 f i CrashHandlerNoOp.obj
 0001:00013f60       ?__global_delete@@YAXPEAX_K@Z 0000000180014f60 f i CrashHandlerNoOp.obj
 0001:00013f70       ?__empty_global_delete@@YAXPEAX_KW4align_val_t@std@@@Z 0000000180014f70 f i CrashHandlerNoOp.obj
 0001:00013f90       ?PropsCount@@YAHAEBUStrVec@@@Z 0000000180014f90 f   DocProperties.obj
 0001:00013ff0       ?GetPropIdx@@YAHAEBUStrVec@@PEBD@Z 0000000180014ff0 f   DocProperties.obj
 0001:00014080       ?GetPropValueTemp@@YAPEADAEBUStrVec@@PEBD@Z 0000000180015080 f   DocProperties.obj
 0001:000140d0       ?AddProp@@YAXAEAUStrVec@@PEBD1_N@Z 00000001800150d0 f   DocProperties.obj
 0001:000141a0       ?GetMatchingString@@YAPEBDPEAPEBDPEBD@Z 00000001800151a0 f   DocProperties.obj
 0001:000142e0       ?NormalizeURL@@YAPEADPEBD0@Z 00000001800152e0 f   EbookDoc.obj
 0001:00014580       ?Load@EpubDoc@@AEAA_NXZ    0000000180015580 f   EbookDoc.obj
 0001:00015170       ?ParseMetadata@EpubDoc@@AEAAXPEBD@Z 0000000180016170 f   EbookDoc.obj
 0001:00015360       ?ParseNavToc@EpubDoc@@AEAA_NPEBD_K0PEAVEbookTocVisitor@@@Z 0000000180016360 f   EbookDoc.obj
 0001:00015830       ?ParseNcxToc@EpubDoc@@AEAA_NPEBD_K0PEAVEbookTocVisitor@@@Z 0000000180016830 f   EbookDoc.obj
 0001:00015c60       ??0EpubDoc@@QEAA@PEBD@Z    0000000180016c60 f   EbookDoc.obj
 0001:00015d60       ??0EpubDoc@@QEAA@PEAUIStream@@@Z 0000000180016d60 f   EbookDoc.obj
 0001:00015e40       ??1EpubDoc@@QEAA@XZ        0000000180016e40 f   EbookDoc.obj
 0001:00015fa0       ?GetHtmlData@EpubDoc@@QEBA?AUByteSlice@@XZ 0000000180016fa0 f   EbookDoc.obj
 0001:00015fe0       ?GetImageData@EpubDoc@@QEAAPEAUByteSlice@@PEBD0@Z 0000000180016fe0 f   EbookDoc.obj
 0001:00016470       ?GetFileData@EpubDoc@@QEAA?AUByteSlice@@PEBD0@Z 0000000180017470 f   EbookDoc.obj
 0001:00016560       ?GetPropertyTemp@EpubDoc@@QEBAPEADPEBD@Z 0000000180017560 f   EbookDoc.obj
 0001:000165a0       ?GetFileName@EpubDoc@@QEBAPEBDXZ 00000001800175a0 f   EbookDoc.obj
 0001:000165d0       ?IsRTL@EpubDoc@@QEBA_NXZ   00000001800175d0 f   EbookDoc.obj
 0001:000165f0       ?HasToc@EpubDoc@@QEBA_NXZ  00000001800175f0 f   EbookDoc.obj
 0001:00016640       ?ParseToc@EpubDoc@@QEAA_NPEAVEbookTocVisitor@@@Z 0000000180017640 f   EbookDoc.obj
 0001:00016800       ?IsSupportedFileType@EpubDoc@@SA_NPEBD@Z 0000000180017800 f   EbookDoc.obj
 0001:00016840       ?CreateFromFile@EpubDoc@@SAPEAV1@PEBD@Z 0000000180017840 f   EbookDoc.obj
 0001:000168f0       ?CreateFromStream@EpubDoc@@SAPEAV1@PEAUIStream@@@Z 00000001800178f0 f   EbookDoc.obj
 0001:000169a0       ?Load@Fb2Doc@@QEAA_NXZ     00000001800179a0 f   EbookDoc.obj
 0001:00017450       ?ExtractImage@Fb2Doc@@QEAAXPEAVHtmlPullParser@@PEAUHtmlToken@@@Z 0000000180018450 f   EbookDoc.obj
 0001:000175f0       ??0Fb2Doc@@QEAA@PEBD@Z     00000001800185f0 f   EbookDoc.obj
 0001:000176c0       ??0Fb2Doc@@QEAA@PEAUIStream@@@Z 00000001800186c0 f   EbookDoc.obj
 0001:00017790       ??1Fb2Doc@@QEAA@XZ         0000000180018790 f   EbookDoc.obj
 0001:000178a0       ?GetXmlData@Fb2Doc@@QEBA?AUByteSlice@@XZ 00000001800188a0 f   EbookDoc.obj
 0001:00017900       ?GetImageData@Fb2Doc@@QEBAPEAUByteSlice@@PEBD@Z 0000000180018900 f   EbookDoc.obj
 0001:000179a0       ?GetCoverImage@Fb2Doc@@QEBAPEAUByteSlice@@XZ 00000001800189a0 f   EbookDoc.obj
 0001:000179f0       ?GetPropertyTemp@Fb2Doc@@QEBAPEADPEBD@Z 00000001800189f0 f   EbookDoc.obj
 0001:00017a30       ?GetFileName@Fb2Doc@@QEBAPEBDXZ 0000000180018a30 f   EbookDoc.obj
 0001:00017a60       ?IsZipped@Fb2Doc@@QEBA_NXZ 0000000180018a60 f   EbookDoc.obj
 0001:00017a80       ?HasToc@Fb2Doc@@QEBA_NXZ   0000000180018a80 f   EbookDoc.obj
 0001:00017aa0       ?ParseToc@Fb2Doc@@QEBA_NPEAVEbookTocVisitor@@@Z 0000000180018aa0 f   EbookDoc.obj
 0001:00017d80       ?IsSupportedFileType@Fb2Doc@@SA_NPEBD@Z 0000000180018d80 f   EbookDoc.obj
 0001:00017dd0       ?CreateFromFile@Fb2Doc@@SAPEAV1@PEBD@Z 0000000180018dd0 f   EbookDoc.obj
 0001:00017e80       ?CreateFromStream@Fb2Doc@@SAPEAV1@PEAUIStream@@@Z 0000000180018e80 f   EbookDoc.obj
 0001:00017f30       ?Load@PalmDoc@@AEAA_NXZ    0000000180018f30 f   EbookDoc.obj
 0001:00018230       ??0PalmDoc@@QEAA@PEBD@Z    0000000180019230 f   EbookDoc.obj
 0001:000182b0       ??1PalmDoc@@QEAA@XZ        00000001800192b0 f   EbookDoc.obj
 0001:00018300       ?GetHtmlData@PalmDoc@@QEBA?AUByteSlice@@XZ 0000000180019300 f   EbookDoc.obj
 0001:00018340       ?GetPropertyTemp@PalmDoc@@QEBAPEADPEBD@Z 0000000180019340 f   EbookDoc.obj
 0001:00018360       ?GetFileName@PalmDoc@@QEBAPEBDXZ 0000000180019360 f   EbookDoc.obj
 0001:00018390       ?HasToc@PalmDoc@@QEBA_NXZ  0000000180019390 f   EbookDoc.obj
 0001:000183d0       ?ParseToc@PalmDoc@@QEAA_NPEAVEbookTocVisitor@@@Z 00000001800193d0 f   EbookDoc.obj
 0001:00018480       ?IsSupportedFileType@PalmDoc@@SA_NPEBD@Z 0000000180019480 f   EbookDoc.obj
 0001:000184c0       ?CreateFromFile@PalmDoc@@SAPEAV1@PEBD@Z 00000001800194c0 f   EbookDoc.obj
 0001:00018570       ?Load@HtmlDoc@@AEAA_NXZ    0000000180019570 f   EbookDoc.obj
 0001:00018920       ?LoadURL@HtmlDoc@@AEAA?AUByteSlice@@PEBD@Z 0000000180019920 f   EbookDoc.obj
 0001:000189f0       ??0HtmlDoc@@QEAA@PEBD@Z    00000001800199f0 f   EbookDoc.obj
 0001:00018a90       ??1HtmlDoc@@QEAA@XZ        0000000180019a90 f   EbookDoc.obj
 0001:00018b80       ?GetHtmlData@HtmlDoc@@QEAA?AUByteSlice@@XZ 0000000180019b80 f   EbookDoc.obj
 0001:00018bc0       ?GetImageData@HtmlDoc@@QEAAPEAUByteSlice@@PEBD@Z 0000000180019bc0 f   EbookDoc.obj
 0001:00018da0       ?GetFileData@HtmlDoc@@QEAA?AUByteSlice@@PEBD@Z 0000000180019da0 f   EbookDoc.obj
 0001:00018e20       ?GetPropertyTemp@HtmlDoc@@QEBAPEADPEBD@Z 0000000180019e20 f   EbookDoc.obj
 0001:00018e60       ?GetFileName@HtmlDoc@@QEBAPEBDXZ 0000000180019e60 f   EbookDoc.obj
 0001:00018e90       ?IsSupportedFileType@HtmlDoc@@SA_NPEBD@Z 0000000180019e90 f   EbookDoc.obj
 0001:00018ed0       ?CreateFromFile@HtmlDoc@@SAPEAV1@PEBD@Z 0000000180019ed0 f   EbookDoc.obj
 0001:00018f80       ?Load@TxtDoc@@AEAA_NXZ     0000000180019f80 f   EbookDoc.obj
 0001:00019730       ??0TxtDoc@@QEAA@PEBD@Z     000000018001a730 f   EbookDoc.obj
 0001:000197a0       ?GetHtmlData@TxtDoc@@QEBA?AUByteSlice@@XZ 000000018001a7a0 f   EbookDoc.obj
 0001:000197e0       ?GetPropertyTemp@TxtDoc@@QEBAPEADPEBD@Z 000000018001a7e0 f   EbookDoc.obj
 0001:00019800       ?GetFileName@TxtDoc@@QEBAPEBDXZ 000000018001a800 f   EbookDoc.obj
 0001:00019830       ?IsRFC@TxtDoc@@QEBA_NXZ    000000018001a830 f   EbookDoc.obj
 0001:00019850       ?HasToc@TxtDoc@@QEBA_NXZ   000000018001a850 f   EbookDoc.obj
 0001:00019870       ?ParseToc@TxtDoc@@QEAA_NPEAVEbookTocVisitor@@@Z 000000018001a870 f   EbookDoc.obj
 0001:00019a80       ?IsSupportedFileType@TxtDoc@@SA_NPEBD@Z 000000018001aa80 f   EbookDoc.obj
 0001:00019ac0       ?CreateFromFile@TxtDoc@@SAPEAV1@PEBD@Z 000000018001aac0 f   EbookDoc.obj
 0001:0001d580       ??$AllocArray@E@@YAPEAE_K@Z 000000018001e580 f i EbookDoc.obj
 0001:0001d5b0       ??$max@_K@std@@YAAEB_KAEB_K0@Z 000000018001e5b0 f i EbookDoc.obj
 0001:0001d610       ??$swap@D$0A@@std@@YAXAEAD0@Z 000000018001e610 f i EbookDoc.obj
 0001:0001d660       ??0?$AutoDelete@VMultiFormatArchive@@@@QEAA@PEAVMultiFormatArchive@@@Z 000000018001e660 f i EbookDoc.obj
 0001:0001d6a0       ??0?$Vec@UImageData@@@@QEAA@_KPEAUAllocator@@@Z 000000018001e6a0 f i EbookDoc.obj
 0001:0001d790       ??0AutoFree@@QEAA@PEBD@Z   000000018001e790 f i EbookDoc.obj
 0001:0001d7d0       ??0AutoFree@@QEAA@PEBE@Z   000000018001e7d0 f i EbookDoc.obj
 0001:0001d810       ??0AutoFree@@QEAA@XZ       000000018001e810 f i EbookDoc.obj
 0001:0001d830       ??0AutoFreeWStr@@QEAA@PEA_W@Z 000000018001e830 f i EbookDoc.obj
 0001:0001d880       ??0AutoFreeWStr@@QEAA@XZ   000000018001e880 f i EbookDoc.obj
 0001:0001d8b0       ??0ByteSlice@@QEAA@AEBU0@@Z 000000018001e8b0 f i EbookDoc.obj
 0001:0001d920       ??0ByteSlice@@QEAA@PEAD@Z  000000018001e920 f i EbookDoc.obj
 0001:0001d990       ??0ByteSlice@@QEAA@PEBE_K@Z 000000018001e990 f i EbookDoc.obj
 0001:0001d9f0       ??0ByteSlice@@QEAA@XZ      000000018001e9f0 f i EbookDoc.obj
 0001:0001da20       ??0HtmlPullParser@@QEAA@AEBUByteSlice@@@Z 000000018001ea20 f i EbookDoc.obj
 0001:0001daf0       ??0HtmlPullParser@@QEAA@PEBD_K@Z 000000018001eaf0 f i EbookDoc.obj
 0001:0001dba0       ??0HtmlToken@@QEAA@XZ      000000018001eba0 f i EbookDoc.obj
 0001:0001dc10       ??0ImageData@@QEAA@XZ      000000018001ec10 f i EbookDoc.obj
 0001:0001dc60       ??0ScopedCritSec@@QEAA@PEAU_RTL_CRITICAL_SECTION@@@Z 000000018001ec60 f i EbookDoc.obj
 0001:0001dca0       ??0StrVec@@QEAA@XZ         000000018001eca0 f i EbookDoc.obj
 0001:0001dd00       ??1?$AutoDelete@VMultiFormatArchive@@@@QEAA@XZ 000000018001ed00 f i EbookDoc.obj
 0001:0001dd60       ??1?$Vec@UImageData@@@@QEAA@XZ 000000018001ed60 f i EbookDoc.obj
 0001:0001dd80       ??1AutoFree@@QEAA@XZ       000000018001ed80 f i EbookDoc.obj
 0001:0001ddb0       ??1AutoFreeWStr@@QEAA@XZ   000000018001edb0 f i EbookDoc.obj
 0001:0001dde0       ??1ScopedCritSec@@QEAA@XZ  000000018001ede0 f i EbookDoc.obj
 0001:0001de10       ??1TxtDoc@@QEAA@XZ         000000018001ee10 f i EbookDoc.obj
 0001:0001de50       ??4AutoFree@@QEAAAEAU0@PEBD@Z 000000018001ee50 f i EbookDoc.obj
 0001:0001deb0       ??4ByteSlice@@QEAAAEAU0@AEBU0@@Z 000000018001eeb0 f i EbookDoc.obj
 0001:0001def0       ??4ImageData@@QEAAAEAU0@AEBU0@@Z 000000018001eef0 f i EbookDoc.obj
 0001:0001df60       ??BAutoFree@@QEBAPEADXZ    000000018001ef60 f i EbookDoc.obj
 0001:0001df80       ??BAutoFreeWStr@@QEBAPEA_WXZ 000000018001ef80 f i EbookDoc.obj
 0001:0001dfa0       ??BByteSlice@@QEAAPEBDXZ   000000018001efa0 f i EbookDoc.obj
 0001:0001dfc0       ??_GEpubDoc@@QEAAPEAXI@Z   000000018001efc0 f i EbookDoc.obj
 0001:0001e010       ??_GFb2Doc@@QEAAPEAXI@Z    000000018001f010 f i EbookDoc.obj
 0001:0001e060       ??_GHtmlDoc@@QEAAPEAXI@Z   000000018001f060 f i EbookDoc.obj
 0001:0001e0b0       ??_GMobiDoc@@QEAAPEAXI@Z   000000018001f0b0 f i EbookDoc.obj
 0001:0001e100       ??_GMultiFormatArchive@@QEAAPEAXI@Z 000000018001f100 f i EbookDoc.obj
 0001:0001e150       ??_GPalmDoc@@QEAAPEAXI@Z   000000018001f150 f i EbookDoc.obj
 0001:0001e1a0       ??_GTxtDoc@@QEAAPEAXI@Z    000000018001f1a0 f i EbookDoc.obj
 0001:0001e1f0       ?Append@?$Vec@UImageData@@@@QEAA_NAEBUImageData@@@Z 000000018001f1f0 f i EbookDoc.obj
 0001:0001e230       ?EnsureCap@?$Vec@UImageData@@@@IEAA_N_K@Z 000000018001f230 f i EbookDoc.obj
 0001:0001e280       ?EnsureCapSlow@?$Vec@UImageData@@@@IEAA_N_K@Z 000000018001f280 f i EbookDoc.obj
 0001:0001e480       ?Free@ByteSlice@@QEAAXXZ   000000018001f480 f i EbookDoc.obj
 0001:0001e4d0       ?FreeEls@?$Vec@UImageData@@@@IEAAXXZ 000000018001f4d0 f i EbookDoc.obj
 0001:0001e530       ?FromHtmlUtf8@strconv@@YAPEA_WPEBD_K@Z 000000018001f530 f i EbookDoc.obj
 0001:0001e580       ?Get@AutoFree@@QEBAPEADXZ  000000018001f580 f i EbookDoc.obj
 0001:0001e5a0       ?Get@AutoFreeWStr@@QEBAPEA_WXZ 000000018001f5a0 f i EbookDoc.obj
 0001:0001e5c0       ?Get@ByteSlice@@QEBAPEAEXZ 000000018001f5c0 f i EbookDoc.obj
 0001:0001e5e0       ?GetDocType@MobiDoc@@QEBA?AW4PdbDocType@@XZ 000000018001f5e0 f i EbookDoc.obj
 0001:0001e600       ?InsertAt@?$Vec@UImageData@@@@QEAA_N_KAEBUImageData@@@Z 000000018001f600 f i EbookDoc.obj
 0001:0001e680       ?IsEmailDomainChar@@YA_ND@Z 000000018001f680 f i EbookDoc.obj
 0001:0001e6d0       ?IsEmailUsernameChar@@YA_ND@Z 000000018001f6d0 f i EbookDoc.obj
 0001:0001e740       ?IsEmptyElementEndTag@HtmlToken@@QEBA_NXZ 000000018001f740 f i EbookDoc.obj
 0001:0001e780       ?IsEndTag@HtmlToken@@QEBA_NXZ 000000018001f780 f i EbookDoc.obj
 0001:0001e7c0       ?IsError@HtmlToken@@QEBA_NXZ 000000018001f7c0 f i EbookDoc.obj
 0001:0001e800       ?IsStartTag@HtmlToken@@QEBA_NXZ 000000018001f800 f i EbookDoc.obj
 0001:0001e840       ?IsTag@HtmlToken@@QEBA_NXZ 000000018001f840 f i EbookDoc.obj
 0001:0001e8b0       ?IsText@HtmlToken@@QEBA_NXZ 000000018001f8b0 f i EbookDoc.obj
 0001:0001e8f0       ?Last@?$Vec@UImageData@@@@QEBAAEAUImageData@@XZ 000000018001f8f0 f i EbookDoc.obj
 0001:0001e960       ?MakeSpaceAt@?$Vec@UImageData@@@@IEAAPEAUImageData@@_K0@Z 000000018001f960 f i EbookDoc.obj
 0001:0001eaa0       ?Release@AutoFree@@QEAAPEADXZ 000000018001faa0 f i EbookDoc.obj
 0001:0001eae0       ?Reset@?$Vec@UImageData@@@@QEAAXXZ 000000018001fae0 f i EbookDoc.obj
 0001:0001eb60       ?Reset@AutoFreeWStr@@QEAAXXZ 000000018001fb60 f i EbookDoc.obj
 0001:0001eb90       ?Set@AutoFree@@QEAAXPEBD@Z 000000018001fb90 f i EbookDoc.obj
 0001:0001ebd0       ?Set@AutoFreeWStr@@QEAAXPEB_W@Z 000000018001fbd0 f i EbookDoc.obj
 0001:0001ec10       ?SetCopy@AutoFree@@QEAAXPEBD@Z 000000018001fc10 f i EbookDoc.obj
 0001:0001ec70       ?StealData@AutoFreeWStr@@QEAAPEA_WXZ 000000018001fc70 f i EbookDoc.obj
 0001:0001ecc0       ?at@?$Vec@UImageData@@@@QEBAAEAUImageData@@_K@Z 000000018001fcc0 f i EbookDoc.obj
 0001:0001ed30       ?begin@?$Vec@PEAUFileInfo@MultiFormatArchive@@@@QEBAPEBQEAUFileInfo@MultiFormatArchive@@XZ 000000018001fd30 f i EbookDoc.obj
 0001:0001ed50       ?begin@?$Vec@UImageData@@@@QEAAPEAUImageData@@XZ 000000018001fd50 f i EbookDoc.obj
 0001:0001ed70       ?data@ByteSlice@@QEBAPEAEXZ 000000018001fd70 f i EbookDoc.obj
 0001:0001ed90       ?decode64@@YADD@Z          000000018001fd90 f i EbookDoc.obj
 0001:0001ee30       ?empty@ByteSlice@@QEBA_NXZ 000000018001fe30 f i EbookDoc.obj
 0001:0001ee70       ?end@?$Vec@PEAUFileInfo@MultiFormatArchive@@@@QEBAPEBQEAUFileInfo@MultiFormatArchive@@XZ 000000018001fe70 f i EbookDoc.obj
 0001:0001eea0       ?end@?$Vec@UImageData@@@@QEAAPEAUImageData@@XZ 000000018001fea0 f i EbookDoc.obj
 0001:0001eec0       ?size@?$Vec@PEAUFileInfo@MultiFormatArchive@@@@QEBA_KXZ 000000018001fec0 f i EbookDoc.obj
 0001:0001eee0       ?size@?$Vec@UImageData@@@@QEBA_KXZ 000000018001fee0 f i EbookDoc.obj
 0001:0001ef00       ?size@ByteSlice@@QEBA_KXZ  000000018001ff00 f i EbookDoc.obj
 0001:0001ef20       ?IsExternalUrl@@YA_NPEB_W@Z 000000018001ff20 f   EngineBase.obj
 0001:0001efa0       ?IsExternalUrl@@YA_NPEBD@Z 000000018001ffa0 f   EngineBase.obj
 0001:0001f020       ?FreePageText@@YAXPEAUPageText@@@Z 0000000180020020 f   EngineBase.obj
 0001:0001f0b0       ??1PageDestination@@UEAA@XZ 00000001800200b0 f   EngineBase.obj
 0001:0001f100       ?GetValue2@PageDestination@@UEAAPEADXZ 0000000180020100 f   EngineBase.obj
 0001:0001f120       ?GetName2@PageDestination@@UEAAPEADXZ 0000000180020120 f   EngineBase.obj
 0001:0001f140       ?NewSimpleDest@@YAPEAUIPageDestination@@HURectF@@MPEBD@Z 0000000180020140 f   EngineBase.obj
 0001:0001f250       ?Is@IPageElement@@QEAA_NPEBD@Z 0000000180020250 f   EngineBase.obj
 0001:0001f290       ??0TocItem@@QEAA@PEAU0@PEBDH@Z 0000000180020290 f   EngineBase.obj
 0001:0001f3b0       ??1TocItem@@QEAA@XZ        00000001800203b0 f   EngineBase.obj
 0001:0001f4d0       ?AddSibling@TocItem@@QEAAXPEAU1@@Z 00000001800204d0 f   EngineBase.obj
 0001:0001f530       ?AddSiblingAtEnd@TocItem@@QEAAXPEAU1@@Z 0000000180020530 f   EngineBase.obj
 0001:0001f590       ?AddChild@TocItem@@QEAAXPEAU1@@Z 0000000180020590 f   EngineBase.obj
 0001:0001f5e0       ?DeleteJustSelf@TocItem@@QEAAXXZ 00000001800205e0 f   EngineBase.obj
 0001:0001f650       ?GetPageDestination@TocItem@@QEBAPEAUIPageDestination@@XZ 0000000180020650 f   EngineBase.obj
 0001:0001f670       ?ChildCount@TocItem@@QEAAHXZ 0000000180020670 f   EngineBase.obj
 0001:0001f6c0       ?ChildAt@TocItem@@QEAAPEAU1@H@Z 00000001800206c0 f   EngineBase.obj
 0001:0001f790       ?IsExpanded@TocItem@@QEAA_NXZ 0000000180020790 f   EngineBase.obj
 0001:0001f7e0       ?PageNumbersMatch@TocItem@@QEBA_NXZ 00000001800207e0 f   EngineBase.obj
 0001:0001f840       ??0TocTree@@QEAA@PEAUTocItem@@@Z 0000000180020840 f   EngineBase.obj
 0001:0001f8a0       ??1TocTree@@UEAA@XZ        00000001800208a0 f   EngineBase.obj
 0001:0001f910       ?Root@TocTree@@UEAA_KXZ    0000000180020910 f   EngineBase.obj
 0001:0001f930       ?Text@TocTree@@UEAAPEAD_K@Z 0000000180020930 f   EngineBase.obj
 0001:0001f960       ?Parent@TocTree@@UEAA_K_K@Z 0000000180020960 f   EngineBase.obj
 0001:0001f990       ?ChildCount@TocTree@@UEAAH_K@Z 0000000180020990 f   EngineBase.obj
 0001:0001f9c0       ?ChildAt@TocTree@@UEAA_K_KH@Z 00000001800209c0 f   EngineBase.obj
 0001:0001fa00       ?IsExpanded@TocTree@@UEAA_N_K@Z 0000000180020a00 f   EngineBase.obj
 0001:0001fa30       ?IsChecked@TocTree@@UEAA_N_K@Z 0000000180020a30 f   EngineBase.obj
 0001:0001fa80       ?SetHandle@TocTree@@UEAAX_KPEAU_TREEITEM@@@Z 0000000180020a80 f   EngineBase.obj
 0001:0001fae0       ?GetHandle@TocTree@@UEAAPEAU_TREEITEM@@_K@Z 0000000180020ae0 f   EngineBase.obj
 0001:0001fb40       ?VisitTocTree@@YA_NPEAUTocItem@@AEBU?$Func1@PEAUVisitTocTreeData@@@@@Z 0000000180020b40 f   EngineBase.obj
 0001:0001fc00       ?VisitTocTreeWithParent@@YA_NPEAUTocItem@@AEBU?$Func1@PEAUVisitTocTreeData@@@@@Z 0000000180020c00 f   EngineBase.obj
 0001:0001fc30       ?SetTocTreeParents@@YAXPEAUTocItem@@@Z 0000000180020c30 f   EngineBase.obj
 0001:0001fc70       ??0RenderPageArgs@@QEAA@HMHPEAURectF@@W4RenderTarget@@PEAPEAVAbortCookie@@@Z 0000000180020c70 f   EngineBase.obj
 0001:0001fd30       ?AddRef@EngineBase@@QEAAHXZ 0000000180020d30 f   EngineBase.obj
 0001:0001fd60       ?Release@EngineBase@@QEAA_NXZ 0000000180020d60 f   EngineBase.obj
 0001:0001fde0       ?PageCount@EngineBase@@QEBAHXZ 0000000180020de0 f   EngineBase.obj
 0001:0001fe30       ?PageContentBox@EngineBase@@UEAA?AURectF@@HW4RenderTarget@@@Z 0000000180020e30 f   EngineBase.obj
 0001:0001fe80       ?Transform@EngineBase@@QEAA?AUPointF@@U2@HMH_N@Z 0000000180020e80 f   EngineBase.obj
 0001:0001ff50       ?IsImageCollection@EngineBase@@QEBA_NXZ 0000000180020f50 f   EngineBase.obj
 0001:0001ff70       ?GetProperties@EngineBase@@UEAAXAEBUStrVec@@AEAU2@@Z 0000000180020f70 f   EngineBase.obj
 0001:0001ff90       ?AllowsPrinting@EngineBase@@UEBA_NXZ 0000000180020f90 f   EngineBase.obj
 0001:0001ffb0       ?AllowsCopyingText@EngineBase@@QEBA_NXZ 0000000180020fb0 f   EngineBase.obj
 0001:0001ffd0       ?GetFileDPI@EngineBase@@QEBAMXZ 0000000180020fd0 f   EngineBase.obj
 0001:0001fff0       ?GetNamedDest@EngineBase@@UEAAPEAUIPageDestination@@PEBD@Z 0000000180020ff0 f   EngineBase.obj
 0001:00020010       ?HasToc@EngineBase@@QEAA_NXZ 0000000180021010 f   EngineBase.obj
 0001:00020060       ?GetToc@EngineBase@@UEAAPEAUTocTree@@XZ 0000000180021060 f   EngineBase.obj
 0001:00020070       ?HasPageLabels@EngineBase@@QEBA_NXZ 0000000180021070 f   EngineBase.obj
 0001:00020090       ?GetPageLabeTemp@EngineBase@@UEBAPEADH@Z 0000000180021090 f   EngineBase.obj
 0001:000200c0       ?GetPageByLabel@EngineBase@@UEBAHPEBD@Z 00000001800210c0 f   EngineBase.obj
 0001:000200f0       ?IsPasswordProtected@EngineBase@@QEBA_NXZ 00000001800210f0 f   EngineBase.obj
 0001:00020110       ?GetDecryptionKey@EngineBase@@QEBAPEADXZ 0000000180021110 f   EngineBase.obj
 0001:00020140       ?FilePath@EngineBase@@QEBAPEBDXZ 0000000180021140 f   EngineBase.obj
 0001:00020170       ?GetImageForPageElement@EngineBase@@UEAAPEAURenderedBitmap@@PEAUIPageElement@@@Z 0000000180021170 f   EngineBase.obj
 0001:00020190       ?HandleLink@EngineBase@@UEAA_NPEAUIPageDestination@@PEAUILinkHandler@@@Z 0000000180021190 f   EngineBase.obj
 0001:000201b0       ?SetFilePath@EngineBase@@QEAAXPEBD@Z 00000001800211b0 f   EngineBase.obj
 0001:000201f0       ??1EngineBase@@MEAA@XZ     00000001800211f0 f   EngineBase.obj
 0001:00020850       ??$MkFunc1Void@PEAUVisitTocTreeData@@@@YA?AU?$Func1@PEAUVisitTocTreeData@@@@P6AXPEAUVisitTocTreeData@@@Z@Z 0000000180021850 f i EngineBase.obj
 0001:000208b0       ??0?$Func1@PEAUVisitTocTreeData@@@@QEAA@XZ 00000001800218b0 f i EngineBase.obj
 0001:000208e0       ??0IPageDestination@@QEAA@XZ 00000001800218e0 f i EngineBase.obj
 0001:00020960       ??0PageDestination@@QEAA@XZ 0000000180021960 f i EngineBase.obj
 0001:000209c0       ??0PageDestinationURL@@QEAA@PEBD@Z 00000001800219c0 f i EngineBase.obj
 0001:00020a80       ??0RectF@@QEAA@XZ          0000000180021a80 f i EngineBase.obj
 0001:00020ad0       ??0SizeF@@QEAA@XZ          0000000180021ad0 f i EngineBase.obj
 0001:00020b00       ??0TreeModel@@QEAA@XZ      0000000180021b00 f i EngineBase.obj
 0001:00020b20       ??0VisitTocTreeData@@QEAA@XZ 0000000180021b20 f i EngineBase.obj
 0001:00020b60       ??1IPageDestination@@UEAA@XZ 0000000180021b60 f i EngineBase.obj
 0001:00020b80       ??1PageDestinationURL@@UEAA@XZ 0000000180021b80 f i EngineBase.obj
 0001:00020bd0       ??1TreeModel@@UEAA@XZ      0000000180021bd0 f i EngineBase.obj
 0001:00020be0       ??_EEngineBase@@MEAAPEAXI@Z 0000000180021be0 f i EngineBase.obj
 0001:00020be0       ??_GEngineBase@@MEAAPEAXI@Z 0000000180021be0 f i EngineBase.obj
 0001:00020c30       ??_EIPageDestination@@UEAAPEAXI@Z 0000000180021c30 f i EngineBase.obj
 0001:00020c30       ??_GIPageDestination@@UEAAPEAXI@Z 0000000180021c30 f i EngineBase.obj
 0001:00020c80       ??_EPageDestination@@UEAAPEAXI@Z 0000000180021c80 f i EngineBase.obj
 0001:00020c80       ??_GPageDestination@@UEAAPEAXI@Z 0000000180021c80 f i EngineBase.obj
 0001:00020cd0       ??_EPageDestinationURL@@UEAAPEAXI@Z 0000000180021cd0 f i EngineBase.obj
 0001:00020cd0       ??_GPageDestinationURL@@UEAAPEAXI@Z 0000000180021cd0 f i EngineBase.obj
 0001:00020d20       ??_GTocItem@@QEAAPEAXI@Z   0000000180021d20 f i EngineBase.obj
 0001:00020d70       ??_ETocTree@@UEAAPEAXI@Z   0000000180021d70 f i EngineBase.obj
 0001:00020d70       ??_GTocTree@@UEAAPEAXI@Z   0000000180021d70 f i EngineBase.obj
 0001:00020dc0       ??_ETreeModel@@UEAAPEAXI@Z 0000000180021dc0 f i EngineBase.obj
 0001:00020dc0       ??_GTreeModel@@UEAAPEAXI@Z 0000000180021dc0 f i EngineBase.obj
 0001:00020e10       ?Call@?$Func1@PEAUVisitTocTreeData@@@@QEBAXPEAUVisitTocTreeData@@@Z 0000000180021e10 f i EngineBase.obj
 0001:00020ea0       ?CrashMe@@YAXXZ            0000000180021ea0 f i EngineBase.obj
 0001:00020ec0       ?GetName2@IPageDestination@@UEAAPEADXZ 0000000180021ec0 f i EngineBase.obj
 0001:00020ed0       ?GetRect2@IPageDestination@@UEAA?AURectF@@XZ 0000000180021ed0 f i EngineBase.obj
 0001:00020f10       ?GetValue2@IPageDestination@@UEAAPEADXZ 0000000180021f10 f i EngineBase.obj
 0001:00020f20       ?GetValue2@PageDestinationURL@@UEAAPEADXZ 0000000180021f20 f i EngineBase.obj
 0001:00020f40       ?GetZoom2@IPageDestination@@UEAAMXZ 0000000180021f40 f i EngineBase.obj
 0001:00021030       ??0EngineMupdf@@QEAA@XZ    0000000180022030 f   EngineMupdf.obj
 0001:00021260       ??1EngineMupdf@@UEAA@XZ    0000000180022260 f   EngineMupdf.obj
 0001:00021580       ?Clone@EngineMupdf@@UEAAPEAVEngineBase@@XZ 0000000180022580 f   EngineMupdf.obj
 0001:000218a0       ?PageMediabox@EngineMupdf@@UEAA?AURectF@@H@Z 00000001800228a0 f   EngineMupdf.obj
 0001:00021910       ?PageContentBox@EngineMupdf@@UEAA?AURectF@@HW4RenderTarget@@@Z 0000000180022910 f   EngineMupdf.obj
 0001:00021cd0       ?RenderPage@EngineMupdf@@UEAAPEAURenderedBitmap@@AEAURenderPageArgs@@@Z 0000000180022cd0 f   EngineMupdf.obj
 0001:00022520       ?Transform@EngineMupdf@@UEAA?AURectF@@AEBU2@HMH_N@Z 0000000180023520 f   EngineMupdf.obj
 0001:000227b0       ?GetFileData@EngineMupdf@@UEAA?AUByteSlice@@XZ 00000001800237b0 f   EngineMupdf.obj
 0001:00022990       ?SaveFileAs@EngineMupdf@@UEAA_NPEBD@Z 0000000180023990 f   EngineMupdf.obj
 0001:00022a40       ?ExtractPageText@EngineMupdf@@UEAA?AUPageText@@H@Z 0000000180023a40 f   EngineMupdf.obj
 0001:00022c30       ?HasClipOptimizations@EngineMupdf@@UEAA_NH@Z 0000000180023c30 f   EngineMupdf.obj
 0001:00022e00       ?GetPropertyTemp@EngineMupdf@@UEAAPEADPEBD@Z 0000000180023e00 f   EngineMupdf.obj
 0001:00023550       ?BenchLoadPage@EngineMupdf@@UEAA_NH@Z 0000000180024550 f   EngineMupdf.obj
 0001:000235a0       ?GetElements@EngineMupdf@@UEAA?AV?$Vec@PEAUIPageElement@@@@H@Z 00000001800245a0 f   EngineMupdf.obj
 0001:00023620       ?GetElementAtPos@EngineMupdf@@UEAAPEAUIPageElement@@HUPointF@@@Z 0000000180024620 f   EngineMupdf.obj
 0001:00023660       ?HandleLink@EngineMupdf@@UEAA_NPEAUIPageDestination@@PEAUILinkHandler@@@Z 0000000180024660 f   EngineMupdf.obj
 0001:000236e0       ?GetImageForPageElement@EngineMupdf@@UEAAPEAURenderedBitmap@@PEAUIPageElement@@@Z 00000001800246e0 f   EngineMupdf.obj
 0001:000237a0       ?GetNamedDest@EngineMupdf@@UEAAPEAUIPageDestination@@PEBD@Z 00000001800247a0 f   EngineMupdf.obj
 0001:00023900       ?GetToc@EngineMupdf@@UEAAPEAUTocTree@@XZ 0000000180024900 f   EngineMupdf.obj
 0001:00023b30       ?GetPageLabeTemp@EngineMupdf@@UEBAPEADH@Z 0000000180024b30 f   EngineMupdf.obj
 0001:00023bb0       ?GetPageByLabel@EngineMupdf@@UEBAHPEBD@Z 0000000180024bb0 f   EngineMupdf.obj
 0001:00023c60       ?Ctx@EngineMupdf@@QEBAPEAUfz_context@@XZ 0000000180024c60 f   EngineMupdf.obj
 0001:00023c80       ?Load@EngineMupdf@@QEAA_NPEBDPEAUPasswordUI@@@Z 0000000180024c80 f   EngineMupdf.obj
 0001:000243c0       ?Load@EngineMupdf@@QEAA_NPEAUIStream@@PEBDPEAUPasswordUI@@@Z 00000001800253c0 f   EngineMupdf.obj
 0001:00024500       ?LoadFromStream@EngineMupdf@@QEAA_NPEAUfz_stream@@PEBDPEAUPasswordUI@@@Z 0000000180025500 f   EngineMupdf.obj
 0001:00024c00       ?FinishLoading@EngineMupdf@@QEAA_NXZ 0000000180025c00 f   EngineMupdf.obj
 0001:000257c0       ?GetPageImage@EngineMupdf@@QEAAPEAURenderedBitmap@@HURectF@@H@Z 00000001800267c0 f   EngineMupdf.obj
 0001:00025b00       ?GetFzPageInfoCanFail@EngineMupdf@@QEAAPEAUFzPageInfo@@H@Z 0000000180026b00 f   EngineMupdf.obj
 0001:00025b90       ?GetFzPageInfoFast@EngineMupdf@@QEAAPEAUFzPageInfo@@H@Z 0000000180026b90 f   EngineMupdf.obj
 0001:00025c70       ?GetFzPageInfo@EngineMupdf@@QEAAPEAUFzPageInfo@@H_NPEAUfz_cookie@@@Z 0000000180026c70 f   EngineMupdf.obj
 0001:000261b0       ?viewctm@EngineMupdf@@QEAA?AUfz_matrix@@HMH@Z 00000001800271b0 f   EngineMupdf.obj
 0001:000262c0       ?viewctm@EngineMupdf@@QEBA?AUfz_matrix@@PEAUfz_page@@MH@Z 00000001800272c0 f   EngineMupdf.obj
 0001:000264c0       ?BuildTocTree@EngineMupdf@@QEAAPEAUTocItem@@PEAU2@PEAUfz_outline@@AEAH_N@Z 00000001800274c0 f   EngineMupdf.obj
 0001:000267c0       ?ExtractFontListTemp@EngineMupdf@@QEAAPEADXZ 00000001800277c0 f   EngineMupdf.obj
 0001:00027210       ?LoadStreamFromPDFFile@EngineMupdf@@QEAA?AUByteSlice@@PEBD@Z 0000000180028210 f   EngineMupdf.obj
 0001:00027470       ?AsEngineMupdf@@YAPEAVEngineMupdf@@PEAVEngineBase@@@Z 0000000180028470 f   EngineMupdf.obj
 0001:000274c0       ?ToFzRect@@YA?AUfz_rect@@URectF@@@Z 00000001800284c0 f   EngineMupdf.obj
 0001:00027540       ?ToRectF@@YA?AURectF@@Ufz_rect@@@Z 0000000180028540 f   EngineMupdf.obj
 0001:000275a0       ?NewRenderedFzPixmap@@YAPEAURenderedBitmap@@PEAUfz_context@@PEAUfz_pixmap@@@Z 00000001800285a0 f   EngineMupdf.obj
 0001:000279e0       ?MarkNotificationAsModified@@YAXPEAVEngineMupdf@@PEAUAnnotation@@W4AnnotationChange@@@Z 00000001800289e0 f   EngineMupdf.obj
 0001:00027cd0       ?MakeAnnotationWrapper@@YAPEAUAnnotation@@PEAVEngineMupdf@@PEAUpdf_annot@@H@Z 0000000180028cd0 f   EngineMupdf.obj
 0001:00027f60       ?InitializeEngineMupdf@@YAXXZ 0000000180028f60 f   EngineMupdf.obj
 0001:00027ff0       ?IsEngineMupdfSupportedFileType@@YA_NPEBD@Z 0000000180028ff0 f   EngineMupdf.obj
 0001:000280b0       ?CreateEngineMupdfFromFile@@YAPEAVEngineBase@@PEBD0HPEAUPasswordUI@@@Z 00000001800290b0 f   EngineMupdf.obj
 0001:00028460       ?CreateEngineMupdfFromStream@@YAPEAVEngineBase@@PEAUIStream@@PEBDPEAUPasswordUI@@@Z 0000000180029460 f   EngineMupdf.obj
 0001:000284f0       ?CreateEngineMupdfFromData@@YAPEAVEngineBase@@AEBUByteSlice@@PEBDPEAUPasswordUI@@@Z 00000001800294f0 f   EngineMupdf.obj
 0001:00028590       ?LoadEmbeddedPDFFile@@YA?AUByteSlice@@PEBD@Z 0000000180029590 f   EngineMupdf.obj
 0001:00028610       ?ParseEmbeddedStreamNumber@@YAPEBDPEBDPEAH@Z 0000000180029610 f   EngineMupdf.obj
 0001:000286d0       ?EngineMupdfGetAnnotations@@YAXPEAVEngineBase@@AEAV?$Vec@PEAUAnnotation@@@@@Z 00000001800296d0 f   EngineMupdf.obj
 0001:000287a0       ?EngineMupdfHasUnsavedAnnotations@@YA_NPEAVEngineBase@@@Z 00000001800297a0 f   EngineMupdf.obj
 0001:000287f0       ?EngineMupdfSupportsAnnotations@@YA_NPEAVEngineBase@@@Z 00000001800297f0 f   EngineMupdf.obj
 0001:00028840       ?EngineMupdfSaveUpdated@@YA_NPEAVEngineBase@@PEBDAEBU?$Func1@PEBD@@@Z 0000000180029840 f   EngineMupdf.obj
 0001:00028af0       ?EngineMupdfGetAnnotationAtPos@@YAPEAUAnnotation@@PEAVEngineBase@@HUPointF@@PEAU1@@Z 0000000180029af0 f   EngineMupdf.obj
 0001:00028e10       ?EngineMupdfLoadAttachment@@YA?AUByteSlice@@PEAVEngineBase@@H@Z 0000000180029e10 f   EngineMupdf.obj
 0001:00028f80       ?GetValue2@PageDestinationMupdf@@UEAAPEADXZ 0000000180029f80 f   EngineMupdf.obj
 0001:00029010       ?GetName2@PageDestinationMupdf@@UEAAPEADXZ 000000018002a010 f   EngineMupdf.obj
 0001:00029790       ?FzCreateViewCtm@@YA?AUfz_matrix@@Ufz_rect@@MH@Z 000000018002a790 f   EngineMupdf.obj
 0001:00029f90       next_istream               000000018002af90 f   EngineMupdf.obj
 0001:0002a0b0       seek_istream               000000018002b0b0 f   EngineMupdf.obj
 0001:0002a1b0       drop_istream               000000018002b1b0 f   EngineMupdf.obj
 0001:0002d840       ?PdfCopyStrDict@@YAPEAUpdf_obj@@PEAUfz_context@@PEAUpdf_document@@PEAU1@@Z 000000018002e840 f   EngineMupdf.obj
 0001:0002dd70       ?CmpPageLabelInfo@@YAHPEBX0@Z 000000018002ed70 f   EngineMupdf.obj
 0001:0002df90       ?BuildPageLabelRec@@YAXPEAUfz_context@@PEAUpdf_obj@@HAEAV?$Vec@UPageLabelInfo@@@@@Z 000000018002ef90 f   EngineMupdf.obj
 0001:0002e8d0       ?GetOrClonePerThreadContext@@YAPEAUfz_context@@PEAVEngineMupdf@@PEAU1@@Z 000000018002f8d0 f   EngineMupdf.obj
 0001:0002ea00       ?ReleasePerThreadContext@@YAXPEAVEngineMupdf@@@Z 000000018002fa00 f   EngineMupdf.obj
 0001:0002fdb0       ?fz_new_stext_page_from_page2@@YAPEAUfz_stext_page@@PEAUfz_context@@PEAUfz_page@@PEBUfz_stext_options@@PEAUfz_cookie@@@Z 0000000180030db0 f   EngineMupdf.obj
 0001:0002ffa0       ?HandleLinkMupdf@@YAXPEAVEngineMupdf@@PEAUIPageDestination@@PEAUILinkHandler@@@Z 0000000180030fa0 f   EngineMupdf.obj
 0001:00030760       ?ValidateAnnotationsInSync@@YAXPEAVEngineMupdf@@PEAUFzPageInfo@@@Z 0000000180031760 f   EngineMupdf.obj
 0001:000345c0       ??$DeleteVecMembers@PEAUFitzPageImageInfo@@@@YAXAEAV?$Vec@PEAUFitzPageImageInfo@@@@@Z 00000001800355c0 f i EngineMupdf.obj
 0001:00034690       ??$DeleteVecMembers@PEAUFzPageInfo@@@@YAXAEAV?$Vec@PEAUFzPageInfo@@@@@Z 0000000180035690 f i EngineMupdf.obj
 0001:00034760       ??$DeleteVecMembers@PEAUIPageElement@@@@YAXAEAV?$Vec@PEAUIPageElement@@@@@Z 0000000180035760 f i EngineMupdf.obj
 0001:00034840       ??$DeleteVecMembers@PEAUPageElementDestination@@@@YAXAEAV?$Vec@PEAUPageElementDestination@@@@@Z 0000000180035840 f i EngineMupdf.obj
 0001:00034920       ??$SafeEngineRelease@VEngineMupdf@@@@YAXPEAPEAVEngineMupdf@@@Z 0000000180035920 f i EngineMupdf.obj
 0001:00034970       ??$isnan@M@@YA_NM@Z        0000000180035970 f i EngineMupdf.obj
 0001:000349c0       ??$swap@M$0A@@std@@YAXAEAM0@Z 00000001800359c0 f i EngineMupdf.obj
 0001:00034a20       ??$swap@PEAUIPageElement@@$0A@@std@@YAXAEAPEAUIPageElement@@0@Z 0000000180035a20 f i EngineMupdf.obj
 0001:00034a70       ??0?$ScopedComPtr@UIStream@@@@QEAA@PEAUIStream@@@Z 0000000180035a70 f i EngineMupdf.obj
 0001:00034aa0       ??0?$ScopedMem@UtagBITMAPINFO@@@@QEAA@PEAUtagBITMAPINFO@@@Z 0000000180035aa0 f i EngineMupdf.obj
 0001:00034ad0       ??0?$Vec@PEAUAnnotation@@@@QEAA@_KPEAUAllocator@@@Z 0000000180035ad0 f i EngineMupdf.obj
 0001:00034b90       ??0?$Vec@PEAUFileInfo@MultiFormatArchive@@@@QEAA@AEBV0@@Z 0000000180035b90 f i EngineMupdf.obj
 0001:00034c90       ??0?$Vec@PEAUFitzPageImageInfo@@@@QEAA@_KPEAUAllocator@@@Z 0000000180035c90 f i EngineMupdf.obj
 0001:00034d50       ??0?$Vec@PEAUFzPageInfo@@@@QEAA@_KPEAUAllocator@@@Z 0000000180035d50 f i EngineMupdf.obj
 0001:00034e10       ??0?$Vec@PEAUIPageElement@@@@QEAA@AEBV0@@Z 0000000180035e10 f i EngineMupdf.obj
 0001:00034f10       ??0?$Vec@PEAUIPageElement@@@@QEAA@_KPEAUAllocator@@@Z 0000000180035f10 f i EngineMupdf.obj
 0001:00034fd0       ??0?$Vec@PEAUPageElementDestination@@@@QEAA@_KPEAUAllocator@@@Z 0000000180035fd0 f i EngineMupdf.obj
 0001:00035090       ??0?$Vec@PEAUpdf_obj@@@@QEAA@_KPEAUAllocator@@@Z 0000000180036090 f i EngineMupdf.obj
 0001:00035150       ??0?$Vec@UContextThreadID@@@@QEAA@_KPEAUAllocator@@@Z 0000000180036150 f i EngineMupdf.obj
 0001:00035240       ??0?$Vec@UPageLabelInfo@@@@QEAA@_KPEAUAllocator@@@Z 0000000180036240 f i EngineMupdf.obj
 0001:00035330       ??0?$Vec@URect@@@@QEAA@_KPEAUAllocator@@@Z 0000000180036330 f i EngineMupdf.obj
 0001:00035420       ??0?$Vec@Ufz_rect@@@@QEAA@_KPEAUAllocator@@@Z 0000000180036420 f i EngineMupdf.obj
 0001:000354e0       ??0AbortCookie@@QEAA@XZ    00000001800364e0 f i EngineMupdf.obj
 0001:00035500       ??0Annotation@@QEAA@XZ     0000000180036500 f i EngineMupdf.obj
 0001:00035590       ??0AtomicRefCount@@QEAA@XZ 0000000180036590 f i EngineMupdf.obj
 0001:000355b0       ??0ContextThreadID@@QEAA@XZ 00000001800365b0 f i EngineMupdf.obj
 0001:000355f0       ??0EngineBase@@QEAA@XZ     00000001800365f0 f i EngineMupdf.obj
 0001:000356f0       ??0FitzAbortCookie@@QEAA@XZ 00000001800366f0 f i EngineMupdf.obj
 0001:00035750       ??0FzPageInfo@@QEAA@XZ     0000000180036750 f i EngineMupdf.obj
 0001:000358e0       ??0IPageElement@@QEAA@XZ   00000001800368e0 f i EngineMupdf.obj
 0001:00035960       ??0LinkRectList@@QEAA@XZ   0000000180036960 f i EngineMupdf.obj
 0001:000359b0       ??0PageDestinationFile@@QEAA@PEBD0@Z 00000001800369b0 f i EngineMupdf.obj
 0001:00035aa0       ??0PageDestinationMupdf@@QEAA@PEAUfz_link@@PEAUfz_outline@@@Z 0000000180036aa0 f i EngineMupdf.obj
 0001:00035b60       ??0PageElementComment@@QEAA@PEBD@Z 0000000180036b60 f i EngineMupdf.obj
 0001:00035bf0       ??0PageElementDestination@@QEAA@PEAUIPageDestination@@@Z 0000000180036bf0 f i EngineMupdf.obj
 0001:00035c60       ??0PageElementImage@@QEAA@XZ 0000000180036c60 f i EngineMupdf.obj
 0001:00035cc0       ??0PageLabelInfo@@QEAA@XZ  0000000180036cc0 f i EngineMupdf.obj
 0001:00035d10       ??0PageLayout@@QEAA@W4Type@0@@Z 0000000180036d10 f i EngineMupdf.obj
 0001:00035d60       ??0PageLayout@@QEAA@XZ     0000000180036d60 f i EngineMupdf.obj
 0001:00035da0       ??0PageText@@QEAA@XZ       0000000180036da0 f i EngineMupdf.obj
 0001:00035de0       ??0PasswordCloner@@QEAA@PEAE@Z 0000000180036de0 f i EngineMupdf.obj
 0001:00035e40       ??0PasswordUI@@QEAA@XZ     0000000180036e40 f i EngineMupdf.obj
 0001:00035e60       ??0Rect@@QEAA@XZ           0000000180036e60 f i EngineMupdf.obj
 0001:00035eb0       ??0TocItem@@QEAA@XZ        0000000180036eb0 f i EngineMupdf.obj
 0001:00035fb0       ??1?$ScopedComPtr@UIStream@@@@QEAA@XZ 0000000180036fb0 f i EngineMupdf.obj
 0001:00035ff0       ??1?$ScopedMem@UtagBITMAPINFO@@@@QEAA@XZ 0000000180036ff0 f i EngineMupdf.obj
 0001:00036020       ??1?$Vec@PEAUAnnotation@@@@QEAA@XZ 0000000180037020 f i EngineMupdf.obj
 0001:00036040       ??1?$Vec@PEAUFileInfo@MultiFormatArchive@@@@QEAA@XZ 0000000180037040 f i EngineMupdf.obj
 0001:00036060       ??1?$Vec@PEAUFitzPageImageInfo@@@@QEAA@XZ 0000000180037060 f i EngineMupdf.obj
 0001:00036080       ??1?$Vec@PEAUFzPageInfo@@@@QEAA@XZ 0000000180037080 f i EngineMupdf.obj
 0001:000360a0       ??1?$Vec@PEAUIPageElement@@@@QEAA@XZ 00000001800370a0 f i EngineMupdf.obj
 0001:000360c0       ??1?$Vec@PEAUPageElementDestination@@@@QEAA@XZ 00000001800370c0 f i EngineMupdf.obj
 0001:000360e0       ??1?$Vec@PEAUpdf_obj@@@@QEAA@XZ 00000001800370e0 f i EngineMupdf.obj
 0001:00036100       ??1?$Vec@UPageLabelInfo@@@@QEAA@XZ 0000000180037100 f i EngineMupdf.obj
 0001:00036120       ??1?$Vec@URect@@@@QEAA@XZ  0000000180037120 f i EngineMupdf.obj
 0001:00036140       ??1?$Vec@Ufz_rect@@@@QEAA@XZ 0000000180037140 f i EngineMupdf.obj
 0001:00036160       ??1AbortCookie@@UEAA@XZ    0000000180037160 f i EngineMupdf.obj
 0001:00036170       ??1FitzAbortCookie@@UEAA@XZ 0000000180037170 f i EngineMupdf.obj
 0001:00036190       ??1FitzPageImageInfo@@QEAA@XZ 0000000180037190 f i EngineMupdf.obj
 0001:00036200       ??1FzPageInfo@@QEAA@XZ     0000000180037200 f i EngineMupdf.obj
 0001:000362a0       ??1IPageElement@@UEAA@XZ   00000001800372a0 f i EngineMupdf.obj
 0001:000362b0       ??1LinkRectList@@QEAA@XZ   00000001800372b0 f i EngineMupdf.obj
 0001:000362f0       ??1PageDestinationFile@@UEAA@XZ 00000001800372f0 f i EngineMupdf.obj
 0001:00036350       ??1PageDestinationMupdf@@UEAA@XZ 0000000180037350 f i EngineMupdf.obj
 0001:000363b0       ??1PageElementComment@@UEAA@XZ 00000001800373b0 f i EngineMupdf.obj
 0001:00036400       ??1PageElementDestination@@UEAA@XZ 0000000180037400 f i EngineMupdf.obj
 0001:00036490       ??1PageElementImage@@UEAA@XZ 0000000180037490 f i EngineMupdf.obj
 0001:000364b0       ??1PasswordCloner@@UEAA@XZ 00000001800374b0 f i EngineMupdf.obj
 0001:000364d0       ??1PasswordUI@@UEAA@XZ     00000001800374d0 f i EngineMupdf.obj
 0001:000364e0       ??A?$Vec@PEAUAnnotation@@@@QEBAAEAPEAUAnnotation@@H@Z 00000001800374e0 f i EngineMupdf.obj
 0001:00036580       ??A?$Vec@PEAUFzPageInfo@@@@QEBAAEAPEAUFzPageInfo@@H@Z 0000000180037580 f i EngineMupdf.obj
 0001:00036620       ??A?$Vec@PEAUIPageElement@@@@QEBAAEAPEAUIPageElement@@H@Z 0000000180037620 f i EngineMupdf.obj
 0001:000366c0       ??B?$AutoDelete@VMultiFormatArchive@@@@QEBAPEAVMultiFormatArchive@@XZ 00000001800376c0 f i EngineMupdf.obj
 0001:000366e0       ??B?$ScopedComPtr@UIStream@@@@QEBAPEAUIStream@@XZ 00000001800376e0 f i EngineMupdf.obj
 0001:00036700       ??B?$ScopedMem@UtagBITMAPINFO@@@@QEBAPEAUtagBITMAPINFO@@XZ 0000000180037700 f i EngineMupdf.obj
 0001:00036720       ??C?$AutoDelete@VMultiFormatArchive@@@@QEBAPEAVMultiFormatArchive@@XZ 0000000180037720 f i EngineMupdf.obj
 0001:00036740       ??_EAbortCookie@@UEAAPEAXI@Z 0000000180037740 f i EngineMupdf.obj
 0001:00036740       ??_GAbortCookie@@UEAAPEAXI@Z 0000000180037740 f i EngineMupdf.obj
 0001:00036790       ??_EEngineMupdf@@UEAAPEAXI@Z 0000000180037790 f i EngineMupdf.obj
 0001:00036790       ??_GEngineMupdf@@UEAAPEAXI@Z 0000000180037790 f i EngineMupdf.obj
 0001:000367e0       ??_EFitzAbortCookie@@UEAAPEAXI@Z 00000001800377e0 f i EngineMupdf.obj
 0001:000367e0       ??_GFitzAbortCookie@@UEAAPEAXI@Z 00000001800377e0 f i EngineMupdf.obj
 0001:00036830       ??_GFitzPageImageInfo@@QEAAPEAXI@Z 0000000180037830 f i EngineMupdf.obj
 0001:00036880       ??_GFzPageInfo@@QEAAPEAXI@Z 0000000180037880 f i EngineMupdf.obj
 0001:000368d0       ??_EIPageElement@@UEAAPEAXI@Z 00000001800378d0 f i EngineMupdf.obj
 0001:000368d0       ??_GIPageElement@@UEAAPEAXI@Z 00000001800378d0 f i EngineMupdf.obj
 0001:00036920       ??_GLinkRectList@@QEAAPEAXI@Z 0000000180037920 f i EngineMupdf.obj
 0001:00036970       ??_EPageDestinationFile@@UEAAPEAXI@Z 0000000180037970 f i EngineMupdf.obj
 0001:00036970       ??_GPageDestinationFile@@UEAAPEAXI@Z 0000000180037970 f i EngineMupdf.obj
 0001:000369c0       ??_EPageDestinationMupdf@@UEAAPEAXI@Z 00000001800379c0 f i EngineMupdf.obj
 0001:000369c0       ??_GPageDestinationMupdf@@UEAAPEAXI@Z 00000001800379c0 f i EngineMupdf.obj
 0001:00036a10       ??_EPageElementComment@@UEAAPEAXI@Z 0000000180037a10 f i EngineMupdf.obj
 0001:00036a10       ??_GPageElementComment@@UEAAPEAXI@Z 0000000180037a10 f i EngineMupdf.obj
 0001:00036a60       ??_EPageElementDestination@@UEAAPEAXI@Z 0000000180037a60 f i EngineMupdf.obj
 0001:00036a60       ??_GPageElementDestination@@UEAAPEAXI@Z 0000000180037a60 f i EngineMupdf.obj
 0001:00036ab0       ??_EPageElementImage@@UEAAPEAXI@Z 0000000180037ab0 f i EngineMupdf.obj
 0001:00036ab0       ??_GPageElementImage@@UEAAPEAXI@Z 0000000180037ab0 f i EngineMupdf.obj
 0001:00036b00       ??_EPasswordCloner@@UEAAPEAXI@Z 0000000180037b00 f i EngineMupdf.obj
 0001:00036b00       ??_GPasswordCloner@@UEAAPEAXI@Z 0000000180037b00 f i EngineMupdf.obj
 0001:00036b50       ??_EPasswordUI@@UEAAPEAXI@Z 0000000180037b50 f i EngineMupdf.obj
 0001:00036b50       ??_GPasswordUI@@UEAAPEAXI@Z 0000000180037b50 f i EngineMupdf.obj
 0001:00036ba0       ??_GStrVec@@QEAAPEAXI@Z    0000000180037ba0 f i EngineMupdf.obj
 0001:00036bf0       ?Abort@FitzAbortCookie@@UEAAXXZ 0000000180037bf0 f i EngineMupdf.obj
 0001:00036c10       ?Append@?$Vec@PEAUAnnotation@@@@QEAA_NAEBQEAUAnnotation@@@Z 0000000180037c10 f i EngineMupdf.obj
 0001:00036c50       ?Append@?$Vec@PEAUAnnotation@@@@QEAA_NAEBV1@@Z 0000000180037c50 f i EngineMupdf.obj
 0001:00036cb0       ?Append@?$Vec@PEAUAnnotation@@@@QEAA_NPEBQEAUAnnotation@@_K@Z 0000000180037cb0 f i EngineMupdf.obj
 0001:00036d40       ?Append@?$Vec@PEAUFitzPageImageInfo@@@@QEAA_NAEBQEAUFitzPageImageInfo@@@Z 0000000180037d40 f i EngineMupdf.obj
 0001:00036d80       ?Append@?$Vec@PEAUFzPageInfo@@@@QEAA_NAEBQEAUFzPageInfo@@@Z 0000000180037d80 f i EngineMupdf.obj
 0001:00036dc0       ?Append@?$Vec@PEAUIPageElement@@@@QEAA_NAEBQEAUIPageElement@@@Z 0000000180037dc0 f i EngineMupdf.obj
 0001:00036e00       ?Append@?$Vec@PEAUPageElementDestination@@@@QEAA_NAEBQEAUPageElementDestination@@@Z 0000000180037e00 f i EngineMupdf.obj
 0001:00036e40       ?Append@?$Vec@PEAUpdf_obj@@@@QEAA_NAEBQEAUpdf_obj@@@Z 0000000180037e40 f i EngineMupdf.obj
 0001:00036e80       ?Append@?$Vec@UContextThreadID@@@@QEAA_NAEBUContextThreadID@@@Z 0000000180037e80 f i EngineMupdf.obj
 0001:00036ec0       ?Append@?$Vec@UPageLabelInfo@@@@QEAA_NAEBUPageLabelInfo@@@Z 0000000180037ec0 f i EngineMupdf.obj
 0001:00036f00       ?Append@?$Vec@URect@@@@QEAA_NAEBURect@@@Z 0000000180037f00 f i EngineMupdf.obj
 0001:00036f40       ?Append@?$Vec@Ufz_rect@@@@QEAA_NAEBUfz_rect@@@Z 0000000180037f40 f i EngineMupdf.obj
 0001:00036f80       ?AsLink@IPageElement@@UEAAPEAUIPageDestination@@XZ 0000000180037f80 f i EngineMupdf.obj
 0001:00036f90       ?AsLink@PageElementDestination@@UEAAPEAUIPageDestination@@XZ 0000000180037f90 f i EngineMupdf.obj
 0001:00036fb0       ?Call@?$Func1@PEBD@@QEBAXPEBD@Z 0000000180037fb0 f i EngineMupdf.obj
 0001:00037040       ?Clear@?$Vec@PEAUAnnotation@@@@QEAAXXZ 0000000180038040 f i EngineMupdf.obj
 0001:00037090       ?Clear@?$Vec@PEAUFitzPageImageInfo@@@@QEAAXXZ 0000000180038090 f i EngineMupdf.obj
 0001:000370e0       ?Clear@?$Vec@PEAUFzPageInfo@@@@QEAAXXZ 00000001800380e0 f i EngineMupdf.obj
 0001:00037130       ?Clear@?$Vec@PEAUIPageElement@@@@QEAAXXZ 0000000180038130 f i EngineMupdf.obj
 0001:00037180       ?Clear@?$Vec@PEAUPageElementDestination@@@@QEAAXXZ 0000000180038180 f i EngineMupdf.obj
 0001:000371d0       ?Clone@ByteSlice@@QEBA?AU1@XZ 00000001800381d0 f i EngineMupdf.obj
 0001:00037280       ?Contains@?$Vec@PEAUpdf_obj@@@@QEBA_NAEBQEAUpdf_obj@@@Z 0000000180038280 f i EngineMupdf.obj
 0001:000372e0       ?EnsureCap@?$Vec@PEAUAnnotation@@@@IEAA_N_K@Z 00000001800382e0 f i EngineMupdf.obj
 0001:00037330       ?EnsureCap@?$Vec@PEAUFileInfo@MultiFormatArchive@@@@IEAA_N_K@Z 0000000180038330 f i EngineMupdf.obj
 0001:00037380       ?EnsureCap@?$Vec@PEAUFitzPageImageInfo@@@@IEAA_N_K@Z 0000000180038380 f i EngineMupdf.obj
 0001:000373d0       ?EnsureCap@?$Vec@PEAUFzPageInfo@@@@IEAA_N_K@Z 00000001800383d0 f i EngineMupdf.obj
 0001:00037420       ?EnsureCap@?$Vec@PEAUIPageElement@@@@IEAA_N_K@Z 0000000180038420 f i EngineMupdf.obj
 0001:00037470       ?EnsureCap@?$Vec@PEAUPageElementDestination@@@@IEAA_N_K@Z 0000000180038470 f i EngineMupdf.obj
 0001:000374c0       ?EnsureCap@?$Vec@PEAUpdf_obj@@@@IEAA_N_K@Z 00000001800384c0 f i EngineMupdf.obj
 0001:00037510       ?EnsureCap@?$Vec@UContextThreadID@@@@IEAA_N_K@Z 0000000180038510 f i EngineMupdf.obj
 0001:00037560       ?EnsureCap@?$Vec@UPageLabelInfo@@@@IEAA_N_K@Z 0000000180038560 f i EngineMupdf.obj
 0001:000375b0       ?EnsureCap@?$Vec@URect@@@@IEAA_N_K@Z 00000001800385b0 f i EngineMupdf.obj
 0001:00037600       ?EnsureCap@?$Vec@Ufz_rect@@@@IEAA_N_K@Z 0000000180038600 f i EngineMupdf.obj
 0001:00037650       ?EnsureCapSlow@?$Vec@PEAUAnnotation@@@@IEAA_N_K@Z 0000000180038650 f i EngineMupdf.obj
 0001:00037860       ?EnsureCapSlow@?$Vec@PEAUFileInfo@MultiFormatArchive@@@@IEAA_N_K@Z 0000000180038860 f i EngineMupdf.obj
 0001:00037a70       ?EnsureCapSlow@?$Vec@PEAUFitzPageImageInfo@@@@IEAA_N_K@Z 0000000180038a70 f i EngineMupdf.obj
 0001:00037c80       ?EnsureCapSlow@?$Vec@PEAUFzPageInfo@@@@IEAA_N_K@Z 0000000180038c80 f i EngineMupdf.obj
 0001:00037e90       ?EnsureCapSlow@?$Vec@PEAUIPageElement@@@@IEAA_N_K@Z 0000000180038e90 f i EngineMupdf.obj
 0001:000380a0       ?EnsureCapSlow@?$Vec@PEAUPageElementDestination@@@@IEAA_N_K@Z 00000001800390a0 f i EngineMupdf.obj
 0001:000382b0       ?EnsureCapSlow@?$Vec@PEAUpdf_obj@@@@IEAA_N_K@Z 00000001800392b0 f i EngineMupdf.obj
 0001:000384c0       ?EnsureCapSlow@?$Vec@UContextThreadID@@@@IEAA_N_K@Z 00000001800394c0 f i EngineMupdf.obj
 0001:000386c0       ?EnsureCapSlow@?$Vec@UPageLabelInfo@@@@IEAA_N_K@Z 00000001800396c0 f i EngineMupdf.obj
 0001:000388c0       ?EnsureCapSlow@?$Vec@URect@@@@IEAA_N_K@Z 00000001800398c0 f i EngineMupdf.obj
 0001:00038ac0       ?EnsureCapSlow@?$Vec@Ufz_rect@@@@IEAA_N_K@Z 0000000180039ac0 f i EngineMupdf.obj
 0001:00038cc0       ?Find@?$Vec@PEAUAnnotation@@@@QEBAHAEBQEAUAnnotation@@_K@Z 0000000180039cc0 f i EngineMupdf.obj
 0001:00038d40       ?Find@?$Vec@PEAUpdf_obj@@@@QEBAHAEBQEAUpdf_obj@@_K@Z 0000000180039d40 f i EngineMupdf.obj
 0001:00038dc0       ?FreeEls@?$Vec@PEAUAnnotation@@@@IEAAXXZ 0000000180039dc0 f i EngineMupdf.obj
 0001:00038e20       ?FreeEls@?$Vec@PEAUFileInfo@MultiFormatArchive@@@@IEAAXXZ 0000000180039e20 f i EngineMupdf.obj
 0001:00038e80       ?FreeEls@?$Vec@PEAUFitzPageImageInfo@@@@IEAAXXZ 0000000180039e80 f i EngineMupdf.obj
 0001:00038ee0       ?FreeEls@?$Vec@PEAUFzPageInfo@@@@IEAAXXZ 0000000180039ee0 f i EngineMupdf.obj
 0001:00038f40       ?FreeEls@?$Vec@PEAUIPageElement@@@@IEAAXXZ 0000000180039f40 f i EngineMupdf.obj
 0001:00038fa0       ?FreeEls@?$Vec@PEAUPageElementDestination@@@@IEAAXXZ 0000000180039fa0 f i EngineMupdf.obj
 0001:00039000       ?FreeEls@?$Vec@PEAUpdf_obj@@@@IEAAXXZ 000000018003a000 f i EngineMupdf.obj
 0001:00039060       ?FreeEls@?$Vec@UContextThreadID@@@@IEAAXXZ 000000018003a060 f i EngineMupdf.obj
 0001:000390c0       ?FreeEls@?$Vec@UPageLabelInfo@@@@IEAAXXZ 000000018003a0c0 f i EngineMupdf.obj
 0001:00039120       ?FreeEls@?$Vec@URect@@@@IEAAXXZ 000000018003a120 f i EngineMupdf.obj
 0001:00039180       ?FreeEls@?$Vec@Ufz_rect@@@@IEAAXXZ 000000018003a180 f i EngineMupdf.obj
 0001:000391e0       ?Get@?$ScopedMem@UtagBITMAPINFO@@@@QEBAPEAUtagBITMAPINFO@@XZ 000000018003a1e0 f i EngineMupdf.obj
 0001:00039200       ?GetData@FitzAbortCookie@@UEAAPEAXXZ 000000018003a200 f i EngineMupdf.obj
 0001:00039220       ?GetKind@IPageElement@@QEAAPEBDXZ 000000018003a220 f i EngineMupdf.obj
 0001:00039240       ?GetKind@KindBase@@QEBAPEBDXZ 000000018003a240 f i EngineMupdf.obj
 0001:00039260       ?GetName2@PageDestinationFile@@UEAAPEADXZ 000000018003a260 f i EngineMupdf.obj
 0001:00039280       ?GetPassword@PasswordCloner@@UEAAPEADPEBDPEAEQEAEPEA_N@Z 000000018003a280 f i EngineMupdf.obj
 0001:000392d0       ?GetRect@IPageElement@@QEAA?AURectF@@XZ 000000018003a2d0 f i EngineMupdf.obj
 0001:00039310       ?GetValue2@PageDestinationFile@@UEAAPEADXZ 000000018003a310 f i EngineMupdf.obj
 0001:00039330       ?GetValue@IPageElement@@UEAAPEADXZ 000000018003a330 f i EngineMupdf.obj
 0001:00039340       ?GetValue@PageElementComment@@UEAAPEADXZ 000000018003a340 f i EngineMupdf.obj
 0001:00039360       ?GetValue@PageElementDestination@@UEAAPEADXZ 000000018003a360 f i EngineMupdf.obj
 0001:000393b0       ?InsertAt@?$Vec@PEAUAnnotation@@@@QEAA_N_KAEBQEAUAnnotation@@@Z 000000018003a3b0 f i EngineMupdf.obj
 0001:00039420       ?InsertAt@?$Vec@PEAUFitzPageImageInfo@@@@QEAA_N_KAEBQEAUFitzPageImageInfo@@@Z 000000018003a420 f i EngineMupdf.obj
 0001:00039490       ?InsertAt@?$Vec@PEAUFzPageInfo@@@@QEAA_N_KAEBQEAUFzPageInfo@@@Z 000000018003a490 f i EngineMupdf.obj
 0001:00039500       ?InsertAt@?$Vec@PEAUIPageElement@@@@QEAA_N_KAEBQEAUIPageElement@@@Z 000000018003a500 f i EngineMupdf.obj
 0001:00039570       ?InsertAt@?$Vec@PEAUPageElementDestination@@@@QEAA_N_KAEBQEAUPageElementDestination@@@Z 000000018003a570 f i EngineMupdf.obj
 0001:000395e0       ?InsertAt@?$Vec@PEAUpdf_obj@@@@QEAA_N_KAEBQEAUpdf_obj@@@Z 000000018003a5e0 f i EngineMupdf.obj
 0001:00039650       ?InsertAt@?$Vec@UContextThreadID@@@@QEAA_N_KAEBUContextThreadID@@@Z 000000018003a650 f i EngineMupdf.obj
 0001:000396d0       ?InsertAt@?$Vec@UPageLabelInfo@@@@QEAA_N_KAEBUPageLabelInfo@@@Z 000000018003a6d0 f i EngineMupdf.obj
 0001:00039750       ?InsertAt@?$Vec@URect@@@@QEAA_N_KAEBURect@@@Z 000000018003a750 f i EngineMupdf.obj
 0001:000397d0       ?InsertAt@?$Vec@Ufz_rect@@@@QEAA_N_KAEBUfz_rect@@@Z 000000018003a7d0 f i EngineMupdf.obj
 0001:00039850       ?IsEmailDomainChar@@YA_N_W@Z 000000018003a850 f i EngineMupdf.obj
 0001:000398a0       ?IsEmailUsernameChar@@YA_N_W@Z 000000018003a8a0 f i EngineMupdf.obj
 0001:00039910       ?IsValid@?$Func1@PEBD@@QEBA_NXZ 000000018003a910 f i EngineMupdf.obj
 0001:00039950       ?LendData@?$Vec@PEAUAnnotation@@@@QEBAPEAPEAUAnnotation@@XZ 000000018003a950 f i EngineMupdf.obj
 0001:00039970       ?MakeSpaceAt@?$Vec@PEAUAnnotation@@@@IEAAPEAPEAUAnnotation@@_K0@Z 000000018003a970 f i EngineMupdf.obj
 0001:00039ab0       ?MakeSpaceAt@?$Vec@PEAUFitzPageImageInfo@@@@IEAAPEAPEAUFitzPageImageInfo@@_K0@Z 000000018003aab0 f i EngineMupdf.obj
 0001:00039bf0       ?MakeSpaceAt@?$Vec@PEAUFzPageInfo@@@@IEAAPEAPEAUFzPageInfo@@_K0@Z 000000018003abf0 f i EngineMupdf.obj
 0001:00039d30       ?MakeSpaceAt@?$Vec@PEAUIPageElement@@@@IEAAPEAPEAUIPageElement@@_K0@Z 000000018003ad30 f i EngineMupdf.obj
 0001:00039e70       ?MakeSpaceAt@?$Vec@PEAUPageElementDestination@@@@IEAAPEAPEAUPageElementDestination@@_K0@Z 000000018003ae70 f i EngineMupdf.obj
 0001:00039fb0       ?MakeSpaceAt@?$Vec@PEAUpdf_obj@@@@IEAAPEAPEAUpdf_obj@@_K0@Z 000000018003afb0 f i EngineMupdf.obj
 0001:0003a0f0       ?MakeSpaceAt@?$Vec@UContextThreadID@@@@IEAAPEAUContextThreadID@@_K0@Z 000000018003b0f0 f i EngineMupdf.obj
 0001:0003a230       ?MakeSpaceAt@?$Vec@UPageLabelInfo@@@@IEAAPEAUPageLabelInfo@@_K0@Z 000000018003b230 f i EngineMupdf.obj
 0001:0003a370       ?MakeSpaceAt@?$Vec@URect@@@@IEAAPEAURect@@_K0@Z 000000018003b370 f i EngineMupdf.obj
 0001:0003a4b0       ?MakeSpaceAt@?$Vec@Ufz_rect@@@@IEAAPEAUfz_rect@@_K0@Z 000000018003b4b0 f i EngineMupdf.obj
 0001:0003a5f0       ?Remove@?$Vec@PEAUAnnotation@@@@QEAAHAEBQEAUAnnotation@@@Z 000000018003b5f0 f i EngineMupdf.obj
 0001:0003a660       ?RemoveAt@?$Vec@PEAUAnnotation@@@@QEAAX_K0@Z 000000018003b660 f i EngineMupdf.obj
 0001:0003a780       ?RemoveAt@?$Vec@URect@@@@QEAAX_K0@Z 000000018003b780 f i EngineMupdf.obj
 0001:0003a890       ?RemoveAtFast@?$Vec@PEAUAnnotation@@@@QEAAX_K@Z 000000018003b890 f i EngineMupdf.obj
 0001:0003a9a0       ?RemoveAtFast@?$Vec@PEAUIPageElement@@@@QEAAX_K@Z 000000018003b9a0 f i EngineMupdf.obj
 0001:0003aab0       ?RemoveAtFast@?$Vec@UContextThreadID@@@@QEAAX_K@Z 000000018003bab0 f i EngineMupdf.obj
 0001:0003abb0       ?RemoveLast@?$Vec@URect@@@@QEAAXXZ 000000018003bbb0 f i EngineMupdf.obj
 0001:0003ac00       ?Reset@?$Vec@PEAUAnnotation@@@@QEAAXXZ 000000018003bc00 f i EngineMupdf.obj
 0001:0003ac80       ?Reset@?$Vec@PEAUFileInfo@MultiFormatArchive@@@@QEAAXXZ 000000018003bc80 f i EngineMupdf.obj
 0001:0003ad00       ?Reset@?$Vec@PEAUFitzPageImageInfo@@@@QEAAXXZ 000000018003bd00 f i EngineMupdf.obj
 0001:0003ad80       ?Reset@?$Vec@PEAUFzPageInfo@@@@QEAAXXZ 000000018003bd80 f i EngineMupdf.obj
 0001:0003ae00       ?Reset@?$Vec@PEAUIPageElement@@@@QEAAXXZ 000000018003be00 f i EngineMupdf.obj
 0001:0003ae80       ?Reset@?$Vec@PEAUPageElementDestination@@@@QEAAXXZ 000000018003be80 f i EngineMupdf.obj
 0001:0003af00       ?Reset@?$Vec@PEAUpdf_obj@@@@QEAAXXZ 000000018003bf00 f i EngineMupdf.obj
 0001:0003af80       ?Reset@?$Vec@UContextThreadID@@@@QEAAXXZ 000000018003bf80 f i EngineMupdf.obj
 0001:0003b000       ?Reset@?$Vec@UPageLabelInfo@@@@QEAAXXZ 000000018003c000 f i EngineMupdf.obj
 0001:0003b080       ?Reset@?$Vec@URect@@@@QEAAXXZ 000000018003c080 f i EngineMupdf.obj
 0001:0003b100       ?Reset@?$Vec@Ufz_rect@@@@QEAAXXZ 000000018003c100 f i EngineMupdf.obj
 0001:0003b180       ?Reverse@?$Vec@PEAUIPageElement@@@@QEAAXXZ 000000018003c180 f i EngineMupdf.obj
 0001:0003b220       ?Size@?$Vec@PEAUAnnotation@@@@QEBAHXZ 000000018003c220 f i EngineMupdf.obj
 0001:0003b240       ?Size@?$Vec@PEAUFitzPageImageInfo@@@@QEBAHXZ 000000018003c240 f i EngineMupdf.obj
 0001:0003b260       ?Size@?$Vec@PEAUIPageElement@@@@QEBAHXZ 000000018003c260 f i EngineMupdf.obj
 0001:0003b280       ?Size@?$Vec@UContextThreadID@@@@QEBAHXZ 000000018003c280 f i EngineMupdf.obj
 0001:0003b2a0       ?Size@?$Vec@Ufz_rect@@@@QEBAHXZ 000000018003c2a0 f i EngineMupdf.obj
 0001:0003b2c0       ?Size@ByteSlice@@QEBAHXZ   000000018003c2c0 f i EngineMupdf.obj
 0001:0003b2e0       ?Sort@?$Vec@UPageLabelInfo@@@@QEAAXP6AHPEBX0@Z@Z 000000018003c2e0 f i EngineMupdf.obj
 0001:0003b330       ?StealData@?$Vec@URect@@@@QEAAPEAURect@@XZ 000000018003c330 f i EngineMupdf.obj
 0001:0003b3e0       ?TimeGet@@YA?AT_LARGE_INTEGER@@XZ 000000018003c3e0 f i EngineMupdf.obj
 0001:0003b400       ?TimeSinceInMs@@YANT_LARGE_INTEGER@@@Z 000000018003c400 f i EngineMupdf.obj
 0001:0003b470       ?at@?$Vec@PEAUFitzPageImageInfo@@@@QEBAAEAPEAUFitzPageImageInfo@@H@Z 000000018003c470 f i EngineMupdf.obj
 0001:0003b510       ?at@?$Vec@PEAUFzPageInfo@@@@QEBAAEAPEAUFzPageInfo@@H@Z 000000018003c510 f i EngineMupdf.obj
 0001:0003b5b0       ?at@?$Vec@PEAUpdf_obj@@@@QEBAAEAPEAUpdf_obj@@_K@Z 000000018003c5b0 f i EngineMupdf.obj
 0001:0003b620       ?at@?$Vec@UContextThreadID@@@@QEBAAEAUContextThreadID@@H@Z 000000018003c620 f i EngineMupdf.obj
 0001:0003b6c0       ?at@?$Vec@UPageLabelInfo@@@@QEBAAEAUPageLabelInfo@@H@Z 000000018003c6c0 f i EngineMupdf.obj
 0001:0003b760       ?at@?$Vec@UPageLabelInfo@@@@QEBAAEAUPageLabelInfo@@_K@Z 000000018003c760 f i EngineMupdf.obj
 0001:0003b7d0       ?at@?$Vec@Ufz_rect@@@@QEBAAEAUfz_rect@@H@Z 000000018003c7d0 f i EngineMupdf.obj
 0001:0003b870       ?begin@?$Vec@PEAUAnnotation@@@@QEAAPEAPEAUAnnotation@@XZ 000000018003c870 f i EngineMupdf.obj
 0001:0003b890       ?begin@?$Vec@PEAUFitzPageImageInfo@@@@QEAAPEAPEAUFitzPageImageInfo@@XZ 000000018003c890 f i EngineMupdf.obj
 0001:0003b8b0       ?begin@?$Vec@PEAUFzPageInfo@@@@QEAAPEAPEAUFzPageInfo@@XZ 000000018003c8b0 f i EngineMupdf.obj
 0001:0003b8d0       ?begin@?$Vec@PEAUIPageElement@@@@QEAAPEAPEAUIPageElement@@XZ 000000018003c8d0 f i EngineMupdf.obj
 0001:0003b8f0       ?begin@?$Vec@PEAUPageElementDestination@@@@QEAAPEAPEAUPageElementDestination@@XZ 000000018003c8f0 f i EngineMupdf.obj
 0001:0003b910       ?begin@?$Vec@PEAUpdf_obj@@@@QEAAPEAPEAUpdf_obj@@XZ 000000018003c910 f i EngineMupdf.obj
 0001:0003b930       ?begin@?$Vec@UContextThreadID@@@@QEAAPEAUContextThreadID@@XZ 000000018003c930 f i EngineMupdf.obj
 0001:0003b950       ?end@?$Vec@PEAUAnnotation@@@@QEAAPEAPEAUAnnotation@@XZ 000000018003c950 f i EngineMupdf.obj
 0001:0003b980       ?end@?$Vec@PEAUFitzPageImageInfo@@@@QEAAPEAPEAUFitzPageImageInfo@@XZ 000000018003c980 f i EngineMupdf.obj
 0001:0003b9b0       ?end@?$Vec@PEAUFzPageInfo@@@@QEAAPEAPEAUFzPageInfo@@XZ 000000018003c9b0 f i EngineMupdf.obj
 0001:0003b9e0       ?end@?$Vec@PEAUIPageElement@@@@QEAAPEAPEAUIPageElement@@XZ 000000018003c9e0 f i EngineMupdf.obj
 0001:0003ba10       ?end@?$Vec@PEAUPageElementDestination@@@@QEAAPEAPEAUPageElementDestination@@XZ 000000018003ca10 f i EngineMupdf.obj
 0001:0003ba40       ?end@?$Vec@PEAUpdf_obj@@@@QEAAPEAPEAUpdf_obj@@XZ 000000018003ca40 f i EngineMupdf.obj
 0001:0003ba70       ?end@?$Vec@UContextThreadID@@@@QEAAPEAUContextThreadID@@XZ 000000018003ca70 f i EngineMupdf.obj
 0001:0003ba90       ?fpclassify@@YAHM@Z        000000018003ca90 f i EngineMupdf.obj
 0001:0003bab0       ?isOfKindHelper@@YA_NPEBD0@Z 000000018003cab0 f i EngineMupdf.obj
 0001:0003baf0       ?size@?$Vec@PEAUAnnotation@@@@QEBA_KXZ 000000018003caf0 f i EngineMupdf.obj
 0001:0003bb10       ?size@?$Vec@PEAUpdf_obj@@@@QEBA_KXZ 000000018003cb10 f i EngineMupdf.obj
 0001:0003bb30       ?size@?$Vec@UPageLabelInfo@@@@QEBA_KXZ 000000018003cb30 f i EngineMupdf.obj
 0001:0003bb50       ?size@?$Vec@URect@@@@QEBA_KXZ 000000018003cb50 f i EngineMupdf.obj
 0001:0003bb70       ??0MobiDoc@@QEAA@PEBD@Z    000000018003cb70 f   MobiDoc.obj
 0001:0003bca0       ?ParseHeader@MobiDoc@@QEAA_NXZ 000000018003cca0 f   MobiDoc.obj
 0001:0003c470       ?LoadDocRecordIntoBuffer@MobiDoc@@QEAA_N_KAEAUStr@str@@@Z 000000018003d470 f   MobiDoc.obj
 0001:0003c660       ?LoadImages@MobiDoc@@QEAAXXZ 000000018003d660 f   MobiDoc.obj
 0001:0003c6f0       ?LoadImageW@MobiDoc@@QEAA_N_K@Z 000000018003d6f0 f   MobiDoc.obj
 0001:0003c7c0       ?LoadForPdbReader@MobiDoc@@QEAA_NPEAVPdbReader@@@Z 000000018003d7c0 f   MobiDoc.obj
 0001:0003ca30       ?DecodeExthHeader@MobiDoc@@QEAA_NPEBE_K@Z 000000018003da30 f   MobiDoc.obj
 0001:0003cd20       ??1MobiDoc@@QEAA@XZ        000000018003dd20 f   MobiDoc.obj
 0001:0003ce10       ?GetHtmlData@MobiDoc@@QEBA?AUByteSlice@@XZ 000000018003de10 f   MobiDoc.obj
 0001:0003ce80       ?GetCoverImage@MobiDoc@@QEAAPEAUByteSlice@@XZ 000000018003de80 f   MobiDoc.obj
 0001:0003cf20       ?GetImage@MobiDoc@@QEBAPEAUByteSlice@@_K@Z 000000018003df20 f   MobiDoc.obj
 0001:0003cfa0       ?GetPropertyTemp@MobiDoc@@QEAAPEADPEBD@Z 000000018003dfa0 f   MobiDoc.obj
 0001:0003d000       ?HasToc@MobiDoc@@QEAA_NXZ  000000018003e000 f   MobiDoc.obj
 0001:0003d280       ?ParseToc@MobiDoc@@QEAA_NPEAVEbookTocVisitor@@@Z 000000018003e280 f   MobiDoc.obj
 0001:0003d6a0       ?IsSupportedFileType@MobiDoc@@SA_NPEBD@Z 000000018003e6a0 f   MobiDoc.obj
 0001:0003d6e0       ?CreateFromFile@MobiDoc@@SAPEAU1@PEBD@Z 000000018003e6e0 f   MobiDoc.obj
 0001:0003d7a0       ?CreateFromStream@MobiDoc@@SAPEAU1@PEAUIStream@@@Z 000000018003e7a0 f   MobiDoc.obj
 0001:0003db50       ??0HuffDicDecompressor@@QEAA@XZ 000000018003eb50 f   MobiDoc.obj
 0001:0003dc10       ?SetHuffData@HuffDicDecompressor@@QEAA_NPEAE_K@Z 000000018003ec10 f   MobiDoc.obj
 0001:0003ddf0       ?AddCdicData@HuffDicDecompressor@@QEAA_NPEAEI@Z 000000018003edf0 f   MobiDoc.obj
 0001:0003dfd0       ?Decompress@HuffDicDecompressor@@QEAA_NPEAE_KAEAUStr@str@@@Z 000000018003efd0 f   MobiDoc.obj
 0001:0003e290       ?DecodeOne@HuffDicDecompressor@@QEAA_NIAEAUStr@str@@@Z 000000018003f290 f   MobiDoc.obj
 0001:0003f8b0       ??$AllocArray@UByteSlice@@@@YAPEAUByteSlice@@_K@Z 00000001800408b0 f i MobiDoc.obj
 0001:0003f8e0       ??$min@I@std@@YAAEBIAEBI0@Z 00000001800408e0 f i MobiDoc.obj
 0001:0003f940       ??0?$Vec@I@@QEAA@_KPEAUAllocator@@@Z 0000000180040940 f i MobiDoc.obj
 0001:0003fa00       ??0PalmDocHeader@@QEAA@XZ  0000000180040a00 f i MobiDoc.obj
 0001:0003fa70       ??1?$Vec@I@@QEAA@XZ        0000000180040a70 f i MobiDoc.obj
 0001:0003fa90       ??1HuffDicDecompressor@@QEAA@XZ 0000000180040a90 f i MobiDoc.obj
 0001:0003fac0       ??_GHuffDicDecompressor@@QEAAPEAXI@Z 0000000180040ac0 f i MobiDoc.obj
 0001:0003fb10       ??_GPdbReader@@QEAAPEAXI@Z 0000000180040b10 f i MobiDoc.obj
 0001:0003fb60       ??_GStr@str@@QEAAPEAXI@Z   0000000180040b60 f i MobiDoc.obj
 0001:0003fbb0       ?Append@?$Vec@I@@QEAA_NAEBI@Z 0000000180040bb0 f i MobiDoc.obj
 0001:0003fbf0       ?Contains@?$Vec@I@@QEBA_NAEBI@Z 0000000180040bf0 f i MobiDoc.obj
 0001:0003fc50       ?EnsureCap@?$Vec@I@@IEAA_N_K@Z 0000000180040c50 f i MobiDoc.obj
 0001:0003fca0       ?EnsureCapSlow@?$Vec@I@@IEAA_N_K@Z 0000000180040ca0 f i MobiDoc.obj
 0001:0003feb0       ?Find@?$Vec@I@@QEBAHAEBI_K@Z 0000000180040eb0 f i MobiDoc.obj
 0001:0003ff30       ?FreeEls@?$Vec@I@@IEAAXXZ  0000000180040f30 f i MobiDoc.obj
 0001:0003ff90       ?InsertAt@?$Vec@I@@QEAA_N_KAEBI@Z 0000000180040f90 f i MobiDoc.obj
 0001:00040000       ?MakeSpaceAt@?$Vec@I@@IEAAPEAI_K0@Z 0000000180041000 f i MobiDoc.obj
 0001:00040140       ?Offset@ByteOrderDecoder@@QEBA_KXZ 0000000180041140 f i MobiDoc.obj
 0001:00040170       ?Pop@?$Vec@I@@QEAAIXZ      0000000180041170 f i MobiDoc.obj
 0001:00040210       ?RemoveAtFast@?$Vec@I@@QEAAX_K@Z 0000000180041210 f i MobiDoc.obj
 0001:00040320       ?Reset@?$Vec@I@@QEAAXXZ    0000000180041320 f i MobiDoc.obj
 0001:000403a0       ?at@?$Vec@I@@QEBAAEAI_K@Z  00000001800413a0 f i MobiDoc.obj
 0001:00040410       ?memchr@@YAPEAXPEAXH_K@Z   0000000180041410 f i MobiDoc.obj
 0001:00040460       ?ParseHeader@PdbReader@@AEAA_NXZ 0000000180041460 f   PalmDbReader.obj
 0001:000406e0       ??1PdbReader@@QEAA@XZ      00000001800416e0 f   PalmDbReader.obj
 0001:00040720       ?Parse@PdbReader@@QEAA_NAEBUByteSlice@@@Z 0000000180041720 f   PalmDbReader.obj
 0001:00040770       ?GetDbType@PdbReader@@QEAAPEBDXZ 0000000180041770 f   PalmDbReader.obj
 0001:00040790       ?GetRecordCount@PdbReader@@QEAA_KXZ 0000000180041790 f   PalmDbReader.obj
 0001:000407c0       ?GetRecord@PdbReader@@QEAA?AUByteSlice@@_K@Z 00000001800417c0 f   PalmDbReader.obj
 0001:00040920       ?CreateFromData@PdbReader@@SAPEAV1@AEBUByteSlice@@@Z 0000000180041920 f   PalmDbReader.obj
 0001:000409f0       ?CreateFromFile@PdbReader@@SAPEAV1@PEBD@Z 00000001800419f0 f   PalmDbReader.obj
 0001:00040a20       ?CreateFromStream@PdbReader@@SAPEAV1@PEAUIStream@@@Z 0000000180041a20 f   PalmDbReader.obj
 0001:00040a50       ?GetPdbDocType@@YA?AW4PdbDocType@@PEBD@Z 0000000180041a50 f   PalmDbReader.obj
 0001:00040e40       ??0?$Vec@UPdbRecordHeader@@@@QEAA@_KPEAUAllocator@@@Z 0000000180041e40 f i PalmDbReader.obj
 0001:00040f30       ??0PdbHeader@@QEAA@XZ      0000000180041f30 f i PalmDbReader.obj
 0001:00041020       ??0PdbReader@@QEAA@XZ      0000000180042020 f i PalmDbReader.obj
 0001:000410a0       ??0PdbRecordHeader@@QEAA@XZ 00000001800420a0 f i PalmDbReader.obj
 0001:000410f0       ??1?$Vec@UPdbRecordHeader@@@@QEAA@XZ 00000001800420f0 f i PalmDbReader.obj
 0001:00041110       ??A?$Vec@UPdbRecordHeader@@@@QEBAAEAUPdbRecordHeader@@H@Z 0000000180042110 f i PalmDbReader.obj
 0001:000411b0       ??A?$Vec@UPdbRecordHeader@@@@QEBAAEAUPdbRecordHeader@@_K@Z 00000001800421b0 f i PalmDbReader.obj
 0001:00041220       ?Append@?$Vec@UPdbRecordHeader@@@@QEAA_NAEBUPdbRecordHeader@@@Z 0000000180042220 f i PalmDbReader.obj
 0001:00041260       ?EnsureCap@?$Vec@UPdbRecordHeader@@@@IEAA_N_K@Z 0000000180042260 f i PalmDbReader.obj
 0001:000412b0       ?EnsureCapSlow@?$Vec@UPdbRecordHeader@@@@IEAA_N_K@Z 00000001800422b0 f i PalmDbReader.obj
 0001:000414c0       ?FreeEls@?$Vec@UPdbRecordHeader@@@@IEAAXXZ 00000001800424c0 f i PalmDbReader.obj
 0001:00041520       ?InsertAt@?$Vec@UPdbRecordHeader@@@@QEAA_N_KAEBUPdbRecordHeader@@@Z 0000000180042520 f i PalmDbReader.obj
 0001:00041590       ?IsOk@ByteOrderDecoder@@QEBA_NXZ 0000000180042590 f i PalmDbReader.obj
 0001:000415b0       ?MakeSpaceAt@?$Vec@UPdbRecordHeader@@@@IEAAPEAUPdbRecordHeader@@_K0@Z 00000001800425b0 f i PalmDbReader.obj
 0001:000416f0       ?Reset@?$Vec@UPdbRecordHeader@@@@QEAAXXZ 00000001800426f0 f i PalmDbReader.obj
 0001:00041770       ?size@?$Vec@UPdbRecordHeader@@@@QEBA_KXZ 0000000180042770 f i PalmDbReader.obj
 0001:00041790       ?InstallSearchFilter@@YA_NPEBD_N@Z 0000000180042790 f   RegistrySearchFilter.obj
 0001:00041bf0       ?UninstallSearchFilter@@YA_NXZ 0000000180042bf0 f   RegistrySearchFilter.obj
 0001:00041d10       ?IsSearchFilterInstalled@@YA_NXZ 0000000180042d10 f   RegistrySearchFilter.obj
 0001:00042040       ?OnInit@EpubFilter@@UEAAJXZ 0000000180043040 f   EpubFilter.obj
 0001:00042160       ?GetNextChunkValue@EpubFilter@@UEAAJAEAVChunkValue@@@Z 0000000180043160 f   EpubFilter.obj
 0001:00042580       ?CleanUp@EpubFilter@@QEAAXXZ 0000000180043580 f   EpubFilter.obj
 0001:00042db0       ??0?$Vec@W4HtmlTag@@@@QEAA@_KPEAUAllocator@@@Z 0000000180043db0 f i EpubFilter.obj
 0001:00042e70       ??1?$Vec@W4HtmlTag@@@@QEAA@XZ 0000000180043e70 f i EpubFilter.obj
 0001:00042e90       ?Append@?$Vec@W4HtmlTag@@@@QEAA_NAEBW4HtmlTag@@@Z 0000000180043e90 f i EpubFilter.obj
 0001:00042ed0       ?Clear@ChunkValue@@QEAAXXZ 0000000180043ed0 f i EpubFilter.obj
 0001:00042f50       ?Contains@?$Vec@W4HtmlTag@@@@QEBA_NAEBW4HtmlTag@@@Z 0000000180043f50 f i EpubFilter.obj
 0001:00042fb0       ?EnsureCap@?$Vec@W4HtmlTag@@@@IEAA_N_K@Z 0000000180043fb0 f i EpubFilter.obj
 0001:00043000       ?EnsureCapSlow@?$Vec@W4HtmlTag@@@@IEAA_N_K@Z 0000000180044000 f i EpubFilter.obj
 0001:00043210       ?Find@?$Vec@W4HtmlTag@@@@QEBAHAEBW4HtmlTag@@_K@Z 0000000180044210 f i EpubFilter.obj
 0001:00043290       ?FreeEls@?$Vec@W4HtmlTag@@@@IEAAXXZ 0000000180044290 f i EpubFilter.obj
 0001:000432f0       ?InsertAt@?$Vec@W4HtmlTag@@@@QEAA_N_KAEBW4HtmlTag@@@Z 00000001800442f0 f i EpubFilter.obj
 0001:00043360       ?Last@?$Vec@W4HtmlTag@@@@QEBAAEAW4HtmlTag@@XZ 0000000180044360 f i EpubFilter.obj
 0001:000433d0       ?MakeSpaceAt@?$Vec@W4HtmlTag@@@@IEAAPEAW4HtmlTag@@_K0@Z 00000001800443d0 f i EpubFilter.obj
 0001:00043510       ?Pop@?$Vec@W4HtmlTag@@@@QEAA?AW4HtmlTag@@XZ 0000000180044510 f i EpubFilter.obj
 0001:000435b0       ?RemoveAtFast@?$Vec@W4HtmlTag@@@@QEAAX_K@Z 00000001800445b0 f i EpubFilter.obj
 0001:000436c0       ?Reset@?$Vec@W4HtmlTag@@@@QEAAXXZ 00000001800446c0 f i EpubFilter.obj
 0001:00043740       ?SetChunk@ChunkValue@@IEAAJAEBU_tagpropertykey@@W4tagCHUNKSTATE@@KKKW4tagCHUNK_BREAKTYPE@@@Z 0000000180044740 f i EpubFilter.obj
 0001:00043800       ?SetFileTimeValue@ChunkValue@@QEAAJAEBU_tagpropertykey@@U_FILETIME@@W4tagCHUNKSTATE@@KKKW4tagCHUNK_BREAKTYPE@@@Z 0000000180044800 f i EpubFilter.obj
 0001:000438c0       ?SetTextValue@ChunkValue@@QEAAJAEBU_tagpropertykey@@PEB_WW4tagCHUNKSTATE@@KKKW4tagCHUNK_BREAKTYPE@@@Z 00000001800448c0 f i EpubFilter.obj
 0001:00043a20       ?StringCchCopyW@@YAJPEA_W_KPEB_W@Z 0000000180044a20 f i EpubFilter.obj
 0001:00043ac0       ?at@?$Vec@W4HtmlTag@@@@QEBAAEAW4HtmlTag@@_K@Z 0000000180044ac0 f i EpubFilter.obj
 0001:00043b30       ?size@?$Vec@W4HtmlTag@@@@QEBA_KXZ 0000000180044b30 f i EpubFilter.obj
 0001:00043ca0       ?OnInit@PdfFilter@@UEAAJXZ 0000000180044ca0 f   PdfFilter.obj
 0001:00043de0       ?GetNextChunkValue@PdfFilter@@UEAAJAEAVChunkValue@@@Z 0000000180044de0 f   PdfFilter.obj
 0001:000443b0       ?CleanUp@PdfFilter@@QEAAXXZ 00000001800453b0 f   PdfFilter.obj
 0001:00044410       ?GetEBookUI@@YAPEAUEBookUI@@XZ 0000000180045410 f   PdfFilter.obj
 0001:000447b0       DllGetClassObject          00000001800457b0 f   SearchFilterDll.obj
 0001:00044890       DllCanUnloadNow            0000000180045890 f   SearchFilterDll.obj
 0001:00044a10       DllMain                    0000000180045a10 f   SearchFilterDll.obj
 0001:00044a90       DllRegisterServer          0000000180045a90 f   SearchFilterDll.obj
 0001:00044b00       DllUnregisterServer        0000000180045b00 f   SearchFilterDll.obj
 0001:00044c40       ??$min@K@std@@YAAEBKAEBK0@Z 0000000180045c40 f i SearchFilterDll.obj
 0001:00044ca0       ??0?$ScopedComPtr@UIFilter@@@@QEAA@XZ 0000000180045ca0 f i SearchFilterDll.obj
 0001:00044cc0       ??0?$ScopedComPtr@VFilterClassFactory@@@@QEAA@PEAVFilterClassFactory@@@Z 0000000180045cc0 f i SearchFilterDll.obj
 0001:00044cf0       ??0ChunkValue@@QEAA@XZ     0000000180045cf0 f i SearchFilterDll.obj
 0001:00044d50       ??0EpubFilter@@QEAA@PEAJ@Z 0000000180045d50 f i SearchFilterDll.obj
 0001:00044e00       ??0FilterBase@@QEAA@PEAJ@Z 0000000180045e00 f i SearchFilterDll.obj
 0001:00044f30       ??0FilterClassFactory@@QEAA@AEBU_GUID@@@Z 0000000180045f30 f i SearchFilterDll.obj
 0001:00044fb0       ??0IClassFactory@@QEAA@XZ  0000000180045fb0 f i SearchFilterDll.obj
 0001:00044fe0       ??0IFilter@@QEAA@XZ        0000000180045fe0 f i SearchFilterDll.obj
 0001:00045010       ??0IInitializeWithStream@@QEAA@XZ 0000000180046010 f i SearchFilterDll.obj
 0001:00045040       ??0IPersist@@QEAA@XZ       0000000180046040 f i SearchFilterDll.obj
 0001:00045070       ??0IPersistFile@@QEAA@XZ   0000000180046070 f i SearchFilterDll.obj
 0001:000450a0       ??0IPersistStream@@QEAA@XZ 00000001800460a0 f i SearchFilterDll.obj
 0001:000450d0       ??0IUnknown@@QEAA@XZ       00000001800460d0 f i SearchFilterDll.obj
 0001:000450e0       ??0PdfFilter@@QEAA@PEAJ@Z  00000001800460e0 f i SearchFilterDll.obj
 0001:000451a0       ??0TeXFilter@@QEAA@PEAJ@Z  00000001800461a0 f i SearchFilterDll.obj
 0001:00045290       ??1?$ScopedComPtr@UIFilter@@@@QEAA@XZ 0000000180046290 f i SearchFilterDll.obj
 0001:000452d0       ??1?$ScopedComPtr@VFilterClassFactory@@@@QEAA@XZ 00000001800462d0 f i SearchFilterDll.obj
 0001:00045310       ??1ChunkValue@@QEAA@XZ     0000000180046310 f i SearchFilterDll.obj
 0001:00045330       ??1EpubFilter@@UEAA@XZ     0000000180046330 f i SearchFilterDll.obj
 0001:000453b0       ??1FilterBase@@UEAA@XZ     00000001800463b0 f i SearchFilterDll.obj
 0001:00045470       ??1FilterClassFactory@@QEAA@XZ 0000000180046470 f i SearchFilterDll.obj
 0001:000454a0       ??1PdfFilter@@UEAA@XZ      00000001800464a0 f i SearchFilterDll.obj
 0001:00045520       ??1TeXFilter@@UEAA@XZ      0000000180046520 f i SearchFilterDll.obj
 0001:000455a0       ??4?$ScopedComPtr@UIFilter@@@@QEAAAEAV0@PEAUIFilter@@@Z 00000001800465a0 f i SearchFilterDll.obj
 0001:00045600       ??B?$ScopedComPtr@UIFilter@@@@QEBAPEAUIFilter@@XZ 0000000180046600 f i SearchFilterDll.obj
 0001:00045620       ??B?$ScopedComPtr@VFilterClassFactory@@@@QEBAPEAVFilterClassFactory@@XZ 0000000180046620 f i SearchFilterDll.obj
 0001:00045640       ??C?$ScopedComPtr@UIFilter@@@@QEBAPEAUIFilter@@XZ 0000000180046640 f i SearchFilterDll.obj
 0001:00045660       ??C?$ScopedComPtr@VFilterClassFactory@@@@QEBAPEAVFilterClassFactory@@XZ 0000000180046660 f i SearchFilterDll.obj
 0001:00045680       ??_EEpubFilter@@UEAAPEAXI@Z 0000000180046680 f i SearchFilterDll.obj
 0001:00045680       ??_GEpubFilter@@UEAAPEAXI@Z 0000000180046680 f i SearchFilterDll.obj
 0001:000456d0       ??_EFilterBase@@UEAAPEAXI@Z 00000001800466d0 f i SearchFilterDll.obj
 0001:000456d0       ??_GFilterBase@@UEAAPEAXI@Z 00000001800466d0 f i SearchFilterDll.obj
 0001:00045720       ??_GFilterClassFactory@@QEAAPEAXI@Z 0000000180046720 f i SearchFilterDll.obj
 0001:00045770       ??_EPdfFilter@@UEAAPEAXI@Z 0000000180046770 f i SearchFilterDll.obj
 0001:00045770       ??_GPdfFilter@@UEAAPEAXI@Z 0000000180046770 f i SearchFilterDll.obj
 0001:000457c0       ??_ETeXFilter@@UEAAPEAXI@Z 00000001800467c0 f i SearchFilterDll.obj
 0001:000457c0       ??_GTeXFilter@@UEAAPEAXI@Z 00000001800467c0 f i SearchFilterDll.obj
 0001:00045810       ?AddRef@FilterBase@@UEAAKXZ 0000000180046810 f i SearchFilterDll.obj
 0001:00045834       ?AddRef@FilterBase@@W7EAAKXZ 0000000180046834 f i SearchFilterDll.obj
 0001:00045840       ?AddRef@FilterBase@@WBA@EAAKXZ 0000000180046840 f i SearchFilterDll.obj
 0001:0004584c       ?AddRef@FilterBase@@WBI@EAAKXZ 000000018004684c f i SearchFilterDll.obj
 0001:00045860       ?AddRef@FilterClassFactory@@UEAAKXZ 0000000180046860 f i SearchFilterDll.obj
 0001:00045890       ?BindRegion@FilterBase@@UEAAJUtagFILTERREGION@@AEBU_GUID@@PEAPEAX@Z 0000000180046890 f i SearchFilterDll.obj
 0001:000458b0       ?CleanUp@TeXFilter@@QEAAXXZ 00000001800468b0 f i SearchFilterDll.obj
 0001:00045920       ?CopyChunk@ChunkValue@@QEAAJPEAUtagSTAT_CHUNK@@@Z 0000000180046920 f i SearchFilterDll.obj
 0001:00045970       ?CreateInstance@FilterClassFactory@@UEAAJPEAUIUnknown@@AEBU_GUID@@PEAPEAX@Z 0000000180046970 f i SearchFilterDll.obj
 0001:00045ca0       ?GetChunk@FilterBase@@UEAAJPEAUtagSTAT_CHUNK@@@Z 0000000180046ca0 f i SearchFilterDll.obj
 0001:00045dc0       ?GetChunkType@ChunkValue@@QEAA?AW4tagCHUNKSTATE@@XZ 0000000180046dc0 f i SearchFilterDll.obj
 0001:00045de0       ?GetClassID@EpubFilter@@UEAAJPEAU_GUID@@@Z 0000000180046de0 f i SearchFilterDll.obj
 0001:00045e10       ?GetClassID@EpubFilter@@W7EAAJPEAU_GUID@@@Z 0000000180046e10 f i SearchFilterDll.obj
 0001:00045e20       ?GetClassID@PdfFilter@@UEAAJPEAU_GUID@@@Z 0000000180046e20 f i SearchFilterDll.obj
 0001:00045e50       ?GetClassID@PdfFilter@@W7EAAJPEAU_GUID@@@Z 0000000180046e50 f i SearchFilterDll.obj
 0001:00045e60       ?GetClassID@TeXFilter@@UEAAJPEAU_GUID@@@Z 0000000180046e60 f i SearchFilterDll.obj
 0001:00045e90       ?GetClassID@TeXFilter@@W7EAAJPEAU_GUID@@@Z 0000000180046e90 f i SearchFilterDll.obj
 0001:00045ea0       ?GetCurFile@FilterBase@@UEAAJPEAPEA_W@Z 0000000180046ea0 f i SearchFilterDll.obj
 0001:00045ec0       ?GetSizeMax@FilterBase@@UEAAJPEAT_ULARGE_INTEGER@@@Z 0000000180046ec0 f i SearchFilterDll.obj
 0001:00045ee0       ?GetString@ChunkValue@@QEAAPEA_WXZ 0000000180046ee0 f i SearchFilterDll.obj
 0001:00045f00       ?GetText@FilterBase@@UEAAJPEAKPEA_W@Z 0000000180046f00 f i SearchFilterDll.obj
 0001:000460c0       ?GetValue@ChunkValue@@QEAAJPEAPEAUtagPROPVARIANT@@@Z 00000001800470c0 f i SearchFilterDll.obj
 0001:00046180       ?GetValue@FilterBase@@UEAAJPEAPEAUtagPROPVARIANT@@@Z 0000000180047180 f i SearchFilterDll.obj
 0001:00046240       ?Init@FilterBase@@UEAAJKKPEBUtagFULLPROPSPEC@@PEAK@Z 0000000180047240 f i SearchFilterDll.obj
 0001:000462e0       ?Initialize@FilterBase@@UEAAJPEAUIStream@@K@Z 00000001800472e0 f i SearchFilterDll.obj
 0001:00046380       ?IsDirty@FilterBase@@UEAAJXZ 0000000180047380 f i SearchFilterDll.obj
 0001:00046390       ?IsDirty@FilterBase@@W7EAAJXZ 0000000180047390 f i SearchFilterDll.obj
 0001:000463a0       ?IsValid@ChunkValue@@QEAAHXZ 00000001800473a0 f i SearchFilterDll.obj
 0001:000463c0       ?Load@FilterBase@@UEAAJPEAUIStream@@@Z 00000001800473c0 f i SearchFilterDll.obj
 0001:00046420       ?Load@FilterBase@@UEAAJPEB_WK@Z 0000000180047420 f i SearchFilterDll.obj
 0001:00046600       ?LockServer@FilterClassFactory@@UEAAJH@Z 0000000180047600 f i SearchFilterDll.obj
 0001:00046640       ?QueryInterface@FilterBase@@UEAAJAEBU_GUID@@PEAPEAX@Z 0000000180047640 f i SearchFilterDll.obj
 0001:00046680       ?QueryInterface@FilterBase@@W7EAAJAEBU_GUID@@PEAPEAX@Z 0000000180047680 f i SearchFilterDll.obj
 0001:0004668c       ?QueryInterface@FilterBase@@WBA@EAAJAEBU_GUID@@PEAPEAX@Z 000000018004768c f i SearchFilterDll.obj
 0001:00046698       ?QueryInterface@FilterBase@@WBI@EAAJAEBU_GUID@@PEAPEAX@Z 0000000180047698 f i SearchFilterDll.obj
 0001:000466b0       ?QueryInterface@FilterClassFactory@@UEAAJAEBU_GUID@@PEAPEAX@Z 00000001800476b0 f i SearchFilterDll.obj
 0001:000466f0       ?Release@FilterBase@@UEAAKXZ 00000001800476f0 f i SearchFilterDll.obj
 0001:00046784       ?Release@FilterBase@@W7EAAKXZ 0000000180047784 f i SearchFilterDll.obj
 0001:00046790       ?Release@FilterBase@@WBA@EAAKXZ 0000000180047790 f i SearchFilterDll.obj
 0001:0004679c       ?Release@FilterBase@@WBI@EAAKXZ 000000018004779c f i SearchFilterDll.obj
 0001:000467b0       ?Release@FilterClassFactory@@UEAAKXZ 00000001800477b0 f i SearchFilterDll.obj
 0001:00046830       ?Save@FilterBase@@UEAAJPEAUIStream@@H@Z 0000000180047830 f i SearchFilterDll.obj
 0001:00046850       ?Save@FilterBase@@UEAAJPEB_WH@Z 0000000180047850 f i SearchFilterDll.obj
 0001:00046870       ?SaveCompleted@FilterBase@@UEAAJPEB_W@Z 0000000180047870 f i SearchFilterDll.obj
 0001:00046890       ?StringCchCopyNW@@YAJPEA_W_KPEB_W1@Z 0000000180047890 f i SearchFilterDll.obj
 0001:00046950       HRESULT_FROM_WIN32         0000000180047950 f i SearchFilterDll.obj
 0001:000469a0       IsEqualGUID                00000001800479a0 f i SearchFilterDll.obj
 0001:00046a00       PropVariantInit            0000000180047a00 f i SearchFilterDll.obj
 0001:00046b80       ?OnInit@TeXFilter@@UEAAJXZ 0000000180047b80 f   TeXFilter.obj
 0001:00046ca0       ?GetNextChunkValue@TeXFilter@@UEAAJAEAVChunkValue@@@Z 0000000180047ca0 f   TeXFilter.obj
 0001:00047230       ?ExtractBracedBlock@TeXFilter@@QEAAPEA_WXZ 0000000180048230 f   TeXFilter.obj
 0001:000482e0       ??$AllocArray@_W@@YAPEA_W_K@Z 00000001800492e0 f i TeXFilter.obj
 0001:00048310       ?wcschr@@YAPEA_WPEA_W_W@Z  0000000180049310 f i TeXFilter.obj
 0001:00048520       ?log@@YAXPEBD_N@Z          0000000180049520 f   Log.obj
 0001:00048880       ?loga@@YAXPEBD@Z           0000000180049880 f   Log.obj
 0001:000488b0       ?logf@@YAXPEBDZZ           00000001800498b0 f   Log.obj
 0001:00048940       ?logfa@@YAXPEBDZZ          0000000180049940 f   Log.obj
 0001:000489b0       ?StartLogToFile@@YAXPEBD_N@Z 00000001800499b0 f   Log.obj
 0001:00048a20       ?WriteCurrentLogToFile@@YA_NPEBD@Z 0000000180049a20 f   Log.obj
 0001:00048ac0       ?DestroyLogging@@YAXXZ     0000000180049ac0 f   Log.obj
 0001:00048de0       ??0Allocator@@QEAA@XZ      0000000180049de0 f i Log.obj
 0001:00048e00       ??0HeapAllocator@@QEAA@_K@Z 0000000180049e00 f i Log.obj
 0001:00048e60       ??0Mutex@@QEAA@XZ          0000000180049e60 f i Log.obj
 0001:00048e90       ??1Allocator@@UEAA@XZ      0000000180049e90 f i Log.obj
 0001:00048ea0       ??1HeapAllocator@@UEAA@XZ  0000000180049ea0 f i Log.obj
 0001:00048ef0       ??1Mutex@@QEAA@XZ          0000000180049ef0 f i Log.obj
 0001:00048f20       ??_EAllocator@@UEAAPEAXI@Z 0000000180049f20 f i Log.obj
 0001:00048f20       ??_GAllocator@@UEAAPEAXI@Z 0000000180049f20 f i Log.obj
 0001:00048f70       ??_EHeapAllocator@@UEAAPEAXI@Z 0000000180049f70 f i Log.obj
 0001:00048f70       ??_GHeapAllocator@@UEAAPEAXI@Z 0000000180049f70 f i Log.obj
 0001:00048fc0       ?Alloc@HeapAllocator@@UEAAPEAX_K@Z 0000000180049fc0 f i Log.obj
 0001:00049000       ?Free@HeapAllocator@@UEAAXPEBX@Z 000000018004a000 f i Log.obj
 0001:00049040       ?Lock@Mutex@@QEAAXXZ       000000018004a040 f i Log.obj
 0001:00049070       ?Realloc@HeapAllocator@@UEAAPEAXPEAX_K@Z 000000018004a070 f i Log.obj
 0001:000490b0       ?Unlock@Mutex@@QEAAXXZ     000000018004a0b0 f i Log.obj
 0001:000490d4       QISearch                   000000018004a0d4 f   shlwapi:SHLWAPI.dll
 0001:000490da       IsDebuggerPresent          000000018004a0da f   kernel32:KERNEL32.dll
 0001:000490e0       DebugBreak                 000000018004a0e0 f   kernel32:KERNEL32.dll
 0001:000490e6       InitializeCriticalSection  000000018004a0e6 f   kernel32:KERNEL32.dll
 0001:000490ec       EnterCriticalSection       000000018004a0ec f   kernel32:KERNEL32.dll
 0001:000490f2       LeaveCriticalSection       000000018004a0f2 f   kernel32:KERNEL32.dll
 0001:000490f8       DeleteCriticalSection      000000018004a0f8 f   kernel32:KERNEL32.dll
 0001:000490fe       QueryPerformanceCounter    000000018004a0fe f   kernel32:KERNEL32.dll
 0001:00049104       QueryPerformanceFrequency  000000018004a104 f   kernel32:KERNEL32.dll
 0001:0004910a       TryEnterCriticalSection    000000018004a10a f   kernel32:KERNEL32.dll
 0001:00049110       GetCurrentThreadId         000000018004a110 f   kernel32:KERNEL32.dll
 0001:00049116       CreateFileMappingW         000000018004a116 f   kernel32:KERNEL32.dll
 0001:0004911c       MultiByteToWideChar        000000018004a11c f   kernel32:KERNEL32.dll
 0001:00049122       GetACP                     000000018004a122 f   kernel32:KERNEL32.dll
 0001:00049128       SystemTimeToFileTime       000000018004a128 f   kernel32:KERNEL32.dll
 0001:0004912e       CreateFileW                000000018004a12e f   kernel32:KERNEL32.dll
 0001:00049134       GetFileSize                000000018004a134 f   kernel32:KERNEL32.dll
 0001:0004913a       ReadFile                   000000018004a13a f   kernel32:KERNEL32.dll
 0001:00049140       CloseHandle                000000018004a140 f   kernel32:KERNEL32.dll
 0001:00049146       GetLastError               000000018004a146 f   kernel32:KERNEL32.dll
 0001:0004914c       GlobalAlloc                000000018004a14c f   kernel32:KERNEL32.dll
 0001:00049152       GlobalUnlock               000000018004a152 f   kernel32:KERNEL32.dll
 0001:00049158       GlobalLock                 000000018004a158 f   kernel32:KERNEL32.dll
 0001:0004915e       GlobalFree                 000000018004a15e f   kernel32:KERNEL32.dll
 0001:00049164       WriteFile                  000000018004a164 f   kernel32:KERNEL32.dll
 0001:0004916a       OutputDebugStringA         000000018004a16a f   kernel32:KERNEL32.dll
 0001:00049170       SetNamedPipeHandleState    000000018004a170 f   kernel32:KERNEL32.dll
 0001:00049176       HeapCreate                 000000018004a176 f   kernel32:KERNEL32.dll
 0001:0004917c       HeapDestroy                000000018004a17c f   kernel32:KERNEL32.dll
 0001:00049182       HeapAlloc                  000000018004a182 f   kernel32:KERNEL32.dll
 0001:00049188       HeapReAlloc                000000018004a188 f   kernel32:KERNEL32.dll
 0001:0004918e       HeapFree                   000000018004a18e f   kernel32:KERNEL32.dll
 0001:00049194       CreateDIBSection           000000018004a194 f   gdi32:GDI32.dll
 0001:0004919a       PropVariantClear           000000018004a19a f   ole32:ole32.dll
 0001:000491a0       CoTaskMemAlloc             000000018004a1a0 f   ole32:ole32.dll
 0001:000491a6       CoTaskMemFree              000000018004a1a6 f   ole32:ole32.dll
 0001:000491ac       CreateStreamOnHGlobal      000000018004a1ac f   ole32:ole32.dll
 0001:000491b2       PropVariantCopy            000000018004a1b2 f   ole32:ole32.dll
 0001:000491c0       ?isLegalUTF8Sequence@@YA_NPEBE0@Z 000000018004a1c0 f   utils:StrUtil.obj
 0001:00049210       ?isLegalUTF8String@@YA_NPEAPEBEPEBE@Z 000000018004a210 f   utils:StrUtil.obj
 0001:000492b0       ?utf8StrLen@@YAHPEBE@Z     000000018004a2b0 f   utils:StrUtil.obj
 0001:00049330       ?utf8RuneLen@@YAHPEBE@Z    000000018004a330 f   utils:StrUtil.obj
 0001:00049360       ??0StrSpan@@QEAA@PEBD@Z    000000018004a360 f   utils:StrUtil.obj
 0001:000493b0       ??0StrSpan@@QEAA@PEBDH@Z   000000018004a3b0 f   utils:StrUtil.obj
 0001:00049420       ?IsEqual@@YA_NAEBUByteSlice@@0@Z 000000018004a420 f   utils:StrUtil.obj
 0001:000494e0       ?Len@str@@YA_KPEB_W@Z      000000018004a4e0 f   utils:StrUtil.obj
 0001:00049520       ?Len@str@@YA_KPEBD@Z       000000018004a520 f   utils:StrUtil.obj
 0001:00049560       ?Leni@str@@YAHPEB_W@Z      000000018004a560 f   utils:StrUtil.obj
 0001:000495a0       ?Leni@str@@YAHPEBD@Z       000000018004a5a0 f   utils:StrUtil.obj
 0001:000495e0       ?Free@str@@YAXPEBD@Z       000000018004a5e0 f   utils:StrUtil.obj
 0001:00049600       ?Free@str@@YAXPEBE@Z       000000018004a600 f   utils:StrUtil.obj
 0001:00049620       ?Free@str@@YAXAEBUStrSpan@@@Z 000000018004a620 f   utils:StrUtil.obj
 0001:00049650       ?Free@str@@YAXPEB_W@Z      000000018004a650 f   utils:StrUtil.obj
 0001:00049670       ?FreePtr@str@@YAXPEAPEBD@Z 000000018004a670 f   utils:StrUtil.obj
 0001:000496a0       ?FreePtr@str@@YAXPEAPEAD@Z 000000018004a6a0 f   utils:StrUtil.obj
 0001:000496d0       ?FreePtr@str@@YAXPEAPEB_W@Z 000000018004a6d0 f   utils:StrUtil.obj
 0001:00049700       ?FreePtr@str@@YAXPEAPEA_W@Z 000000018004a700 f   utils:StrUtil.obj
 0001:00049730       ?Dup@str@@YAPEADPEAUAllocator@@PEBD_K@Z 000000018004a730 f   utils:StrUtil.obj
 0001:00049790       ?Dup@str@@YAPEADPEBD_K@Z   000000018004a790 f   utils:StrUtil.obj
 0001:000497c0       ?Dup@str@@YAPEADAEBUByteSlice@@@Z 000000018004a7c0 f   utils:StrUtil.obj
 0001:00049810       ?ReplacePtr@str@@YAXPEAPEBDPEBD@Z 000000018004a810 f   utils:StrUtil.obj
 0001:00049860       ?ReplacePtr@str@@YAXPEAPEADPEBD@Z 000000018004a860 f   utils:StrUtil.obj
 0001:00049890       ?ReplaceWithCopy@str@@YAXPEAPEBDPEBD@Z 000000018004a890 f   utils:StrUtil.obj
 0001:000498e0       ?ReplaceWithCopy@str@@YAXPEAPEBDAEBUByteSlice@@@Z 000000018004a8e0 f   utils:StrUtil.obj
 0001:00049950       ?ReplaceWithCopy@str@@YAXPEAPEADPEBD@Z 000000018004a950 f   utils:StrUtil.obj
 0001:000499a0       ?Join@str@@YAPEADPEAUAllocator@@PEBD11@Z 000000018004a9a0 f   utils:StrUtil.obj
 0001:00049ac0       ?Join@str@@YAPEADPEAUAllocator@@PEBD1111@Z 000000018004aac0 f   utils:StrUtil.obj
 0001:00049c70       ?Join@str@@YAPEADPEBD00@Z  000000018004ac70 f   utils:StrUtil.obj
 0001:00049cb0       ?Eq@str@@YA_NPEBD0@Z       000000018004acb0 f   utils:StrUtil.obj
 0001:00049d20       ?Eq@str@@YA_NAEBUByteSlice@@0@Z 000000018004ad20 f   utils:StrUtil.obj
 0001:00049dc0       ?EqI@str@@YA_NPEBD0@Z      000000018004adc0 f   utils:StrUtil.obj
 0001:00049e30       ?EqIS@str@@YA_NPEBD0@Z     000000018004ae30 f   utils:StrUtil.obj
 0001:00049f70       ?EqN@str@@YA_NPEBD0_K@Z    000000018004af70 f   utils:StrUtil.obj
 0001:00049ff0       ?EqNI@str@@YA_NPEBD0_K@Z   000000018004aff0 f   utils:StrUtil.obj
 0001:0004a070       ?IsEmpty@str@@YA_NPEBD@Z   000000018004b070 f   utils:StrUtil.obj
 0001:0004a0b0       ?StartsWith@str@@YA_NPEBD0@Z 000000018004b0b0 f   utils:StrUtil.obj
 0001:0004a0f0       ?StartsWith@str@@YA_NPEBEPEBD@Z 000000018004b0f0 f   utils:StrUtil.obj
 0001:0004a120       ?StartsWithI@str@@YA_NPEBD0@Z 000000018004b120 f   utils:StrUtil.obj
 0001:0004a1a0       ?EndsWith@str@@YA_NPEBD0@Z 000000018004b1a0 f   utils:StrUtil.obj
 0001:0004a220       ?EndsWithI@str@@YA_NPEBD0@Z 000000018004b220 f   utils:StrUtil.obj
 0001:0004a2a0       ?EqNIx@str@@YA_NPEBD_K0@Z  000000018004b2a0 f   utils:StrUtil.obj
 0001:0004a300       ?ToLowerInPlace@str@@YAPEADPEAD@Z 000000018004b300 f   utils:StrUtil.obj
 0001:0004a360       ?ToLower@str@@YAPEADPEBD@Z 000000018004b360 f   utils:StrUtil.obj
 0001:0004a3a0       ?ToUpperInPlace@str@@YAPEADPEAD@Z 000000018004b3a0 f   utils:StrUtil.obj
 0001:0004a400       ?Utf8Encode@str@@YAXAEAPEADH@Z 000000018004b400 f   utils:StrUtil.obj
 0001:0004a5b0       ?IsDigit@str@@YA_ND@Z      000000018004b5b0 f   utils:StrUtil.obj
 0001:0004a5f0       ?IsWs@str@@YA_ND@Z         000000018004b5f0 f   utils:StrUtil.obj
 0001:0004a630       ?IsAlNum@str@@YA_ND@Z      000000018004b630 f   utils:StrUtil.obj
 0001:0004a690       ?FindChar@str@@YAPEBDPEBDD@Z 000000018004b690 f   utils:StrUtil.obj
 0001:0004a6c0       ?FindChar@str@@YAPEADPEADD@Z 000000018004b6c0 f   utils:StrUtil.obj
 0001:0004a6f0       ?FindCharLast@str@@YAPEBDPEBDD@Z 000000018004b6f0 f   utils:StrUtil.obj
 0001:0004a720       ?FindCharLast@str@@YAPEADPEADD@Z 000000018004b720 f   utils:StrUtil.obj
 0001:0004a750       ?Find@str@@YAPEBDPEBD0@Z   000000018004b750 f   utils:StrUtil.obj
 0001:0004a780       ?FindI@str@@YAPEBDPEBD0@Z  000000018004b780 f   utils:StrUtil.obj
 0001:0004a830       ?BufFind@str@@YAHPEBDH0@Z  000000018004b830 f   utils:StrUtil.obj
 0001:0004a8f0       ?Contains@str@@YA_NPEBD0@Z 000000018004b8f0 f   utils:StrUtil.obj
 0001:0004a950       ?ContainsI@str@@YA_NPEBD0@Z 000000018004b950 f   utils:StrUtil.obj
 0001:0004a9b0       ?BufFmtV@str@@YA_NPEAD_KPEBD0@Z 000000018004b9b0 f   utils:StrUtil.obj
 0001:0004aa30       ?BufFmt@str@@YA_NPEAD_KPEBDZZ 000000018004ba30 f   utils:StrUtil.obj
 0001:0004aa90       ?FmtVWithAllocator@str@@YAPEADPEAUAllocator@@PEBDPEAD@Z 000000018004ba90 f   utils:StrUtil.obj
 0001:0004ac00       ?FmtV@str@@YAPEADPEBDPEAD@Z 000000018004bc00 f   utils:StrUtil.obj
 0001:0004ac30       ?Format@str@@YAPEADPEBDZZ  000000018004bc30 f   utils:StrUtil.obj
 0001:0004ac80       ?TrimWSInPlace@str@@YA_KPEADW4TrimOpt@1@@Z 000000018004bc80 f   utils:StrUtil.obj
 0001:0004adc0       ?TrimWsEnd@str@@YAXPEADAEAPEAD@Z 000000018004bdc0 f   utils:StrUtil.obj
 0001:0004ae30       ?TransCharsInPlace@str@@YA_KPEADPEBD1@Z 000000018004be30 f   utils:StrUtil.obj
 0001:0004aed0       ?NormalizeWSInPlace@str@@YA_KPEAD@Z 000000018004bed0 f   utils:StrUtil.obj
 0001:0004afc0       ?NormalizeNewlinesInPlace@str@@YA_KPEAD0@Z 000000018004bfc0 f   utils:StrUtil.obj
 0001:0004b120       ?NormalizeNewlinesInPlace@str@@YA_KPEAD@Z 000000018004c120 f   utils:StrUtil.obj
 0001:0004b160       ?RemoveCharsInPlace@str@@YA_KPEADPEBD@Z 000000018004c160 f   utils:StrUtil.obj
 0001:0004b210       ?BufSet@str@@YAHPEADHPEBD@Z 000000018004c210 f   utils:StrUtil.obj
 0001:0004b300       ?BufAppend@str@@YAHPEADHPEBD@Z 000000018004c300 f   utils:StrUtil.obj
 0001:0004b400       ?MemToHex@str@@YAPEADPEBE_K@Z 000000018004c400 f   utils:StrUtil.obj
 0001:0004b4b0       ?HexToMem@str@@YA_NPEBDPEAE_K@Z 000000018004c4b0 f   utils:StrUtil.obj
 0001:0004b550       ?Parse@str@@YAPEBDPEBD0ZZ  000000018004c550 f   utils:StrUtil.obj
 0001:0004b5c0       ?Parse@str@@YAPEBDPEBD_K0ZZ 000000018004c5c0 f   utils:StrUtil.obj
 0001:0004b710       ?CmpNatural@str@@YAHPEBD0@Z 000000018004c710 f   utils:StrUtil.obj
 0001:0004ba50       ?FormatFloatWithThousandSepTemp@str@@YAPEADNK@Z 000000018004ca50 f   utils:StrUtil.obj
 0001:0004bd70       ?FormatNumWithThousandSepTemp@str@@YAPEAD_JK@Z 000000018004cd70 f   utils:StrUtil.obj
 0001:0004bf90       ?FormatSizeShortTemp@str@@YAPEAD_JQEAPEBD@Z 000000018004cf90 f   utils:StrUtil.obj
 0001:0004c170       ?FormatFileSizeTemp@str@@YAPEAD_J@Z 000000018004d170 f   utils:StrUtil.obj
 0001:0004c330       ?FormatRomanNumeralTemp@str@@YAPEADH@Z 000000018004d330 f   utils:StrUtil.obj
 0001:0004c440       ?IsEmptyOrWhiteSpace@str@@YA_NPEBD@Z 000000018004d440 f   utils:StrUtil.obj
 0001:0004c4b0       ?Skip@str@@YA_NAEAPEBDPEBD@Z 000000018004d4b0 f   utils:StrUtil.obj
 0001:0004c510       ?SkipChar@str@@YAPEBDPEBDD@Z 000000018004d510 f   utils:StrUtil.obj
 0001:0004c560       ?Dup@str@@YAPEA_WPEAUAllocator@@PEB_W_K@Z 000000018004d560 f   utils:StrUtil.obj
 0001:0004c5c0       ?Dup@str@@YAPEA_WPEB_W_K@Z 000000018004d5c0 f   utils:StrUtil.obj
 0001:0004c5f0       ?Join@str@@YAPEA_WPEB_W00@Z 000000018004d5f0 f   utils:StrUtil.obj
 0001:0004c630       ?Join@str@@YAPEA_WPEAUAllocator@@PEB_W11@Z 000000018004d630 f   utils:StrUtil.obj
 0001:0004c750       ?Eq@str@@YA_NPEB_W0@Z      000000018004d750 f   utils:StrUtil.obj
 0001:0004c7c0       ?EqI@str@@YA_NPEB_W0@Z     000000018004d7c0 f   utils:StrUtil.obj
 0001:0004c830       ?EqN@str@@YA_NPEB_W0_K@Z   000000018004d830 f   utils:StrUtil.obj
 0001:0004c8b0       ?IsEmpty@str@@YA_NPEB_W@Z  000000018004d8b0 f   utils:StrUtil.obj
 0001:0004c8f0       ?StartsWith@str@@YA_NPEB_W0@Z 000000018004d8f0 f   utils:StrUtil.obj
 0001:0004c930       ?StartsWithI@str@@YA_NPEB_W0@Z 000000018004d930 f   utils:StrUtil.obj
 0001:0004c9b0       ?EndsWith@str@@YA_NPEB_W0@Z 000000018004d9b0 f   utils:StrUtil.obj
 0001:0004ca40       ?EndsWithI@str@@YA_NPEB_W0@Z 000000018004da40 f   utils:StrUtil.obj
 0001:0004cad0       ?ToLower@str@@YAPEA_WPEB_W@Z 000000018004dad0 f   utils:StrUtil.obj
 0001:0004cb10       ?ToLowerInPlace@str@@YAPEA_WPEA_W@Z 000000018004db10 f   utils:StrUtil.obj
 0001:0004cb70       ?Parse@str@@YAPEB_WPEB_W0ZZ 000000018004db70 f   utils:StrUtil.obj
 0001:0004d200       ?BufSet@str@@YAHPEA_WHPEB_W@Z 000000018004e200 f   utils:StrUtil.obj
 0001:0004d2d0       ?BufSet@str@@YAHPEA_WHPEBD@Z 000000018004e2d0 f   utils:StrUtil.obj
 0001:0004d310       ?NormalizeWSInPlace@str@@YA_KPEA_W@Z 000000018004e310 f   utils:StrUtil.obj
 0001:0004d420       ?RemoveCharsInPlace@str@@YA_KPEA_WPEB_W@Z 000000018004e420 f   utils:StrUtil.obj
 0001:0004d4d0       ?FindChar@str@@YAPEB_WPEB_W_W@Z 000000018004e4d0 f   utils:StrUtil.obj
 0001:0004d500       ?FindChar@str@@YAPEA_WPEA_W_W@Z 000000018004e500 f   utils:StrUtil.obj
 0001:0004d530       ?Find@str@@YAPEB_WPEB_W0@Z 000000018004e530 f   utils:StrUtil.obj
 0001:0004d560       ?IsWs@str@@YA_N_W@Z        000000018004e560 f   utils:StrUtil.obj
 0001:0004d5a0       ?IsDigit@str@@YA_N_W@Z     000000018004e5a0 f   utils:StrUtil.obj
 0001:0004d5e0       ?IsNonCharacter@str@@YA_N_W@Z 000000018004e5e0 f   utils:StrUtil.obj
 0001:0004d640       ?TransCharsInPlace@str@@YA_KPEA_WPEB_W1@Z 000000018004e640 f   utils:StrUtil.obj
 0001:0004d6f0       ?Replace@str@@YAPEA_WPEB_W00@Z 000000018004e6f0 f   utils:StrUtil.obj
 0001:0004d860       ?ToWCHAR@str@@YAPEA_WPEBD@Z 000000018004e860 f   utils:StrUtil.obj
 0001:0004d890       ?DecodeInPlace@url@@YAXPEAD@Z 000000018004e890 f   utils:StrUtil.obj
 0001:0004d940       ?IsAbsolute@url@@YA_NPEBD@Z 000000018004e940 f   utils:StrUtil.obj
 0001:0004d9b0       ?GetFullPathTemp@url@@YAPEADPEBD@Z 000000018004e9b0 f   utils:StrUtil.obj
 0001:0004da10       ?GetFileNameTemp@url@@YAPEADPEBD@Z 000000018004ea10 f   utils:StrUtil.obj
 0001:0004daf0       ?Next@seqstrings@@YAXAEAPEBD@Z 000000018004eaf0 f   utils:StrUtil.obj
 0001:0004db20       ?Next@seqstrings@@YAXAEAPEBDPEAH@Z 000000018004eb20 f   utils:StrUtil.obj
 0001:0004dbf0       ?StrToIdx@seqstrings@@YAHPEBD0@Z 000000018004ebf0 f   utils:StrUtil.obj
 0001:0004dc70       ?StrToIdxIS@seqstrings@@YAHPEBD0@Z 000000018004ec70 f   utils:StrUtil.obj
 0001:0004dd00       ?IdxToStr@seqstrings@@YAPEBDPEBDH@Z 000000018004ed00 f   utils:StrUtil.obj
 0001:0004dd80       ??0Str@str@@QEAA@_KPEAUAllocator@@@Z 000000018004ed80 f   utils:StrUtil.obj
 0001:0004de10       ??0Str@str@@QEAA@AEBU01@@Z 000000018004ee10 f   utils:StrUtil.obj
 0001:0004dee0       ??4Str@str@@QEAAAEAU01@AEBU01@@Z 000000018004eee0 f   utils:StrUtil.obj
 0001:0004df80       ??0Str@str@@QEAA@PEBD@Z    000000018004ef80 f   utils:StrUtil.obj
 0001:0004e000       ??1Str@str@@QEAA@XZ        000000018004f000 f   utils:StrUtil.obj
 0001:0004e020       ?Reset@Str@str@@QEAAXXZ    000000018004f020 f   utils:StrUtil.obj
 0001:0004e0b0       ?at@Str@str@@QEBAAEAD_K@Z  000000018004f0b0 f   utils:StrUtil.obj
 0001:0004e110       ?at@Str@str@@QEBAAEADH@Z   000000018004f110 f   utils:StrUtil.obj
 0001:0004e160       ??AStr@str@@QEBAAEADJ@Z    000000018004f160 f   utils:StrUtil.obj
 0001:0004e1b0       ??AStr@str@@QEBAAEADH@Z    000000018004f1b0 f   utils:StrUtil.obj
 0001:0004e200       ?at@Str@str@@QEBAAEADI@Z   000000018004f200 f   utils:StrUtil.obj
 0001:0004e230       ??AStr@str@@QEBAAEADI@Z    000000018004f230 f   utils:StrUtil.obj
 0001:0004e260       ?size@Str@str@@QEBA_KXZ    000000018004f260 f   utils:StrUtil.obj
 0001:0004e280       ?Size@Str@str@@QEBAHXZ     000000018004f280 f   utils:StrUtil.obj
 0001:0004e2a0       ?InsertAt@Str@str@@QEAA_N_KD@Z 000000018004f2a0 f   utils:StrUtil.obj
 0001:0004e300       ?AppendChar@Str@str@@QEAA_ND@Z 000000018004f300 f   utils:StrUtil.obj
 0001:0004e340       ?Append@Str@str@@QEAA_NPEBD_K@Z 000000018004f340 f   utils:StrUtil.obj
 0001:0004e3d0       ?Append@Str@str@@QEAA_NAEBUStrSpan@@@Z 000000018004f3d0 f   utils:StrUtil.obj
 0001:0004e420       ?Append@Str@str@@QEAA_NAEBU12@@Z 000000018004f420 f   utils:StrUtil.obj
 0001:0004e470       ?RemoveAt@Str@str@@QEAAD_K0@Z 000000018004f470 f   utils:StrUtil.obj
 0001:0004e560       ?RemoveLast@Str@str@@QEAADXZ 000000018004f560 f   utils:StrUtil.obj
 0001:0004e5b0       ?Last@Str@str@@QEBAAEADXZ  000000018004f5b0 f   utils:StrUtil.obj
 0001:0004e610       ?StealData@Str@str@@QEAAPEADPEAUAllocator@@@Z 000000018004f610 f   utils:StrUtil.obj
 0001:0004e6b0       ?LendData@Str@str@@QEBAPEADXZ 000000018004f6b0 f   utils:StrUtil.obj
 0001:0004e6d0       ?Contains@Str@str@@QEAA_NPEBD_K@Z 000000018004f6d0 f   utils:StrUtil.obj
 0001:0004e7d0       ?IsEmpty@Str@str@@QEBA_NXZ 000000018004f7d0 f   utils:StrUtil.obj
 0001:0004e810       ?AsByteSlice@Str@str@@QEBA?AUByteSlice@@XZ 000000018004f810 f   utils:StrUtil.obj
 0001:0004e860       ?StealAsByteSlice@Str@str@@QEAA?AUByteSlice@@XZ 000000018004f860 f   utils:StrUtil.obj
 0001:0004e8c0       ?Append@Str@str@@QEAA_NPEBE_K@Z 000000018004f8c0 f   utils:StrUtil.obj
 0001:0004e900       ?AppendSlice@Str@str@@QEAA_NAEBUByteSlice@@@Z 000000018004f900 f   utils:StrUtil.obj
 0001:0004e960       ?AppendFmt@Str@str@@QEAAXPEBDZZ 000000018004f960 f   utils:StrUtil.obj
 0001:0004e9e0       ?Set@Str@str@@QEAAXPEBD@Z  000000018004f9e0 f   utils:StrUtil.obj
 0001:0004ea20       ?Get@Str@str@@QEBAPEADXZ   000000018004fa20 f   utils:StrUtil.obj
 0001:0004ea40       ?CStr@Str@str@@QEBAPEADXZ  000000018004fa40 f   utils:StrUtil.obj
 0001:0004ea60       ?LastChar@Str@str@@QEBADXZ 000000018004fa60 f   utils:StrUtil.obj
 0001:0004eaa0       ??0WStr@str@@QEAA@_KPEAUAllocator@@@Z 000000018004faa0 f   utils:StrUtil.obj
 0001:0004eb20       ??0WStr@str@@QEAA@AEBU01@@Z 000000018004fb20 f   utils:StrUtil.obj
 0001:0004ebe0       ??0WStr@str@@QEAA@PEB_W@Z  000000018004fbe0 f   utils:StrUtil.obj
 0001:0004ec50       ??4WStr@str@@QEAAAEAU01@AEBU01@@Z 000000018004fc50 f   utils:StrUtil.obj
 0001:0004ecf0       ??1WStr@str@@QEAA@XZ       000000018004fcf0 f   utils:StrUtil.obj
 0001:0004ed10       ?Reset@WStr@str@@QEAAXXZ   000000018004fd10 f   utils:StrUtil.obj
 0001:0004eda0       ?at@WStr@str@@QEBAAEA_W_K@Z 000000018004fda0 f   utils:StrUtil.obj
 0001:0004ee00       ?at@WStr@str@@QEBAAEA_WH@Z 000000018004fe00 f   utils:StrUtil.obj
 0001:0004ee50       ??AWStr@str@@QEBAAEA_W_K@Z 000000018004fe50 f   utils:StrUtil.obj
 0001:0004ee80       ??AWStr@str@@QEBAAEA_WJ@Z  000000018004fe80 f   utils:StrUtil.obj
 0001:0004eed0       ??AWStr@str@@QEBAAEA_WK@Z  000000018004fed0 f   utils:StrUtil.obj
 0001:0004ef00       ??AWStr@str@@QEBAAEA_WH@Z  000000018004ff00 f   utils:StrUtil.obj
 0001:0004ef50       ?at@WStr@str@@QEBAAEA_WI@Z 000000018004ff50 f   utils:StrUtil.obj
 0001:0004ef80       ??AWStr@str@@QEBAAEA_WI@Z  000000018004ff80 f   utils:StrUtil.obj
 0001:0004efb0       ?size@WStr@str@@QEBA_KXZ   000000018004ffb0 f   utils:StrUtil.obj
 0001:0004efd0       ?isize@WStr@str@@QEBAHXZ   000000018004ffd0 f   utils:StrUtil.obj
 0001:0004eff0       ?InsertAt@WStr@str@@QEAA_N_KAEB_W@Z 000000018004fff0 f   utils:StrUtil.obj
 0001:0004f050       ?AppendChar@WStr@str@@QEAA_N_W@Z 0000000180050050 f   utils:StrUtil.obj
 0001:0004f090       ?Append@WStr@str@@QEAA_NPEB_W_K@Z 0000000180050090 f   utils:StrUtil.obj
 0001:0004f120       ?RemoveAt@WStr@str@@QEAA_W_K0@Z 0000000180050120 f   utils:StrUtil.obj
 0001:0004f220       ?RemoveLast@WStr@str@@QEAA_WXZ 0000000180050220 f   utils:StrUtil.obj
 0001:0004f270       ?Last@WStr@str@@QEBAAEA_WXZ 0000000180050270 f   utils:StrUtil.obj
 0001:0004f2d0       ?StealData@WStr@str@@QEAAPEA_WXZ 00000001800502d0 f   utils:StrUtil.obj
 0001:0004f360       ?LendData@WStr@str@@QEBAPEA_WXZ 0000000180050360 f   utils:StrUtil.obj
 0001:0004f380       ?Find@WStr@str@@QEBAHAEB_W_K@Z 0000000180050380 f   utils:StrUtil.obj
 0001:0004f3f0       ?Contains@WStr@str@@QEBA_NAEB_W@Z 00000001800503f0 f   utils:StrUtil.obj
 0001:0004f440       ?Remove@WStr@str@@QEAAHAEB_W@Z 0000000180050440 f   utils:StrUtil.obj
 0001:0004f4a0       ?IsEmpty@WStr@str@@QEBA_NXZ 00000001800504a0 f   utils:StrUtil.obj
 0001:0004f4e0       ?Set@WStr@str@@QEAAXPEB_W@Z 00000001800504e0 f   utils:StrUtil.obj
 0001:0004f520       ?Get@WStr@str@@QEBAPEA_WXZ 0000000180050520 f   utils:StrUtil.obj
 0001:0004f540       ?LastChar@WStr@str@@QEBA_WXZ 0000000180050540 f   utils:StrUtil.obj
 0001:0004f580       ?Replace@str@@YA_NAEAUWStr@1@PEB_W1@Z 0000000180050580 f   utils:StrUtil.obj
 0001:0004f610       ?ParseInt@@YAHPEBD@Z       0000000180050610 f   utils:StrUtil.obj
 0001:0004f700       ?IsValidProgramVersion@@YA_NPEBD@Z 0000000180050700 f   utils:StrUtil.obj
 0001:0004f7d0       ?CompareProgramVersion@@YAHPEBD0@Z 00000001800507d0 f   utils:StrUtil.obj
 0001:0004fa60       ?IsEqual@@YA_NAEBUStrSpan@@0@Z 0000000180050a60 f   utils:StrUtil.obj
 0001:00052e10       ??$AllocArray@D@@YAPEAD_K@Z 0000000180053e10 f i utils:StrUtil.obj
 0001:00052e40       ??$AllocArray@D@Allocator@@SAPEADPEAU0@_K@Z 0000000180053e40 f i utils:StrUtil.obj
 0001:00052e80       ??$max@I@std@@YAAEBIAEBI0@Z 0000000180053e80 f i utils:StrUtil.obj
 0001:00052ee0       ??$min@H@std@@YAAEBHAEBH0@Z 0000000180053ee0 f i utils:StrUtil.obj
 0001:00052f40       ??0?$Span@D@@QEAA@XZ       0000000180053f40 f i utils:StrUtil.obj
 0001:00052f70       ??0Arg@fmt@@QEAA@PEBD@Z    0000000180053f70 f i utils:StrUtil.obj
 0001:00052fd0       ??0Arg@fmt@@QEAA@_J@Z      0000000180053fd0 f i utils:StrUtil.obj
 0001:00053030       ?CStr@StrSpan@@QEBAPEADXZ  0000000180054030 f i utils:StrUtil.obj
 0001:00053050       ?Len@StrSpan@@QEBAHXZ      0000000180054050 f i utils:StrUtil.obj
 0001:00053070       ?strchr@@YAPEADQEADH@Z     0000000180054070 f i utils:StrUtil.obj
 0001:000530a0       ?strrchr@@YAPEADQEADH@Z    00000001800540a0 f i utils:StrUtil.obj
 0001:000530d0       __local_stdio_printf_options 00000001800540d0 f i utils:StrUtil.obj
 0001:000530e0       __local_stdio_scanf_options 00000001800540e0 f i utils:StrUtil.obj
 0001:000530f0       _vsprintf_s_l              00000001800540f0 f i utils:StrUtil.obj
 0001:00053180       _vsscanf_s_l               0000000180054180 f i utils:StrUtil.obj
 0001:000531f0       sprintf_s                  00000001800541f0 f i utils:StrUtil.obj
 0001:00053260       sscanf_s                   0000000180054260 f i utils:StrUtil.obj
 0001:000532c0       vsnprintf                  00000001800542c0 f i utils:StrUtil.obj
 0001:00053360       vsscanf_s                  0000000180054360 f i utils:StrUtil.obj
 0001:000533a0       ?StrLess@@YA_NPEBD0@Z      00000001800543a0 f   utils:StrVec.obj
 0001:00053430       ?StrLessNoCase@@YA_NPEBD0@Z 0000000180054430 f   utils:StrVec.obj
 0001:000534c0       ?StrLessNatural@@YA_NPEBD0@Z 00000001800544c0 f   utils:StrVec.obj
 0001:00053510       ?ToByteSlice@@YA?AUByteSlice@@PEBD@Z 0000000180054510 f   utils:StrVec.obj
 0001:00053560       ??0StrVec@@QEAA@H@Z        0000000180054560 f   utils:StrVec.obj
 0001:000535e0       ??0StrVec@@QEAA@AEBU0@@Z   00000001800545e0 f   utils:StrVec.obj
 0001:00053660       ??4StrVec@@QEAAAEAU0@AEBU0@@Z 0000000180054660 f   utils:StrVec.obj
 0001:000536c0       ??1StrVec@@QEAA@XZ         00000001800546c0 f   utils:StrVec.obj
 0001:000536f0       ?Reset@StrVec@@QEAAXPEAUStrVecPage@@@Z 00000001800546f0 f   utils:StrVec.obj
 0001:00053780       ?Size@StrVec@@QEBAHXZ      0000000180054780 f   utils:StrVec.obj
 0001:000537a0       ?IsEmpty@StrVec@@QEBA_NXZ  00000001800547a0 f   utils:StrVec.obj
 0001:000537e0       ?At@StrVec@@QEBAPEADH@Z    00000001800547e0 f   utils:StrVec.obj
 0001:00053880       ?AtSpan@StrVec@@QEBA?AUStrSpan@@H@Z 0000000180054880 f   utils:StrVec.obj
 0001:00053930       ?AtDataRaw@StrVec@@QEBAPEAXH@Z 0000000180054930 f   utils:StrVec.obj
 0001:00053a00       ??AStrVec@@QEBAPEADH@Z     0000000180054a00 f   utils:StrVec.obj
 0001:00053a50       ?Append@StrVec@@QEAAPEADPEBDH@Z 0000000180054a50 f   utils:StrVec.obj
 0001:00053b50       ?SetAt@StrVec@@QEAAPEADHPEBDH@Z 0000000180054b50 f   utils:StrVec.obj
 0001:00053cd0       ?InsertAt@StrVec@@QEAAPEADHPEBDH@Z 0000000180054cd0 f   utils:StrVec.obj
 0001:00053eb0       ?RemoveAt@StrVec@@QEAAPEADH@Z 0000000180054eb0 f   utils:StrVec.obj
 0001:00053f50       ?RemoveAtFast@StrVec@@QEAAPEADH@Z 0000000180054f50 f   utils:StrVec.obj
 0001:00053ff0       ?Remove@StrVec@@QEAA_NPEBD@Z 0000000180054ff0 f   utils:StrVec.obj
 0001:00054050       ?Find@StrVec@@QEBAHAEBUStrSpan@@H@Z 0000000180055050 f   utils:StrVec.obj
 0001:00054170       ?FindI@StrVec@@QEBAHAEBUStrSpan@@H@Z 0000000180055170 f   utils:StrVec.obj
 0001:00054290       ?Contains@StrVec@@QEBA_NPEBDH@Z 0000000180055290 f   utils:StrVec.obj
 0001:00054300       ??0iterator@StrVec@@QEAA@PEBU1@H@Z 0000000180055300 f   utils:StrVec.obj
 0001:000543b0       ??Diterator@StrVec@@QEBAPEADXZ 00000001800553b0 f   utils:StrVec.obj
 0001:00054420       ?Span@iterator@StrVec@@QEBA?AUStrSpan@@XZ 0000000180055420 f   utils:StrVec.obj
 0001:000544a0       ??Eiterator@StrVec@@QEAAAEAU01@XZ 00000001800554a0 f   utils:StrVec.obj
 0001:000544d0       ??Eiterator@StrVec@@QEAA?AU01@H@Z 00000001800554d0 f   utils:StrVec.obj
 0001:00054520       ??Hiterator@StrVec@@QEAAAEAU01@H@Z 0000000180055520 f   utils:StrVec.obj
 0001:00054550       ??8@YA_NAEBUiterator@StrVec@@0@Z 0000000180055550 f   utils:StrVec.obj
 0001:000545b0       ??9@YA_NAEBUiterator@StrVec@@0@Z 00000001800555b0 f   utils:StrVec.obj
 0001:00054610       ?begin@StrVec@@QEBA?AUiterator@1@XZ 0000000180055610 f   utils:StrVec.obj
 0001:00054640       ?end@StrVec@@QEBA?AUiterator@1@XZ 0000000180055640 f   utils:StrVec.obj
 0001:00054680       ?AppendIfNotExists@@YAHPEAUStrVec@@PEBDH@Z 0000000180055680 f   utils:StrVec.obj
 0001:00054700       ?Sort@@YAXPEAUStrVec@@P6A_NPEBD1@Z@Z 0000000180055700 f   utils:StrVec.obj
 0001:00054760       ?SortIndex@@YAXPEAUStrVec@@P6A_NPEBD1@Z@Z 0000000180055760 f   utils:StrVec.obj
 0001:00054830       ?SortNoCase@@YAXPEAUStrVec@@@Z 0000000180055830 f   utils:StrVec.obj
 0001:00054860       ?SortNatural@@YAXPEAUStrVec@@@Z 0000000180055860 f   utils:StrVec.obj
 0001:00054890       ?Split@@YAHPEAUStrVec@@PEBD1_NH@Z 0000000180055890 f   utils:StrVec.obj
 0001:00054a20       ?Join@@YAPEADPEAUStrVec@@PEBD@Z 0000000180055a20 f   utils:StrVec.obj
 0001:00054ac0       ?JoinTemp@@YAPEADPEAUStrVec@@PEBD@Z 0000000180055ac0 f   utils:StrVec.obj
 0001:00054b60       ?StrVecPageNext@@YAPEAUStrVecPage@@PEAU1@@Z 0000000180055b60 f   utils:StrVec.obj
 0001:00054b80       ?StrVecPageSize@@YAHPEAUStrVecPage@@@Z 0000000180055b80 f   utils:StrVec.obj
 0001:00054ba0       ?At@StrVecPage@@QEBAPEADH@Z 0000000180055ba0 f   utils:StrVec.obj
 0001:00054be0       ?AtSpan@StrVecPage@@QEBA?AUStrSpan@@H@Z 0000000180055be0 f   utils:StrVec.obj
 0001:00054c40       ?AtDataRaw@StrVecPage@@QEBAPEAXH@Z 0000000180055c40 f   utils:StrVec.obj
 0001:00054c80       ?RemoveAt@StrVecPage@@QEAAPEADH@Z 0000000180055c80 f   utils:StrVec.obj
 0001:00054d80       ?RemoveAtFast@StrVecPage@@QEAAPEADH@Z 0000000180055d80 f   utils:StrVec.obj
 0001:00054e70       ?AtHelper@StrVecPage@@QEBAPEADHPEAH@Z 0000000180055e70 f   utils:StrVec.obj
 0001:00054f50       ?BytesLeft@StrVecPage@@QEAAHXZ 0000000180055f50 f   utils:StrVec.obj
 0001:00054ff0       ?Append@StrVecPage@@QEAAPEADPEBDH@Z 0000000180055ff0 f   utils:StrVec.obj
 0001:00055030       ?Append@StrVecPage@@QEAAPEADAEBUStrSpan@@@Z 0000000180056030 f   utils:StrVec.obj
 0001:00055090       ?SetAt@StrVecPage@@QEAAPEADHPEBDH@Z 0000000180056090 f   utils:StrVec.obj
 0001:00055200       ?InsertAt@StrVecPage@@QEAAPEADHPEBDH@Z 0000000180056200 f   utils:StrVec.obj
 0001:00056e30       ??$<move>@AEAU?$pair@PEAUStrVecPage@@H@std@@@@YA$$QEAU?$pair@PEAUStrVecPage@@H@std@@AEAU01@@Z 0000000180057e30 f i utils:StrVec.obj
 0001:00056e40       ??$?0AEAPEAHAEAPEAH$0A@@?$pair@PEAHPEAH@std@@QEAA@AEAPEAH0@Z 0000000180057e40 f i utils:StrVec.obj
 0001:00056e90       ??$?0AEAPEAUStrVecPage@@AEAH$0A@@?$pair@PEAUStrVecPage@@H@std@@QEAA@AEAPEAUStrVecPage@@AEAH@Z 0000000180057e90 f i utils:StrVec.obj
 0001:00056ee0       ??$?0AEAPEAUStrVecPage@@H$0A@@?$pair@PEAUStrVecPage@@H@std@@QEAA@AEAPEAUStrVecPage@@$$QEAH@Z 0000000180057ee0 f i utils:StrVec.obj
 0001:00056f30       ??$?0AEAPEA_KAEAPEA_K$0A@@?$pair@PEA_KPEA_K@std@@QEAA@AEAPEA_K0@Z 0000000180057f30 f i utils:StrVec.obj
 0001:00057020       ??$AllocArray@H@@YAPEAH_K@Z 0000000180058020 f i utils:StrVec.obj
 0001:00057050       ??$_Adl_verify_range@PEAHPEAH@std@@YAXAEBQEAH0@Z 0000000180058050 f i utils:StrVec.obj
 0001:00057060       ??$_Adl_verify_range@PEA_KPEA_K@std@@YAXAEBQEA_K0@Z 0000000180058060 f i utils:StrVec.obj
 0001:00057070       ??$_Copy_backward_memmove@PEAHPEAH@std@@YAPEAHPEAH00@Z 0000000180058070 f i utils:StrVec.obj
 0001:00057140       ??$_Copy_backward_memmove@PEA_KPEA_K@std@@YAPEA_KPEA_K00@Z 0000000180058140 f i utils:StrVec.obj
 0001:00057210       ??$_Get_unwrapped@AEBQEAH@std@@YA?A_TAEBQEAH@Z 0000000180058210 f i utils:StrVec.obj
 0001:00057230       ??$_Get_unwrapped@AEBQEA_K@std@@YA?A_TAEBQEA_K@Z 0000000180058230 f i utils:StrVec.obj
 0001:00057b80       ??$_Move_backward_unchecked@PEAHPEAH@std@@YAPEAHPEAH00@Z 0000000180058b80 f i utils:StrVec.obj
 0001:00057c20       ??$_Move_backward_unchecked@PEA_KPEA_K@std@@YAPEA_KPEA_K00@Z 0000000180058c20 f i utils:StrVec.obj
 0001:00057cc0       ??$_Next_iter@PEAH@std@@YAPEAHPEAH@Z 0000000180058cc0 f i utils:StrVec.obj
 0001:00057ce0       ??$_Next_iter@PEA_K@std@@YAPEA_KPEA_K@Z 0000000180058ce0 f i utils:StrVec.obj
 0001:00058d60       ??$_Prev_iter@PEAH@std@@YAPEAHPEAH@Z 0000000180059d60 f i utils:StrVec.obj
 0001:00058d80       ??$_Prev_iter@PEA_K@std@@YAPEA_KPEA_K@Z 0000000180059d80 f i utils:StrVec.obj
 0001:00059340       ??$_To_address@PEAH@std@@YA?A_PAEBQEAH@Z 000000018005a340 f i utils:StrVec.obj
 0001:00059370       ??$_To_address@PEA_K@std@@YA?A_PAEBQEA_K@Z 000000018005a370 f i utils:StrVec.obj
 0001:000593a0       ??$get@$00PEAUStrVecPage@@H@std@@YA$$QEAH$$QEAU?$pair@PEAUStrVecPage@@H@0@@Z 000000018005a3a0 f i utils:StrVec.obj
 0001:000593c0       ??$get@$0A@PEAUStrVecPage@@H@std@@YA$$QEAPEAUStrVecPage@@$$QEAU?$pair@PEAUStrVecPage@@H@0@@Z 000000018005a3c0 f i utils:StrVec.obj
 0001:00059510       ??$swap@H$0A@@std@@YAXAEAH0@Z 000000018005a510 f i utils:StrVec.obj
 0001:00059560       ??$swap@_K$0A@@std@@YAXAEA_K0@Z 000000018005a560 f i utils:StrVec.obj
 0001:000595b0       ??$to_address@H@std@@YAPEAHQEAH@Z 000000018005a5b0 f i utils:StrVec.obj
 0001:000595c0       ??$to_address@_K@std@@YAPEA_KQEA_K@Z 000000018005a5c0 f i utils:StrVec.obj
 0001:000595d0       ??0StrSpan@@QEAA@XZ        000000018005a5d0 f i utils:StrVec.obj
 0001:00059600       ?Size@?$Span@D@@QEBAHXZ    000000018005a600 f i utils:StrVec.obj
 0001:00059620       ?is_constant_evaluated@std@@YA_NXZ 000000018005a620 f i utils:StrVec.obj
 0001:00059630       ?BreakIfUnderDebugger@@YAXXZ 000000018005a630 f   utils:BaseUtil.obj
 0001:00059650       ?AllocZero@@YAPEAX_K0@Z    000000018005a650 f   utils:BaseUtil.obj
 0001:00059680       ?limitValue@@YAHHHH@Z      000000018005a680 f   utils:BaseUtil.obj
 0001:00059710       ?limitValue@@YAKKKK@Z      000000018005a710 f   utils:BaseUtil.obj
 0001:000597a0       ?limitValue@@YAMMMM@Z      000000018005a7a0 f   utils:BaseUtil.obj
 0001:00059840       ?memdup@@YAPEAXPEBX_K1@Z   000000018005a840 f   utils:BaseUtil.obj
 0001:000598b0       ?memeq@@YA_NPEBX0_K@Z      000000018005a8b0 f   utils:BaseUtil.obj
 0001:00059900       ?RoundToPowerOf2@@YA_K_K@Z 000000018005a900 f   utils:BaseUtil.obj
 0001:00059950       ?MurmurHash2@@YAIPEBX_K@Z  000000018005a950 f   utils:BaseUtil.obj
 0001:00059ac0       ?MurmurHashWStrI@@YAIPEB_W@Z 000000018005aac0 f   utils:BaseUtil.obj
 0001:00059be0       ?MurmurHashStrI@@YAIPEBD@Z 000000018005abe0 f   utils:BaseUtil.obj
 0001:00059cb0       ?RoundUp@@YA_K_K0@Z        000000018005acb0 f   utils:BaseUtil.obj
 0001:00059ce0       ?RoundUp@@YAHHH@Z          000000018005ace0 f   utils:BaseUtil.obj
 0001:00059d20       ?RoundUp@@YAPEADPEADH@Z    000000018005ad20 f   utils:BaseUtil.obj
 0001:00059d80       ?Alloc@Allocator@@SAPEAXPEAU1@_K@Z 000000018005ad80 f   utils:BaseUtil.obj
 0001:00059dd0       ?AllocZero@Allocator@@SAPEAXPEAU1@_K@Z 000000018005add0 f   utils:BaseUtil.obj
 0001:00059e20       ?Free@Allocator@@SAXPEAU1@PEAX@Z 000000018005ae20 f   utils:BaseUtil.obj
 0001:00059e80       ?Realloc@Allocator@@SAPEAXPEAU1@PEAX_K@Z 000000018005ae80 f   utils:BaseUtil.obj
 0001:00059ee0       ?MemDup@Allocator@@SAPEAXPEAU1@PEBX_K2@Z 000000018005aee0 f   utils:BaseUtil.obj
 0001:00059f60       ??0PoolAllocator@@QEAA@XZ  000000018005af60 f   utils:BaseUtil.obj
 0001:00059fe0       ??1PoolAllocator@@UEAA@XZ  000000018005afe0 f   utils:BaseUtil.obj
 0001:0005a030       ?Realloc@PoolAllocator@@UEAAPEAXPEAX_K@Z 000000018005b030 f   utils:BaseUtil.obj
 0001:0005a060       ?Free@PoolAllocator@@UEAAXPEBX@Z 000000018005b060 f   utils:BaseUtil.obj
 0001:0005a080       ?Alloc@PoolAllocator@@UEAAPEAX_K@Z 000000018005b080 f   utils:BaseUtil.obj
 0001:0005a4e0       ?FreeAll@PoolAllocator@@QEAAXXZ 000000018005b4e0 f   utils:BaseUtil.obj
 0001:0005a580       ?Reset@PoolAllocator@@QEAAX_N@Z 000000018005b580 f   utils:BaseUtil.obj
 0001:0005a670       ?At@PoolAllocator@@QEAAPEAXH@Z 000000018005b670 f   utils:BaseUtil.obj
 0001:0005a860       ?Set@AtomicInt@@QEAAHH@Z   000000018005b860 f   utils:BaseUtil.obj
 0001:0005a890       ?Inc@AtomicInt@@QEAAHXZ    000000018005b890 f   utils:BaseUtil.obj
 0001:0005a8b0       ?Dec@AtomicInt@@QEAAHXZ    000000018005b8b0 f   utils:BaseUtil.obj
 0001:0005a8d0       ?Add@AtomicInt@@QEAAHH@Z   000000018005b8d0 f   utils:BaseUtil.obj
 0001:0005a900       ?Sub@AtomicInt@@QEAAHH@Z   000000018005b900 f   utils:BaseUtil.obj
 0001:0005a930       ?Get@AtomicInt@@QEBAHXZ    000000018005b930 f   utils:BaseUtil.obj
 0001:0005a960       ?MkFunc0Void@@YA?AUFunc0@@P6AXXZ@Z 000000018005b960 f   utils:BaseUtil.obj
 0001:0005a9c0       ?Get@AtomicBool@@QEBA_NXZ  000000018005b9c0 f   utils:BaseUtil.obj
 0001:0005aa10       ?Set@AtomicBool@@QEAA_N_N@Z 000000018005ba10 f   utils:BaseUtil.obj
 0001:0005aa70       ?Add@AtomicRefCount@@QEAAHXZ 000000018005ba70 f   utils:BaseUtil.obj
 0001:0005aa90       ?Dec@AtomicRefCount@@QEAAHXZ 000000018005ba90 f   utils:BaseUtil.obj
 0001:0005b360       ??$swap@K$0A@@std@@YAXAEAK0@Z 000000018005c360 f i utils:BaseUtil.obj
 0001:0005b3b0       ??0Func0@@QEAA@XZ          000000018005c3b0 f i utils:BaseUtil.obj
 0001:0005b3e0       ??_EPoolAllocator@@UEAAPEAXI@Z 000000018005c3e0 f i utils:BaseUtil.obj
 0001:0005b3e0       ??_GPoolAllocator@@UEAAPEAXI@Z 000000018005c3e0 f i utils:BaseUtil.obj
 0001:0005b430       _InlineInterlockedAdd      000000018005c430 f i utils:BaseUtil.obj
 0001:0005b460       ?GetTempAllocator@@YAPEAUAllocator@@XZ 000000018005c460 f   utils:TempAllocator.obj
 0001:0005b550       ?DestroyTempAllocator@@YAXXZ 000000018005c550 f   utils:TempAllocator.obj
 0001:0005b5e0       ?ResetTempAllocator@@YAXXZ 000000018005c5e0 f   utils:TempAllocator.obj
 0001:0005b640       ?DupTemp@str@@YAPEADPEBD_K@Z 000000018005c640 f   utils:TempAllocator.obj
 0001:0005b670       ?DupTemp@str@@YAPEA_WPEB_W_K@Z 000000018005c670 f   utils:TempAllocator.obj
 0001:0005b6a0       ?JoinTemp@str@@YAPEADPEBD00@Z 000000018005c6a0 f   utils:TempAllocator.obj
 0001:0005b6e0       ?JoinTemp@str@@YAPEADPEBD000@Z 000000018005c6e0 f   utils:TempAllocator.obj
 0001:0005b740       ?JoinTemp@str@@YAPEADPEBD0000@Z 000000018005c740 f   utils:TempAllocator.obj
 0001:0005b7a0       ?JoinTemp@str@@YAPEA_WPEB_W00@Z 000000018005c7a0 f   utils:TempAllocator.obj
 0001:0005b7e0       ?ReplaceTemp@str@@YAPEADPEBD00@Z 000000018005c7e0 f   utils:TempAllocator.obj
 0001:0005ba60       ?ReplaceNoCaseTemp@str@@YAPEADPEBD00@Z 000000018005ca60 f   utils:TempAllocator.obj
 0001:0005bb10       ?FormatTemp@str@@YAPEADPEBDZZ 000000018005cb10 f   utils:TempAllocator.obj
 0001:0005bb80       ?ToUtf8Temp@@YAPEADPEB_W_K@Z 000000018005cb80 f   utils:TempAllocator.obj
 0001:0005bbf0       ?ToWStrTemp@@YAPEA_WPEBD_K@Z 000000018005cbf0 f   utils:TempAllocator.obj
 0001:0005bc60       ?ToWStrTemp@@YAPEA_WAEBUStr@str@@@Z 000000018005cc60 f   utils:TempAllocator.obj
 0001:0005bed0       ?Utf8ToWStr@strconv@@YAPEA_WPEBD_KPEAUAllocator@@@Z 000000018005ced0 f   utils:StrconvUtil.obj
 0001:0005bfe0       ?WStrToUtf8@strconv@@YAPEADPEB_W_KPEAUAllocator@@@Z 000000018005cfe0 f   utils:StrconvUtil.obj
 0001:0005c020       ?WStrToCodePage@strconv@@YAPEADIPEB_W_KPEAUAllocator@@@Z 000000018005d020 f   utils:StrconvUtil.obj
 0001:0005c1c0       ?ToMultiByteTemp@strconv@@YAPEADPEBDII@Z 000000018005d1c0 f   utils:StrconvUtil.obj
 0001:0005c2c0       ?StrCPToWStr@strconv@@YAPEA_WPEBDIH@Z 000000018005d2c0 f   utils:StrconvUtil.obj
 0001:0005c3a0       ?StrCPToWStrTemp@strconv@@YAPEA_WPEBDIH@Z 000000018005d3a0 f   utils:StrconvUtil.obj
 0001:0005c480       ?StrToUtf8Temp@strconv@@YAPEADPEBDI@Z 000000018005d480 f   utils:StrconvUtil.obj
 0001:0005c4b0       ?UnknownToUtf8Temp@strconv@@YAPEADPEBD@Z 000000018005d4b0 f   utils:StrconvUtil.obj
 0001:0005c6e0       ?WStrToAnsi@strconv@@YAPEADPEB_W@Z 000000018005d6e0 f   utils:StrconvUtil.obj
 0001:0005c710       ?Utf8ToAnsi@strconv@@YAPEADPEBD@Z 000000018005d710 f   utils:StrconvUtil.obj
 0001:0005c750       ?AnsiToWStrTemp@strconv@@YAPEA_WPEBD_K@Z 000000018005d750 f   utils:StrconvUtil.obj
 0001:0005c780       ?AnsiToUtf8@strconv@@YAPEADPEBD_K@Z 000000018005d780 f   utils:StrconvUtil.obj
 0001:0005c7d0       ?ToUtf8@@YAPEADPEB_W_K@Z   000000018005d7d0 f   utils:StrconvUtil.obj
 0001:0005c800       ?ToWStr@@YAPEA_WPEBD_K@Z   000000018005d800 f   utils:StrconvUtil.obj
 0001:0005ca80       ??$AllocArray@_W@Allocator@@SAPEA_WPEAU0@_K@Z 000000018005da80 f i utils:StrconvUtil.obj
 0001:0005cac0       ??$AllocArrayTemp@_W@@YAPEA_W_K@Z 000000018005dac0 f i utils:StrconvUtil.obj
 0001:0005cb00       ?GetWinFileTime@FileInfo@MultiFormatArchive@@QEBA?AU_FILETIME@@XZ 000000018005db00 f   utils:Archive.obj
 0001:0005cb50       ??0MultiFormatArchive@@QEAA@P6APEAUar_archive_s@@PEAUar_stream_s@@@ZW4Format@0@@Z 000000018005db50 f   utils:Archive.obj
 0001:0005cc30       ??1MultiFormatArchive@@QEAA@XZ 000000018005dc30 f   utils:Archive.obj
 0001:0005ccf0       ?Open@MultiFormatArchive@@QEAA_NPEAUar_stream_s@@PEBD@Z 000000018005dcf0 f   utils:Archive.obj
 0001:0005d020       ?GetFileInfos@MultiFormatArchive@@QEAAAEBV?$Vec@PEAUFileInfo@MultiFormatArchive@@@@XZ 000000018005e020 f   utils:Archive.obj
 0001:0005d040       ?GetFileId@MultiFormatArchive@@QEAA_KPEBD@Z 000000018005e040 f   utils:Archive.obj
 0001:0005d070       ?GetFileDataByName@MultiFormatArchive@@QEAA?AUByteSlice@@PEBD@Z 000000018005e070 f   utils:Archive.obj
 0001:0005d0d0       ?GetFileDataById@MultiFormatArchive@@QEAA?AUByteSlice@@_K@Z 000000018005e0d0 f   utils:Archive.obj
 0001:0005d390       ?GetComment@MultiFormatArchive@@QEAAPEBDXZ 000000018005e390 f   utils:Archive.obj
 0001:0005d450       ?OpenUnrarFallback@MultiFormatArchive@@IEAA_NPEBD@Z 000000018005e450 f   utils:Archive.obj
 0001:0005d7b0       ?GetFileDataByIdUnarrDll@MultiFormatArchive@@IEAA?AUByteSlice@@_K@Z 000000018005e7b0 f   utils:Archive.obj
 0001:0005db60       ?OpenZipArchive@@YAPEAVMultiFormatArchive@@PEBD_N@Z 000000018005eb60 f   utils:Archive.obj
 0001:0005dbf0       ?Open7zArchive@@YAPEAVMultiFormatArchive@@PEBD@Z 000000018005ebf0 f   utils:Archive.obj
 0001:0005dc60       ?OpenTarArchive@@YAPEAVMultiFormatArchive@@PEBD@Z 000000018005ec60 f   utils:Archive.obj
 0001:0005dcd0       ?OpenRarArchive@@YAPEAVMultiFormatArchive@@PEBD@Z 000000018005ecd0 f   utils:Archive.obj
 0001:0005dd40       ?OpenZipArchive@@YAPEAVMultiFormatArchive@@PEAUIStream@@_N@Z 000000018005ed40 f   utils:Archive.obj
 0001:0005ddd0       ?Open7zArchive@@YAPEAVMultiFormatArchive@@PEAUIStream@@@Z 000000018005edd0 f   utils:Archive.obj
 0001:0005de40       ?OpenTarArchive@@YAPEAVMultiFormatArchive@@PEAUIStream@@@Z 000000018005ee40 f   utils:Archive.obj
 0001:0005deb0       ?OpenRarArchive@@YAPEAVMultiFormatArchive@@PEAUIStream@@@Z 000000018005eeb0 f   utils:Archive.obj
 0001:0005df20       ?getFileIdByName@@YA_KAEAV?$Vec@PEAUFileInfo@MultiFormatArchive@@@@PEBD@Z 000000018005ef20 f   utils:Archive.obj
 0001:0005e8f0       ??$AllocStruct@UFileInfo@MultiFormatArchive@@@PoolAllocator@@QEAAPEAUFileInfo@MultiFormatArchive@@XZ 000000018005f8f0 f i utils:Archive.obj
 0001:0005e930       ??$addOverflows@_K@@YA_N_K0@Z 000000018005f930 f i utils:Archive.obj
 0001:0005e9c0       ??0?$Vec@PEAUFileInfo@MultiFormatArchive@@@@QEAA@_KPEAUAllocator@@@Z 000000018005f9c0 f i utils:Archive.obj
 0001:0005ea80       ??0Data@@QEAA@XZ           000000018005fa80 f i utils:Archive.obj
 0001:0005eac0       ??A?$Vec@PEAUFileInfo@MultiFormatArchive@@@@QEBAAEAPEAUFileInfo@MultiFormatArchive@@_K@Z 000000018005fac0 f i utils:Archive.obj
 0001:0005eb30       ?Append@?$Vec@PEAUFileInfo@MultiFormatArchive@@@@QEAA_NAEBQEAUFileInfo@MultiFormatArchive@@@Z 000000018005fb30 f i utils:Archive.obj
 0001:0005eb70       ?InsertAt@?$Vec@PEAUFileInfo@MultiFormatArchive@@@@QEAA_N_KAEBQEAUFileInfo@MultiFormatArchive@@@Z 000000018005fb70 f i utils:Archive.obj
 0001:0005ebe0       ?LoadedUsingUnrarDll@MultiFormatArchive@@IEBA_NXZ 000000018005fbe0 f i utils:Archive.obj
 0001:0005ec20       ?MakeSpaceAt@?$Vec@PEAUFileInfo@MultiFormatArchive@@@@IEAAPEAPEAUFileInfo@MultiFormatArchive@@_K0@Z 000000018005fc20 f i utils:Archive.obj
 0001:0005ed60       ?Set@ByteSlice@@QEAAXPEAD_K@Z 000000018005fd60 f i utils:Archive.obj
 0001:0005eda0       ?begin@?$Vec@PEAUFileInfo@MultiFormatArchive@@@@QEAAPEAPEAUFileInfo@MultiFormatArchive@@XZ 000000018005fda0 f i utils:Archive.obj
 0001:0005edc0       ?end@?$Vec@PEAUFileInfo@MultiFormatArchive@@@@QEAAPEAPEAUFileInfo@MultiFormatArchive@@XZ 000000018005fdc0 f i utils:Archive.obj
 0001:0005edf0       ?IsSep@path@@YA_ND@Z       000000018005fdf0 f   utils:FileUtil.obj
 0001:0005ee30       ?GetExtTemp@path@@YAPEADPEBD@Z 000000018005fe30 f   utils:FileUtil.obj
 0001:0005ee80       ?GetBaseNameTemp@path@@YAPEADPEBD@Z 000000018005fe80 f   utils:FileUtil.obj
 0001:0005eef0       ?GetPathNoExtTemp@path@@YAPEADPEBD@Z 000000018005fef0 f   utils:FileUtil.obj
 0001:0005ef60       ?GetDirTemp@path@@YAPEADPEBD@Z 000000018005ff60 f   utils:FileUtil.obj
 0001:0005f060       ?GetDirTemp@path@@YAPEA_WPEB_W@Z 0000000180060060 f   utils:FileUtil.obj
 0001:0005f170       ?Join@path@@YAPEADPEAUAllocator@@PEBD1@Z 0000000180060170 f   utils:FileUtil.obj
 0001:0005f200       ?Join@path@@YAPEADPEBD0@Z  0000000180060200 f   utils:FileUtil.obj
 0001:0005f230       ?Join@path@@YAPEA_WPEB_W00@Z 0000000180060230 f   utils:FileUtil.obj
 0001:0005f280       ?JoinTemp@path@@YAPEADPEBD00@Z 0000000180060280 f   utils:FileUtil.obj
 0001:0005f350       ?JoinTemp@path@@YAPEA_WPEB_W00@Z 0000000180060350 f   utils:FileUtil.obj
 0001:0005f420       ?IsDirectory@path@@YA_NPEBD@Z 0000000180060420 f   utils:FileUtil.obj
 0001:0005f490       ?NormalizeTemp@path@@YAPEADPEBD@Z 0000000180060490 f   utils:FileUtil.obj
 0001:0005f4f0       ?ShortPathTemp@path@@YAPEADPEBD@Z 00000001800604f0 f   utils:FileUtil.obj
 0001:0005f5a0       ?IsSame@path@@YA_NPEBD0@Z  00000001800605a0 f   utils:FileUtil.obj
 0001:0005f810       ?HasVariableDriveLetter@path@@YA_NPEBD@Z 0000000180060810 f   utils:FileUtil.obj
 0001:0005f8c0       ?IsOnFixedDrive@path@@YA_NPEBD@Z 00000001800608c0 f   utils:FileUtil.obj
 0001:0005f980       ?IsAbsolute@path@@YA_NPEBD@Z 0000000180060980 f   utils:FileUtil.obj
 0001:0005f9d0       ?Match@path@@YA_NPEBD0@Z   00000001800609d0 f   utils:FileUtil.obj
 0001:0005fa50       ?GetType@path@@YA?AW4Type@1@PEBD@Z 0000000180060a50 f   utils:FileUtil.obj
 0001:0005fad0       ?GetTempFilePathTemp@@YAPEADPEBD@Z 0000000180060ad0 f   utils:FileUtil.obj
 0001:0005fbd0       ?GetPathInExeDirTemp@@YAPEADPEBD@Z 0000000180060bd0 f   utils:FileUtil.obj
 0001:0005fc20       ?Exists@file@@YA_NPEBD@Z   0000000180060c20 f   utils:FileUtil.obj
 0001:0005fcb0       ?OpenFILE@file@@YAPEAU_iobuf@@PEBD@Z 0000000180060cb0 f   utils:FileUtil.obj
 0001:0005fd20       ?OpenReadOnly@file@@YAPEAXPEBD@Z 0000000180060d20 f   utils:FileUtil.obj
 0001:0005fd80       ?ReadFileWithAllocator@file@@YA?AUByteSlice@@PEBDPEAUAllocator@@@Z 0000000180060d80 f   utils:FileUtil.obj
 0001:00060030       ?ReadFile@file@@YA?AUByteSlice@@PEBD@Z 0000000180061030 f   utils:FileUtil.obj
 0001:00060060       ?ReadN@file@@YAHPEBDPEAD_K@Z 0000000180061060 f   utils:FileUtil.obj
 0001:00060140       ?WriteFile@file@@YA_NPEBDAEBUByteSlice@@@Z 0000000180061140 f   utils:FileUtil.obj
 0001:000602b0       ?GetSize@file@@YA_JPEBD@Z  00000001800612b0 f   utils:FileUtil.obj
 0001:000603b0       ?Delete@file@@YA_NPEBD@Z   00000001800613b0 f   utils:FileUtil.obj
 0001:00060440       ?DeleteFileToTrash@file@@YA_NPEBD@Z 0000000180061440 f   utils:FileUtil.obj
 0001:00060530       ?GetModificationTime@file@@YA?AU_FILETIME@@PEBD@Z 0000000180061530 f   utils:FileUtil.obj
 0001:000605c0       ?SetModificationTime@file@@YA_NPEBDU_FILETIME@@@Z 00000001800615c0 f   utils:FileUtil.obj
 0001:000606b0       ?GetAttributes@file@@YAKPEBD@Z 00000001800616b0 f   utils:FileUtil.obj
 0001:000606f0       ?SetAttributes@file@@YA_NPEBDK@Z 00000001800616f0 f   utils:FileUtil.obj
 0001:00060750       ?StartsWithN@file@@YA_NPEBD0_K@Z 0000000180061750 f   utils:FileUtil.obj
 0001:000607c0       ?StartsWith@file@@YA_NPEBD0@Z 00000001800617c0 f   utils:FileUtil.obj
 0001:00060800       ?GetZoneIdentifier@file@@YAHPEBD@Z 0000000180061800 f   utils:FileUtil.obj
 0001:00060870       ?SetZoneIdentifier@file@@YA_NPEBDH@Z 0000000180061870 f   utils:FileUtil.obj
 0001:00060920       ?DeleteZoneIdentifier@file@@YA_NPEBD@Z 0000000180061920 f   utils:FileUtil.obj
 0001:00060960       ?Copy@file@@YA_NPEBD0_N@Z  0000000180061960 f   utils:FileUtil.obj
 0001:000609e0       ?Exists@dir@@YA_NPEB_W@Z   00000001800619e0 f   utils:FileUtil.obj
 0001:00060a60       ?Exists@dir@@YA_NPEBD@Z    0000000180061a60 f   utils:FileUtil.obj
 0001:00060b00       ?Create@dir@@YA_NPEBD@Z    0000000180061b00 f   utils:FileUtil.obj
 0001:00060b70       ?CreateForFile@dir@@YA_NPEBD@Z 0000000180061b70 f   utils:FileUtil.obj
 0001:00060ba0       ?CreateAll@dir@@YA_NPEBD@Z 0000000180061ba0 f   utils:FileUtil.obj
 0001:00060c00       ?RemoveAll@dir@@YA_NPEBD@Z 0000000180061c00 f   utils:FileUtil.obj
 0001:00060cf0       ?FileTimeEq@@YA_NAEBU_FILETIME@@0@Z 0000000180061cf0 f   utils:FileUtil.obj
 0001:00061da0       ??$AllocArrayTemp@D@@YAPEAD_K@Z 0000000180062da0 f i utils:FileUtil.obj
 0001:00061dd0       ??0AutoCloseHandle@@QEAA@PEAX@Z 0000000180062dd0 f i utils:FileUtil.obj
 0001:00061e00       ??1AutoCloseHandle@@QEAA@XZ 0000000180062e00 f i utils:FileUtil.obj
 0001:00061e40       ??BAutoCloseHandle@@QEBAPEAXXZ 0000000180062e40 f i utils:FileUtil.obj
 0001:00061e60       ?IsValid@AutoCloseHandle@@QEBA_NXZ 0000000180062e60 f i utils:FileUtil.obj
 0001:00061eb0       ?NameIs@AttrInfo@@QEBA_NPEBD@Z 0000000180062eb0 f   utils:HtmlPullParser.obj
 0001:00061ef0       ?NameIsNS@AttrInfo@@QEBA_NPEBD0@Z 0000000180062ef0 f   utils:HtmlPullParser.obj
 0001:00061f30       ?ValIs@AttrInfo@@QEBA_NPEBD@Z 0000000180062f30 f   utils:HtmlPullParser.obj
 0001:00061f70       ?GetReparsePoint@HtmlToken@@QEBAPEBDXZ 0000000180062f70 f   utils:HtmlPullParser.obj
 0001:00062020       ?SetTag@HtmlToken@@QEAAXW4TokenType@1@PEBD1@Z 0000000180063020 f   utils:HtmlPullParser.obj
 0001:000620e0       ?SetError@HtmlToken@@QEAAXW4ParsingError@1@PEBD@Z 00000001800630e0 f   utils:HtmlPullParser.obj
 0001:00062120       ?SetText@HtmlToken@@QEAAXPEBD0@Z 0000000180063120 f   utils:HtmlPullParser.obj
 0001:00062170       ?NameIs@HtmlToken@@QEBA_NPEBD@Z 0000000180063170 f   utils:HtmlPullParser.obj
 0001:000621d0       ?NameIsNS@HtmlToken@@QEBA_NPEBD0@Z 00000001800631d0 f   utils:HtmlPullParser.obj
 0001:00062210       ?GetAttrByName@HtmlToken@@QEAAPEAUAttrInfo@@PEBD@Z 0000000180063210 f   utils:HtmlPullParser.obj
 0001:00062280       ?GetAttrByNameNS@HtmlToken@@QEAAPEAUAttrInfo@@PEBD0@Z 0000000180063280 f   utils:HtmlPullParser.obj
 0001:00062300       ?NextAttr@HtmlToken@@IEAAPEAUAttrInfo@@XZ 0000000180063300 f   utils:HtmlPullParser.obj
 0001:00062560       ?Next@HtmlPullParser@@QEAAPEAUHtmlToken@@XZ 0000000180063560 f   utils:HtmlPullParser.obj
 0001:00062a50       ?SkipWs@@YA_NAEAPEBDPEBD@Z 0000000180063a50 f   utils:HtmlPullParser.obj
 0001:00062ae0       ?SkipNonWs@@YA_NAEAPEBDPEBD@Z 0000000180063ae0 f   utils:HtmlPullParser.obj
 0001:00062b70       ?SkipUntil@@YA_NAEAPEBDPEBDD@Z 0000000180063b70 f   utils:HtmlPullParser.obj
 0001:00062bf0       ?SkipUntil@@YA_NAEAPEBDPEBD1@Z 0000000180063bf0 f   utils:HtmlPullParser.obj
 0001:00062c80       ?IsSpaceOnly@@YA_NPEBD0@Z  0000000180063c80 f   utils:HtmlPullParser.obj
 0001:00062cd0       ?HtmlEntityNameToRune@@YAHPEBD_K@Z 0000000180063cd0 f   utils:HtmlPullParser.obj
 0001:00062d00       ?HtmlEntityNameToRune@@YAHPEB_W_K@Z 0000000180063d00 f   utils:HtmlPullParser.obj
 0001:00062dc0       ?ResolveHtmlEntity@@YAPEBDPEBD_KAEAH@Z 0000000180063dc0 f   utils:HtmlPullParser.obj
 0001:00062f10       ?ResolveHtmlEntities@@YAPEBDPEBD0PEAUAllocator@@@Z 0000000180063f10 f   utils:HtmlPullParser.obj
 0001:000630d0       ?ResolveHtmlEntities@@YAPEADPEBD_K@Z 00000001800640d0 f   utils:HtmlPullParser.obj
 0001:00063130       ?ResolveHtmlEntitiesTemp@@YAPEADPEBD_K@Z 0000000180064130 f   utils:HtmlPullParser.obj
 0001:000632d0       ?MemAppend@@YAXAEAPEADPEBD_K@Z 00000001800642d0 f   utils:HtmlPullParser.obj
 0001:00063a50       ?NameIs@HtmlElement@@QEBA_NPEBD@Z 0000000180064a50 f   utils:TrivialHtmlParser.obj
 0001:00063b00       ?NameIsNS@HtmlElement@@QEBA_NPEBD0@Z 0000000180064b00 f   utils:TrivialHtmlParser.obj
 0001:00063b80       ?GetAttribute@HtmlElement@@QEBAPEA_WPEBD@Z 0000000180064b80 f   utils:TrivialHtmlParser.obj
 0001:00063c00       ?GetAttributeTemp@HtmlElement@@QEBAPEADPEBD@Z 0000000180064c00 f   utils:TrivialHtmlParser.obj
 0001:00063c80       ?GetChildByTag@HtmlElement@@QEBAPEAU1@W4HtmlTag@@H@Z 0000000180064c80 f   utils:TrivialHtmlParser.obj
 0001:00063cf0       ?AllocElement@HtmlParser@@AEAAPEAUHtmlElement@@W4HtmlTag@@PEADPEAU2@@Z 0000000180064cf0 f   utils:TrivialHtmlParser.obj
 0001:00063da0       ?AllocAttr@HtmlParser@@AEAAPEAUHtmlAttr@@PEADPEAU2@@Z 0000000180064da0 f   utils:TrivialHtmlParser.obj
 0001:00063e20       ?CloseTag@HtmlParser@@AEAAXPEAUHtmlToken@@@Z 0000000180064e20 f   utils:TrivialHtmlParser.obj
 0001:00063f10       ?StartTag@HtmlParser@@AEAAXPEAUHtmlToken@@@Z 0000000180064f10 f   utils:TrivialHtmlParser.obj
 0001:00064030       ?AppendAttr@HtmlParser@@AEAAXPEAD0@Z 0000000180065030 f   utils:TrivialHtmlParser.obj
 0001:000640a0       ?FindParent@HtmlParser@@AEAAPEAUHtmlElement@@PEAUHtmlToken@@@Z 00000001800650a0 f   utils:TrivialHtmlParser.obj
 0001:00064110       ?Reset@HtmlParser@@AEAAXXZ 0000000180065110 f   utils:TrivialHtmlParser.obj
 0001:000641c0       ??0HtmlParser@@QEAA@XZ     00000001800651c0 f   utils:TrivialHtmlParser.obj
 0001:00064260       ??1HtmlParser@@QEAA@XZ     0000000180065260 f   utils:TrivialHtmlParser.obj
 0001:000642a0       ?Parse@HtmlParser@@QEAAPEAUHtmlElement@@AEBUByteSlice@@I@Z 00000001800652a0 f   utils:TrivialHtmlParser.obj
 0001:00064310       ?ParseInPlace@HtmlParser@@QEAAPEAUHtmlElement@@AEBUByteSlice@@I@Z 0000000180065310 f   utils:TrivialHtmlParser.obj
 0001:000645c0       ?ElementsCount@HtmlParser@@QEBA_KXZ 00000001800655c0 f   utils:TrivialHtmlParser.obj
 0001:000645e0       ?TotalAttrCount@HtmlParser@@QEBA_KXZ 00000001800655e0 f   utils:TrivialHtmlParser.obj
 0001:00064600       ?FindElementByName@HtmlParser@@QEAAPEAUHtmlElement@@PEBDPEAU2@@Z 0000000180065600 f   utils:TrivialHtmlParser.obj
 0001:00064640       ?FindElementByNameNS@HtmlParser@@QEAAPEAUHtmlElement@@PEBD0PEAU2@@Z 0000000180065640 f   utils:TrivialHtmlParser.obj
 0001:00064770       ?DecodeHtmlEntitites@@YAPEA_WPEBDI@Z 0000000180065770 f   utils:TrivialHtmlParser.obj
 0001:00064990       ?DecodeHtmlEntititesTemp@@YAPEADPEBDI@Z 0000000180065990 f   utils:TrivialHtmlParser.obj
 0001:00064df0       ??$AllocStruct@UHtmlAttr@@@PoolAllocator@@QEAAPEAUHtmlAttr@@XZ 0000000180065df0 f i utils:TrivialHtmlParser.obj
 0001:00064e30       ??$AllocStruct@UHtmlElement@@@PoolAllocator@@QEAAPEAUHtmlElement@@XZ 0000000180065e30 f i utils:TrivialHtmlParser.obj
 0001:00064e70       ?ParseError@HtmlParser@@AEAAPEAUHtmlElement@@W4HtmlParseError@@@Z 0000000180065e70 f i utils:TrivialHtmlParser.obj
 0001:00064ea0       ?ToBool@@YA_NH@Z           0000000180065ea0 f   utils:WinUtil.obj
 0001:00064ed0       ?NextSubclassId@@YA_KXZ    0000000180065ed0 f   utils:WinUtil.obj
 0001:00064f00       ?ClientRECT@@YA?AUtagRECT@@PEAUHWND__@@@Z 0000000180065f00 f   utils:WinUtil.obj
 0001:00064f30       ?ClientRect@@YA?AURect@@PEAUHWND__@@@Z 0000000180065f30 f   utils:WinUtil.obj
 0001:00064fc0       ?WindowRect@@YA?AURect@@PEAUHWND__@@@Z 0000000180065fc0 f   utils:WinUtil.obj
 0001:00065050       ?MapRectToWindow@@YA?AURect@@U1@PEAUHWND__@@1@Z 0000000180066050 f   utils:WinUtil.obj
 0001:000650f0       ?EditSelectAll@@YAXPEAUHWND__@@@Z 00000001800660f0 f   utils:WinUtil.obj
 0001:00065120       ?EditIdealDy@@YAHPEAUHWND__@@_NH@Z 0000000180066120 f   utils:WinUtil.obj
 0001:00065250       ?EditImplementCtrlBack@@YAXPEAUHWND__@@@Z 0000000180066250 f   utils:WinUtil.obj
 0001:000653f0       ?ListBox_AppendString_NoSort@@YAXPEAUHWND__@@PEB_W@Z 00000001800663f0 f   utils:WinUtil.obj
 0001:00065430       ?ListBoxGetTopIndex@@YAHPEAUHWND__@@@Z 0000000180066430 f   utils:WinUtil.obj
 0001:00065470       ?ListBoxSetTopIndex@@YA_NPEAUHWND__@@H@Z 0000000180066470 f   utils:WinUtil.obj
 0001:000654d0       ?IsValidHandle@@YA_NPEAX@Z 00000001800664d0 f   utils:WinUtil.obj
 0001:00065510       ?SafeCloseHandle@@YA_NPEAPEAX@Z 0000000180066510 f   utils:WinUtil.obj
 0001:00065580       ?FillWndClassEx@@YAXAEAUtagWNDCLASSEXW@@PEB_WP6A_JPEAUHWND__@@I_K_J@Z@Z 0000000180066580 f   utils:WinUtil.obj
 0001:00065610       ?MoveWindow@@YAXPEAUHWND__@@URect@@@Z 0000000180066610 f   utils:WinUtil.obj
 0001:00065670       ?MoveWindow@@YAXPEAUHWND__@@PEAUtagRECT@@@Z 0000000180066670 f   utils:WinUtil.obj
 0001:000656f0       ?IsOs64@@YA_NXZ            00000001800666f0 f   utils:WinUtil.obj
 0001:00065730       ?IsProcess64@@YA_NXZ       0000000180066730 f   utils:WinUtil.obj
 0001:00065740       ?IsProcess32@@YA_NXZ       0000000180066740 f   utils:WinUtil.obj
 0001:00065750       ?IsArmBuild@@YA_NXZ        0000000180066750 f   utils:WinUtil.obj
 0001:00065760       ?IsRunningInWow64@@YA_NXZ  0000000180066760 f   utils:WinUtil.obj
 0001:000657e0       ?IsProcessAndOsArchSame@@YA_NXZ 00000001800667e0 f   utils:WinUtil.obj
 0001:00065830       ?GetOsVersion@@YA_NAEAU_OSVERSIONINFOEXW@@@Z 0000000180066830 f   utils:WinUtil.obj
 0001:00065890       ?OsNameFromVerTemp@@YAPEADAEBU_OSVERSIONINFOEXW@@@Z 0000000180066890 f   utils:WinUtil.obj
 0001:00065a50       ?GetWindowsVerTemp@@YAPEADXZ 0000000180066a50 f   utils:WinUtil.obj
 0001:00065ae0       ?GetEnvVariableTemp@@YAPEADPEBD@Z 0000000180066ae0 f   utils:WinUtil.obj
 0001:00065c00       ?GetLastErrorStrTemp@@YAPEADK@Z 0000000180066c00 f   utils:WinUtil.obj
 0001:00065da0       ?LogLastError@@YAXK@Z      0000000180066da0 f   utils:WinUtil.obj
 0001:00065e00       ?DbgOutLastError@@YAXK@Z   0000000180066e00 f   utils:WinUtil.obj
 0001:00065e30       ?RegKeyNameTemp@@YAPEBDPEAUHKEY__@@@Z 0000000180066e30 f   utils:WinUtil.obj
 0001:00065e80       ?RegKeyNameWTemp@@YAPEBDPEAUHKEY__@@@Z 0000000180066e80 f   utils:WinUtil.obj
 0001:00065ec0       ?RegKeyExists@@YA_NPEAUHKEY__@@PEBD@Z 0000000180066ec0 f   utils:WinUtil.obj
 0001:00065f40       ?ReadRegStrTemp@@YAPEADPEAUHKEY__@@PEBD1@Z 0000000180066f40 f   utils:WinUtil.obj
 0001:000660e0       ?LoggedReadRegStrTemp@@YAPEADPEAUHKEY__@@PEBD1@Z 00000001800670e0 f   utils:WinUtil.obj
 0001:00066150       ?ReadRegStr2Temp@@YAPEADPEBD0@Z 0000000180067150 f   utils:WinUtil.obj
 0001:000661b0       ?LoggedReadRegStr2Temp@@YAPEADPEBD0@Z 00000001800671b0 f   utils:WinUtil.obj
 0001:00066210       ?WriteRegStr@@YA_NPEAUHKEY__@@PEBD11@Z 0000000180067210 f   utils:WinUtil.obj
 0001:000662e0       ?LoggedWriteRegStr@@YA_NPEAUHKEY__@@PEBD11@Z 00000001800672e0 f   utils:WinUtil.obj
 0001:00066410       ?ReadRegDWORD@@YA_NPEAUHKEY__@@PEBD1AEAK@Z 0000000180067410 f   utils:WinUtil.obj
 0001:000664c0       ?WriteRegDWORD@@YA_NPEAUHKEY__@@PEBD1K@Z 00000001800674c0 f   utils:WinUtil.obj
 0001:00066560       ?LoggedWriteRegDWORD@@YA_NPEAUHKEY__@@PEBD1K@Z 0000000180067560 f   utils:WinUtil.obj
 0001:00066690       ?LoggedWriteRegNone@@YA_NPEAUHKEY__@@PEBD1@Z 0000000180067690 f   utils:WinUtil.obj
 0001:00066750       ?CreateRegKey@@YA_NPEAUHKEY__@@PEBD@Z 0000000180067750 f   utils:WinUtil.obj
 0001:000667f0       ?DeleteRegKey@@YA_NPEAUHKEY__@@PEBD_N@Z 00000001800677f0 f   utils:WinUtil.obj
 0001:00066880       ?LoggedDeleteRegKey@@YA_NPEAUHKEY__@@PEBD_N@Z 0000000180067880 f   utils:WinUtil.obj
 0001:00066960       ?DeleteRegValue@@YA_NPEAUHKEY__@@PEBD1@Z 0000000180067960 f   utils:WinUtil.obj
 0001:000669f0       ?LoggedDeleteRegValue@@YA_NPEAUHKEY__@@PEBD1@Z 00000001800679f0 f   utils:WinUtil.obj
 0001:00066ac0       ?CLSIDFromString@@YAJPEBDPEAU_GUID@@@Z 0000000180067ac0 f   utils:WinUtil.obj
 0001:00066b00       ?GetSpecialFolderTemp@@YAPEADH_N@Z 0000000180067b00 f   utils:WinUtil.obj
 0001:00066bb0       ?GetTempDirTemp@@YAPEADXZ  0000000180067bb0 f   utils:WinUtil.obj
 0001:00066c60       ?GetSelfExePathTemp@@YAPEADXZ 0000000180067c60 f   utils:WinUtil.obj
 0001:00066d70       ?GetSelfExeDirTemp@@YAPEADXZ 0000000180067d70 f   utils:WinUtil.obj
 0001:00066da0       ?ChangeCurrDirToDocuments@@YAXXZ 0000000180067da0 f   utils:WinUtil.obj
 0001:00066df0       ?FileTimeDiffInSecs@@YAHAEBU_FILETIME@@0@Z 0000000180067df0 f   utils:WinUtil.obj
 0001:00066e60       ?ResolveLnkTemp@@YAPEADPEBD@Z 0000000180067e60 f   utils:WinUtil.obj
 0001:000671b0       ?CreateShortcut@@YA_NPEBD000H@Z 00000001800681b0 f   utils:WinUtil.obj
 0001:00067500       ?GetDataObjectForFile@@YAPEAUIDataObject@@PEBDPEAUHWND__@@@Z 0000000180068500 f   utils:WinUtil.obj
 0001:00067770       ?LaunchProcessWithCmdLine@@YAPEAXPEBD0@Z 0000000180068770 f   utils:WinUtil.obj
 0001:00067890       ?LaunchProcessInDir@@YAPEAXPEBD0K@Z 0000000180068890 f   utils:WinUtil.obj
 0001:00067990       ?CreateProcessHelper@@YA_NPEBD0@Z 0000000180068990 f   utils:WinUtil.obj
 0001:00067a30       ?LaunchFileShell@@YA_NPEBD00_N@Z 0000000180068a30 f   utils:WinUtil.obj
 0001:00067b60       ?LaunchBrowser@@YA_NPEBD@Z 0000000180068b60 f   utils:WinUtil.obj
 0001:00067b90       ?OpenPathInExplorer@@YAXPEBD@Z 0000000180068b90 f   utils:WinUtil.obj
 0001:00067be0       ?RunNonElevated@@YAXPEBD@Z 0000000180068be0 f   utils:WinUtil.obj
 0001:00067d50       ?LaunchElevated@@YA_NPEBD0@Z 0000000180068d50 f   utils:WinUtil.obj
 0001:00067d90       ?IsProcessRunningElevated@@YA_NXZ 0000000180068d90 f   utils:WinUtil.obj
 0001:00067e90       ?CanTalkToProcess@@YA_NK@Z 0000000180068e90 f   utils:WinUtil.obj
 0001:00067ee0       ?GetAccountType@@YAKXZ     0000000180068ee0 f   utils:WinUtil.obj
 0001:00067f00       ?GetOriginalAccountType@@YAKXZ 0000000180068f00 f   utils:WinUtil.obj
 0001:00067f20       ?DisableDataExecution@@YAXXZ 0000000180068f20 f   utils:WinUtil.obj
 0001:00067fa0       ?RedirectIOToConsole@@YA_NXZ 0000000180068fa0 f   utils:WinUtil.obj
 0001:00068090       ?RedirectIOToExistingConsole@@YA_NXZ 0000000180069090 f   utils:WinUtil.obj
 0001:000680e0       ?HandleRedirectedConsoleOnShutdown@@YAXXZ 00000001800690e0 f   utils:WinUtil.obj
 0001:00068130       ?IsKeyPressed@@YA_NH@Z     0000000180069130 f   utils:WinUtil.obj
 0001:00068190       ?IsShiftPressed@@YA_NXZ    0000000180069190 f   utils:WinUtil.obj
 0001:000681b0       ?IsAltPressed@@YA_NXZ      00000001800691b0 f   utils:WinUtil.obj
 0001:000681d0       ?IsCtrlPressed@@YA_NXZ     00000001800691d0 f   utils:WinUtil.obj
 0001:000681f0       ?ShiftRectToWorkArea@@YA?AURect@@U1@PEAUHWND__@@_N@Z 00000001800691f0 f   utils:WinUtil.obj
 0001:000683d0       ?GetWorkAreaRect@@YA?AURect@@U1@PEAUHWND__@@@Z 00000001800693d0 f   utils:WinUtil.obj
 0001:000684e0       ?LimitWindowSizeToScreen@@YAXPEAUHWND__@@AEAUtagSIZE@@@Z 00000001800694e0 f   utils:WinUtil.obj
 0001:000685e0       ?GetFullscreenRect@@YA?AURect@@PEAUHWND__@@@Z 00000001800695e0 f   utils:WinUtil.obj
 0001:000686c0       ?GetVirtualScreenRect@@YA?AURect@@XZ 00000001800696c0 f   utils:WinUtil.obj
 0001:00068730       ?DrawRect@@YAXPEAUHDC__@@AEBURect@@@Z 0000000180069730 f   utils:WinUtil.obj
 0001:00068810       ?FillRect@@YAXPEAUHDC__@@AEBURect@@PEAUHBRUSH__@@@Z 0000000180069810 f   utils:WinUtil.obj
 0001:00068890       ?FillRect@@YAXPEAUHDC__@@AEBURect@@K@Z 0000000180069890 f   utils:WinUtil.obj
 0001:00068940       ?DrawLine@@YAXPEAUHDC__@@AEBURect@@@Z 0000000180069940 f   utils:WinUtil.obj
 0001:000689b0       ?DrawCenteredText@@YAXPEAUHDC__@@URect@@PEBD_N@Z 00000001800699b0 f   utils:WinUtil.obj
 0001:00068ab0       ?HwndMeasureText@@YA?AUSize@@PEAUHWND__@@PEBDPEAUHFONT__@@@Z 0000000180069ab0 f   utils:WinUtil.obj
 0001:00068b40       ?FontDyPx@@YAHPEAUHWND__@@PEAUHFONT__@@@Z 0000000180069b40 f   utils:WinUtil.obj
 0001:00068b80       ?HdcDrawText@@YAHPEAUHDC__@@PEBDPEAUtagRECT@@IPEAUHFONT__@@@Z 0000000180069b80 f   utils:WinUtil.obj
 0001:00068c30       ?HdcDrawText@@YAHPEAUHDC__@@PEBDAEBURect@@IPEAUHFONT__@@@Z 0000000180069c30 f   utils:WinUtil.obj
 0001:00068cd0       ?HdcDrawText@@YAHPEAUHDC__@@PEBDAEBUPoint@@IPEAUHFONT__@@@Z 0000000180069cd0 f   utils:WinUtil.obj
 0001:00068d90       ?HdcMeasureText@@YA?AUSize@@PEAUHDC__@@PEBDIPEAUHFONT__@@@Z 0000000180069d90 f   utils:WinUtil.obj
 0001:00068f90       ?HdcMeasureText@@YA?AUSize@@PEAUHDC__@@PEBDPEAUHFONT__@@@Z 0000000180069f90 f   utils:WinUtil.obj
 0001:00068ff0       ?HwndSetFocus@@YAPEAUHWND__@@PEAU1@@Z 0000000180069ff0 f   utils:WinUtil.obj
 0001:00069010       ?HwndIsFocused@@YA_NPEAUHWND__@@@Z 000000018006a010 f   utils:WinUtil.obj
 0001:00069050       ?IsCursorOverWindow@@YA_NPEAUHWND__@@@Z 000000018006a050 f   utils:WinUtil.obj
 0001:000690b0       ?HwndGetParent@@YAPEAUHWND__@@PEAU1@@Z 000000018006a0b0 f   utils:WinUtil.obj
 0001:000690d0       ?HwndGetClassName@@YAPEADPEAUHWND__@@@Z 000000018006a0d0 f   utils:WinUtil.obj
 0001:00069180       ?HwndGetCursorPos@@YA?AUPoint@@PEAUHWND__@@@Z 000000018006a180 f   utils:WinUtil.obj
 0001:00069220       ?MapWindowPoints@@YAHPEAUHWND__@@0PEAUPoint@@H@Z 000000018006a220 f   utils:WinUtil.obj
 0001:00069380       ?HwndScreenToClient@@YAXPEAUHWND__@@AEAUPoint@@@Z 000000018006a380 f   utils:WinUtil.obj
 0001:000693e0       ?HwndMakeVisible@@YAXPEAUHWND__@@@Z 000000018006a3e0 f   utils:WinUtil.obj
 0001:00069420       ?IsMouseOverRect@@YA_NPEAUHWND__@@AEBURect@@@Z 000000018006a420 f   utils:WinUtil.obj
 0001:00069460       ?CenterDialog@@YAXPEAUHWND__@@0@Z 000000018006a460 f   utils:WinUtil.obj
 0001:00069620       ?SetDlgItemFont@@YAXPEAUHWND__@@HPEAUHFONT__@@@Z 000000018006a620 f   utils:WinUtil.obj
 0001:00069670       ?GetDefaultPrinterNameTemp@@YAPEADXZ 000000018006a670 f   utils:WinUtil.obj
 0001:000696f0       ?CopyTextToClipboard@@YA_NPEBD@Z 000000018006a6f0 f   utils:WinUtil.obj
 0001:00069710       ?AppendTextToClipboard@@YA_NPEBD@Z 000000018006a710 f   utils:WinUtil.obj
 0001:00069730       ?CopyImageToClipboard@@YA_NPEAUHBITMAP__@@_N@Z 000000018006a730 f   utils:WinUtil.obj
 0001:00069790       ?IsWindowStyleSet@@YA_NPEAUHWND__@@K@Z 000000018006a790 f   utils:WinUtil.obj
 0001:000697d0       ?IsWindowStyleExSet@@YA_NPEAUHWND__@@K@Z 000000018006a7d0 f   utils:WinUtil.obj
 0001:00069840       ?SetWindowStyle@@YAXPEAUHWND__@@K_N@Z 000000018006a840 f   utils:WinUtil.obj
 0001:00069880       ?SetWindowExStyle@@YAXPEAUHWND__@@K_N@Z 000000018006a880 f   utils:WinUtil.obj
 0001:000698c0       ?HwndIsRtl@@YA_NPEAUHWND__@@@Z 000000018006a8c0 f   utils:WinUtil.obj
 0001:00069900       ?HwndSetRtl@@YAXPEAUHWND__@@_N@Z 000000018006a900 f   utils:WinUtil.obj
 0001:00069930       ?ChildPosWithinParent@@YA?AURect@@PEAUHWND__@@@Z 000000018006a930 f   utils:WinUtil.obj
 0001:000699b0       ?GetMenuFont@@YAPEAUHFONT__@@XZ 000000018006a9b0 f   utils:WinUtil.obj
 0001:00069a50       ?CreateSimpleFont@@YAPEAUHFONT__@@PEAUHDC__@@PEBDH@Z 000000018006aa50 f   utils:WinUtil.obj
 0001:00069bd0       ?GetDefaultGuiFont@@YAPEAUHFONT__@@_N0@Z 000000018006abd0 f   utils:WinUtil.obj
 0001:00069d20       ?GetDefaultGuiFontOfSize@@YAPEAUHFONT__@@H@Z 000000018006ad20 f   utils:WinUtil.obj
 0001:00069e00       ?GetUserGuiFont@@YAPEAUHFONT__@@PEBDH@Z 000000018006ae00 f   utils:WinUtil.obj
 0001:00069f80       ?GetSizeOfDefaultGuiFont@@YAHXZ 000000018006af80 f   utils:WinUtil.obj
 0001:0006a000       ?DeleteCreatedFonts@@YAXXZ 000000018006b000 f   utils:WinUtil.obj
 0001:0006a0a0       ?CreateStreamFromData@@YAPEAUIStream@@AEBUByteSlice@@@Z 000000018006b0a0 f   utils:WinUtil.obj
 0001:0006a240       ?GetDataFromStream@@YA?AUByteSlice@@PEAUIStream@@PEAJ@Z 000000018006b240 f   utils:WinUtil.obj
 0001:0006a2f0       ?GetStreamOrFileData@@YA?AUByteSlice@@PEAUIStream@@PEBD@Z 000000018006b2f0 f   utils:WinUtil.obj
 0001:0006a370       ?ReadDataFromStream@@YA_NPEAUIStream@@PEAX_K2@Z 000000018006b370 f   utils:WinUtil.obj
 0001:0006a4c0       ?GuessTextCodepage@@YAIPEBD_KI@Z 000000018006b4c0 f   utils:WinUtil.obj
 0001:0006a650       ?NormalizeString@@YAPEADPEBDH@Z 000000018006b650 f   utils:WinUtil.obj
 0001:0006a780       ?ResizeHwndToClientArea@@YAXPEAUHWND__@@HH_N@Z 000000018006b780 f   utils:WinUtil.obj
 0001:0006a8e0       ?ResizeWindow@@YAXPEAUHWND__@@HH@Z 000000018006b8e0 f   utils:WinUtil.obj
 0001:0006a990       ?MessageBoxWarningSimple@@YAXPEAUHWND__@@PEB_W1@Z 000000018006b990 f   utils:WinUtil.obj
 0001:0006a9f0       ?MessageBoxNYI@@YAXPEAUHWND__@@@Z 000000018006b9f0 f   utils:WinUtil.obj
 0001:0006aa20       ?RegisterServerDLL@@YA_NPEBD0@Z 000000018006ba20 f   utils:WinUtil.obj
 0001:0006aa50       ?UnRegisterServerDLL@@YA_NPEBD0@Z 000000018006ba50 f   utils:WinUtil.obj
 0001:0006aa90       ?RegisterOrUnregisterServerDLL@@YA_NPEBD_N0@Z 000000018006ba90 f   utils:WinUtil.obj
 0001:0006acf0       ?MenuSetChecked@@YAXPEAUHMENU__@@H_N@Z 000000018006bcf0 f   utils:WinUtil.obj
 0001:0006ad70       ?MenuSetEnabled@@YA_NPEAUHMENU__@@H_N@Z 000000018006bd70 f   utils:WinUtil.obj
 0001:0006ae10       ?MenuRemove@@YAXPEAUHMENU__@@H@Z 000000018006be10 f   utils:WinUtil.obj
 0001:0006ae60       ?MenuEmpty@@YAXPEAUHMENU__@@@Z 000000018006be60 f   utils:WinUtil.obj
 0001:0006ae90       ?MenuSetText@@YAXPEAUHMENU__@@HPEB_W@Z 000000018006be90 f   utils:WinUtil.obj
 0001:0006afe0       ?MenuSetText@@YAXPEAUHMENU__@@HPEBD@Z 000000018006bfe0 f   utils:WinUtil.obj
 0001:0006b030       ?MenuToSafeStringTemp@@YAPEADPEBD@Z 000000018006c030 f   utils:WinUtil.obj
 0001:0006b070       ??0DoubleBuffer@@QEAA@PEAUHWND__@@URect@@@Z 000000018006c070 f   utils:WinUtil.obj
 0001:0006b240       ??1DoubleBuffer@@QEAA@XZ   000000018006c240 f   utils:WinUtil.obj
 0001:0006b290       ?GetDC@DoubleBuffer@@QEBAPEAUHDC__@@XZ 000000018006c290 f   utils:WinUtil.obj
 0001:0006b2c0       ?Flush@DoubleBuffer@@QEBAXPEAUHDC__@@@Z 000000018006c2c0 f   utils:WinUtil.obj
 0001:0006b370       ??0DeferWinPosHelper@@QEAA@XZ 000000018006c370 f   utils:WinUtil.obj
 0001:0006b3a0       ??1DeferWinPosHelper@@QEAA@XZ 000000018006c3a0 f   utils:WinUtil.obj
 0001:0006b3c0       ?End@DeferWinPosHelper@@QEAAXXZ 000000018006c3c0 f   utils:WinUtil.obj
 0001:0006b400       ?SetWindowPos@DeferWinPosHelper@@QEAAXPEAUHWND__@@URect@@@Z 000000018006c400 f   utils:WinUtil.obj
 0001:0006b480       ?SetWindowPos@DeferWinPosHelper@@QEAAXPEAUHWND__@@0HHHHI@Z 000000018006c480 f   utils:WinUtil.obj
 0001:0006b4f0       ?MoveWindow@DeferWinPosHelper@@QEAAXPEAUHWND__@@HHHHH@Z 000000018006c4f0 f   utils:WinUtil.obj
 0001:0006b570       ?MoveWindow@DeferWinPosHelper@@QEAAXPEAUHWND__@@URect@@@Z 000000018006c570 f   utils:WinUtil.obj
 0001:0006b5d0       ?GetSize@BlittableBitmap@@QEAA?AUSize@@XZ 000000018006c5d0 f   utils:WinUtil.obj
 0001:0006b600       ??0RenderedBitmap@@QEAA@PEAUHBITMAP__@@USize@@PEAX@Z 000000018006c600 f   utils:WinUtil.obj
 0001:0006b690       ??1RenderedBitmap@@UEAA@XZ 000000018006c690 f   utils:WinUtil.obj
 0001:0006b710       ?Clone@RenderedBitmap@@QEBAPEAU1@XZ 000000018006c710 f   utils:WinUtil.obj
 0001:0006b7a0       ?GetBitmap@RenderedBitmap@@QEBAPEAUHBITMAP__@@XZ 000000018006c7a0 f   utils:WinUtil.obj
 0001:0006b7c0       ?IsValid@RenderedBitmap@@UEAA_NXZ 000000018006c7c0 f   utils:WinUtil.obj
 0001:0006b800       ?Blit@RenderedBitmap@@UEAA_NPEAUHDC__@@URect@@@Z 000000018006c800 f   utils:WinUtil.obj
 0001:0006b850       ?InitAllCommonControls@@YAXXZ 000000018006c850 f   utils:WinUtil.obj
 0001:0006b890       ?GetBitmapSize@@YA?AUSize@@PEAUHBITMAP__@@@Z 000000018006c890 f   utils:WinUtil.obj
 0001:0006b8e0       ?GetBitmapPixels@@YAPEAUBitmapPixels@@PEAUHBITMAP__@@@Z 000000018006c8e0 f   utils:WinUtil.obj
 0001:0006bc20       ?FinalizeBitmapPixels@@YAXPEAUBitmapPixels@@@Z 000000018006cc20 f   utils:WinUtil.obj
 0001:0006bcb0       ?GetPixel@@YAKPEAUBitmapPixels@@HH@Z 000000018006ccb0 f   utils:WinUtil.obj
 0001:0006be50       ?UpdateBitmapColors@@YAXPEAUHBITMAP__@@KK@Z 000000018006ce50 f   utils:WinUtil.obj
 0001:0006c670       ?SerializeBitmap@@YA?AUByteSlice@@PEAUHBITMAP__@@@Z 000000018006d670 f   utils:WinUtil.obj
 0001:0006c830       ?CreateMemoryBitmap@@YAPEAUHBITMAP__@@USize@@PEAPEAX@Z 000000018006d830 f   utils:WinUtil.obj
 0001:0006c980       ?BlitHBITMAP@@YA_NPEAUHBITMAP__@@PEAUHDC__@@URect@@@Z 000000018006d980 f   utils:WinUtil.obj
 0001:0006cb40       ?GetProcessRunningTime@@YANXZ 000000018006db40 f   utils:WinUtil.obj
 0001:0006cc40       ?VariantInitBstr@@YAXAEAUtagVARIANT@@PEB_W@Z 000000018006dc40 f   utils:WinUtil.obj
 0001:0006cc90       ?LoadDataResource@@YA?AUStrSpan@@H@Z 000000018006dc90 f   utils:WinUtil.obj
 0001:0006ce20       ?DDEExecute@@YA_NPEB_W00@Z 000000018006de20 f   utils:WinUtil.obj
 0001:0006d040       ?RectInflateTB@@YAXAEAUtagRECT@@HH@Z 000000018006e040 f   utils:WinUtil.obj
 0001:0006d080       ?DivideRectH@@YAXAEBUtagRECT@@HHAEAU1@11@Z 000000018006e080 f   utils:WinUtil.obj
 0001:0006d120       ?DivideRectV@@YAXAEBUtagRECT@@HHAEAU1@11@Z 000000018006e120 f   utils:WinUtil.obj
 0001:0006d1b0       ?GetCachedCursor@@YAPEAUHICON__@@PEA_W@Z 000000018006e1b0 f   utils:WinUtil.obj
 0001:0006d280       ?SetCursorCached@@YAXPEA_W@Z 000000018006e280 f   utils:WinUtil.obj
 0001:0006d2e0       ?DeleteCachedCursors@@YAXXZ 000000018006e2e0 f   utils:WinUtil.obj
 0001:0006d350       ?GetMeasurementSystem@@YAHXZ 000000018006e350 f   utils:WinUtil.obj
 0001:0006d3b0       ?TrackMouseLeave@@YA_NPEAUHWND__@@@Z 000000018006e3b0 f   utils:WinUtil.obj
 0001:0006d430       ?LockDataResource@@YA_NHPEAULoadedDataResource@@@Z 000000018006e430 f   utils:WinUtil.obj
 0001:0006d520       ?GetInstance@@YAPEAUHINSTANCE__@@XZ 000000018006e520 f   utils:WinUtil.obj
 0001:0006d530       ?ButtonGetIdealSize@@YA?AUSize@@PEAUHWND__@@@Z 000000018006e530 f   utils:WinUtil.obj
 0001:0006d5e0       ?IsValidDelayType@@YA_NH@Z 000000018006e5e0 f   utils:WinUtil.obj
 0001:0006d620       ?HwndResizeClientSize@@YAXPEAUHWND__@@HH@Z 000000018006e620 f   utils:WinUtil.obj
 0001:0006d7a0       ?HwndGetTextLen@@YA_KPEAUHWND__@@@Z 000000018006e7a0 f   utils:WinUtil.obj
 0001:0006d7d0       ?HwndGetTextWTemp@@YAPEA_WPEAUHWND__@@@Z 000000018006e7d0 f   utils:WinUtil.obj
 0001:0006d840       ?HwndGetTextTemp@@YAPEADPEAUHWND__@@@Z 000000018006e840 f   utils:WinUtil.obj
 0001:0006d8c0       ?HwndSetText@@YAXPEAUHWND__@@PEBD@Z 000000018006e8c0 f   utils:WinUtil.obj
 0001:0006d940       ?HwndHasFrameThickness@@YA_NPEAUHWND__@@@Z 000000018006e940 f   utils:WinUtil.obj
 0001:0006d970       ?HwndHasCaption@@YA_NPEAUHWND__@@@Z 000000018006e970 f   utils:WinUtil.obj
 0001:0006d9a0       ?HwndSetDlgItemText@@YAXPEAUHWND__@@HPEBD@Z 000000018006e9a0 f   utils:WinUtil.obj
 0001:0006d9f0       ?CbAddString@@YAXPEAUHWND__@@PEBD@Z 000000018006e9f0 f   utils:WinUtil.obj
 0001:0006da40       ?CbSetCurrentSelection@@YAXPEAUHWND__@@H@Z 000000018006ea40 f   utils:WinUtil.obj
 0001:0006da80       ?HwndGetIcon@@YAPEAUHICON__@@PEAUHWND__@@@Z 000000018006ea80 f   utils:WinUtil.obj
 0001:0006dac0       ?HwndSetIcon@@YAPEAUHICON__@@PEAUHWND__@@PEAU1@@Z 000000018006eac0 f   utils:WinUtil.obj
 0001:0006db20       ?HwndRepaintNow@@YAXPEAUHWND__@@@Z 000000018006eb20 f   utils:WinUtil.obj
 0001:0006db70       ?HwndScheduleRepaint@@YAXPEAUHWND__@@@Z 000000018006eb70 f   utils:WinUtil.obj
 0001:0006dbb0       ?HwndGetFont@@YAPEAUHFONT__@@PEAUHWND__@@@Z 000000018006ebb0 f   utils:WinUtil.obj
 0001:0006dbf0       ?HwndSetFont@@YAXPEAUHWND__@@PEAUHFONT__@@@Z 000000018006ebf0 f   utils:WinUtil.obj
 0001:0006dc40       ?HwndPositionToTheRightOf@@YAXPEAUHWND__@@0@Z 000000018006ec40 f   utils:WinUtil.obj
 0001:0006dd40       ?HwndPositionInCenterOf@@YAXPEAUHWND__@@0@Z 000000018006ed40 f   utils:WinUtil.obj
 0001:0006de80       ?HwndSendCommand@@YAXPEAUHWND__@@H@Z 000000018006ee80 f   utils:WinUtil.obj
 0001:0006dec0       ?HwndDestroyWindowSafe@@YAXPEAPEAUHWND__@@@Z 000000018006eec0 f   utils:WinUtil.obj
 0001:0006df20       ?HwndToForeground@@YAXPEAUHWND__@@@Z 000000018006ef20 f   utils:WinUtil.obj
 0001:0006df60       ?HwndSetVisibility@@YAXPEAUHWND__@@_N@Z 000000018006ef60 f   utils:WinUtil.obj
 0001:0006dfb0       ?DeleteObjectSafe@@YA_NPEAPEAX@Z 000000018006efb0 f   utils:WinUtil.obj
 0001:0006e010       ?DeleteBrushSafe@@YA_NPEAPEAUHBRUSH__@@@Z 000000018006f010 f   utils:WinUtil.obj
 0001:0006e030       ?DestroyIconSafe@@YA_NPEAPEAUHICON__@@@Z 000000018006f030 f   utils:WinUtil.obj
 0001:0006e090       ?TbSetButtonInfo@@YAXPEAUHWND__@@HPEAUTBBUTTONINFOW@@@Z 000000018006f090 f   utils:WinUtil.obj
 0001:0006e100       ?TbGetPadding@@YAXPEAUHWND__@@PEAH1@Z 000000018006f100 f   utils:WinUtil.obj
 0001:0006e170       ?TbSetPadding@@YAXPEAUHWND__@@HH@Z 000000018006f170 f   utils:WinUtil.obj
 0001:0006e200       ?TbGetMetrics@@YAXPEAUHWND__@@PEAUTBMETRICS@@@Z 000000018006f200 f   utils:WinUtil.obj
 0001:0006e240       ?TbSetMetrics@@YAXPEAUHWND__@@PEAUTBMETRICS@@@Z 000000018006f240 f   utils:WinUtil.obj
 0001:0006e280       ?TbGetRect@@YAXPEAUHWND__@@HPEAUtagRECT@@@Z 000000018006f280 f   utils:WinUtil.obj
 0001:0006e2f0       ?TreeViewExpandRecursively@@YAXPEAUHWND__@@PEAU_TREEITEM@@I_N@Z 000000018006f2f0 f   utils:WinUtil.obj
 0001:0006e3b0       ?AddPathToRecentDocs@@YAXPEBD@Z 000000018006f3b0 f   utils:WinUtil.obj
 0001:0006e3f0       ?HGLOBALToStrTemp@@YAPEADPEAX_N@Z 000000018006f3f0 f   utils:WinUtil.obj
 0001:0006e470       ?MemToHGLOBAL@@YAPEAXPEAXHI@Z 000000018006f470 f   utils:WinUtil.obj
 0001:0006e4f0       ?StrToHGLOBAL@@YAPEAXPEBDI@Z 000000018006f4f0 f   utils:WinUtil.obj
 0001:0006e530       ?AtomToStrTemp@@YAPEADG@Z  000000018006f530 f   utils:WinUtil.obj
 0001:0006e5b0       ?MsgBox@@YAHPEAUHWND__@@PEBD1I@Z 000000018006f5b0 f   utils:WinUtil.obj
 0001:0006e620       ?CpuID@@YAIXZ              000000018006f620 f   utils:WinUtil.obj
 0001:0006ea10       ?TimeNow@@YA?AT_LARGE_INTEGER@@XZ 000000018006fa10 f   utils:WinUtil.obj
 0001:0006ea30       ?TimeDiffSecs@@YANAEBT_LARGE_INTEGER@@0@Z 000000018006fa30 f   utils:WinUtil.obj
 0001:0006ea90       ?TimeDiffMs@@YANAEBT_LARGE_INTEGER@@0@Z 000000018006fa90 f   utils:WinUtil.obj
 0001:0006eb00       ?IsPEFileSigned@@YA_NPEBD@Z 000000018006fb00 f   utils:WinUtil.obj
 0001:00072900       ??$AllocStruct@UBitmapPixels@@@@YAPEAUBitmapPixels@@XZ 0000000180073900 f i utils:WinUtil.obj
 0001:00072920       ??$IID_PPV_ARGS_Helper@UIMultiLanguage2@@@@YAPEAPEAXPEAPEAUIMultiLanguage2@@@Z 0000000180073920 f i utils:WinUtil.obj
 0001:00072930       ??$IID_PPV_ARGS_Helper@UIShellLinkW@@@@YAPEAPEAXPEAPEAUIShellLinkW@@@Z 0000000180073930 f i utils:WinUtil.obj
 0001:00072940       ??$IsMaskSet@J@bit@@YA_NJJ@Z 0000000180073940 f i utils:WinUtil.obj
 0001:00072990       ??$IsMaskSet@K@bit@@YA_NKK@Z 0000000180073990 f i utils:WinUtil.obj
 0001:000729e0       ??$ListInsertFront@UCreatedFontInfo@@@@YAXPEAPEAUCreatedFontInfo@@PEAU0@@Z 00000001800739e0 f i utils:WinUtil.obj
 0001:00072a20       ??$ListLen@UCreatedFontInfo@@@@YAHPEAUCreatedFontInfo@@@Z 0000000180073a20 f i utils:WinUtil.obj
 0001:00072a80       ??$QueryInterface@UIPersistFile@@@IUnknown@@QEAAJPEAPEAUIPersistFile@@@Z 0000000180073a80 f i utils:WinUtil.obj
 0001:00072ad0       ??$max@H@std@@YAAEBHAEBH0@Z 0000000180073ad0 f i utils:WinUtil.obj
 0001:00072b30       ??0?$ScopedComPtr@UIMultiLanguage2@@@@QEAA@XZ 0000000180073b30 f i utils:WinUtil.obj
 0001:00072b50       ??0?$ScopedComPtr@UIShellFolder@@@@QEAA@XZ 0000000180073b50 f i utils:WinUtil.obj
 0001:00072b70       ??0?$ScopedComPtr@UIShellLinkW@@@@QEAA@XZ 0000000180073b70 f i utils:WinUtil.obj
 0001:00072b90       ??0?$ScopedComPtr@UIStream@@@@QEAA@XZ 0000000180073b90 f i utils:WinUtil.obj
 0001:00072bb0       ??0?$ScopedComQIPtr@UIPersistFile@@@@QEAA@PEAUIUnknown@@@Z 0000000180073bb0 f i utils:WinUtil.obj
 0001:00072c10       ??0?$ScopedGdiObj@PEAUHBITMAP__@@@@QEAA@PEAUHBITMAP__@@@Z 0000000180073c10 f i utils:WinUtil.obj
 0001:00072c40       ??0?$ScopedGdiObj@PEAUHBRUSH__@@@@QEAA@PEAUHBRUSH__@@@Z 0000000180073c40 f i utils:WinUtil.obj
 0001:00072c70       ??0?$ScopedMem@E@@QEAA@PEAE@Z 0000000180073c70 f i utils:WinUtil.obj
 0001:00072ca0       ??0?$ScopedMem@_W@@QEAA@PEA_W@Z 0000000180073ca0 f i utils:WinUtil.obj
 0001:00072cd0       ??0?$bitset@$0CA@@std@@QEAA@XZ 0000000180073cd0 f i utils:WinUtil.obj
 0001:00072d00       ??0?$bitset@$0CA@@std@@QEAA@_K@Z 0000000180073d00 f i utils:WinUtil.obj
 0001:00072d60       ??0AutoReleaseDC@@QEAA@PEAUHWND__@@@Z 0000000180073d60 f i utils:WinUtil.obj
 0001:00072dc0       ??0BlittableBitmap@@QEAA@XZ 0000000180073dc0 f i utils:WinUtil.obj
 0001:00072e20       ??0CreatedFontInfo@@QEAA@XZ 0000000180073e20 f i utils:WinUtil.obj
 0001:00072e90       ??0Point@@QEAA@XZ          0000000180073e90 f i utils:WinUtil.obj
 0001:00072ec0       ??0ScopedCom@@QEAA@XZ      0000000180073ec0 f i utils:WinUtil.obj
 0001:00072ef0       ??0ScopedSelectFont@@QEAA@PEAUHDC__@@PEAUHFONT__@@@Z 0000000180073ef0 f i utils:WinUtil.obj
 0001:00072f70       ??0Size@@QEAA@XZ           0000000180073f70 f i utils:WinUtil.obj
 0001:00072fa0       ??0reference@?$bitset@$0CA@@std@@AEAA@AEAV12@_K@Z 0000000180073fa0 f i utils:WinUtil.obj
 0001:00072fe0       ??1?$ScopedComPtr@UIMultiLanguage2@@@@QEAA@XZ 0000000180073fe0 f i utils:WinUtil.obj
 0001:00073020       ??1?$ScopedComPtr@UIShellFolder@@@@QEAA@XZ 0000000180074020 f i utils:WinUtil.obj
 0001:00073060       ??1?$ScopedComPtr@UIShellLinkW@@@@QEAA@XZ 0000000180074060 f i utils:WinUtil.obj
 0001:000730a0       ??1?$ScopedComQIPtr@UIPersistFile@@@@QEAA@XZ 00000001800740a0 f i utils:WinUtil.obj
 0001:000730e0       ??1?$ScopedGdiObj@PEAUHBITMAP__@@@@QEAA@XZ 00000001800740e0 f i utils:WinUtil.obj
 0001:00073110       ??1?$ScopedGdiObj@PEAUHBRUSH__@@@@QEAA@XZ 0000000180074110 f i utils:WinUtil.obj
 0001:00073140       ??1?$ScopedMem@E@@QEAA@XZ  0000000180074140 f i utils:WinUtil.obj
 0001:00073170       ??1?$ScopedMem@_W@@QEAA@XZ 0000000180074170 f i utils:WinUtil.obj
 0001:000731a0       ??1AutoReleaseDC@@QEAA@XZ  00000001800741a0 f i utils:WinUtil.obj
 0001:000731d0       ??1BlittableBitmap@@UEAA@XZ 00000001800741d0 f i utils:WinUtil.obj
 0001:000731f0       ??1ScopedCom@@QEAA@XZ      00000001800741f0 f i utils:WinUtil.obj
 0001:00073210       ??1ScopedSelectFont@@QEAA@XZ 0000000180074210 f i utils:WinUtil.obj
 0001:00073250       ??1reference@?$bitset@$0CA@@std@@QEAA@XZ 0000000180074250 f i utils:WinUtil.obj
 0001:00073260       ??A?$bitset@$0CA@@std@@QEAA?AVreference@01@_K@Z 0000000180074260 f i utils:WinUtil.obj
 0001:000732b0       ??B?$ScopedComPtr@UIShellLinkW@@@@QEBAPEAUIShellLinkW@@XZ 00000001800742b0 f i utils:WinUtil.obj
 0001:000732d0       ??B?$ScopedComQIPtr@UIPersistFile@@@@QEBAPEAUIPersistFile@@XZ 00000001800742d0 f i utils:WinUtil.obj
 0001:000732f0       ??B?$ScopedGdiObj@PEAUHBITMAP__@@@@QEBAPEAUHBITMAP__@@XZ 00000001800742f0 f i utils:WinUtil.obj
 0001:00073310       ??B?$ScopedGdiObj@PEAUHBRUSH__@@@@QEBAPEAUHBRUSH__@@XZ 0000000180074310 f i utils:WinUtil.obj
 0001:00073330       ??B?$ScopedMem@E@@QEBAPEAEXZ 0000000180074330 f i utils:WinUtil.obj
 0001:00073350       ??B?$ScopedMem@_W@@QEBAPEA_WXZ 0000000180074350 f i utils:WinUtil.obj
 0001:00073370       ??BAutoReleaseDC@@QEBAPEAUHDC__@@XZ 0000000180074370 f i utils:WinUtil.obj
 0001:00073390       ??Breference@?$bitset@$0CA@@std@@QEBA_NXZ 0000000180074390 f i utils:WinUtil.obj
 0001:000733d0       ??C?$ScopedComPtr@UIMultiLanguage2@@@@QEBAPEAUIMultiLanguage2@@XZ 00000001800743d0 f i utils:WinUtil.obj
 0001:000733f0       ??C?$ScopedComPtr@UIShellFolder@@@@QEBAPEAUIShellFolder@@XZ 00000001800743f0 f i utils:WinUtil.obj
 0001:00073410       ??C?$ScopedComPtr@UIShellLinkW@@@@QEBAPEAUIShellLinkW@@XZ 0000000180074410 f i utils:WinUtil.obj
 0001:00073430       ??C?$ScopedComPtr@UIStream@@@@QEBAPEAUIStream@@XZ 0000000180074430 f i utils:WinUtil.obj
 0001:00073450       ??C?$ScopedComQIPtr@UIPersistFile@@@@QEBAPEAUIPersistFile@@XZ 0000000180074450 f i utils:WinUtil.obj
 0001:00073470       ??I?$ScopedComPtr@UIShellFolder@@@@QEAAPEAPEAUIShellFolder@@XZ 0000000180074470 f i utils:WinUtil.obj
 0001:00073480       ??I?$ScopedComPtr@UIStream@@@@QEAAPEAPEAUIStream@@XZ 0000000180074480 f i utils:WinUtil.obj
 0001:00073490       ??_EBlittableBitmap@@UEAAPEAXI@Z 0000000180074490 f i utils:WinUtil.obj
 0001:00073490       ??_GBlittableBitmap@@UEAAPEAXI@Z 0000000180074490 f i utils:WinUtil.obj
 0001:000734e0       ??_ERenderedBitmap@@UEAAPEAXI@Z 00000001800744e0 f i utils:WinUtil.obj
 0001:000734e0       ??_GRenderedBitmap@@UEAAPEAXI@Z 00000001800744e0 f i utils:WinUtil.obj
 0001:00073530       ?Create@?$ScopedComPtr@UIMultiLanguage2@@@@QEAA_NU_GUID@@@Z 0000000180074530 f i utils:WinUtil.obj
 0001:00073610       ?Create@?$ScopedComPtr@UIShellLinkW@@@@QEAA_NU_GUID@@@Z 0000000180074610 f i utils:WinUtil.obj
 0001:000736f0       ?_Subscript@?$bitset@$0CA@@std@@AEBA_N_K@Z 00000001800746f0 f i utils:WinUtil.obj
 0001:00073790       ?_Validate@?$bitset@$0CA@@std@@CAX_K@Z 0000000180074790 f i utils:WinUtil.obj
 0001:000737a0       ?abs@@YAJJ@Z               00000001800747a0 f i utils:WinUtil.obj
 0001:000737c0       ?mul255@@YAHHH@Z           00000001800747c0 f i utils:WinUtil.obj
 0001:00073810       ?tobool@@YA_NH@Z           0000000180074810 f i utils:WinUtil.obj
 0001:00073850       ?FindEmbeddedPdfFileStreamNo@@YAPEBDPEBD@Z 0000000180074850 f   utils:GuessFileType.obj
 0001:00073900       ?GuessFileTypeFromContent@@YAPEBDPEBD@Z 0000000180074900 f   utils:GuessFileType.obj
 0001:00073af0       ?GuessFileTypeFromContent@@YAPEBDAEBUByteSlice@@@Z 0000000180074af0 f   utils:GuessFileType.obj
 0001:00073cb0       ?GuessFileTypeFromName@@YAPEBDPEBD@Z 0000000180074cb0 f   utils:GuessFileType.obj
 0001:00073d30       ?GuessFileType@@YAPEBDPEBD_N@Z 0000000180074d30 f   utils:GuessFileType.obj
 0001:00073d90       ?GfxFileExtFromData@@YAPEBDAEBUByteSlice@@@Z 0000000180074d90 f   utils:GuessFileType.obj
 0001:00073dc0       ?GfxFileExtFromKind@@YAPEBDPEBD@Z 0000000180074dc0 f   utils:GuessFileType.obj
 0001:00073e00       ?KindInArray@@YA_NPEAPEBDHPEBD@Z 0000000180074e00 f   utils:GuessFileType.obj
 0001:000748b0       ??A?$Vec@PEAUFileInfo@MultiFormatArchive@@@@QEBAAEAPEAUFileInfo@MultiFormatArchive@@H@Z 00000001800758b0 f i utils:GuessFileType.obj
 0001:00074950       ??0Point@@QEAA@HH@Z        0000000180075950 f   utils:GeomUtil.obj
 0001:00074990       ?IsEmpty@Point@@QEBA_NXZ   0000000180075990 f   utils:GeomUtil.obj
 0001:000749d0       ?Eq@Point@@QEBA_NHH@Z      00000001800759d0 f   utils:GeomUtil.obj
 0001:00074a20       ??8Point@@QEBA_NAEBU0@@Z   0000000180075a20 f   utils:GeomUtil.obj
 0001:00074a70       ??9Point@@QEBA_NAEBU0@@Z   0000000180075a70 f   utils:GeomUtil.obj
 0001:00074ac0       ??0PointF@@QEAA@MM@Z       0000000180075ac0 f   utils:GeomUtil.obj
 0001:00074b00       ?IsEmpty@PointF@@QEBA_NXZ  0000000180075b00 f   utils:GeomUtil.obj
 0001:00074b60       ??8PointF@@QEBA_NAEBU0@@Z  0000000180075b60 f   utils:GeomUtil.obj
 0001:00074bc0       ??9PointF@@QEBA_NAEBU0@@Z  0000000180075bc0 f   utils:GeomUtil.obj
 0001:00074c10       ??0Size@@QEAA@HH@Z         0000000180075c10 f   utils:GeomUtil.obj
 0001:00074c50       ?IsEmpty@Size@@QEBA_NXZ    0000000180075c50 f   utils:GeomUtil.obj
 0001:00074c90       ?Equals@Size@@QEBA_NAEBU1@@Z 0000000180075c90 f   utils:GeomUtil.obj
 0001:00074ce0       ??8Size@@QEBA_NAEBU0@@Z    0000000180075ce0 f   utils:GeomUtil.obj
 0001:00074d30       ??9Size@@QEBA_NAEBU0@@Z    0000000180075d30 f   utils:GeomUtil.obj
 0001:00074d80       ??0SizeF@@QEAA@MM@Z        0000000180075d80 f   utils:GeomUtil.obj
 0001:00074dc0       ?IsEmpty@SizeF@@QEBA_NXZ   0000000180075dc0 f   utils:GeomUtil.obj
 0001:00074e20       ??8SizeF@@QEBA_NAEBU0@@Z   0000000180075e20 f   utils:GeomUtil.obj
 0001:00074e80       ??9SizeF@@QEBA_NAEBU0@@Z   0000000180075e80 f   utils:GeomUtil.obj
 0001:00074ed0       ??0Rect@@QEAA@UtagRECT@@@Z 0000000180075ed0 f   utils:GeomUtil.obj
 0001:00074f70       ??0Rect@@QEAA@VRectF@Gdiplus@@@Z 0000000180075f70 f   utils:GeomUtil.obj
 0001:00075000       ??0Rect@@QEAA@HHHH@Z       0000000180076000 f   utils:GeomUtil.obj
 0001:00075050       ??0Rect@@QEAA@UPoint@@0@Z  0000000180076050 f   utils:GeomUtil.obj
 0001:000750b0       ?EqSize@Rect@@QEBA_NHH@Z   00000001800760b0 f   utils:GeomUtil.obj
 0001:00075100       ?Right@Rect@@QEBAHXZ       0000000180076100 f   utils:GeomUtil.obj
 0001:00075120       ?Bottom@Rect@@QEBAHXZ      0000000180076120 f   utils:GeomUtil.obj
 0001:00075140       ?FromXY@Rect@@SA?AU1@HHHH@Z 0000000180076140 f   utils:GeomUtil.obj
 0001:000751d0       ?FromXY@Rect@@SA?AU1@UPoint@@0@Z 00000001800761d0 f   utils:GeomUtil.obj
 0001:00075220       ?IsZero@Rect@@QEBA_NXZ     0000000180076220 f   utils:GeomUtil.obj
 0001:00075280       ?IsEmpty@Rect@@QEBA_NXZ    0000000180076280 f   utils:GeomUtil.obj
 0001:000752c0       ?Contains@Rect@@QEBA_NHH@Z 00000001800762c0 f   utils:GeomUtil.obj
 0001:00075330       ?Contains@Rect@@QEBA_NUPoint@@@Z 0000000180076330 f   utils:GeomUtil.obj
 0001:00075360       ?Intersect@Rect@@QEBA?AU1@U1@@Z 0000000180076360 f   utils:GeomUtil.obj
 0001:00075490       ?Union@Rect@@QEBA?AU1@U1@@Z 0000000180076490 f   utils:GeomUtil.obj
 0001:00075610       ?Offset@Rect@@QEAAXHH@Z    0000000180076610 f   utils:GeomUtil.obj
 0001:00075650       ?Inflate@Rect@@QEAAXHH@Z   0000000180076650 f   utils:GeomUtil.obj
 0001:000756c0       ?SubTB@Rect@@QEAAXHH@Z     00000001800766c0 f   utils:GeomUtil.obj
 0001:00075720       ?SubLR@Rect@@QEAAXHH@Z     0000000180076720 f   utils:GeomUtil.obj
 0001:00075780       ?TL@Rect@@QEBA?AUPoint@@XZ 0000000180076780 f   utils:GeomUtil.obj
 0001:000757c0       ?BR@Rect@@QEBA?AUPoint@@XZ 00000001800767c0 f   utils:GeomUtil.obj
 0001:00075810       ?Size@Rect@@QEBA?AU0@XZ    0000000180076810 f   utils:GeomUtil.obj
 0001:00075850       ?SetSize@Rect@@QEAAXAEBUSize@@@Z 0000000180076850 f   utils:GeomUtil.obj
 0001:00075880       ?SetPos@Rect@@QEAAXAEBUPoint@@@Z 0000000180076880 f   utils:GeomUtil.obj
 0001:000758b0       ?Equals@Rect@@QEBA_NAEBU1@@Z 00000001800768b0 f   utils:GeomUtil.obj
 0001:00075930       ??8Rect@@QEBA_NAEBU0@@Z    0000000180076930 f   utils:GeomUtil.obj
 0001:000759b0       ??9Rect@@QEBA_NAEBU0@@Z    00000001800769b0 f   utils:GeomUtil.obj
 0001:00075a00       ??0RectF@@QEAA@UtagRECT@@@Z 0000000180076a00 f   utils:GeomUtil.obj
 0001:00075ab0       ??0RectF@@QEAA@V0Gdiplus@@@Z 0000000180076ab0 f   utils:GeomUtil.obj
 0001:00075b50       ??0RectF@@QEAA@MMMM@Z      0000000180076b50 f   utils:GeomUtil.obj
 0001:00075bc0       ??0RectF@@QEAA@UPointF@@USizeF@@@Z 0000000180076bc0 f   utils:GeomUtil.obj
 0001:00075c20       ??0RectF@@QEAA@UPointF@@0@Z 0000000180076c20 f   utils:GeomUtil.obj
 0001:00075c90       ?EqSize@RectF@@QEBA_NMM@Z  0000000180076c90 f   utils:GeomUtil.obj
 0001:00075cf0       ?Right@RectF@@QEBAMXZ      0000000180076cf0 f   utils:GeomUtil.obj
 0001:00075d10       ?Bottom@RectF@@QEBAMXZ     0000000180076d10 f   utils:GeomUtil.obj
 0001:00075d30       ?FromXY@RectF@@SA?AU1@MMMM@Z 0000000180076d30 f   utils:GeomUtil.obj
 0001:00075dd0       ?FromXY@RectF@@SA?AU1@UPointF@@0@Z 0000000180076dd0 f   utils:GeomUtil.obj
 0001:00075e20       ?Round@RectF@@QEBA?AURect@@XZ 0000000180076e20 f   utils:GeomUtil.obj
 0001:00075f00       ?IsEmpty@RectF@@QEBA_NXZ   0000000180076f00 f   utils:GeomUtil.obj
 0001:00075f60       ?Contains@RectF@@QEBA_NUPointF@@@Z 0000000180076f60 f   utils:GeomUtil.obj
 0001:00075ff0       ?Intersect@RectF@@QEBA?AU1@U1@@Z 0000000180076ff0 f   utils:GeomUtil.obj
 0001:00076160       ?Union@RectF@@QEAA?AU1@U1@@Z 0000000180077160 f   utils:GeomUtil.obj
 0001:00076320       ?Offset@RectF@@QEAAXMM@Z   0000000180077320 f   utils:GeomUtil.obj
 0001:00076370       ?Inflate@RectF@@QEAAXMM@Z  0000000180077370 f   utils:GeomUtil.obj
 0001:00076410       ?TL@RectF@@QEBA?AUPointF@@XZ 0000000180077410 f   utils:GeomUtil.obj
 0001:00076450       ?BR@RectF@@QEBA?AUPointF@@XZ 0000000180077450 f   utils:GeomUtil.obj
 0001:000764b0       ?Size@RectF@@QEBA?AUSizeF@@XZ 00000001800774b0 f   utils:GeomUtil.obj
 0001:000764f0       ??8RectF@@QEBA_NAEBU0@@Z   00000001800774f0 f   utils:GeomUtil.obj
 0001:00076580       ??9RectF@@QEBA_NAEBU0@@Z   0000000180077580 f   utils:GeomUtil.obj
 0001:000765d0       ?RectDx@@YAHAEBUtagRECT@@@Z 00000001800775d0 f   utils:GeomUtil.obj
 0001:000765f0       ?RectDy@@YAHAEBUtagRECT@@@Z 00000001800775f0 f   utils:GeomUtil.obj
 0001:00076610       ?ToPointFl@@YA?AUPointF@@UPoint@@@Z 0000000180077610 f   utils:GeomUtil.obj
 0001:00076650       ?ToGdipPoint@@YA?AVPoint@Gdiplus@@U1@@Z 0000000180077650 f   utils:GeomUtil.obj
 0001:00076690       ?ToPoint@@YA?AUPoint@@UPointF@@@Z 0000000180077690 f   utils:GeomUtil.obj
 0001:000766d0       ?ToGdipPointF@@YA?AVPointF@Gdiplus@@U1@@Z 00000001800776d0 f   utils:GeomUtil.obj
 0001:00076710       ?ToPOINT@@YA?AUtagPOINT@@AEBUPoint@@@Z 0000000180077710 f   utils:GeomUtil.obj
 0001:00076740       ?ToSIZE@@YA?AUtagSIZE@@USize@@@Z 0000000180077740 f   utils:GeomUtil.obj
 0001:00076770       ?ToSizeFl@@YA?AUSizeF@@USize@@@Z 0000000180077770 f   utils:GeomUtil.obj
 0001:000767b0       ?ToSize@@YA?AUSize@@USizeF@@@Z 00000001800777b0 f   utils:GeomUtil.obj
 0001:00076820       ?ToRectF@@YA?AURectF@@AEBURect@@@Z 0000000180077820 f   utils:GeomUtil.obj
 0001:00076880       ?ToRECT@@YA?AUtagRECT@@AEBURect@@@Z 0000000180077880 f   utils:GeomUtil.obj
 0001:000768f0       ?ToRECT@@YA?AUtagRECT@@AEBURectF@@@Z 00000001800778f0 f   utils:GeomUtil.obj
 0001:00076970       ?ToRect@@YA?AURect@@AEBURectF@@@Z 0000000180077970 f   utils:GeomUtil.obj
 0001:00076a30       ?ToRect@@YA?AURect@@AEBUtagRECT@@@Z 0000000180077a30 f   utils:GeomUtil.obj
 0001:00076ab0       ?ToGdipRect@@YA?AVRect@Gdiplus@@AEBU1@@Z 0000000180077ab0 f   utils:GeomUtil.obj
 0001:00076b00       ?ToGdipRectF@@YA?AVRectF@Gdiplus@@AEBURect@@@Z 0000000180077b00 f   utils:GeomUtil.obj
 0001:00076b70       ?ToGdipRect@@YA?AVRect@Gdiplus@@AEBURectF@@@Z 0000000180077b70 f   utils:GeomUtil.obj
 0001:00076bc0       ?ToGdipRectF@@YA?AVRectF@Gdiplus@@AEBU1@@Z 0000000180077bc0 f   utils:GeomUtil.obj
 0001:00076c20       ?NormalizeRotation@@YAHH@Z 0000000180077c20 f   utils:GeomUtil.obj
 0001:00077570       ??$max@M@std@@YAAEBMAEBM0@Z 0000000180078570 f i utils:GeomUtil.obj
 0001:000775d0       ??$min@M@std@@YAAEBMAEBM0@Z 00000001800785d0 f i utils:GeomUtil.obj
 0001:00077630       ??0Point@Gdiplus@@QEAA@HH@Z 0000000180078630 f i utils:GeomUtil.obj
 0001:00077670       ??0PointF@Gdiplus@@QEAA@MM@Z 0000000180078670 f i utils:GeomUtil.obj
 0001:000776c0       ??0Rect@Gdiplus@@QEAA@HHHH@Z 00000001800786c0 f i utils:GeomUtil.obj
 0001:00077720       ??0RectF@Gdiplus@@QEAA@MMMM@Z 0000000180078720 f i utils:GeomUtil.obj
 0001:000777a0       ?GetByte@BitReader@@AEBAE_K@Z 00000001800787a0 f   utils:BitReader.obj
 0001:000777e0       ??0BitReader@@QEAA@PEAE_K@Z 00000001800787e0 f   utils:BitReader.obj
 0001:00077850       ??1BitReader@@QEAA@XZ      0000000180078850 f   utils:BitReader.obj
 0001:00077860       ?Peek@BitReader@@QEAAI_K@Z 0000000180078860 f   utils:BitReader.obj
 0001:000779e0       ?BitsLeft@BitReader@@QEBA_KXZ 00000001800789e0 f   utils:BitReader.obj
 0001:00077a20       ?Eat@BitReader@@QEAA_N_K@Z 0000000180078a20 f   utils:BitReader.obj
 0001:00077b30       ??0ByteOrderDecoder@@QEAA@PEBD_KW4ByteOrder@0@@Z 0000000180078b30 f   utils:ByteOrderDecoder.obj
 0001:00077ba0       ??0ByteOrderDecoder@@QEAA@PEBE_KW4ByteOrder@0@@Z 0000000180078ba0 f   utils:ByteOrderDecoder.obj
 0001:00077c10       ?Bytes@ByteOrderDecoder@@QEAAXPEAD_K@Z 0000000180078c10 f   utils:ByteOrderDecoder.obj
 0001:00077ca0       ?UInt8@ByteOrderDecoder@@QEAAEXZ 0000000180078ca0 f   utils:ByteOrderDecoder.obj
 0001:00077d20       ?UInt16@ByteOrderDecoder@@QEAAGXZ 0000000180078d20 f   utils:ByteOrderDecoder.obj
 0001:00077dc0       ?UInt32@ByteOrderDecoder@@QEAAIXZ 0000000180078dc0 f   utils:ByteOrderDecoder.obj
 0001:00077e60       ?UInt64@ByteOrderDecoder@@QEAA_KXZ 0000000180078e60 f   utils:ByteOrderDecoder.obj
 0001:00077ef0       ?Skip@ByteOrderDecoder@@QEAAX_K@Z 0000000180078ef0 f   utils:ByteOrderDecoder.obj
 0001:00077f60       ?Unskip@ByteOrderDecoder@@QEAAX_K@Z 0000000180078f60 f   utils:ByteOrderDecoder.obj
 0001:00077fe0       ?UInt16BE@@YAGPEBE@Z       0000000180078fe0 f   utils:ByteOrderDecoder.obj
 0001:00078020       ?UInt16LE@@YAGPEBE@Z       0000000180079020 f   utils:ByteOrderDecoder.obj
 0001:00078060       ?UInt32BE@@YAIPEBE@Z       0000000180079060 f   utils:ByteOrderDecoder.obj
 0001:000780d0       ?UInt32LE@@YAIPEBE@Z       00000001800790d0 f   utils:ByteOrderDecoder.obj
 0001:000782b0       ?FindHtmlTag@@YA?AW4HtmlTag@@PEBD_K@Z 00000001800792b0 f   utils:HtmlParserLookup.obj
 0001:0007a2f0       ?IsTagSelfClosing@@YA_NW4HtmlTag@@@Z 000000018007b2f0 f   utils:HtmlParserLookup.obj
 0001:0007a3b0       ?IsInlineTag@@YA_NW4HtmlTag@@@Z 000000018007b3b0 f   utils:HtmlParserLookup.obj
 0001:0007a490       ?FindAlignAttr@@YA?AW4AlignAttr@@PEBD_K@Z 000000018007b490 f   utils:HtmlParserLookup.obj
 0001:0007ac50       ?FindHtmlEntityRune@@YAIPEBD_K@Z 000000018007bc50 f   utils:HtmlParserLookup.obj
 0001:00081150       ?FindCssProp@@YA?AW4CssProp@@PEBD_K@Z 0000000180082150 f   utils:HtmlParserLookup.obj
 0001:00084b10       ?Format@fmt@@YAPEADPEBDAEBUArg@1@11111@Z 0000000180085b10 f   utils:StrFormat.obj
 0001:00084d40       ?FormatTemp@fmt@@YAPEADPEBDUArg@1@@Z 0000000180085d40 f   utils:StrFormat.obj
 0001:00084db0       ?FormatTemp@fmt@@YAPEADPEBDUArg@1@1@Z 0000000180085db0 f   utils:StrFormat.obj
 0001:00084e30       ?FormatTemp@fmt@@YAPEADPEBDUArg@1@11@Z 0000000180085e30 f   utils:StrFormat.obj
 0001:00084eb0       ?Eval@Fmt@fmt@@QEAA_NPEAPEBUArg@2@H@Z 0000000180085eb0 f   utils:StrFormat.obj
 0001:00085d10       ?FormatTemp@fmt@@YAPEADPEBDPEAPEBUArg@1@H@Z 0000000180086d10 f   utils:StrFormat.obj
 0001:00085e80       ?FormatTemp@fmt@@YAPEADPEBDAEBUArg@1@11111@Z 0000000180086e80 f   utils:StrFormat.obj
 0001:000864d0       ??$__builtin_array_init_helper@UInst@fmt@@@@YAXPEAUInst@fmt@@_K@Z 00000001800874d0 f i utils:StrFormat.obj
 0001:000865c0       ??0Fmt@fmt@@QEAA@XZ        00000001800875c0 f i utils:StrFormat.obj
 0001:000866b0       ??1Fmt@fmt@@QEAA@XZ        00000001800876b0 f i utils:StrFormat.obj
 0001:000866e0       ?MkGray@@YAKE@Z            00000001800876e0 f   utils:ColorUtil.obj
 0001:00086710       ?MkColor@@YAKEEEE@Z        0000000180087710 f   utils:ColorUtil.obj
 0001:00086770       ?UnpackColor@@YAXKAEAE00@Z 0000000180087770 f   utils:ColorUtil.obj
 0001:000867d0       ?UnpackColor@@YAXKAEAE000@Z 00000001800877d0 f   utils:ColorUtil.obj
 0001:00086850       ?IsSpecialColor@@YA_NK@Z   0000000180087850 f   utils:ColorUtil.obj
 0001:00086890       ?ParseColor@@YAXAEAUParsedColor@@PEBD@Z 0000000180087890 f   utils:ColorUtil.obj
 0001:00086ad0       ?ParseColor@@YA_NPEAKPEBD@Z 0000000180087ad0 f   utils:ColorUtil.obj
 0001:00086b40       ?ParseColor@@YAKPEBDK@Z    0000000180087b40 f   utils:ColorUtil.obj
 0001:00086b80       ?SerializeColorTemp@@YAPEADK@Z 0000000180087b80 f   utils:ColorUtil.obj
 0001:00086c30       ?MkPdfColor@@YA_KEEEE@Z    0000000180087c30 f   utils:ColorUtil.obj
 0001:00086ca0       ?UnpackPdfColor@@YAX_KAEAE111@Z 0000000180087ca0 f   utils:ColorUtil.obj
 0001:00086d30       ?SerializePdfColor@@YAX_KAEAUStr@str@@@Z 0000000180087d30 f   utils:ColorUtil.obj
 0001:00086da0       ?AdjustLightness@@YAKKM@Z  0000000180087da0 f   utils:ColorUtil.obj
 0001:00087160       ?AdjustLightness2@@YAKKM@Z 0000000180088160 f   utils:ColorUtil.obj
 0001:00087240       ?GetLightness@@YAMK@Z      0000000180088240 f   utils:ColorUtil.obj
 0001:000872d0       ?IsLightColor@@YA_NK@Z     00000001800882d0 f   utils:ColorUtil.obj
 0001:00087380       ?Unblend@@YA?AVColor@Gdiplus@@KE@Z 0000000180088380 f   utils:ColorUtil.obj
 0001:00087530       ?GdiRgbFromCOLORREF@@YA?AVColor@Gdiplus@@K@Z 0000000180088530 f   utils:ColorUtil.obj
 0001:00087580       ?GdiRgbaFromCOLORREF@@YA?AVColor@Gdiplus@@K@Z 0000000180088580 f   utils:ColorUtil.obj
 0001:000875b0       ?GetRed@@YAEK@Z            00000001800885b0 f   utils:ColorUtil.obj
 0001:000875d0       ?GetGreen@@YAEK@Z          00000001800885d0 f   utils:ColorUtil.obj
 0001:000875f0       ?GetBlue@@YAEK@Z           00000001800885f0 f   utils:ColorUtil.obj
 0001:00087610       ?GetAlpha@@YAEK@Z          0000000180088610 f   utils:ColorUtil.obj
 0001:00087a00       ??$max@E@std@@YAAEBEAEBE0@Z 0000000180088a00 f i utils:ColorUtil.obj
 0001:00087a60       ??$min@E@std@@YAAEBEAEBE0@Z 0000000180088a60 f i utils:ColorUtil.obj
 0001:00087ac0       ??0Color@Gdiplus@@QEAA@EEE@Z 0000000180088ac0 f i utils:ColorUtil.obj
 0001:00087b10       ??0Color@Gdiplus@@QEAA@EEEE@Z 0000000180088b10 f i utils:ColorUtil.obj
 0001:00087b70       ??0Color@Gdiplus@@QEAA@K@Z 0000000180088b70 f i utils:ColorUtil.obj
 0001:00087b90       ??0ParsedColor@@QEAA@XZ    0000000180088b90 f i utils:ColorUtil.obj
 0001:00087be0       ?MakeARGB@Color@Gdiplus@@SAKEEEE@Z 0000000180088be0 f i utils:ColorUtil.obj
 0001:00087c30       ?DpiGetForHwnd@@YAHPEAUHWND__@@@Z 0000000180088c30 f   utils:Dpi.obj
 0001:00087d00       ?DpiGet@@YAHPEAUHWND__@@@Z 0000000180088d00 f   utils:Dpi.obj
 0001:00087d40       ?DpiScale@@YAHPEAUHWND__@@H@Z 0000000180088d40 f   utils:Dpi.obj
 0001:00087d90       ?DpiScale@@YAXPEAUHWND__@@AEAH1@Z 0000000180088d90 f   utils:Dpi.obj
 0001:00087e10       ?DpiScale@@YAHPEAUHDC__@@H@Z 0000000180088e10 f   utils:Dpi.obj
 0001:00087ee0       ??0ScopedGetDC@@QEAA@PEAUHWND__@@@Z 0000000180088ee0 f i utils:Dpi.obj
 0001:00087f50       ??1ScopedGetDC@@QEAA@XZ    0000000180088f50 f i utils:Dpi.obj
 0001:00087f80       ??BScopedGetDC@@QEBAPEAUHDC__@@XZ 0000000180088f80 f i utils:Dpi.obj
 0001:00087fa0       ?InitDynCalls@@YAXXZ       0000000180088fa0 f   utils:WinDynCalls.obj
 0001:00088510       ?IsAppThemed@theme@@YA_NXZ 0000000180089510 f   utils:WinDynCalls.obj
 0001:00088550       ?OpenThemeData@theme@@YAPEAXPEAUHWND__@@PEB_W@Z 0000000180089550 f   utils:WinDynCalls.obj
 0001:000885a0       ?CloseThemeData@theme@@YAJPEAX@Z 00000001800895a0 f   utils:WinDynCalls.obj
 0001:000885e0       ?DrawThemeBackground@theme@@YAJPEAXPEAUHDC__@@HHPEBUtagRECT@@2@Z 00000001800895e0 f   utils:WinDynCalls.obj
 0001:00088650       ?IsThemeActive@theme@@YAHXZ 0000000180089650 f   utils:WinDynCalls.obj
 0001:00088680       ?IsThemeBackgroundPartiallyTransparent@theme@@YAHPEAXHH@Z 0000000180089680 f   utils:WinDynCalls.obj
 0001:000886d0       ?GetThemeColor@theme@@YAJPEAXHHHPEAK@Z 00000001800896d0 f   utils:WinDynCalls.obj
 0001:00088730       ?IsCompositionEnabled@dwm@@YAHXZ 0000000180089730 f   utils:WinDynCalls.obj
 0001:00088770       ?ExtendFrameIntoClientArea@dwm@@YAJPEAUHWND__@@PEBU_MARGINS@@@Z 0000000180089770 f   utils:WinDynCalls.obj
 0001:000887c0       ?DefaultWindowProc@dwm@@YAHPEAUHWND__@@I_K_JPEA_J@Z 00000001800897c0 f   utils:WinDynCalls.obj
 0001:00088820       ?GetWindowAttribute@dwm@@YAJPEAUHWND__@@KPEAXK@Z 0000000180089820 f   utils:WinDynCalls.obj
 0001:00088880       ?SetWindowAttribute@dwm@@YAJPEAUHWND__@@KPEAXK@Z 0000000180089880 f   utils:WinDynCalls.obj
 0001:000888e0       ?SetCaptionColor@dwm@@YAJPEAUHWND__@@K@Z 00000001800898e0 f   utils:WinDynCalls.obj
 0001:00088920       ?SupportsGestures@touch@@YA_NXZ 0000000180089920 f   utils:WinDynCalls.obj
 0001:00088960       ?GetGestureInfo@touch@@YAHPEAUHGESTUREINFO__@@PEAUtagGESTUREINFO@@@Z 0000000180089960 f   utils:WinDynCalls.obj
 0001:000889b0       ?CloseGestureInfoHandle@touch@@YAHPEAUHGESTUREINFO__@@@Z 00000001800899b0 f   utils:WinDynCalls.obj
 0001:000889f0       ?SetGestureConfig@touch@@YAHPEAUHWND__@@KIPEAUtagGESTURECONFIG@@I@Z 00000001800899f0 f   utils:WinDynCalls.obj
 0001:00088a50       ?NoDllHijacking@@YAXXZ     0000000180089a50 f   utils:WinDynCalls.obj
 0001:00088a90       ?PrioritizeSystemDirectoriesForDllLoad@@YAXXZ 0000000180089a90 f   utils:WinDynCalls.obj
 0001:00088eb0       ?Unpack@ByteReader@@QEBA_NPEAX_KPEBD1_N@Z 0000000180089eb0 f   utils:ByteReader.obj
 0001:000891c0       ??0ByteReader@@QEAA@AEBUByteSlice@@@Z 000000018008a1c0 f   utils:ByteReader.obj
 0001:00089220       ??0ByteReader@@QEAA@PEBD_K@Z 000000018008a220 f   utils:ByteReader.obj
 0001:00089260       ??0ByteReader@@QEAA@PEBE_K@Z 000000018008a260 f   utils:ByteReader.obj
 0001:000892a0       ?Byte@ByteReader@@QEBAE_K@Z 000000018008a2a0 f   utils:ByteReader.obj
 0001:000892e0       ?WordLE@ByteReader@@QEBAG_K@Z 000000018008a2e0 f   utils:ByteReader.obj
 0001:00089340       ?WordBE@ByteReader@@QEBAG_K@Z 000000018008a340 f   utils:ByteReader.obj
 0001:000893a0       ?Word@ByteReader@@QEBAG_K_N@Z 000000018008a3a0 f   utils:ByteReader.obj
 0001:00089400       ?DWordLE@ByteReader@@QEBAI_K@Z 000000018008a400 f   utils:ByteReader.obj
 0001:00089480       ?DWordBE@ByteReader@@QEBAI_K@Z 000000018008a480 f   utils:ByteReader.obj
 0001:00089500       ?DWord@ByteReader@@QEBAI_K_N@Z 000000018008a500 f   utils:ByteReader.obj
 0001:00089560       ?QWordLE@ByteReader@@QEBA_K_K@Z 000000018008a560 f   utils:ByteReader.obj
 0001:000895d0       ?QWordBE@ByteReader@@QEBA_K_K@Z 000000018008a5d0 f   utils:ByteReader.obj
 0001:00089640       ?QWord@ByteReader@@QEBA_K_K_N@Z 000000018008a640 f   utils:ByteReader.obj
 0001:000896a0       ?Find@ByteReader@@QEBAPEBE_KE@Z 000000018008a6a0 f   utils:ByteReader.obj
 0001:00089710       ?UnpackLE@ByteReader@@QEBA_NPEAX_KPEBD1@Z 000000018008a710 f   utils:ByteReader.obj
 0001:00089760       ?UnpackBE@ByteReader@@QEBA_NPEAX_KPEBD1@Z 000000018008a760 f   utils:ByteReader.obj
 0001:000897b0       ?Unpack@ByteReader@@QEBA_NPEAX_KPEBD_N1@Z 000000018008a7b0 f   utils:ByteReader.obj
 0001:00089a50       ?HasSignature@tga@@YA_NAEBUByteSlice@@@Z 000000018008aa50 f   utils:TgaReader.obj
 0001:00089b00       ?ImageFromData@tga@@YAPEAVBitmap@Gdiplus@@AEBUByteSlice@@@Z 000000018008ab00 f   utils:TgaReader.obj
 0001:00089f50       ?SerializeBitmap@tga@@YA?AUByteSlice@@PEAUHBITMAP__@@@Z 000000018008af50 f   utils:TgaReader.obj
 0001:0008b860       ??0Bitmap@Gdiplus@@IEAA@PEAVGpBitmap@1@@Z 000000018008c860 f i utils:TgaReader.obj
 0001:0008b8c0       ??0Bitmap@Gdiplus@@QEAA@HHH@Z 000000018008c8c0 f i utils:TgaReader.obj
 0001:0008b970       ??0Image@Gdiplus@@IEAA@PEAVGpImage@1@W4Status@1@@Z 000000018008c970 f i utils:TgaReader.obj
 0001:0008b9d0       ??0Image@Gdiplus@@IEAA@XZ  000000018008c9d0 f i utils:TgaReader.obj
 0001:0008b9f0       ??1Bitmap@Gdiplus@@UEAA@XZ 000000018008c9f0 f i utils:TgaReader.obj
 0001:0008ba10       ??1Image@Gdiplus@@UEAA@XZ  000000018008ca10 f i utils:TgaReader.obj
 0001:0008ba50       ??2GdiplusBase@Gdiplus@@SAPEAX_K@Z 000000018008ca50 f i utils:TgaReader.obj
 0001:0008ba70       ??3GdiplusBase@Gdiplus@@SAXPEAX@Z 000000018008ca70 f i utils:TgaReader.obj
 0001:0008ba90       ??_EBitmap@Gdiplus@@UEAAPEAXI@Z 000000018008ca90 f i utils:TgaReader.obj
 0001:0008ba90       ??_GBitmap@Gdiplus@@UEAAPEAXI@Z 000000018008ca90 f i utils:TgaReader.obj
 0001:0008bb00       ??_EImage@Gdiplus@@UEAAPEAXI@Z 000000018008cb00 f i utils:TgaReader.obj
 0001:0008bb00       ??_GImage@Gdiplus@@UEAAPEAXI@Z 000000018008cb00 f i utils:TgaReader.obj
 0001:0008bb70       ?Clone@Bitmap@Gdiplus@@QEAAPEAV12@HHHHH@Z 000000018008cb70 f i utils:TgaReader.obj
 0001:0008bc80       ?Clone@Image@Gdiplus@@UEAAPEAV12@XZ 000000018008cc80 f i utils:TgaReader.obj
 0001:0008bd20       ?LockBits@Bitmap@Gdiplus@@QEAA?AW4Status@2@PEBVRect@2@IHPEAVBitmapData@2@@Z 000000018008cd20 f i utils:TgaReader.obj
 0001:0008bd90       ?SetNativeImage@Image@Gdiplus@@IEAAXPEAVGpImage@2@@Z 000000018008cd90 f i utils:TgaReader.obj
 0001:0008bdb0       ?SetPropertyItem@Image@Gdiplus@@QEAA?AW4Status@2@PEBVPropertyItem@2@@Z 000000018008cdb0 f i utils:TgaReader.obj
 0001:0008bdf0       ?SetStatus@Image@Gdiplus@@IEBA?AW4Status@2@W432@@Z 000000018008cdf0 f i utils:TgaReader.obj
 0001:0008be30       ?UnlockBits@Bitmap@Gdiplus@@QEAA?AW4Status@2@PEAVBitmapData@2@@Z 000000018008ce30 f i utils:TgaReader.obj
 0001:0008be70       ?memeq3@tga@@YA_NPEBD0@Z   000000018008ce70 f i utils:TgaReader.obj
 0001:0008bef0       snprintf                   000000018008cef0 f i utils:TgaReader.obj
 0001:0008bf60       ?HasSignature@webp@@YA_NAEBUByteSlice@@@Z 000000018008cf60 f   utils:WebpReader.obj
 0001:0008bff0       ?SizeFromData@webp@@YA?AUSize@@AEBUByteSlice@@@Z 000000018008cff0 f   utils:WebpReader.obj
 0001:0008c060       ?ImageFromData@webp@@YAPEAVBitmap@Gdiplus@@AEBUByteSlice@@@Z 000000018008d060 f   utils:WebpReader.obj
 0001:0008c2d4       ??0?$Array@D@@QEAA@_K@Z    000000018008d2d4 f i unrar:dll.obj
 0001:0008c308       ??0?$Array@_W@@QEAA@XZ     000000018008d308 f i unrar:dll.obj
 0001:0008c324       ??1?$Array@D@@QEAA@XZ      000000018008d324 f i unrar:dll.obj
 0001:0008c340       ??1?$Array@_W@@QEAA@XZ     000000018008d340 f i unrar:dll.obj
 0001:0008c35c       ??1CommandData@@QEAA@XZ    000000018008d35c f i unrar:dll.obj
 0001:0008c464       ??_I@YAXPEAX_K1P6AX0@Z@Z   000000018008d464 f i unrar:dll.obj
 0001:0008c4c8       ?Add@?$Array@D@@QEAAX_K@Z  000000018008d4c8 f i unrar:dll.obj
 0001:0008c594       ?Add@?$Array@_W@@QEAAX_K@Z 000000018008d594 f i unrar:dll.obj
 0001:0008c664       ?ProcessFile@@YAHPEAXHPEAD1PEA_W2@Z 000000018008d664 f   unrar:dll.obj
 0001:0008c9a4       ?Push@?$Array@_W@@QEAAX_W@Z 000000018008d9a4 f i unrar:dll.obj
 0001:0008ca5c       RARCloseArchive            000000018008da5c f   unrar:dll.obj
 0001:0008caf8       RARGetDllVersion           000000018008daf8 f   unrar:dll.obj
 0001:0008cb00       RAROpenArchive             000000018008db00 f   unrar:dll.obj
 0001:0008cb80       RAROpenArchiveEx           000000018008db80 f   unrar:dll.obj
 0001:0008d0e4       RARProcessFile             000000018008e0e4 f   unrar:dll.obj
 0001:0008d104       RARProcessFileW            000000018008e104 f   unrar:dll.obj
 0001:0008d12c       RARReadHeader              000000018008e12c f   unrar:dll.obj
 0001:0008d29c       RARReadHeaderEx            000000018008e29c f   unrar:dll.obj
 0001:0008d758       RARSetCallback             000000018008e758 f   unrar:dll.obj
 0001:0008d76c       RARSetChangeVolProc        000000018008e76c f   unrar:dll.obj
 0001:0008d778       RARSetPassword             000000018008e778 f   unrar:dll.obj
 0001:0008d804       RARSetProcessDataProc      000000018008e804 f   unrar:dll.obj
 0001:0008d810       ??0SupportDBCS@@QEAA@XZ    000000018008e810 f   unrar:unicode.obj
 0001:0008d82c       ?CharToWide@@YA_NPEBDPEA_W_K@Z 000000018008e82c f   unrar:unicode.obj
 0001:0008d894       ?Init@SupportDBCS@@QEAAXXZ 000000018008e894 f   unrar:unicode.obj
 0001:0008d91c       ?IsTextUtf8@@YA_NPEBE@Z    000000018008e91c f   unrar:unicode.obj
 0001:0008d934       ?IsTextUtf8@@YA_NPEBE_K@Z  000000018008e934 f   unrar:unicode.obj
 0001:0008d99c       ?RawToWide@@YAPEA_WPEBEPEA_W_K@Z 000000018008e99c f   unrar:unicode.obj
 0001:0008d9f8       ?UtfToWide@@YA_NPEBDPEA_W_K@Z 000000018008e9f8 f   unrar:unicode.obj
 0001:0008dbe8       ?WideToChar@@YA_NPEB_WPEAD_K@Z 000000018008ebe8 f   unrar:unicode.obj
 0001:0008dc50       ?WideToRaw@@YAPEAEPEB_W_KPEAE1@Z 000000018008ec50 f   unrar:unicode.obj
 0001:0008dca8       ?WideToUtf@@YAXPEB_WPEAD_K@Z 000000018008eca8 f   unrar:unicode.obj
 0001:0008ddd4       ?WideToUtfSize@@YA_KPEB_W@Z 000000018008edd4 f   unrar:unicode.obj
 0001:0008de74       ?atoilw@@YA_JPEB_W@Z       000000018008ee74 f   unrar:unicode.obj
 0001:0008def4       ?atoiw@@YAHPEB_W@Z         000000018008eef4 f   unrar:unicode.obj
 0001:0008defc       ?charnext@SupportDBCS@@QEAAPEADPEBD@Z 000000018008eefc f   unrar:unicode.obj
 0001:0008df20       ?tolowerw@@YAHH@Z          000000018008ef20 f   unrar:unicode.obj
 0001:0008df2c       ?toupperw@@YAHH@Z          000000018008ef2c f   unrar:unicode.obj
 0001:0008df38       ?wcscasestr@@YAPEB_WPEB_W0@Z 000000018008ef38 f   unrar:unicode.obj
 0001:0008dff8       ?wcsicomp@@YAHPEB_W0@Z     000000018008eff8 f   unrar:unicode.obj
 0001:0008e030       ?wcslower@@YAPEA_WPEA_W@Z  000000018008f030 f   unrar:unicode.obj
 0001:0008e050       ?wcsnicomp@@YAHPEB_W0_K@Z  000000018008f050 f   unrar:unicode.obj
 0001:0008e0f4       ?wcsupper@@YAPEA_WPEA_W@Z  000000018008f0f4 f   unrar:unicode.obj
 0001:0008e114       ??$uiMsg@$$V@@YAXW4UIMESSAGE_CODE@@@Z 000000018008f114 f i unrar:errhnd.obj
 0001:0008e1b0       ??$uiMsg@AEAPEB_W@@YAXW4UIMESSAGE_CODE@@AEAPEB_W@Z 000000018008f1b0 f i unrar:errhnd.obj
 0001:0008e258       ??$uiMsg@AEAPEB_WAEAPEB_W@@YAXW4UIMESSAGE_CODE@@AEAPEB_W1@Z 000000018008f258 f i unrar:errhnd.obj
 0001:0008e300       ??$uiMsg@AEAY0EAA@_W@@YAXW4UIMESSAGE_CODE@@AEAY0EAA@_W@Z 000000018008f300 f i unrar:errhnd.obj
 0001:0008e3a8       ??$uiMsgBase@AEAPEB_W$$V@@YAXAEAVuiMsgStore@@AEAPEB_W@Z 000000018008f3a8 f i unrar:errhnd.obj
 0001:0008e3c4       ??$uiMsgBase@AEAPEB_WAEAPEB_W@@YAXAEAVuiMsgStore@@AEAPEB_W1@Z 000000018008f3c4 f i unrar:errhnd.obj
 0001:0008e400       ??$uiMsgBase@AEAY0EAA@_W$$V@@YAXAEAVuiMsgStore@@AEAY0EAA@_W@Z 000000018008f400 f i unrar:errhnd.obj
 0001:0008e418       ??0ErrorHandler@@QEAA@XZ   000000018008f418 f   unrar:errhnd.obj
 0001:0008e434       ?ArcBrokenMsg@ErrorHandler@@QEAAXPEB_W@Z 000000018008f434 f   unrar:errhnd.obj
 0001:0008e470       ?AskRepeatRead@ErrorHandler@@QEAAXPEB_WAEA_N11@Z 000000018008f470 f   unrar:errhnd.obj
 0001:0008e484       ?AskRepeatWrite@ErrorHandler@@QEAA_NPEB_W_N@Z 000000018008f484 f   unrar:errhnd.obj
 0001:0008e488       ?ChecksumFailedMsg@ErrorHandler@@QEAAXPEB_W0@Z 000000018008f488 f   unrar:errhnd.obj
 0001:0008e4d0       ?Clean@ErrorHandler@@QEAAXXZ 000000018008f4d0 f   unrar:errhnd.obj
 0001:0008e4e8       ?CloseError@ErrorHandler@@QEAAXPEB_W@Z 000000018008f4e8 f   unrar:errhnd.obj
 0001:0008e52c       ?CreateErrorMsg@ErrorHandler@@QEAAXPEB_W0@Z 000000018008f52c f   unrar:errhnd.obj
 0001:0008e570       ?CreateErrorMsg@ErrorHandler@@QEAAXPEB_W@Z 000000018008f570 f   unrar:errhnd.obj
 0001:0008e57c       ?Exit@ErrorHandler@@QEAAXW4RAR_EXIT@@@Z 000000018008f57c f   unrar:errhnd.obj
 0001:0008e5b0       ?GeneralErrMsg@ErrorHandler@@QEAAXPEB_WZZ 000000018008f5b0 f   unrar:errhnd.obj
 0001:0008e650       ?GetSysErrMsg@ErrorHandler@@QEAA_NPEA_W_K@Z 000000018008f650 f   unrar:errhnd.obj
 0001:0008e654       ?GetSystemErrorCode@ErrorHandler@@QEAAHXZ 000000018008f654 f   unrar:errhnd.obj
 0001:0008e65c       ?MemoryError@ErrorHandler@@QEAAXXZ 000000018008f65c f   unrar:errhnd.obj
 0001:0008e684       ?MemoryErrorMsg@ErrorHandler@@QEAAXXZ 000000018008f684 f   unrar:errhnd.obj
 0001:0008e6b0       ?OpenError@ErrorHandler@@QEAAXPEB_W@Z 000000018008f6b0 f   unrar:errhnd.obj
 0001:0008e6b4       ?OpenErrorMsg@ErrorHandler@@QEAAXPEB_W0@Z 000000018008f6b4 f   unrar:errhnd.obj
 0001:0008e6fc       ?OpenErrorMsg@ErrorHandler@@QEAAXPEB_W@Z 000000018008f6fc f   unrar:errhnd.obj
 0001:0008e708       ?ProcessSignal@@YAHK@Z     000000018008f708 f   unrar:errhnd.obj
 0001:0008e774       ?ReadError@ErrorHandler@@QEAAXPEB_W@Z 000000018008f774 f   unrar:errhnd.obj
 0001:0008e780       ?ReadErrorMsg@ErrorHandler@@QEAAXPEB_W0@Z 000000018008f780 f   unrar:errhnd.obj
 0001:0008e7c4       ?ReadErrorMsg@ErrorHandler@@QEAAXPEB_W@Z 000000018008f7c4 f   unrar:errhnd.obj
 0001:0008e7d0       ?SeekError@ErrorHandler@@QEAAXPEB_W@Z 000000018008f7d0 f   unrar:errhnd.obj
 0001:0008e814       ?SetDisableShutdown@ErrorHandler@@QEAAXXZ 000000018008f814 f i unrar:errhnd.obj
 0001:0008e81c       ?SetErrorCode@ErrorHandler@@QEAAXW4RAR_EXIT@@@Z 000000018008f81c f   unrar:errhnd.obj
 0001:0008e870       ?SetSignalHandlers@ErrorHandler@@QEAAX_N@Z 000000018008f870 f   unrar:errhnd.obj
 0001:0008e898       ?SetSystemErrorCode@ErrorHandler@@QEAAXH@Z 000000018008f898 f   unrar:errhnd.obj
 0001:0008e8a4       ?SysErrMsg@ErrorHandler@@QEAAXXZ 000000018008f8a4 f   unrar:errhnd.obj
 0001:0008e8a8       ?Throw@ErrorHandler@@QEAAXW4RAR_EXIT@@@Z 000000018008f8a8 f   unrar:errhnd.obj
 0001:0008e8ec       ?UnknownMethodMsg@ErrorHandler@@QEAAXPEB_W0@Z 000000018008f8ec f   unrar:errhnd.obj
 0001:0008e93c       ?WriteError@ErrorHandler@@QEAAXPEB_W0@Z 000000018008f93c f   unrar:errhnd.obj
 0001:0008e948       ?WriteErrorFAT@ErrorHandler@@QEAAXPEB_W@Z 000000018008f948 f   unrar:errhnd.obj
 0001:0008e984       ?WriteErrorMsg@ErrorHandler@@QEAAXPEB_W0@Z 000000018008f984 f   unrar:errhnd.obj
 0001:0008e9c8       ??$_Allocate_manually_vector_aligned@U_Default_allocate_traits@std@@@std@@YAPEAX_K@Z 000000018008f9c8 f i unrar:secpassword.obj
 0001:0008ea10       ??$_Construct_n@$$V@?$vector@_WV?$allocator@_W@std@@@std@@AEAAX_K@Z 000000018008fa10 f i unrar:secpassword.obj
 0001:0008ead0       ??$_Zero_range@PEA_W@std@@YAPEA_WQEA_W0@Z 000000018008fad0 f i unrar:secpassword.obj
 0001:0008eaf8       ??0SecPassword@@QEAA@XZ    000000018008faf8 f   unrar:secpassword.obj
 0001:0008eb38       ??0bad_array_new_length@stdext@@QEAA@XZ 000000018008fb38 f i unrar:secpassword.obj
 0001:0008eb58       ??1?$_Tidy_guard@V?$vector@_WV?$allocator@_W@std@@@std@@@std@@QEAA@XZ 000000018008fb58 f i unrar:secpassword.obj
 0001:0008ebd4       ??1SecPassword@@QEAA@XZ    000000018008fbd4 f   unrar:secpassword.obj
 0001:0008ec50       ??1bad_alloc@stdext@@UEAA@XZ 000000018008fc50 f i unrar:secpassword.obj
 0001:0008ec60       ??1exception@stdext@@UEAA@XZ 000000018008fc60 f i unrar:secpassword.obj
 0001:0008ec70       ??8SecPassword@@QEAA_NAEAV0@@Z 000000018008fc70 f   unrar:secpassword.obj
 0001:0008ed48       ??_Ebad_alloc@stdext@@UEAAPEAXI@Z 000000018008fd48 f i unrar:secpassword.obj
 0001:0008ed48       ??_Gbad_alloc@stdext@@UEAAPEAXI@Z 000000018008fd48 f i unrar:secpassword.obj
 0001:0008ed80       ??_Ebad_array_new_length@stdext@@UEAAPEAXI@Z 000000018008fd80 f i unrar:secpassword.obj
 0001:0008ed80       ??_Gbad_array_new_length@stdext@@UEAAPEAXI@Z 000000018008fd80 f i unrar:secpassword.obj
 0001:0008edb8       ??_Eexception@stdext@@UEAAPEAXI@Z 000000018008fdb8 f i unrar:secpassword.obj
 0001:0008edb8       ??_Gexception@stdext@@UEAAPEAXI@Z 000000018008fdb8 f i unrar:secpassword.obj
 0001:0008edf0       ?Clean@SecPassword@@QEAAXXZ 000000018008fdf0 f   unrar:secpassword.obj
 0001:0008ee20       ?Get@SecPassword@@QEAAXPEA_W_K@Z 000000018008fe20 f   unrar:secpassword.obj
 0001:0008ee8c       ?Length@SecPassword@@QEAA_KXZ 000000018008fe8c f   unrar:secpassword.obj
 0001:0008ef10       ?Process@SecPassword@@AEAAXPEB_W_KPEA_W1_N@Z 000000018008ff10 f   unrar:secpassword.obj
 0001:0008ef6c       ?SecHideData@@YAXPEAX_K_N2@Z 000000018008ff6c f   unrar:secpassword.obj
 0001:0008f0fc       ?Set@SecPassword@@QEAAXPEB_W@Z 00000001800900fc f   unrar:secpassword.obj
 0001:0008f174       ?_Doraise@bad_alloc@stdext@@MEBAXXZ 0000000180090174 f i unrar:secpassword.obj
 0001:0008f194       ?_Doraise@exception@stdext@@MEBAXXZ 0000000180090194 f i unrar:secpassword.obj
 0001:0008f198       ?_Raise@exception@stdext@@QEBAXXZ 0000000180090198 f i unrar:secpassword.obj
 0001:0008f1dc       ?_Throw_bad_array_new_length@std@@YAXXZ 00000001800901dc f i unrar:secpassword.obj
 0001:0008f1f8       ?_Xlength@?$vector@_WV?$allocator@_W@std@@@std@@CAXXZ 00000001800901f8 f i unrar:secpassword.obj
 0001:0008f210       ?cleandata@@YAXPEAX_K@Z    0000000180090210 f   unrar:secpassword.obj
 0001:0008f238       ?what@exception@stdext@@UEBAPEBDXZ 0000000180090238 f i unrar:secpassword.obj
 0001:0008f250       ??0?$Array@_W@@QEAA@_K@Z   0000000180090250 f i unrar:strlist.obj
 0001:0008f284       ??0StringList@@QEAA@XZ     0000000180090284 f   unrar:strlist.obj
 0001:0008f2b8       ?AddString@StringList@@QEAAXPEB_W@Z 00000001800902b8 f   unrar:strlist.obj
 0001:0008f348       ?AddStringA@StringList@@QEAAXPEBD@Z 0000000180090348 f   unrar:strlist.obj
 0001:0008f3e0       ?GetString@StringList@@QEAAPEA_WXZ 00000001800903e0 f   unrar:strlist.obj
 0001:0008f400       ?GetString@StringList@@QEAA_NPEAPEA_W@Z 0000000180090400 f   unrar:strlist.obj
 0001:0008f458       ?GetString@StringList@@QEAA_NPEA_W_K@Z 0000000180090458 f   unrar:strlist.obj
 0001:0008f4a4       ?GetString@StringList@@QEAA_NPEA_W_KH@Z 00000001800904a4 f   unrar:strlist.obj
 0001:0008f578       ?GetStringA@StringList@@QEAA_NPEAD_K@Z 0000000180090578 f   unrar:strlist.obj
 0001:0008f624       ?Reset@?$Array@_W@@QEAAXXZ 0000000180090624 f i unrar:strlist.obj
 0001:0008f658       ?Reset@StringList@@QEAAXXZ 0000000180090658 f   unrar:strlist.obj
 0001:0008f688       ?RestorePosition@StringList@@QEAAXXZ 0000000180090688 f   unrar:strlist.obj
 0001:0008f6b0       ?Rewind@StringList@@QEAAXXZ 00000001800906b0 f   unrar:strlist.obj
 0001:0008f6b8       ?SavePosition@StringList@@QEAAXXZ 00000001800906b8 f   unrar:strlist.obj
 0001:0008f6e0       ?Search@StringList@@QEAA_NPEB_W_N@Z 00000001800906e0 f   unrar:strlist.obj
 0001:0008f7e4       ?Adjust@RarTime@@QEAAX_J@Z 00000001800907e4 f   unrar:timefn.obj
 0001:0008f7e8       ?GetDos@RarTime@@QEAAIXZ   00000001800907e8 f   unrar:timefn.obj
 0001:0008f83c       ?GetLocal@RarTime@@QEAAXPEAURarLocalTime@@@Z 000000018009083c f   unrar:timefn.obj
 0001:0008fa60       ?GetMonthName@@YAPEB_WH@Z  0000000180090a60 f   unrar:timefn.obj
 0001:0008fa68       ?GetText@RarTime@@QEAAXPEA_W_K_N@Z 0000000180090a68 f   unrar:timefn.obj
 0001:0008fb68       ?GetUnix@RarTime@@QEAA_JXZ 0000000180090b68 f   unrar:timefn.obj
 0001:0008fba0       ?GetUnixNS@RarTime@@QEAA_KXZ 0000000180090ba0 f   unrar:timefn.obj
 0001:0008fbb8       ?GetWin@RarTime@@QEAA_KXZ  0000000180090bb8 f   unrar:timefn.obj
 0001:0008fbe0       ?GetWinFT@RarTime@@QEAAXPEAU_FILETIME@@@Z 0000000180090be0 f   unrar:timefn.obj
 0001:0008fc18       ?IsLeapYear@@YA_NH@Z       0000000180090c18 f   unrar:timefn.obj
 0001:0008fc74       ?SetAgeText@RarTime@@QEAAXPEB_W@Z 0000000180090c74 f   unrar:timefn.obj
 0001:0008fd70       ?SetCurrentTime@RarTime@@QEAAXXZ 0000000180090d70 f   unrar:timefn.obj
 0001:0008fdd4       ?SetDos@RarTime@@QEAAXI@Z  0000000180090dd4 f   unrar:timefn.obj
 0001:0008fe4c       ?SetIsoText@RarTime@@QEAAXPEB_W@Z 0000000180090e4c f   unrar:timefn.obj
 0001:0008ff7c       ?SetLocal@RarTime@@QEAAXPEAURarLocalTime@@@Z 0000000180090f7c f   unrar:timefn.obj
 0001:000900ec       ?SetUnix@RarTime@@QEAAX_J@Z 00000001800910ec f   unrar:timefn.obj
 0001:0009010c       ?SetUnixNS@RarTime@@QEAAX_K@Z 000000018009110c f   unrar:timefn.obj
 0001:00090124       ?SetWin@RarTime@@QEAAX_K@Z 0000000180091124 f   unrar:timefn.obj
 0001:00090130       ?SetWinFT@RarTime@@QEAAXPEAU_FILETIME@@@Z 0000000180091130 f   unrar:timefn.obj
 0001:0009014c       swprintf                   000000018009114c f i unrar:timefn.obj
 0001:000901b4       ??$uiMsg@$$T@@YAXW4UIMESSAGE_CODE@@$$QEA$$T@Z 00000001800911b4 f i unrar:pathfn.obj
 0001:0009025c       ??$uiMsg@$$TAEAY0IAA@_WAEAPEA_W@@YAXW4UIMESSAGE_CODE@@$$QEA$$TAEAY0IAA@_WAEAPEA_W@Z 000000018009125c f i unrar:pathfn.obj
 0001:00090304       ??$uiMsgBase@AEA$$T$$V@@YAXAEAVuiMsgStore@@AEA$$T@Z 0000000180091304 f i unrar:pathfn.obj
 0001:00090320       ??$uiMsgBase@AEA$$TAEAY0IAA@_WAEAPEA_W@@YAXAEAVuiMsgStore@@AEA$$TAEAY0IAA@_WAEAPEA_W@Z 0000000180091320 f i unrar:pathfn.obj
 0001:0009036c       ??$uiMsgBase@AEAPEA_W$$V@@YAXAEAVuiMsgStore@@AEAPEA_W@Z 000000018009136c f i unrar:pathfn.obj
 0001:00090388       ??$uiMsgBase@AEAY0IAA@_WAEAPEA_W@@YAXAEAVuiMsgStore@@AEAY0IAA@_WAEAPEA_W@Z 0000000180091388 f i unrar:pathfn.obj
 0001:000903bc       ?AddEndSlash@@YAXPEA_W_K@Z 00000001800913bc f   unrar:pathfn.obj
 0001:000903fc       ?CmpExt@@YA_NPEB_W0@Z      00000001800913fc f   unrar:pathfn.obj
 0001:00090458       ?ConvertNameToFull@@YAXPEB_WPEA_W_K@Z 0000000180091458 f   unrar:pathfn.obj
 0001:00090584       ?ConvertPath@@YAPEA_WPEB_WPEA_W_K@Z 0000000180091584 f   unrar:pathfn.obj
 0001:00090774       ?ConvertToPrecomposed@@YAXPEA_W_K@Z 0000000180091774 f   unrar:pathfn.obj
 0001:00090830       ?DosSlashToUnix@@YAXPEBDPEAD_K@Z 0000000180091830 f   unrar:pathfn.obj
 0001:0009088c       ?DosSlashToUnix@@YAXPEB_WPEA_W_K@Z 000000018009188c f   unrar:pathfn.obj
 0001:000908dc       ?EnumConfigPaths@@YA_NIPEA_W_K_N@Z 00000001800918dc f   unrar:pathfn.obj
 0001:00091158       ?GenerateArchiveName@@YAXPEA_W_KPEB_W_N@Z 0000000180092158 f   unrar:pathfn.obj
 0001:000912a4       ?GetAppDataPath@@YA_NPEA_W_K_N@Z 00000001800922a4 f   unrar:pathfn.obj
 0001:0009139c       ?GetConfigName@@YAXPEB_WPEA_W_K_N3@Z 000000018009239c f   unrar:pathfn.obj
 0001:0009144c       ?GetExt@@YAPEA_WPEB_W@Z    000000018009244c f   unrar:pathfn.obj
 0001:00091478       ?GetFilePath@@YAXPEB_WPEA_W_K@Z 0000000180092478 f   unrar:pathfn.obj
 0001:00091500       ?GetPathDisk@@YAHPEB_W@Z   0000000180092500 f   unrar:pathfn.obj
 0001:00091538       ?GetPathRoot@@YAXPEB_WPEA_W_K@Z 0000000180092538 f   unrar:pathfn.obj
 0001:00091638       ?GetRarDataPath@@YAXPEA_W_K_N@Z 0000000180092638 f   unrar:pathfn.obj
 0001:0009172c       ?GetVolNumPart@@YAPEA_WPEB_W@Z 000000018009272c f   unrar:pathfn.obj
 0001:00091834       ?GetWideName@@YAPEA_WPEBDPEB_WPEA_W_K@Z 0000000180092834 f   unrar:pathfn.obj
 0001:000918b4       ?GetWinLongPath@@YA_NPEB_WPEA_W_K@Z 00000001800928b4 f   unrar:pathfn.obj
 0001:00091b1c       ?IsDriveDiv@@YA_NH@Z       0000000180092b1c f   unrar:pathfn.obj
 0001:00091b24       ?IsDriveLetter@@YA_NPEB_W@Z 0000000180092b24 f   unrar:pathfn.obj
 0001:00091b60       ?IsFullPath@@YA_NPEB_W@Z   0000000180092b60 f   unrar:pathfn.obj
 0001:00091ba8       ?IsFullRootPath@@YA_NPEB_W@Z 0000000180092ba8 f   unrar:pathfn.obj
 0001:00091bdc       ?IsNameUsable@@YA_NPEB_W@Z 0000000180092bdc f   unrar:pathfn.obj
 0001:00091c68       ?IsPathDiv@@YA_NH@Z        0000000180092c68 f   unrar:pathfn.obj
 0001:00091c7c       ?IsWildcard@@YA_NPEB_W@Z   0000000180092c7c f   unrar:pathfn.obj
 0001:00091cd0       ?MakeName@@YAXPEB_W0PEA_W_K@Z 0000000180092cd0 f   unrar:pathfn.obj
 0001:00091da0       ?MakeNameCompatible@@YAXPEA_W_K@Z 0000000180092da0 f   unrar:pathfn.obj
 0001:00092068       ?MakeNameUsable@@YAXPEA_W_N@Z 0000000180093068 f   unrar:pathfn.obj
 0001:00092134       ?NextVolumeName@@YAXPEA_WI_N@Z 0000000180093134 f   unrar:pathfn.obj
 0001:000923b8       ?ParseVersionFileName@@YAHPEA_W_N@Z 00000001800933b8 f   unrar:pathfn.obj
 0001:00092424       ?PointToLastChar@@YAPEA_WPEB_W@Z 0000000180093424 f   unrar:pathfn.obj
 0001:00092454       ?PointToName@@YAPEA_WPEB_W@Z 0000000180093454 f   unrar:pathfn.obj
 0001:000924bc       ?RemoveNameFromPath@@YAXPEA_W@Z 00000001800934bc f   unrar:pathfn.obj
 0001:00092500       ?SetExt@@YAXPEA_WPEB_W_K@Z 0000000180093500 f   unrar:pathfn.obj
 0001:0009259c       ?SetName@@YAXPEA_WPEB_W_K@Z 000000018009359c f   unrar:pathfn.obj
 0001:000925f4       ?SetSFXExt@@YAXPEA_W_K@Z   00000001800935f4 f   unrar:pathfn.obj
 0001:00092624       ?UnixSlashToDos@@YAXPEBDPEAD_K@Z 0000000180093624 f   unrar:pathfn.obj
 0001:00092680       ?UnixSlashToDos@@YAXPEB_WPEA_W_K@Z 0000000180093680 f   unrar:pathfn.obj
 0001:000926d0       ?VolNameToFirstName@@YAPEA_WPEB_WPEA_W_K_N@Z 00000001800936d0 f   unrar:pathfn.obj
 0001:0009293c       sprintf                    000000018009393c f i unrar:pathfn.obj
 0001:000929a8       ??0?$Array@D@@QEAA@XZ      00000001800939a8 f i unrar:strfn.obj
 0001:000929c4       ?Alloc@?$Array@D@@QEAAX_K@Z 00000001800939c4 f i unrar:strfn.obj
 0001:000929e0       ?ArcCharToWide@@YAXPEBDPEA_W_KW4ACTW_ENCODING@@@Z 00000001800939e0 f   unrar:strfn.obj
 0001:00092ad0       ?BinToHex@@YAXPEBE_KPEADPEA_W1@Z 0000000180093ad0 f   unrar:strfn.obj
 0001:00092bf8       ?GetCmdParam@@YAPEB_WPEB_WPEA_W_K@Z 0000000180093bf8 f   unrar:strfn.obj
 0001:00092cdc       ?GetDigits@@YAII@Z         0000000180093cdc f   unrar:strfn.obj
 0001:00092d00       ?GetWide@@YAPEB_WPEBD@Z    0000000180093d00 f   unrar:strfn.obj
 0001:00092d70       ?IntToExt@@YAXPEBDPEAD_K@Z 0000000180093d70 f   unrar:strfn.obj
 0001:00092dc0       ?IsAlpha@@YA_NH@Z          0000000180093dc0 f   unrar:strfn.obj
 0001:00092ddc       ?IsDigit@@YA_NH@Z          0000000180093ddc f   unrar:strfn.obj
 0001:00092de8       ?IsSpace@@YA_NH@Z          0000000180093de8 f   unrar:strfn.obj
 0001:00092dfc       ?LowAscii@@YA_NPEBD@Z      0000000180093dfc f   unrar:strfn.obj
 0001:00092e18       ?LowAscii@@YA_NPEB_W@Z     0000000180093e18 f   unrar:strfn.obj
 0001:00092e44       ?NullToEmpty@@YAPEBDPEBD@Z 0000000180093e44 f   unrar:strfn.obj
 0001:00092e5c       ?NullToEmpty@@YAPEB_WPEB_W@Z 0000000180093e5c f   unrar:strfn.obj
 0001:00092e74       ?RemoveEOL@@YAPEA_WPEA_W@Z 0000000180093e74 f   unrar:strfn.obj
 0001:00092ed0       ?RemoveLF@@YAPEA_WPEA_W@Z  0000000180093ed0 f   unrar:strfn.obj
 0001:00092f1c       ?etoupperw@@YA_W_W@Z       0000000180093f1c f   unrar:strfn.obj
 0001:00092f34       ?fmtitoa@@YAX_JPEA_W_K@Z   0000000180093f34 f   unrar:strfn.obj
 0001:000930d4       ?itoa@@YAX_JPEAD_K@Z       00000001800940d4 f   unrar:strfn.obj
 0001:000931cc       ?itoa@@YAX_JPEA_W_K@Z      00000001800941cc f   unrar:strfn.obj
 0001:000932f8       ?stricomp@@YAHPEBD0@Z      00000001800942f8 f   unrar:strfn.obj
 0001:00093330       ?strncatz@@YAXPEADPEBD_K@Z 0000000180094330 f   unrar:strfn.obj
 0001:00093378       ?strncpyz@@YAXPEADPEBD_K@Z 0000000180094378 f   unrar:strfn.obj
 0001:000933a8       ?strnicomp@@YAHPEBD0_K@Z   00000001800943a8 f   unrar:strfn.obj
 0001:00093460       ?wcsicompc@@YAHPEB_W0@Z    0000000180094460 f   unrar:strfn.obj
 0001:00093468       ?wcsncatz@@YAXPEA_WPEB_W_K@Z 0000000180094468 f   unrar:strfn.obj
 0001:0009349c       ?wcsncpyz@@YAXPEA_WPEB_W_K@Z 000000018009449c f   unrar:strfn.obj
 0001:000934d4       ?wcsnicompc@@YAHPEB_W0_K@Z 00000001800944d4 f   unrar:strfn.obj
 0001:000934dc       ??$uiMsg@AEAY0IAA@_W@@YAXW4UIMESSAGE_CODE@@AEAY0IAA@_W@Z 00000001800944dc f i unrar:archive.obj
 0001:00093584       ??$uiMsg@AEAY0IAA@_WAEAY0IAA@_W@@YAXW4UIMESSAGE_CODE@@AEAY0IAA@_W1@Z 0000000180094584 f i unrar:archive.obj
 0001:0009361c       ??$uiMsgBase@AEAY0IAA@_W$$V@@YAXAEAVuiMsgStore@@AEAY0IAA@_W@Z 000000018009461c f i unrar:archive.obj
 0001:00093634       ??$uiMsgBase@AEAY0IAA@_WAEAY0IAA@_W@@YAXAEAVuiMsgStore@@AEAY0IAA@_W1@Z 0000000180094634 f i unrar:archive.obj
 0001:0009365c       ??0?$Array@E@@QEAA@XZ      000000018009465c f i unrar:archive.obj
 0001:00093678       ??0?$Array@E@@QEAA@_K@Z    0000000180094678 f i unrar:archive.obj
 0001:000936ac       ??0Archive@@QEAA@PEAVCommandData@@@Z 00000001800946ac f   unrar:archive.obj
 0001:00093920       ??1?$Array@E@@QEAA@XZ      0000000180094920 f i unrar:archive.obj
 0001:0009393c       ??1Archive@@UEAA@XZ        000000018009493c f   unrar:archive.obj
 0001:00093a0c       ??1CryptData@@QEAA@XZ      0000000180094a0c f i unrar:archive.obj
 0001:00093b30       ??1KDF3CacheItem@CryptData@@QEAA@XZ 0000000180094b30 f i unrar:archive.obj
 0001:00093b94       ??1KDF5CacheItem@CryptData@@QEAA@XZ 0000000180094b94 f i unrar:archive.obj
 0001:00093c0c       ??_EArchive@@UEAAPEAXI@Z   0000000180094c0c f i unrar:archive.obj
 0001:00093c0c       ??_GArchive@@UEAAPEAXI@Z   0000000180094c0c f i unrar:archive.obj
 0001:00093c50       ?Add@?$Array@E@@QEAAX_K@Z  0000000180094c50 f i unrar:archive.obj
 0001:00093d1c       ?Alloc@?$Array@E@@QEAAX_K@Z 0000000180094d1c f i unrar:archive.obj
 0001:00093d38       ?Alloc@?$Array@_W@@QEAAX_K@Z 0000000180094d38 f i unrar:archive.obj
 0001:00093d54       ?CheckArc@Archive@@QEAAX_N@Z 0000000180094d54 f   unrar:archive.obj
 0001:00093da4       ?CheckOpen@Archive@@QEAAXPEB_W@Z 0000000180094da4 f   unrar:archive.obj
 0001:00093dc8       ?DoGetComment@Archive@@AEAA_NPEAV?$Array@_W@@@Z 0000000180094dc8 f   unrar:archive.obj
 0001:000943d0       ?FullHeaderSize@Archive@@QEAAI_K@Z 00000001800953d0 f   unrar:archive.obj
 0001:00094408       ?GetComment@Archive@@QEAA_NPEAV?$Array@_W@@@Z 0000000180095408 f   unrar:archive.obj
 0001:00094478       ?IsArchive@Archive@@QEAA_N_N@Z 0000000180095478 f   unrar:archive.obj
 0001:00094990       ?IsOpened@File@@UEAA_NXZ   0000000180095990 f i unrar:archive.obj
 0001:0009499c       ?IsSignature@Archive@@SA?AW4RARFORMAT@@PEBE_K@Z 000000018009599c f   unrar:archive.obj
 0001:00094a30       ?Open@Archive@@UEAA_NPEB_WI@Z 0000000180095a30 f   unrar:archive.obj
 0001:00094a40       ?Push@?$Array@E@@QEAAXE@Z  0000000180095a40 f i unrar:archive.obj
 0001:00094a80       ?Read@Archive@@UEAAHPEAX_K@Z 0000000180095a80 f   unrar:archive.obj
 0001:00094ae8       ?ReadCommentData@Archive@@AEAA_NPEAV?$Array@_W@@@Z 0000000180095ae8 f   unrar:archive.obj
 0001:00094c4c       ?Seek@Archive@@UEAAX_JH@Z  0000000180095c4c f   unrar:archive.obj
 0001:00094ca4       ?SeekToNext@Archive@@QEAAXXZ 0000000180095ca4 f   unrar:archive.obj
 0001:00094cbc       ?Tell@Archive@@UEAA_JXZ    0000000180095cbc f   unrar:archive.obj
 0001:00094cfc       ?ViewComment@Archive@@QEAAXXZ 0000000180095cfc f   unrar:archive.obj
 0001:00094da0       ?WCheckOpen@Archive@@QEAA_NPEB_W@Z 0000000180095da0 f   unrar:archive.obj
 0001:00094df8       ?_Tidy_deallocate@?$basic_string@_WU?$char_traits@_W@std@@V?$allocator@_W@2@@std@@AEAAXXZ 0000000180095df8 f i unrar:archive.obj
 0001:00094e74       ??$_Construct_n@$$V@?$vector@DV?$allocator@D@std@@@std@@AEAAX_K@Z 0000000180095e74 f i unrar:arcread.obj
 0001:00094f0c       ??$_Copy_memmove@PEADPEAD@std@@YAPEADPEAD00@Z 0000000180095f0c f i unrar:arcread.obj
 0001:00094f48       ??$_Emplace_reallocate@D@?$vector@DV?$allocator@D@std@@@std@@AEAAPEADQEAD$$QEAD@Z 0000000180095f48 f i unrar:arcread.obj
 0001:00095090       ??$_Reallocate_for@V<lambda_3fa8b2c8193a0f3144fc4b1b8f243931>@@PEB_W@?$basic_string@_WU?$char_traits@_W@std@@V?$allocator@_W@2@@std@@AEAAAEAV01@_KV<lambda_3fa8b2c8193a0f3144fc4b1b8f243931>@@PEB_W@Z 0000000180096090 f i unrar:arcread.obj
 0001:0009521c       ??$_Zero_range@PEAD@std@@YAPEADQEAD0@Z 000000018009621c f i unrar:arcread.obj
 0001:00095244       ??$uiMsg@AEAY0IAA@_WAEAPEB_WAEAPEB_W@@YAXW4UIMESSAGE_CODE@@AEAY0IAA@_WAEAPEB_W2@Z 0000000180096244 f i unrar:arcread.obj
 0001:000952f0       ??$uiMsgBase@AEAY0IAA@_WAEAPEB_WAEAPEB_W@@YAXAEAVuiMsgStore@@AEAY0IAA@_WAEAPEB_W2@Z 00000001800962f0 f i unrar:arcread.obj
 0001:00095318       ?BrokenHeaderMsg@Archive@@AEAAXXZ 0000000180096318 f   unrar:arcread.obj
 0001:0009535c       ?Check@RarCheckPassword@@UEAA_NPEAVSecPassword@@@Z 000000018009635c f i unrar:arcread.obj
 0001:000953e8       ?ConvertAttributes@Archive@@QEAAXXZ 00000001800963e8 f   unrar:arcread.obj
 0001:00095410       ?ConvertFileHeader@Archive@@AEAAXPEAUFileHeader@@@Z 0000000180096410 f   unrar:arcread.obj
 0001:000954e0       ?ConvertNameCase@Archive@@AEAAXPEA_W@Z 00000001800964e0 f   unrar:arcread.obj
 0001:00095540       ?GetConfidence@RarCheckPassword@@UEAA?AW4CONFIDENCE@CheckPassword@@XZ 0000000180096540 f i unrar:arcread.obj
 0001:00095544       ?GetStartPos@Archive@@QEAA_JXZ 0000000180096544 f   unrar:arcread.obj
 0001:0009559c       ?IsArcDir@Archive@@QEAA_NXZ 000000018009659c f   unrar:arcread.obj
 0001:000955a4       ?ProcessExtra50@Archive@@AEAAXPEAVRawRead@@_KPEBUBaseBlock@@@Z 00000001800965a4 f   unrar:arcread.obj
 0001:00096010       ?ReadHeader14@Archive@@AEAA_KXZ 0000000180097010 f   unrar:arcread.obj
 0001:00096454       ?ReadHeader15@Archive@@AEAA_KXZ 0000000180097454 f   unrar:arcread.obj
 0001:00097628       ?ReadHeader50@Archive@@AEAA_KXZ 0000000180098628 f   unrar:arcread.obj
 0001:000982d0       ?ReadHeader@Archive@@QEAA_KXZ 00000001800992d0 f   unrar:arcread.obj
 0001:00098380       ?ReadSubData@Archive@@QEAA_NPEAV?$Array@E@@PEAVFile@@_N@Z 0000000180099380 f   unrar:arcread.obj
 0001:00098758       ?RequestArcPassword@Archive@@AEAAXPEAVRarCheckPassword@@@Z 0000000180099758 f   unrar:arcread.obj
 0001:00098938       ?Reset@?$Array@E@@QEAAXXZ  0000000180099938 f i unrar:arcread.obj
 0001:0009896c       ?SearchBlock@Archive@@QEAA_KW4HEADER_TYPE@@@Z 000000018009996c f   unrar:arcread.obj
 0001:00098a1c       ?SearchRR@Archive@@QEAA_KXZ 0000000180099a1c f   unrar:arcread.obj
 0001:00098af4       ?SearchSubBlock@Archive@@QEAA_KPEB_W@Z 0000000180099af4 f   unrar:arcread.obj
 0001:00098bb4       ?Set@RarCheckPassword@@QEAAXPEAE0I0@Z 0000000180099bb4 f i unrar:arcread.obj
 0001:00098c5c       ?UnexpEndArcMsg@Archive@@AEAAXXZ 0000000180099c5c f   unrar:arcread.obj
 0001:00098cb4       ?UnkEncVerMsg@Archive@@AEAAXPEB_W0@Z 0000000180099cb4 f   unrar:arcread.obj
 0001:00098cfc       ?_Change_array@?$vector@DV?$allocator@D@std@@@std@@AEAAXQEAD_K1@Z 0000000180099cfc f i unrar:arcread.obj
 0001:00098da0       ?_Xlen_string@std@@YAXXZ   0000000180099da0 f i unrar:arcread.obj
 0001:00098db8       ?_Xlength@?$vector@DV?$allocator@D@std@@@std@@CAXXZ 0000000180099db8 f i unrar:arcread.obj
 0001:00098dd0       ?assign@?$basic_string@_WU?$char_traits@_W@std@@V?$allocator@_W@2@@std@@QEAAAEAV12@QEB_W@Z 0000000180099dd0 f i unrar:arcread.obj
 0001:00098e6c       ??$uiMsg@AEAY03$$CB_WH@@YAXW4UIMESSAGE_CODE@@AEAY03$$CB_W$$QEAH@Z 0000000180099e6c f i unrar:cmddata.obj
 0001:00098f08       ??$uiMsg@H@@YAXW4UIMESSAGE_CODE@@$$QEAH@Z 0000000180099f08 f i unrar:cmddata.obj
 0001:00098fb0       ??$uiMsgBase@AEAH$$V@@YAXAEAVuiMsgStore@@AEAH@Z 0000000180099fb0 f i unrar:cmddata.obj
 0001:00098fcc       ??$uiMsgBase@AEAY03$$CB_WAEAH@@YAXAEAVuiMsgStore@@AEAY03$$CB_WAEAH@Z 0000000180099fcc f i unrar:cmddata.obj
 0001:00099000       ??0CommandData@@QEAA@XZ    000000018009a000 f   unrar:cmddata.obj
 0001:000990a0       ?AddArcName@CommandData@@QEAAXPEB_W@Z 000000018009a0a0 f   unrar:cmddata.obj
 0001:000990b0       ?BadSwitch@CommandData@@AEAAXPEB_W@Z 000000018009a0b0 f   unrar:cmddata.obj
 0001:000990e0       ?CheckArgs@CommandData@@SA_NPEAVStringList@@_NPEB_W1H@Z 000000018009a0e0 f   unrar:cmddata.obj
 0001:000992e8       ?CheckWinSize@CommandData@@QEAA_NXZ 000000018009a2e8 f   unrar:cmddata.obj
 0001:00099320       ?ExclCheck@CommandData@@QEAA_NPEB_W_N11@Z 000000018009a320 f   unrar:cmddata.obj
 0001:000993cc       ?ExclDirByAttr@CommandData@@QEAA_NI@Z 000000018009a3cc f   unrar:cmddata.obj
 0001:000993e4       ?GetArcName@CommandData@@QEAA_NPEA_WH@Z 000000018009a3e4 f   unrar:cmddata.obj
 0001:000993f8       ?GetExclAttr@CommandData@@AEAAIPEB_WAEA_N@Z 000000018009a3f8 f   unrar:cmddata.obj
 0001:000994b4       ?Init@CommandData@@QEAAXXZ 000000018009a4b4 f   unrar:cmddata.obj
 0001:00099570       ?IsProcessFile@CommandData@@QEAAHAEAUFileHeader@@PEA_NH_NPEA_WI@Z 000000018009a570 f   unrar:cmddata.obj
 0001:00099720       ?IsSwitch@CommandData@@QEAA_NH@Z 000000018009a720 f   unrar:cmddata.obj
 0001:00099730       ?OutHelp@CommandData@@QEAAXW4RAR_EXIT@@@Z 000000018009a730 f   unrar:cmddata.obj
 0001:00099734       ?OutTitle@CommandData@@QEAAXXZ 000000018009a734 f   unrar:cmddata.obj
 0001:00099738       ?ParseArg@CommandData@@QEAAXPEA_W@Z 000000018009a738 f   unrar:cmddata.obj
 0001:00099aa0       ?ParseCommandLine@CommandData@@QEAAX_NHQEAPEAD@Z 000000018009aaa0 f   unrar:cmddata.obj
 0001:00099c7c       ?ParseDone@CommandData@@QEAAXXZ 000000018009ac7c f   unrar:cmddata.obj
 0001:00099d2c       ?ParseEnvVar@CommandData@@QEAAXXZ 000000018009ad2c f   unrar:cmddata.obj
 0001:00099de0       ?PreprocessArg@CommandData@@QEAAXPEB_W@Z 000000018009ade0 f   unrar:cmddata.obj
 0001:00099f38       ?ProcessCommand@CommandData@@QEAAXXZ 000000018009af38 f   unrar:cmddata.obj
 0001:0009a260       ?ProcessSwitch@CommandData@@AEAAXPEB_W@Z 000000018009b260 f   unrar:cmddata.obj
 0001:0009b7e8       ?ProcessSwitchesString@CommandData@@QEAAXPEB_W@Z 000000018009c7e8 f   unrar:cmddata.obj
 0001:0009b8a4       ?ReadConfig@CommandData@@QEAAXXZ 000000018009c8a4 f   unrar:cmddata.obj
 0001:0009bad0       ?ReportWrongSwitches@CommandData@@QEAAXW4RARFORMAT@@@Z 000000018009cad0 f   unrar:cmddata.obj
 0001:0009bbb0       ?SetStoreTimeMode@CommandData@@AEAAXPEB_W@Z 000000018009cbb0 f   unrar:cmddata.obj
 0001:0009bcd0       ?SetTimeFilters@CommandData@@AEAAXPEB_W_N1@Z 000000018009ccd0 f   unrar:cmddata.obj
 0001:0009bf10       ?SizeCheck@CommandData@@QEAA_N_J@Z 000000018009cf10 f   unrar:cmddata.obj
 0001:0009bf58       ?TimeCheck@CommandData@@QEAA_NAEAVRarTime@@00@Z 000000018009cf58 f   unrar:cmddata.obj
 0001:0009c0c0       ?mprintf@@YAXPEB_WZZ       000000018009d0c0 f i unrar:cmddata.obj
 0001:0009c0d4       ??$_Construct_n@AEBQEA_WAEBQEA_W@?$vector@_WV?$allocator@_W@std@@@std@@AEAAX_KAEBQEA_W1@Z 000000018009d0d4 f i unrar:extract.obj
 0001:0009c1b8       ??$_Copy_memmove@PEA_WPEA_W@std@@YAPEA_WPEA_W00@Z 000000018009d1b8 f i unrar:extract.obj
 0001:0009c1f4       ??$uiMsg@AEAPEA_W@@YAXW4UIMESSAGE_CODE@@AEAPEA_W@Z 000000018009d1f4 f i unrar:extract.obj
 0001:0009c29c       ??$uiMsg@AEAPEA_WAEAPEA_WAEAPEA_W@@YAXW4UIMESSAGE_CODE@@AEAPEA_W11@Z 000000018009d29c f i unrar:extract.obj
 0001:0009c34c       ??$uiMsg@AEAY0IAA@_WAEAY0IAA@_WAEAY0IAA@_W@@YAXW4UIMESSAGE_CODE@@AEAY0IAA@_W11@Z 000000018009d34c f i unrar:extract.obj
 0001:0009c3ec       ??$uiMsgBase@AEAPEA_WAEAPEA_W@@YAXAEAVuiMsgStore@@AEAPEA_W1@Z 000000018009d3ec f i unrar:extract.obj
 0001:0009c428       ??$uiMsgBase@AEAPEA_WAEAPEA_WAEAPEA_W@@YAXAEAVuiMsgStore@@AEAPEA_W11@Z 000000018009d428 f i unrar:extract.obj
 0001:0009c454       ??$uiMsgBase@AEAY0IAA@_WAEAY0IAA@_WAEAY0IAA@_W@@YAXAEAVuiMsgStore@@AEAY0IAA@_W11@Z 000000018009d454 f i unrar:extract.obj
 0001:0009c490       ??0?$Array@UExtractRef@CmdExtract@@@@QEAA@XZ 000000018009d490 f i unrar:extract.obj
 0001:0009c4ac       ??0CmdExtract@@QEAA@PEAVCommandData@@@Z 000000018009d4ac f   unrar:extract.obj
 0001:0009c5cc       ??1?$Array@UExtractRef@CmdExtract@@@@QEAA@XZ 000000018009d5cc f i unrar:extract.obj
 0001:0009c5e8       ??1CmdExtract@@QEAA@XZ     000000018009d5e8 f   unrar:extract.obj
 0001:0009c674       ?Add@?$Array@UExtractRef@CmdExtract@@@@QEAAX_K@Z 000000018009d674 f i unrar:extract.obj
 0001:0009c748       ?AnalyzeArchive@CmdExtract@@AEAAXPEB_W_N1@Z 000000018009d748 f   unrar:extract.obj
 0001:0009cbfc       ?CheckUnpVer@CmdExtract@@AEAA_NAEAVArchive@@PEB_W@Z 000000018009dbfc f   unrar:extract.obj
 0001:0009cc80       ?ConvertDosPassword@CmdExtract@@AEAAXAEAVArchive@@AEAVSecPassword@@@Z 000000018009dc80 f   unrar:extract.obj
 0001:0009cd98       ?DoExtract@CmdExtract@@QEAAXXZ 000000018009dd98 f   unrar:extract.obj
 0001:0009cfa0       ?ExtrCreateDir@CmdExtract@@AEAAXAEAVArchive@@PEB_W@Z 000000018009dfa0 f   unrar:extract.obj
 0001:0009d3a4       ?ExtrCreateFile@CmdExtract@@AEAA_NAEAVArchive@@AEAVFile@@@Z 000000018009e3a4 f   unrar:extract.obj
 0001:0009d644       ?ExtrDllGetPassword@CmdExtract@@AEAA_NXZ 000000018009e644 f   unrar:extract.obj
 0001:0009d7e4       ?ExtrPrepareName@CmdExtract@@AEAAXAEAVArchive@@PEB_WPEA_W_K@Z 000000018009e7e4 f   unrar:extract.obj
 0001:0009db30       ?ExtractArchive@CmdExtract@@AEAA?AW4EXTRACT_ARC_CODE@@XZ 000000018009eb30 f   unrar:extract.obj
 0001:0009df48       ?ExtractArchiveInit@CmdExtract@@QEAAXAEAVArchive@@@Z 000000018009ef48 f   unrar:extract.obj
 0001:0009e000       ?ExtractCurrentFile@CmdExtract@@QEAA_NAEAVArchive@@_KAEA_N@Z 000000018009f000 f   unrar:extract.obj
 0001:0009f730       ?ExtractFileCopy@CmdExtract@@AEAA_NAEAVFile@@PEA_WPEB_W11_K_J@Z 00000001800a0730 f   unrar:extract.obj
 0001:0009fa44       ?FreeAnalyzeData@CmdExtract@@AEAAXXZ 00000001800a0a44 f   unrar:extract.obj
 0001:0009fae0       ?GetFirstVolIfFullSet@CmdExtract@@AEAAXPEB_W_NPEA_W_K@Z 00000001800a0ae0 f   unrar:extract.obj
 0001:0009fc5c       ?Push@?$Array@UExtractRef@CmdExtract@@@@QEAAXUExtractRef@CmdExtract@@@Z 00000001800a0c5c f i unrar:extract.obj
 0001:0009fcb0       ?Reset@?$Array@UExtractRef@CmdExtract@@@@QEAAXXZ 00000001800a0cb0 f i unrar:extract.obj
 0001:0009fce4       ?UnstoreFile@CmdExtract@@SAXAEAVComprDataIO@@_J@Z 00000001800a0ce4 f   unrar:extract.obj
 0001:000a00ec       ?MergeArchive@@YA_NAEAVArchive@@PEAVComprDataIO@@_N_W@Z 00000001800a10ec f   unrar:volume.obj
 0001:000a061c       ?Msg@uiMsgStore@@QEAAXXZ   00000001800a161c f   unrar:ui.obj
 0001:000a0620       ?uiAlarm@@YAXW4UIALARM_TYPE@@@Z 00000001800a1620 f   unrar:ui.obj
 0001:000a0624       ?uiAskReplace@@YA?AW4UIASKREP_RESULT@@PEA_W_K_JPEAVRarTime@@I@Z 00000001800a1624 f   unrar:ui.obj
 0001:000a0628       ?uiAskReplaceEx@@YA?AW4UIASKREP_RESULT@@PEAVCommandData@@PEA_W_K_JPEAVRarTime@@I@Z 00000001800a1628 f   unrar:ui.obj
 0001:000a06bc       ?uiEolAfterMsg@@YAXXZ      00000001800a16bc f   unrar:ui.obj
 0001:000a06c0       ?uiExtractProgress@@YAX_J000@Z 00000001800a16c0 f   unrar:ui.obj
 0001:000a06c4       ?uiGetMonthName@@YAPEB_WH@Z 00000001800a16c4 f   unrar:ui.obj
 0001:000a06d0       ?uiGetPassword@@YA_NW4UIPASSWORD_TYPE@@PEB_WPEAVSecPassword@@PEAVCheckPassword@@@Z 00000001800a16d0 f   unrar:ui.obj
 0001:000a06d4       ?uiGiveTick@@YAXXZ         00000001800a16d4 f   unrar:ui.obj
 0001:000a06d8       ?uiInit@@YAXW4SOUND_NOTIFY_MODE@@@Z 00000001800a16d8 f   unrar:ui.obj
 0001:000a06e0       ?uiIsAborted@@YA_NXZ       00000001800a16e0 f   unrar:ui.obj
 0001:000a06e4       ?uiIsGlobalPasswordSet@@YA_NXZ 00000001800a16e4 f   unrar:ui.obj
 0001:000a06e8       ?uiProcessProgress@@YAXPEBD_J1@Z 00000001800a16e8 f   unrar:ui.obj
 0001:000a06ec       ?uiStartArchiveExtract@@YAX_NPEB_W@Z 00000001800a16ec f   unrar:ui.obj
 0001:000a06f0       ?uiStartFileExtract@@YA_NPEB_W_N11@Z 00000001800a16f0 f   unrar:ui.obj
 0001:000a06f4       ?GetSSEVersion@@YA?AW4SSE_VERSION@@XZ 00000001800a16f4 f   unrar:system.obj
 0001:000a077c       ?InitSystemOptions@@YAXH@Z 00000001800a177c f   unrar:system.obj
 0001:000a0784       ?IsUserAdmin@@YA_NXZ       00000001800a1784 f   unrar:system.obj
 0001:000a085c       ?LoadSysLibrary@@YAPEAUHINSTANCE__@@PEB_W@Z 00000001800a185c f   unrar:system.obj
 0001:000a08f4       ?MonoClock@@YAJXZ          00000001800a18f4 f   unrar:system.obj
 0001:000a08fc       ?SetPriority@@YAXH@Z       00000001800a18fc f   unrar:system.obj
 0001:000a09b0       ?Shutdown@@YAXW4POWER_MODE@@@Z 00000001800a19b0 f   unrar:system.obj
 0001:000a0aac       ?ShutdownCheckAnother@@YA_N_N@Z 00000001800a1aac f   unrar:system.obj
 0001:000a0b4c       ?Wait@@YAXXZ               00000001800a1b4c f   unrar:system.obj
 0001:000a0c28       ?IsWindows11OrGreater@@YA_NXZ 00000001800a1c28 f   unrar:isnt.obj
 0001:000a0fe8       ?WinNT@@YAKXZ              00000001800a1fe8 f   unrar:isnt.obj
 0001:000a1098       ?_Free@_bstr_t@@AEAAXXZ    00000001800a2098 f i unrar:isnt.obj
 0001:000a1114       ?CalcFileSum@@YAXPEAVFile@@PEAIPEAEI_JI@Z 00000001800a2114 f   unrar:filefn.obj
 0001:000a1374       ?CreatePath@@YA_NPEB_W_N1@Z 00000001800a2374 f   unrar:filefn.obj
 0001:000a14f4       ?DelDir@@YA_NPEB_W@Z       00000001800a24f4 f   unrar:filefn.obj
 0001:000a1598       ?DelFile@@YA_NPEB_W@Z      00000001800a2598 f   unrar:filefn.obj
 0001:000a163c       ?FileExist@@YA_NPEB_W@Z    00000001800a263c f   unrar:filefn.obj
 0001:000a1658       ?GetFileAttr@@YAIPEB_W@Z   00000001800a2658 f   unrar:filefn.obj
 0001:000a16f4       ?GetFreeDisk@@YA_JPEB_W@Z  00000001800a26f4 f   unrar:filefn.obj
 0001:000a17b0       ?IsDeleteAllowed@@YA_NI@Z  00000001800a27b0 f   unrar:filefn.obj
 0001:000a17b8       ?IsDir@@YA_NI@Z            00000001800a27b8 f   unrar:filefn.obj
 0001:000a17cc       ?IsLink@@YA_NI@Z           00000001800a27cc f   unrar:filefn.obj
 0001:000a17d8       ?IsRemovable@@YA_NPEB_W@Z  00000001800a27d8 f   unrar:filefn.obj
 0001:000a1864       ?IsUnreadable@@YA_NI@Z     00000001800a2864 f   unrar:filefn.obj
 0001:000a1868       ?MakeDir@@YA?AW4MKDIR_CODE@@PEB_W_NI@Z 00000001800a2868 f   unrar:filefn.obj
 0001:000a1978       ?MkTemp@@YAPEA_WPEA_W_K@Z  00000001800a2978 f   unrar:filefn.obj
 0001:000a1b40       ?PrepareToDelete@@YAXPEB_W@Z 00000001800a2b40 f   unrar:filefn.obj
 0001:000a1b48       ?RenameFile@@YA_NPEB_W0@Z  00000001800a2b48 f   unrar:filefn.obj
 0001:000a1c24       ?ResetFileCache@@YAXPEB_W@Z 00000001800a2c24 f   unrar:filefn.obj
 0001:000a1c74       ?SetDirTime@@YAXPEB_WPEAVRarTime@@11@Z 00000001800a2c74 f   unrar:filefn.obj
 0001:000a1eac       ?SetFileAttr@@YA_NPEB_WI@Z 00000001800a2eac f   unrar:filefn.obj
 0001:000a1f60       ?SetFileCompression@@YA_NPEB_W_N@Z 00000001800a2f60 f   unrar:filefn.obj
 0001:000a20bc       ?WildFileExist@@YA_NPEB_W@Z 00000001800a30bc f   unrar:filefn.obj
 0001:000a2194       ??0FindFile@@QEAA@XZ       00000001800a3194 f   unrar:find.obj
 0001:000a21b4       ??1FindFile@@QEAA@XZ       00000001800a31b4 f   unrar:find.obj
 0001:000a21d8       ?FastFind@FindFile@@SA_NPEB_WPEAUFindData@@_N@Z 00000001800a31d8 f   unrar:find.obj
 0001:000a2270       ?Next@FindFile@@QEAA_NPEAUFindData@@_N@Z 00000001800a3270 f   unrar:find.obj
 0001:000a237c       ?SetMask@FindFile@@QEAAXPEB_W@Z 00000001800a337c f   unrar:find.obj
 0001:000a23a8       ?Win32Find@FindFile@@CAPEAXPEAXPEB_WPEAUFindData@@@Z 00000001800a33a8 f   unrar:find.obj
 0001:000a2594       ??0DataHash@@QEAA@XZ       00000001800a3594 f   unrar:hash.obj
 0001:000a25ac       ??0blake2s_state@@QEAA@AEAU0@@Z 00000001800a35ac f i unrar:hash.obj
 0001:000a260c       ??0blake2s_state@@QEAA@XZ  00000001800a360c f i unrar:hash.obj
 0001:000a2654       ??0blake2sp_state@@QEAA@AEAU0@@Z 00000001800a3654 f i unrar:hash.obj
 0001:000a2820       ??0blake2sp_state@@QEAA@XZ 00000001800a3820 f i unrar:hash.obj
 0001:000a28d8       ??1DataHash@@QEAA@XZ       00000001800a38d8 f   unrar:hash.obj
 0001:000a2958       ??4blake2s_state@@QEAAAEAU0@AEAU0@@Z 00000001800a3958 f i unrar:hash.obj
 0001:000a2a24       ??8HashValue@@QEBA_NAEBU0@@Z 00000001800a3a24 f   unrar:hash.obj
 0001:000a2a94       ??__G@YAXPEAX0_K1P6APEAX00@Z@Z 00000001800a3a94 f i unrar:hash.obj
 0001:000a2afc       ?Cmp@DataHash@@QEAA_NPEAUHashValue@@PEAE@Z 00000001800a3afc f   unrar:hash.obj
 0001:000a2b74       ?GetCRC32@DataHash@@QEAAIXZ 00000001800a3b74 f   unrar:hash.obj
 0001:000a2b88       ?Init@DataHash@@QEAAXW4HASH_TYPE@@I@Z 00000001800a3b88 f   unrar:hash.obj
 0001:000a2c24       ?Init@HashValue@@QEAAXW4HASH_TYPE@@@Z 00000001800a3c24 f   unrar:hash.obj
 0001:000a2c58       ?Result@DataHash@@QEAAXPEAUHashValue@@@Z 00000001800a3c58 f   unrar:hash.obj
 0001:000a2ce8       ?Update@DataHash@@QEAAXPEBX_K@Z 00000001800a3ce8 f   unrar:hash.obj
 0001:000a2dd4       ??$_Assign_counted_range@PEA_W@?$vector@_WV?$allocator@_W@std@@@std@@AEAAXPEA_W_K@Z 00000001800a3dd4 f i unrar:crypt.obj
 0001:000a2ea4       ??$_Copy_memmove_n@PEA_WPEA_W@std@@YAPEA_WPEA_W_K0@Z 00000001800a3ea4 f i unrar:crypt.obj
 0001:000a2ee0       ??0CryptData@@QEAA@XZ      00000001800a3ee0 f   unrar:crypt.obj
 0001:000a304c       ??0KDF3CacheItem@CryptData@@QEAA@XZ 00000001800a404c f i unrar:crypt.obj
 0001:000a30b0       ??0KDF5CacheItem@CryptData@@QEAA@XZ 00000001800a40b0 f i unrar:crypt.obj
 0001:000a3128       ?ConvertHashToMAC@@YAXPEAUHashValue@@PEAE@Z 00000001800a4128 f   unrar:crypt.obj
 0001:000a3268       ?Crypt15@CryptData@@AEAAXPEAE_K@Z 00000001800a4268 f   unrar:crypt.obj
 0001:000a3334       ?Decrypt13@CryptData@@AEAAXPEAE_K@Z 00000001800a4334 f   unrar:crypt.obj
 0001:000a3370       ?DecryptBlock20@CryptData@@AEAAXPEAE@Z 00000001800a4370 f   unrar:crypt.obj
 0001:000a356c       ?DecryptBlock@CryptData@@QEAAXPEAE_K@Z 00000001800a456c f   unrar:crypt.obj
 0001:000a3624       ?EncryptBlock20@CryptData@@AEAAXPEAE@Z 00000001800a4624 f   unrar:crypt.obj
 0001:000a380c       ?GetRnd@@YAXPEAE_K@Z       00000001800a480c f   unrar:crypt.obj
 0001:000a3904       ?SetAV15Encryption@CryptData@@QEAAXXZ 00000001800a4904 f   unrar:crypt.obj
 0001:000a394c       ?SetCmt13Encryption@CryptData@@QEAAXXZ 00000001800a494c f   unrar:crypt.obj
 0001:000a3970       ?SetCryptKeys@CryptData@@QEAA_N_NW4CRYPT_METHOD@@PEAVSecPassword@@PEBE3IPEAE4@Z 00000001800a4970 f   unrar:crypt.obj
 0001:000a3b78       ?SetKey13@CryptData@@AEAAXPEBD@Z 00000001800a4b78 f   unrar:crypt.obj
 0001:000a3be4       ?SetKey15@CryptData@@AEAAXPEBD@Z 00000001800a4be4 f   unrar:crypt.obj
 0001:000a3cc0       ?SetKey20@CryptData@@AEAAXPEBD@Z 00000001800a4cc0 f   unrar:crypt.obj
 0001:000a3f20       ?SetKey30@CryptData@@AEAAX_NPEAVSecPassword@@PEB_WPEBE@Z 00000001800a4f20 f   unrar:crypt.obj
 0001:000a4308       ?SetKey50@CryptData@@AEAAX_NPEAVSecPassword@@PEB_WPEBE3IPEAE4@Z 00000001800a5308 f   unrar:crypt.obj
 0001:000a468c       ?Swap20@CryptData@@AEAAXPEAE0@Z 00000001800a568c f   unrar:crypt.obj
 0001:000a469c       ?UpdKeys20@CryptData@@AEAAXPEAE@Z 00000001800a569c f   unrar:crypt.obj
 0001:000a4744       ?_Clear_and_reserve_geometric@?$vector@_WV?$allocator@_W@std@@@std@@AEAAX_K@Z 00000001800a5744 f i unrar:crypt.obj
 0001:000a4c58       ?pbkdf2@@YAXPEBE_K01PEAE22I@Z 00000001800a5c58 f   unrar:crypt.obj
 0001:000a4f58       ??4?$Array@E@@QEAAAEAV0@AEBV0@@Z 00000001800a5f58 f i unrar:headers.obj
 0001:000a4fc4       ??4FileHeader@@QEAAAEAU0@AEAU0@@Z 00000001800a5fc4 f   unrar:headers.obj
 0001:000a5048       ??4MainHeader@@QEAAAEAU0@$$QEAU0@@Z 00000001800a6048 f i unrar:headers.obj
 0001:000a513c       ?Reset@FileHeader@@QEAAX_K@Z 00000001800a613c f   unrar:headers.obj
 0001:000a5210       ?Reset@MainHeader@@QEAAXXZ 00000001800a6210 f   unrar:headers.obj
 0001:000a5304       ??0File@@QEAA@XZ           00000001800a6304 f   unrar:file.obj
 0001:000a5360       ??1File@@UEAA@XZ           00000001800a6360 f   unrar:file.obj
 0001:000a53a4       ??4File@@QEAAXAEAV0@@Z     00000001800a63a4 f   unrar:file.obj
 0001:000a53fc       ??_EFile@@UEAAPEAXI@Z      00000001800a63fc f i unrar:file.obj
 0001:000a53fc       ??_GFile@@UEAAPEAXI@Z      00000001800a63fc f i unrar:file.obj
 0001:000a5440       ?Close@File@@UEAA_NXZ      00000001800a6440 f   unrar:file.obj
 0001:000a54c0       ?Copy@File@@QEAA_JAEAV1@_J@Z 00000001800a64c0 f   unrar:file.obj
 0001:000a5650       ?Create@File@@QEAA_NPEB_WI@Z 00000001800a6650 f   unrar:file.obj
 0001:000a57c8       ?Delete@File@@QEAA_NXZ     00000001800a67c8 f   unrar:file.obj
 0001:000a5810       ?DirectRead@File@@QEAAHPEAX_K@Z 00000001800a6810 f   unrar:file.obj
 0001:000a5924       ?FileLength@File@@QEAA_JXZ 00000001800a6924 f   unrar:file.obj
 0001:000a5994       ?Flush@File@@QEAAXXZ       00000001800a6994 f   unrar:file.obj
 0001:000a59a4       ?GetByte@File@@QEAAEXZ     00000001800a69a4 f   unrar:file.obj
 0001:000a59d0       ?GetOpenFileTime@File@@QEAAXPEAVRarTime@@00@Z 00000001800a69d0 f   unrar:file.obj
 0001:000a5a54       ?IsDevice@File@@QEAA_NXZ   00000001800a6a54 f   unrar:file.obj
 0001:000a5a84       ?Open@File@@UEAA_NPEB_WI@Z 00000001800a6a84 f   unrar:file.obj
 0001:000a5cc0       ?Prealloc@File@@QEAAX_J@Z  00000001800a6cc0 f   unrar:file.obj
 0001:000a5d00       ?PutByte@File@@QEAAXE@Z    00000001800a6d00 f   unrar:file.obj
 0001:000a5d24       ?RawSeek@File@@QEAA_N_JH@Z 00000001800a6d24 f   unrar:file.obj
 0001:000a5e98       ?Read@File@@UEAAHPEAX_K@Z  00000001800a6e98 f   unrar:file.obj
 0001:000a60a8       ?Rename@File@@QEAA_NPEB_W@Z 00000001800a70a8 f   unrar:file.obj
 0001:000a6138       ?Seek@File@@UEAAX_JH@Z     00000001800a7138 f   unrar:file.obj
 0001:000a6170       ?SetCloseFileTime@File@@QEAAXPEAVRarTime@@0@Z 00000001800a7170 f   unrar:file.obj
 0001:000a6174       ?SetCloseFileTimeByName@File@@SAXPEB_WPEAVRarTime@@1@Z 00000001800a7174 f   unrar:file.obj
 0001:000a6178       ?SetOpenFileTime@File@@QEAAXPEAVRarTime@@00@Z 00000001800a7178 f   unrar:file.obj
 0001:000a6290       ?TCreate@File@@QEAAXPEB_WI@Z 00000001800a7290 f   unrar:file.obj
 0001:000a62bc       ?TOpen@File@@QEAAXPEB_W@Z  00000001800a72bc f   unrar:file.obj
 0001:000a62e8       ?Tell@File@@UEAA_JXZ       00000001800a72e8 f   unrar:file.obj
 0001:000a63c4       ?Truncate@File@@QEAA_NXZ   00000001800a73c4 f   unrar:file.obj
 0001:000a63e4       ?WCreate@File@@QEAA_NPEB_WI@Z 00000001800a73e4 f   unrar:file.obj
 0001:000a641c       ?WOpen@File@@QEAA_NPEB_W@Z 00000001800a741c f   unrar:file.obj
 0001:000a645c       ?Write@File@@QEAA_NPEBX_K@Z 00000001800a745c f   unrar:file.obj
 0001:000a6600       ??0CallInitCRC@@QEAA@XZ    00000001800a7600 f i unrar:crc.obj
 0001:000a6688       ?CRC32@@YAIIPEBX_K@Z       00000001800a7688 f   unrar:crc.obj
 0001:000a67ec       ?Checksum14@@YAGGPEBX_K@Z  00000001800a77ec f   unrar:crc.obj
 0001:000a682c       ?InitCRC32@@YAXPEAI@Z      00000001800a782c f   unrar:crc.obj
 0001:000a6888       ??0ComprDataIO@@QEAA@XZ    00000001800a7888 f   unrar:rdwrfn.obj
 0001:000a6938       ??1ComprDataIO@@QEAA@XZ    00000001800a7938 f   unrar:rdwrfn.obj
 0001:000a69d4       ?AdjustTotalArcSize@ComprDataIO@@QEAAXPEAVArchive@@@Z 00000001800a79d4 f   unrar:rdwrfn.obj
 0001:000a6a58       ?GetUnpackedData@ComprDataIO@@QEAAXPEAPEAEPEA_K@Z 00000001800a7a58 f   unrar:rdwrfn.obj
 0001:000a6a6c       ?Init@ComprDataIO@@QEAAXXZ 00000001800a7a6c f   unrar:rdwrfn.obj
 0001:000a6b0c       ?SetAV15Encryption@ComprDataIO@@QEAAXXZ 00000001800a7b0c f   unrar:rdwrfn.obj
 0001:000a6b24       ?SetCmt13Encryption@ComprDataIO@@QEAAXXZ 00000001800a7b24 f   unrar:rdwrfn.obj
 0001:000a6b3c       ?SetEncryption@ComprDataIO@@QEAAX_NW4CRYPT_METHOD@@PEAVSecPassword@@PEBE3IPEAE4@Z 00000001800a7b3c f   unrar:rdwrfn.obj
 0001:000a6bd4       ?SetFiles@ComprDataIO@@QEAAXPEAVFile@@0@Z 00000001800a7bd4 f   unrar:rdwrfn.obj
 0001:000a6bf4       ?SetUnpackToMemory@ComprDataIO@@QEAAXPEAEI@Z 00000001800a7bf4 f   unrar:rdwrfn.obj
 0001:000a6c08       ?ShowUnpRead@ComprDataIO@@AEAAX_J0@Z 00000001800a7c08 f   unrar:rdwrfn.obj
 0001:000a6cc4       ?ShowUnpWrite@ComprDataIO@@AEAAXXZ 00000001800a7cc4 f   unrar:rdwrfn.obj
 0001:000a6cc8       ?UnpRead@ComprDataIO@@QEAAHPEAE_K@Z 00000001800a7cc8 f   unrar:rdwrfn.obj
 0001:000a6f3c       ?UnpWrite@ComprDataIO@@QEAAXPEAE_K@Z 00000001800a7f3c f   unrar:rdwrfn.obj
 0001:000a7088       ??0QuickOpen@@QEAA@XZ      00000001800a8088 f   unrar:qopen.obj
 0001:000a70e4       ??1QuickOpen@@QEAA@XZ      00000001800a80e4 f   unrar:qopen.obj
 0001:000a7128       ?Close@QuickOpen@@AEAAXXZ  00000001800a8128 f   unrar:qopen.obj
 0001:000a7178       ?Init@QuickOpen@@QEAAXPEAVArchive@@_N@Z 00000001800a8178 f   unrar:qopen.obj
 0001:000a71f8       ?Load@QuickOpen@@QEAAX_K@Z 00000001800a81f8 f   unrar:qopen.obj
 0001:000a7428       ?Read@QuickOpen@@QEAA_NPEAX_KAEA_K@Z 00000001800a8428 f   unrar:qopen.obj
 0001:000a75b8       ?ReadBuffer@QuickOpen@@AEAAIXZ 00000001800a85b8 f   unrar:qopen.obj
 0001:000a76e4       ?ReadNext@QuickOpen@@AEAA_NXZ 00000001800a86e4 f   unrar:qopen.obj
 0001:000a77e8       ?ReadRaw@QuickOpen@@AEAA_NAEAVRawRead@@@Z 00000001800a87e8 f   unrar:qopen.obj
 0001:000a7998       ?Seek@QuickOpen@@QEAA_N_JH@Z 00000001800a8998 f   unrar:qopen.obj
 0001:000a7a64       ?Tell@QuickOpen@@QEAA_NPEA_J@Z 00000001800a8a64 f   unrar:qopen.obj
 0001:000a7a84       ?InitConsole@@YAXXZ        00000001800a8a84 f   unrar:consio.obj
 0001:000a7b60       ?InitLogOptions@@YAXPEB_WW4RAR_CHARSET@@@Z 00000001800a8b60 f   unrar:consio.obj
 0001:000a7be0       ?OutComment@@YAXPEB_W_K@Z  00000001800a8be0 f   unrar:consio.obj
 0001:000a7d18       ?ProhibitConsoleInput@@YAXXZ 00000001800a8d18 f   unrar:consio.obj
 0001:000a7d24       ?SetConsoleMsgStream@@YAXW4MESSAGE_TYPE@@@Z 00000001800a8d24 f   unrar:consio.obj
 0001:000a7d2c       ?SetConsoleRedirectCharset@@YAXW4RAR_CHARSET@@@Z 00000001800a8d2c f   unrar:consio.obj
 0001:000a7d34       ??0?$Array@H@@QEAA@XZ      00000001800a8d34 f i unrar:unpack.obj
 0001:000a7d50       ??0?$Array@PEAUUnpackFilter30@@@@QEAA@XZ 00000001800a8d50 f i unrar:unpack.obj
 0001:000a7d6c       ??0?$Array@UUnpackFilter@@@@QEAA@XZ 00000001800a8d6c f i unrar:unpack.obj
 0001:000a7d88       ??0FragmentedWindow@@QEAA@XZ 00000001800a8d88 f   unrar:unpack.obj
 0001:000a7dc8       ??0ModelPPM@@QEAA@XZ       00000001800a8dc8 f   unrar:unpack.obj
 0001:000a7df4       ??0SubAllocator@@QEAA@XZ   00000001800a8df4 f   unrar:unpack.obj
 0001:000a7dfc       ??0Unpack@@QEAA@PEAVComprDataIO@@@Z 00000001800a8dfc f   unrar:unpack.obj
 0001:000a7fec       ??0UnpackThreadData@@QEAA@XZ 00000001800a8fec f i unrar:unpack.obj
 0001:000a801c       ??0bad_alloc@stdext@@QEAA@AEBV01@@Z 00000001800a901c f i unrar:unpack.obj
 0001:000a8044       ??0bad_alloc@stdext@@QEAA@XZ 00000001800a9044 f i unrar:unpack.obj
 0001:000a8064       ??0exception@stdext@@QEAA@AEBV01@@Z 00000001800a9064 f i unrar:unpack.obj
 0001:000a8080       ??1?$Array@H@@QEAA@XZ      00000001800a9080 f i unrar:unpack.obj
 0001:000a809c       ??1?$Array@PEAUUnpackFilter30@@@@QEAA@XZ 00000001800a909c f i unrar:unpack.obj
 0001:000a80b8       ??1?$Array@UUnpackFilter@@@@QEAA@XZ 00000001800a90b8 f i unrar:unpack.obj
 0001:000a80d4       ??1FragmentedWindow@@QEAA@XZ 00000001800a90d4 f   unrar:unpack.obj
 0001:000a80dc       ??1Unpack@@QEAA@XZ         00000001800a90dc f   unrar:unpack.obj
 0001:000a8234       ??1UnpackThreadData@@QEAA@XZ 00000001800a9234 f i unrar:unpack.obj
 0001:000a8268       ??AFragmentedWindow@@QEAAAEAE_K@Z 00000001800a9268 f   unrar:unpack.obj
 0001:000a82c4       ??_EUnpackThreadData@@QEAAPEAXI@Z 00000001800a92c4 f i unrar:unpack.obj
 0001:000a83b4       ?Add@?$Array@H@@QEAAX_K@Z  00000001800a93b4 f i unrar:unpack.obj
 0001:000a8488       ?Add@?$Array@PEAUUnpackFilter30@@@@QEAAX_K@Z 00000001800a9488 f i unrar:unpack.obj
 0001:000a855c       ?Add@?$Array@UUnpackFilter@@@@QEAAX_K@Z 00000001800a955c f i unrar:unpack.obj
 0001:000a862c       ?AddFilter@Unpack@@AEAA_NAEAUUnpackFilter@@@Z 00000001800a962c f   unrar:unpack.obj
 0001:000a8700       ?AddVMCode@Unpack@@AEAA_NIPEAEI@Z 00000001800a9700 f   unrar:unpack.obj
 0001:000a8bd8       ?Alloc@?$Array@UUnpackFilter@@@@QEAAX_K@Z 00000001800a9bd8 f i unrar:unpack.obj
 0001:000a8bf4       ?AllocUnits@SubAllocator@@QEAAPEAXH@Z 00000001800a9bf4 f i unrar:unpack.obj
 0001:000a8c8c       ?AllocUnitsRare@SubAllocator@@AEAAPEAXH@Z 00000001800a9c8c f   unrar:unpack.obj
 0001:000a8dc8       ?ApplyFilter@Unpack@@AEAAPEAEPEAEIPEAUUnpackFilter@@@Z 00000001800a9dc8 f   unrar:unpack.obj
 0001:000a8fc8       ?Clean@SubAllocator@@QEAAXXZ 00000001800a9fc8 f   unrar:unpack.obj
 0001:000a8fcc       ?CleanUp@ModelPPM@@QEAAXXZ 00000001800a9fcc f   unrar:unpack.obj
 0001:000a902c       ?CopyData@FragmentedWindow@@QEAAXPEAE_K1@Z 00000001800aa02c f   unrar:unpack.obj
 0001:000a9098       ?CopyString15@Unpack@@AEAAXII@Z 00000001800aa098 f   unrar:unpack.obj
 0001:000a910c       ?CopyString20@Unpack@@AEAAXII@Z 00000001800aa10c f   unrar:unpack.obj
 0001:000a9308       ?CopyString@FragmentedWindow@@QEAAXIIAEA_K_K@Z 00000001800aa308 f   unrar:unpack.obj
 0001:000a93ac       ?CorrHuff@Unpack@@AEAAXPEAGPEAE@Z 00000001800aa3ac f   unrar:unpack.obj
 0001:000a9454       ?CreateSuccessors@ModelPPM@@AEAAPEAURARPPM_CONTEXT@@_NPEAURARPPM_STATE@@@Z 00000001800aa454 f i unrar:unpack.obj
 0001:000a9648       ?DecodeAudio@Unpack@@AEAAEH@Z 00000001800aa648 f   unrar:unpack.obj
 0001:000a9a58       ?DecodeChar@ModelPPM@@QEAAHXZ 00000001800aaa58 f   unrar:unpack.obj
 0001:000a9d74       ?DecodeInit@ModelPPM@@QEAA_NPEAVUnpack@@AEAH@Z 00000001800aad74 f   unrar:unpack.obj
 0001:000a9f38       ?DecodeNum@Unpack@@AEAAIIIPEAI0@Z 00000001800aaf38 f   unrar:unpack.obj
 0001:000a9fe4       ?DoUnpack@Unpack@@QEAAXI_N@Z 00000001800aafe4 f   unrar:unpack.obj
 0001:000aa08c       ?ExecuteCode@Unpack@@AEAAXPEAUVM_PreparedProgram@@@Z 00000001800ab08c f   unrar:unpack.obj
 0001:000aa0a8       ?ExpandUnits@SubAllocator@@QEAAPEAXPEAXH@Z 00000001800ab0a8 f i unrar:unpack.obj
 0001:000aa154       ?GetBlockSize@FragmentedWindow@@QEAA_K_K0@Z 00000001800ab154 f   unrar:unpack.obj
 0001:000aa190       ?GetFlagsBuf@Unpack@@AEAAXXZ 00000001800ab190 f   unrar:unpack.obj
 0001:000aa284       ?GlueFreeBlocks@SubAllocator@@AEAAXXZ 00000001800ab284 f i unrar:unpack.obj
 0001:000aa4dc       ?HuffDecode@Unpack@@AEAAXXZ 00000001800ab4dc f   unrar:unpack.obj
 0001:000aa82c       ?Init@FragmentedWindow@@QEAAX_K@Z 00000001800ab82c f   unrar:unpack.obj
 0001:000aa96c       ?Init@Unpack@@QEAAX_K_N@Z  00000001800ab96c f   unrar:unpack.obj
 0001:000aabb4       ?InitDecoder@RangeCoder@@QEAAXPEAVUnpack@@@Z 00000001800abbb4 f   unrar:unpack.obj
 0001:000aac54       ?InitFilters30@Unpack@@AEAAX_N@Z 00000001800abc54 f   unrar:unpack.obj
 0001:000aad0c       ?InitFilters@Unpack@@AEAAXXZ 00000001800abd0c f   unrar:unpack.obj
 0001:000aad18       ?InitHuff@Unpack@@AEAAXXZ  00000001800abd18 f   unrar:unpack.obj
 0001:000aae00       ?InitMT@Unpack@@AEAAXXZ    00000001800abe00 f   unrar:unpack.obj
 0001:000aaf88       ?InitSubAllocator@SubAllocator@@QEAAXXZ 00000001800abf88 f   unrar:unpack.obj
 0001:000ab10c       ?LongLZ@Unpack@@AEAAXXZ    00000001800ac10c f   unrar:unpack.obj
 0001:000ab48c       ?MakeDecodeTables@Unpack@@AEAAXPEAEPEAUDecodeTable@@I@Z 00000001800ac48c f   unrar:unpack.obj
 0001:000ab6ec       ?ProcessDecoded@Unpack@@AEAA_NAEAUUnpackThreadData@@@Z 00000001800ac6ec f   unrar:unpack.obj
 0001:000abdd4       ?Push@?$Array@H@@QEAAXH@Z  00000001800acdd4 f i unrar:unpack.obj
 0001:000abe10       ?Push@?$Array@UUnpackFilter@@@@QEAAXUUnpackFilter@@@Z 00000001800ace10 f i unrar:unpack.obj
 0001:000abe58       ?ReadBlockHeader@Unpack@@AEAA_NAEAVBitInput@@AEAUUnpackBlockHeader@@@Z 00000001800ace58 f   unrar:unpack.obj
 0001:000ac014       ?ReadEndOfBlock@Unpack@@AEAA_NXZ 00000001800ad014 f   unrar:unpack.obj
 0001:000ac09c       ?ReadFilter@Unpack@@AEAA_NAEAVBitInput@@AEAUUnpackFilter@@@Z 00000001800ad09c f   unrar:unpack.obj
 0001:000ac170       ?ReadFilterData@Unpack@@AEAAIAEAVBitInput@@@Z 00000001800ad170 f   unrar:unpack.obj
 0001:000ac21c       ?ReadLastTables@Unpack@@AEAAXXZ 00000001800ad21c f   unrar:unpack.obj
 0001:000ac4ac       ?ReadTables20@Unpack@@AEAA_NXZ 00000001800ad4ac f   unrar:unpack.obj
 0001:000aca14       ?ReadTables30@Unpack@@AEAA_NXZ 00000001800ada14 f   unrar:unpack.obj
 0001:000acf88       ?ReadTables@Unpack@@AEAA_NAEAVBitInput@@AEAUUnpackBlockHeader@@AEAUUnpackBlockTables@@@Z 00000001800adf88 f   unrar:unpack.obj
 0001:000ad3c8       ?ReadVMCode@Unpack@@AEAA_NXZ 00000001800ae3c8 f   unrar:unpack.obj
 0001:000ad5b4       ?ReadVMCodePPM@Unpack@@AEAA_NXZ 00000001800ae5b4 f   unrar:unpack.obj
 0001:000ad724       ?Reset@FragmentedWindow@@AEAAXXZ 00000001800ae724 f   unrar:unpack.obj
 0001:000ad76c       ?RestartModelRare@ModelPPM@@AEAAXXZ 00000001800ae76c f   unrar:unpack.obj
 0001:000ada44       ?SetThreads@Unpack@@QEAAXI@Z 00000001800aea44 f   unrar:unpack.obj
 0001:000ada90       ?ShortLZ@Unpack@@AEAAXXZ   00000001800aea90 f   unrar:unpack.obj
 0001:000ade60       ?ShrinkUnits@SubAllocator@@QEAAPEAXPEAXHH@Z 00000001800aee60 f i unrar:unpack.obj
 0001:000adf14       ?SoftReset@?$Array@H@@QEAAXXZ 00000001800aef14 f i unrar:unpack.obj
 0001:000adf1c       ?SoftReset@?$Array@PEAUUnpackFilter30@@@@QEAAXXZ 00000001800aef1c f i unrar:unpack.obj
 0001:000adf24       ?SoftReset@?$Array@UUnpackFilter@@@@QEAAXXZ 00000001800aef24 f i unrar:unpack.obj
 0001:000adf2c       ?SplitBlock@SubAllocator@@AEAAXPEAXHH@Z 00000001800aef2c f i unrar:unpack.obj
 0001:000adfd4       ?StartModelRare@ModelPPM@@AEAAXH@Z 00000001800aefd4 f   unrar:unpack.obj
 0001:000ae10c       ?StartSubAllocator@SubAllocator@@QEAA_NH@Z 00000001800af10c f   unrar:unpack.obj
 0001:000ae1c4       ?StopSubAllocator@SubAllocator@@QEAAXXZ 00000001800af1c4 f   unrar:unpack.obj
 0001:000ae1e8       ?UnpInitData15@Unpack@@AEAAXH@Z 00000001800af1e8 f   unrar:unpack.obj
 0001:000ae260       ?UnpInitData20@Unpack@@AEAAXH@Z 00000001800af260 f   unrar:unpack.obj
 0001:000ae2e8       ?UnpInitData30@Unpack@@AEAAX_N@Z 00000001800af2e8 f   unrar:unpack.obj
 0001:000ae354       ?UnpInitData50@Unpack@@AEAAX_N@Z 00000001800af354 f   unrar:unpack.obj
 0001:000ae364       ?UnpInitData@Unpack@@AEAAX_N@Z 00000001800af364 f   unrar:unpack.obj
 0001:000ae470       ?UnpReadBuf30@Unpack@@AEAA_NXZ 00000001800af470 f   unrar:unpack.obj
 0001:000ae548       ?UnpReadBuf@Unpack@@AEAA_NXZ 00000001800af548 f   unrar:unpack.obj
 0001:000ae6b4       ?UnpWriteArea@Unpack@@AEAAX_K0@Z 00000001800af6b4 f   unrar:unpack.obj
 0001:000ae7cc       ?UnpWriteBuf20@Unpack@@AEAAXXZ 00000001800af7cc f   unrar:unpack.obj
 0001:000ae880       ?UnpWriteBuf30@Unpack@@AEAAXXZ 00000001800af880 f   unrar:unpack.obj
 0001:000aeb6c       ?UnpWriteBuf@Unpack@@AEAAXXZ 00000001800afb6c f   unrar:unpack.obj
 0001:000af01c       ?UnpWriteData@Unpack@@AEAAXPEAE_K@Z 00000001800b001c f   unrar:unpack.obj
 0001:000af074       ?Unpack15@Unpack@@AEAAX_N@Z 00000001800b0074 f   unrar:unpack.obj
 0001:000af270       ?Unpack20@Unpack@@AEAAX_N@Z 00000001800b0270 f   unrar:unpack.obj
 0001:000afb58       ?Unpack29@Unpack@@AEAAX_N@Z 00000001800b0b58 f   unrar:unpack.obj
 0001:000b103c       ?Unpack5@Unpack@@AEAAX_N@Z 00000001800b203c f   unrar:unpack.obj
 0001:000b1f80       ?Unpack5MT@Unpack@@AEAAX_N@Z 00000001800b2f80 f   unrar:unpack.obj
 0001:000b2520       ?UnpackDecode@Unpack@@QEAAXAEAUUnpackThreadData@@@Z 00000001800b3520 f   unrar:unpack.obj
 0001:000b2ef4       ?UnpackDecodeThread@@YAXPEAX@Z 00000001800b3ef4 f   unrar:unpack.obj
 0001:000b2f40       ?UnpackLargeBlock@Unpack@@AEAA_NAEAUUnpackThreadData@@@Z 00000001800b3f40 f   unrar:unpack.obj
 0001:000b3dbc       ?UpdateModel@ModelPPM@@AEAAXXZ 00000001800b4dbc f i unrar:unpack.obj
 0001:000b4220       ?createChild@RARPPM_CONTEXT@@QEAAPEAU1@PEAVModelPPM@@PEAURARPPM_STATE@@AEAU3@@Z 00000001800b5220 f i unrar:unpack.obj
 0001:000b42d8       ?decodeBinSymbol@RARPPM_CONTEXT@@QEAAXPEAVModelPPM@@@Z 00000001800b52d8 f i unrar:unpack.obj
 0001:000b44a4       ?decodeSymbol1@RARPPM_CONTEXT@@QEAA_NPEAVModelPPM@@@Z 00000001800b54a4 f i unrar:unpack.obj
 0001:000b466c       ?decodeSymbol2@RARPPM_CONTEXT@@QEAA_NPEAVModelPPM@@@Z 00000001800b566c f i unrar:unpack.obj
 0001:000b48e8       ?makeEscFreq2@RARPPM_CONTEXT@@QEAAPEAURARPPM_SEE2_CONTEXT@@PEAVModelPPM@@H@Z 00000001800b58e8 f i unrar:unpack.obj
 0001:000b49cc       ?rescale@RARPPM_CONTEXT@@QEAAXPEAVModelPPM@@@Z 00000001800b59cc f   unrar:unpack.obj
 0001:000b4c5c       ?update1@RARPPM_CONTEXT@@QEAAXPEAVModelPPM@@PEAURARPPM_STATE@@@Z 00000001800b5c5c f i unrar:unpack.obj
 0001:000b4ce0       ?sha256_done@@YAXPEAUsha256_context@@PEAE@Z 00000001800b5ce0 f   unrar:sha256.obj
 0001:000b4e60       ?sha256_init@@YAXPEAUsha256_context@@@Z 00000001800b5e60 f   unrar:sha256.obj
 0001:000b4eac       ?sha256_process@@YAXPEAUsha256_context@@PEBX_K@Z 00000001800b5eac f   unrar:sha256.obj
 0001:000b5208       ??0RawRead@@QEAA@PEAVFile@@@Z 00000001800b6208 f   unrar:rawread.obj
 0001:000b5238       ??0RawRead@@QEAA@XZ        00000001800b6238 f   unrar:rawread.obj
 0001:000b5268       ?Get1@RawRead@@QEAAEXZ     00000001800b6268 f   unrar:rawread.obj
 0001:000b528c       ?Get2@RawRead@@QEAAGXZ     00000001800b628c f   unrar:rawread.obj
 0001:000b52d0       ?Get4@RawRead@@QEAAIXZ     00000001800b62d0 f   unrar:rawread.obj
 0001:000b5328       ?Get8@RawRead@@QEAA_KXZ    00000001800b6328 f   unrar:rawread.obj
 0001:000b5364       ?GetB@RawRead@@QEAA_KPEAX_K@Z 00000001800b6364 f   unrar:rawread.obj
 0001:000b53fc       ?GetCRC15@RawRead@@QEAAI_N@Z 00000001800b63fc f   unrar:rawread.obj
 0001:000b5440       ?GetCRC50@RawRead@@QEAAIXZ 00000001800b6440 f   unrar:rawread.obj
 0001:000b5478       ?GetV@RawRead@@QEAA_KXZ    00000001800b6478 f   unrar:rawread.obj
 0001:000b54d4       ?GetVSize@RawRead@@QEAAI_K@Z 00000001800b64d4 f   unrar:rawread.obj
 0001:000b5504       ?GetW@RawRead@@QEAAXPEA_W_K@Z 00000001800b6504 f   unrar:rawread.obj
 0001:000b5564       ?RawGetV@@YA_KPEBEAEAIIAEA_N@Z 00000001800b6564 f   unrar:rawread.obj
 0001:000b55d4       ?Read@RawRead@@QEAAXPEAE_K@Z 00000001800b65d4 f   unrar:rawread.obj
 0001:000b5634       ?Read@RawRead@@QEAA_K_K@Z  00000001800b6634 f   unrar:rawread.obj
 0001:000b574c       ?Reset@RawRead@@QEAAXXZ    00000001800b674c f   unrar:rawread.obj
 0001:000b5764       ?SoftReset@?$Array@E@@QEAAXXZ 00000001800b6764 f i unrar:rawread.obj
 0001:000b576c       ??0EncodeFileName@@QEAA@XZ 00000001800b676c f   unrar:encname.obj
 0001:000b5784       ?Decode@EncodeFileName@@QEAAXPEAD_KPEAE1PEA_W1@Z 00000001800b6784 f   unrar:encname.obj
 0001:000b5a28       ??0RAROptions@@QEAA@XZ     00000001800b6a28 f   unrar:options.obj
 0001:000b5a7c       ?Init@RAROptions@@QEAAXXZ  00000001800b6a7c f   unrar:options.obj
 0001:000b5b04       ?DetectTextEncoding@@YA?AW4RAR_CHARSET@@PEBE_K@Z 00000001800b6b04 f   unrar:filestr.obj
 0001:000b5be0       ?ReadTextFile@@YA_NPEB_WPEAVStringList@@_N2W4RAR_CHARSET@@222@Z 00000001800b6be0 f   unrar:filestr.obj
 0001:000b6214       ??$uiMsg@AEAY0IAA@_WAEAY01$$CB_WAEAY0IAA@_W@@YAXW4UIMESSAGE_CODE@@AEAY0IAA@_WAEAY01$$CB_W1@Z 00000001800b7214 f i unrar:scantree.obj
 0001:000b62b4       ??$uiMsgBase@AEAY01$$CB_WAEAY0IAA@_W@@YAXAEAVuiMsgStore@@AEAY01$$CB_WAEAY0IAA@_W@Z 00000001800b72b4 f i unrar:scantree.obj
 0001:000b62dc       ??$uiMsgBase@AEAY0IAA@_WAEAY01$$CB_WAEAY0IAA@_W@@YAXAEAVuiMsgStore@@AEAY0IAA@_WAEAY01$$CB_W1@Z 00000001800b72dc f i unrar:scantree.obj
 0001:000b6318       ??0ScanTree@@QEAA@PEAVStringList@@W4RECURSE_MODE@@_NW4SCAN_DIRS@@@Z 00000001800b7318 f   unrar:scantree.obj
 0001:000b640c       ??1ScanTree@@QEAA@XZ       00000001800b740c f   unrar:scantree.obj
 0001:000b64b0       ?Add@?$Array@I@@QEAAX_K@Z  00000001800b74b0 f i unrar:scantree.obj
 0001:000b6584       ?ExpandFolderMask@ScanTree@@AEAA_NXZ 00000001800b7584 f   unrar:scantree.obj
 0001:000b67ec       ?FindProc@ScanTree@@AEAA?AW4SCAN_CODE@@PEAUFindData@@@Z 00000001800b77ec f   unrar:scantree.obj
 0001:000b6f20       ?GetFilteredMask@ScanTree@@AEAA_NXZ 00000001800b7f20 f   unrar:scantree.obj
 0001:000b7264       ?GetNext@ScanTree@@QEAA?AW4SCAN_CODE@@PEAUFindData@@@Z 00000001800b8264 f   unrar:scantree.obj
 0001:000b7388       ?GetNextMask@ScanTree@@AEAA_NXZ 00000001800b8388 f   unrar:scantree.obj
 0001:000b7530       ?Push@?$Array@I@@QEAAXI@Z  00000001800b8530 f i unrar:scantree.obj
 0001:000b756c       ?ScanError@ScanTree@@AEAAXAEA_N@Z 00000001800b856c f   unrar:scantree.obj
 0001:000b7710       ?CmpName@@YA_NPEB_W0H@Z    00000001800b8710 f   unrar:match.obj
 0001:000b7c00       ?FileCreate@@YA_NPEAVCommandData@@PEAVFile@@PEA_W_KPEA_N_JPEAVRarTime@@_N@Z 00000001800b8c00 f   unrar:filcreat.obj
 0001:000b7d80       ?GetAutoRenamedName@@YA_NPEA_W_K@Z 00000001800b8d80 f   unrar:filcreat.obj
 0001:000b7e98       ?UpdateExistingShortName@@YA_NPEB_W@Z 00000001800b8e98 f   unrar:filcreat.obj
 0001:000b8148       ??$uiMsg@AEAY0IAA@_WAEAPEB_W@@YAXW4UIMESSAGE_CODE@@AEAY0IAA@_WAEAPEB_W@Z 00000001800b9148 f i unrar:extinfo.obj
 0001:000b81e4       ??$uiMsg@AEAY0IAA@_WAEAY0IAC@_W@@YAXW4UIMESSAGE_CODE@@AEAY0IAA@_WAEAY0IAC@_W@Z 00000001800b91e4 f i unrar:extinfo.obj
 0001:000b827c       ??$uiMsg@PEA_WAEAPEB_W@@YAXW4UIMESSAGE_CODE@@$$QEAPEA_WAEAPEB_W@Z 00000001800b927c f i unrar:extinfo.obj
 0001:000b8324       ??$uiMsgBase@AEAPEA_WAEAPEB_W@@YAXAEAVuiMsgStore@@AEAPEA_WAEAPEB_W@Z 00000001800b9324 f i unrar:extinfo.obj
 0001:000b8360       ??$uiMsgBase@AEAY0IAA@_WAEAPEB_W@@YAXAEAVuiMsgStore@@AEAY0IAA@_WAEAPEB_W@Z 00000001800b9360 f i unrar:extinfo.obj
 0001:000b8394       ??$uiMsgBase@AEAY0IAA@_WAEAY0IAC@_W@@YAXAEAVuiMsgStore@@AEAY0IAA@_WAEAY0IAC@_W@Z 00000001800b9394 f i unrar:extinfo.obj
 0001:000b83bc       ??$uiMsgBase@AEAY0IAC@_W$$V@@YAXAEAVuiMsgStore@@AEAY0IAC@_W@Z 00000001800b93bc f i unrar:extinfo.obj
 0001:000b84c0       ?CreateReparsePoint@@YA_NPEAVCommandData@@PEB_WPEAUFileHeader@@@Z 00000001800b94c0 f   unrar:extinfo.obj
 0001:000b8bec       ?ExtractACL20@@YAXAEAVArchive@@PEB_W@Z 00000001800b9bec f   unrar:extinfo.obj
 0001:000b8f18       ?ExtractACL@@YAXAEAVArchive@@PEB_W@Z 00000001800b9f18 f   unrar:extinfo.obj
 0001:000b90dc       ?ExtractHardlink@@YA_NPEAVCommandData@@PEA_W1_K@Z 00000001800ba0dc f   unrar:extinfo.obj
 0001:000b91c8       ?ExtractStreams20@@YAXAEAVArchive@@PEB_W@Z 00000001800ba1c8 f   unrar:extinfo.obj
 0001:000b9614       ?ExtractStreams@@YAXAEAVArchive@@PEB_W_N@Z 00000001800ba614 f   unrar:extinfo.obj
 0001:000b98ec       ?ExtractSymlink@@YA_NPEAVCommandData@@AEAVComprDataIO@@AEAVArchive@@PEB_WAEA_N@Z 00000001800ba8ec f   unrar:extinfo.obj
 0001:000b998c       ?GetStreamNameNTFS@@YAXAEAVArchive@@PEA_W_K@Z 00000001800ba98c f   unrar:extinfo.obj
 0001:000b9a88       ?IsRelativeSymlinkSafe@@YA_NPEAVCommandData@@PEB_W11@Z 00000001800baa88 f   unrar:extinfo.obj
 0001:000b9d50       ?LinksToDirs@@YA_NPEB_W0AEAV?$basic_string@_WU?$char_traits@_W@std@@V?$allocator@_W@2@@std@@@Z 00000001800bad50 f   unrar:extinfo.obj
 0001:000b9f8c       ?SetExtraInfo20@@YAXPEAVCommandData@@AEAVArchive@@PEA_W@Z 00000001800baf8c f   unrar:extinfo.obj
 0001:000b9ff0       ?SetExtraInfo@@YAXPEAVCommandData@@AEAVArchive@@PEA_W@Z 00000001800baff0 f   unrar:extinfo.obj
 0001:000ba098       ?SetFileHeaderExtra@@YAXPEAVCommandData@@AEAVArchive@@PEA_W@Z 00000001800bb098 f   unrar:extinfo.obj
 0001:000ba09c       ?SetPrivilege@@YA_NPEB_W@Z 00000001800bb09c f   unrar:extinfo.obj
 0001:000ba188       ??0ThreadPool@@QEAA@I@Z    00000001800bb188 f   unrar:threadpool.obj
 0001:000ba294       ??1ThreadPool@@QEAA@XZ     00000001800bb294 f   unrar:threadpool.obj
 0001:000ba34c       ?AddTask@ThreadPool@@QEAAXP6AXPEAX@Z0@Z 00000001800bb34c f   unrar:threadpool.obj
 0001:000ba448       ?CreateThreads@ThreadPool@@AEAAXXZ 00000001800bb448 f   unrar:threadpool.obj
 0001:000ba528       ?GetNumberOfCPU@@YAIXZ     00000001800bb528 f   unrar:threadpool.obj
 0001:000ba584       ?GetNumberOfThreads@@YAIXZ 00000001800bb584 f   unrar:threadpool.obj
 0001:000ba5b4       ?GetQueuedTask@ThreadPool@@AEAA_NPEAUQueueEntry@1@@Z 00000001800bb5b4 f   unrar:threadpool.obj
 0001:000ba654       ?PoolThread@ThreadPool@@CAKPEAX@Z 00000001800bb654 f   unrar:threadpool.obj
 0001:000ba668       ?PoolThreadLoop@ThreadPool@@AEAAXXZ 00000001800bb668 f   unrar:threadpool.obj
 0001:000ba6f4       ?WaitDone@ThreadPool@@QEAAXXZ 00000001800bb6f4 f   unrar:threadpool.obj
 0001:000ba74c       ?Blake2Thread@@YAXPEAX@Z   00000001800bb74c f   unrar:blake2s.obj
 0001:000ba754       ?Update@Blake2ThreadData@@QEAAXXZ 00000001800bb754 f   unrar:blake2s.obj
 0001:000bc3c8       ?blake2sp_final@@YAXPEAUblake2sp_state@@PEAE@Z 00000001800bd3c8 f   unrar:blake2s.obj
 0001:000bc4e4       ?blake2sp_init@@YAXPEAUblake2sp_state@@@Z 00000001800bd4e4 f   unrar:blake2s.obj
 0001:000bc580       ?blake2sp_update@@YAXPEAUblake2sp_state@@PEBE_K@Z 00000001800bd580 f   unrar:blake2s.obj
 0001:000bc7b4       ?SHA1Transform@@YAXQEAI0QEBE_N@Z 00000001800bd7b4 f   unrar:sha1.obj
 0001:000be4fc       ?sha1_done@@YAXPEAUsha1_context@@QEAI@Z 00000001800bf4fc f   unrar:sha1.obj
 0001:000be658       ?sha1_init@@YAXPEAUsha1_context@@@Z 00000001800bf658 f   unrar:sha1.obj
 0001:000be68c       ?sha1_process@@YAXPEAUsha1_context@@PEBE_K@Z 00000001800bf68c f   unrar:sha1.obj
 0001:000be790       ?sha1_process_rar29@@YAXPEAUsha1_context@@PEBE_K@Z 00000001800bf790 f   unrar:sha1.obj
 0001:000be8e0       ??0Rijndael@@QEAA@XZ       00000001800bf8e0 f   unrar:rijndael.obj
 0001:000be910       ?GenerateTables@Rijndael@@AEAAXXZ 00000001800bf910 f   unrar:rijndael.obj
 0001:000bebac       ?Init@Rijndael@@QEAAX_NPEBEI1@Z 00000001800bfbac f   unrar:rijndael.obj
 0001:000bed00       ?blockDecrypt@Rijndael@@QEAAXPEBE_KPEAE@Z 00000001800bfd00 f   unrar:rijndael.obj
 0001:000bf208       ?blockDecryptSSE@Rijndael@@AEAAXPEBE_KPEAE@Z 00000001800c0208 f   unrar:rijndael.obj
 0001:000bf2b4       ?blockEncrypt@Rijndael@@QEAAXPEBE_KPEAE@Z 00000001800c02b4 f   unrar:rijndael.obj
 0001:000bf84c       ?blockEncryptSSE@Rijndael@@AEAAXPEBE_KPEAE@Z 00000001800c084c f   unrar:rijndael.obj
 0001:000bf948       ?keyEncToDec@Rijndael@@AEAAXXZ 00000001800c0948 f   unrar:rijndael.obj
 0001:000bfa74       ?keySched@Rijndael@@AEAAXQEAY03E@Z 00000001800c0a74 f   unrar:rijndael.obj
 0001:000bfd54       ?ToPercent@@YAH_J0@Z       00000001800c0d54 f   unrar:smallfn.obj
 0001:000bfd7c       ?ToPercentUnlim@@YAH_J0@Z  00000001800c0d7c f   unrar:smallfn.obj
 0001:000bfd98       ??0BitInput@@QEAA@_N@Z     00000001800c0d98 f   unrar:getbits.obj
 0001:000bfde8       ??1BitInput@@QEAA@XZ       00000001800c0de8 f   unrar:getbits.obj
 0001:000bfe08       ?SetExternalBuffer@BitInput@@QEAAXPEAE@Z 00000001800c0e08 f   unrar:getbits.obj
 0001:000bfe4c       ?faddbits@BitInput@@QEAAXI@Z 00000001800c0e4c f   unrar:getbits.obj
 0001:000bfe6c       ?fgetbits@BitInput@@QEAAIXZ 00000001800c0e6c f   unrar:getbits.obj
 0001:000bfe98       ??0RarVM@@QEAA@XZ          00000001800c0e98 f   unrar:rarvm.obj
 0001:000bfea4       ??1RarVM@@QEAA@XZ          00000001800c0ea4 f   unrar:rarvm.obj
 0001:000bfeb0       ?Execute@RarVM@@QEAAXPEAUVM_PreparedProgram@@@Z 00000001800c0eb0 f   unrar:rarvm.obj
 0001:000bff48       ?ExecuteStandardFilter@RarVM@@AEAA_NW4VM_StandardFilters@@@Z 00000001800c0f48 f   unrar:rarvm.obj
 0001:000c0644       ?FilterItanium_GetBits@RarVM@@AEAAIPEAEII@Z 00000001800c1644 f   unrar:rarvm.obj
 0001:000c06b8       ?FilterItanium_SetBits@RarVM@@AEAAXPEAEIII@Z 00000001800c16b8 f   unrar:rarvm.obj
 0001:000c0730       ?Init@RarVM@@QEAAXXZ       00000001800c1730 f   unrar:rarvm.obj
 0001:000c075c       ?Prepare@RarVM@@QEAAXPEAEIPEAUVM_PreparedProgram@@@Z 00000001800c175c f   unrar:rarvm.obj
 0001:000c07fc       ?ReadData@RarVM@@SAIAEAVBitInput@@@Z 00000001800c17fc f   unrar:rarvm.obj
 0001:000c08f4       ?SetMemory@RarVM@@QEAAX_KPEAE0@Z 00000001800c18f4 f   unrar:rarvm.obj
 0001:000c093b       fz_pre_scale               00000001800c193b f   libmupdf:libmupdf.dll
 0001:000c0941       fz_rotate                  00000001800c1941 f   libmupdf:libmupdf.dll
 0001:000c0947       fz_pre_translate           00000001800c1947 f   libmupdf:libmupdf.dll
 0001:000c094d       fz_invert_matrix           00000001800c194d f   libmupdf:libmupdf.dll
 0001:000c0953       fz_matrix_expansion        00000001800c1953 f   libmupdf:libmupdf.dll
 0001:000c0959       fz_intersect_rect          00000001800c1959 f   libmupdf:libmupdf.dll
 0001:000c095f       fz_round_rect              00000001800c195f f   libmupdf:libmupdf.dll
 0001:000c0965       fz_transform_rect          00000001800c1965 f   libmupdf:libmupdf.dll
 0001:000c096b       fz_rect_from_quad          00000001800c196b f   libmupdf:libmupdf.dll
 0001:000c0971       fz_throw                   00000001800c1971 f   libmupdf:libmupdf.dll
 0001:000c0977       fz_rethrow                 00000001800c1977 f   libmupdf:libmupdf.dll
 0001:000c097d       fz_warn                    00000001800c197d f   libmupdf:libmupdf.dll
 0001:000c0983       fz_caught_message          00000001800c1983 f   libmupdf:libmupdf.dll
 0001:000c0989       fz_report_error            00000001800c1989 f   libmupdf:libmupdf.dll
 0001:000c098f       fz_clone_context           00000001800c198f f   libmupdf:libmupdf.dll
 0001:000c0995       fz_drop_context            00000001800c1995 f   libmupdf:libmupdf.dll
 0001:000c099b       fz_set_error_callback      00000001800c199b f   libmupdf:libmupdf.dll
 0001:000c09a1       fz_set_warning_callback    00000001800c19a1 f   libmupdf:libmupdf.dll
 0001:000c09a7       fz_set_user_css            00000001800c19a7 f   libmupdf:libmupdf.dll
 0001:000c09ad       fz_set_use_document_css    00000001800c19ad f   libmupdf:libmupdf.dll
 0001:000c09b3       fz_calloc                  00000001800c19b3 f   libmupdf:libmupdf.dll
 0001:000c09b9       fz_free                    00000001800c19b9 f   libmupdf:libmupdf.dll
 0001:000c09bf       fz_malloc_no_throw         00000001800c19bf f   libmupdf:libmupdf.dll
 0001:000c09c5       fz_strdup                  00000001800c19c5 f   libmupdf:libmupdf.dll
 0001:000c09cb       fz_var_imp                 00000001800c19cb f   libmupdf:libmupdf.dll
 0001:000c09d1       fz_push_try                00000001800c19d1 f   libmupdf:libmupdf.dll
 0001:000c09d7       fz_do_try                  00000001800c19d7 f   libmupdf:libmupdf.dll
 0001:000c09dd       fz_do_always               00000001800c19dd f   libmupdf:libmupdf.dll
 0001:000c09e3       fz_do_catch                00000001800c19e3 f   libmupdf:libmupdf.dll
 0001:000c09e9       fz_new_context_imp         00000001800c19e9 f   libmupdf:libmupdf.dll
 0001:000c09ef       fz_drop_buffer             00000001800c19ef f   libmupdf:libmupdf.dll
 0001:000c09f5       fz_new_buffer_from_data    00000001800c19f5 f   libmupdf:libmupdf.dll
 0001:000c09fb       fz_new_buffer_from_copied_data 00000001800c19fb f   libmupdf:libmupdf.dll
 0001:000c0a01       fz_buffer_extract          00000001800c1a01 f   libmupdf:libmupdf.dll
 0001:000c0a07       fz_urldecode               00000001800c1a07 f   libmupdf:libmupdf.dll
 0001:000c0a0d       fz_cleanname               00000001800c1a0d f   libmupdf:libmupdf.dll
 0001:000c0a13       fz_open_file_w             00000001800c1a13 f   libmupdf:libmupdf.dll
 0001:000c0a19       fz_open_buffer             00000001800c1a19 f   libmupdf:libmupdf.dll
 0001:000c0a1f       fz_drop_stream             00000001800c1a1f f   libmupdf:libmupdf.dll
 0001:000c0a25       fz_tell                    00000001800c1a25 f   libmupdf:libmupdf.dll
 0001:000c0a2b       fz_seek                    00000001800c1a2b f   libmupdf:libmupdf.dll
 0001:000c0a31       fz_read_all                00000001800c1a31 f   libmupdf:libmupdf.dll
 0001:000c0a37       fz_new_stream              00000001800c1a37 f   libmupdf:libmupdf.dll
 0001:000c0a3d       fz_md5_init                00000001800c1a3d f   libmupdf:libmupdf.dll
 0001:000c0a43       fz_md5_update              00000001800c1a43 f   libmupdf:libmupdf.dll
 0001:000c0a49       fz_md5_final               00000001800c1a49 f   libmupdf:libmupdf.dll
 0001:000c0a4f       fz_colorspace_is_rgb       00000001800c1a4f f   libmupdf:libmupdf.dll
 0001:000c0a55       fz_device_rgb              00000001800c1a55 f   libmupdf:libmupdf.dll
 0001:000c0a5b       fz_device_bgr              00000001800c1a5b f   libmupdf:libmupdf.dll
 0001:000c0a61       fz_new_pixmap              00000001800c1a61 f   libmupdf:libmupdf.dll
 0001:000c0a67       fz_new_pixmap_with_bbox    00000001800c1a67 f   libmupdf:libmupdf.dll
 0001:000c0a6d       fz_drop_pixmap             00000001800c1a6d f   libmupdf:libmupdf.dll
 0001:000c0a73       fz_clear_pixmap_with_value 00000001800c1a73 f   libmupdf:libmupdf.dll
 0001:000c0a79       fz_get_pixmap_from_image   00000001800c1a79 f   libmupdf:libmupdf.dll
 0001:000c0a7f       fz_keep_image              00000001800c1a7f f   libmupdf:libmupdf.dll
 0001:000c0a85       fz_close_device            00000001800c1a85 f   libmupdf:libmupdf.dll
 0001:000c0a8b       fz_drop_device             00000001800c1a8b f   libmupdf:libmupdf.dll
 0001:000c0a91       fz_new_bbox_device         00000001800c1a91 f   libmupdf:libmupdf.dll
 0001:000c0a97       fz_new_draw_device         00000001800c1a97 f   libmupdf:libmupdf.dll
 0001:000c0a9d       fz_run_display_list        00000001800c1a9d f   libmupdf:libmupdf.dll
 0001:000c0aa3       fz_drop_display_list       00000001800c1aa3 f   libmupdf:libmupdf.dll
 0001:000c0aa9       fz_new_stext_page          00000001800c1aa9 f   libmupdf:libmupdf.dll
 0001:000c0aaf       fz_drop_stext_page         00000001800c1aaf f   libmupdf:libmupdf.dll
 0001:000c0ab5       fz_new_stext_device        00000001800c1ab5 f   libmupdf:libmupdf.dll
 0001:000c0abb       fz_drop_link               00000001800c1abb f   libmupdf:libmupdf.dll
 0001:000c0ac1       fz_new_outline             00000001800c1ac1 f   libmupdf:libmupdf.dll
 0001:000c0ac7       fz_drop_outline            00000001800c1ac7 f   libmupdf:libmupdf.dll
 0001:000c0acd       fz_register_document_handlers 00000001800c1acd f   libmupdf:libmupdf.dll
 0001:000c0ad3       fz_open_document_with_stream 00000001800c1ad3 f   libmupdf:libmupdf.dll
 0001:000c0ad9       fz_drop_document           00000001800c1ad9 f   libmupdf:libmupdf.dll
 0001:000c0adf       fz_needs_password          00000001800c1adf f   libmupdf:libmupdf.dll
 0001:000c0ae5       fz_authenticate_password   00000001800c1ae5 f   libmupdf:libmupdf.dll
 0001:000c0aeb       fz_load_outline            00000001800c1aeb f   libmupdf:libmupdf.dll
 0001:000c0af1       fz_layout_document         00000001800c1af1 f   libmupdf:libmupdf.dll
 0001:000c0af7       fz_count_pages             00000001800c1af7 f   libmupdf:libmupdf.dll
 0001:000c0afd       fz_resolve_link_dest       00000001800c1afd f   libmupdf:libmupdf.dll
 0001:000c0b03       fz_resolve_link            00000001800c1b03 f   libmupdf:libmupdf.dll
 0001:000c0b09       fz_page_number_from_location 00000001800c1b09 f   libmupdf:libmupdf.dll
 0001:000c0b0f       fz_load_page               00000001800c1b0f f   libmupdf:libmupdf.dll
 0001:000c0b15       fz_load_links              00000001800c1b15 f   libmupdf:libmupdf.dll
 0001:000c0b1b       fz_bound_page              00000001800c1b1b f   libmupdf:libmupdf.dll
 0001:000c0b21       fz_run_page_contents       00000001800c1b21 f   libmupdf:libmupdf.dll
 0001:000c0b27       fz_drop_page               00000001800c1b27 f   libmupdf:libmupdf.dll
 0001:000c0b2d       fz_has_permission          00000001800c1b2d f   libmupdf:libmupdf.dll
 0001:000c0b33       fz_lookup_metadata         00000001800c1b33 f   libmupdf:libmupdf.dll
 0001:000c0b39       fz_new_display_list_from_page 00000001800c1b39 f   libmupdf:libmupdf.dll
 0001:000c0b3f       fz_new_stext_page_from_page 00000001800c1b3f f   libmupdf:libmupdf.dll
 0001:000c0b45       pdf_new_string             00000001800c1b45 f   libmupdf:libmupdf.dll
 0001:000c0b4b       pdf_new_array              00000001800c1b4b f   libmupdf:libmupdf.dll
 0001:000c0b51       pdf_new_dict               00000001800c1b51 f   libmupdf:libmupdf.dll
 0001:000c0b57       pdf_copy_dict              00000001800c1b57 f   libmupdf:libmupdf.dll
 0001:000c0b5d       pdf_drop_obj               00000001800c1b5d f   libmupdf:libmupdf.dll
 0001:000c0b63       pdf_is_name                00000001800c1b63 f   libmupdf:libmupdf.dll
 0001:000c0b69       pdf_is_array               00000001800c1b69 f   libmupdf:libmupdf.dll
 0001:000c0b6f       pdf_is_indirect            00000001800c1b6f f   libmupdf:libmupdf.dll
 0001:000c0b75       pdf_obj_num_is_stream      00000001800c1b75 f   libmupdf:libmupdf.dll
 0001:000c0b7b       pdf_mark_obj               00000001800c1b7b f   libmupdf:libmupdf.dll
 0001:000c0b81       pdf_unmark_obj             00000001800c1b81 f   libmupdf:libmupdf.dll
 0001:000c0b87       pdf_to_bool                00000001800c1b87 f   libmupdf:libmupdf.dll
 0001:000c0b8d       pdf_to_int                 00000001800c1b8d f   libmupdf:libmupdf.dll
 0001:000c0b93       pdf_to_name                00000001800c1b93 f   libmupdf:libmupdf.dll
 0001:000c0b99       pdf_to_str_buf             00000001800c1b99 f   libmupdf:libmupdf.dll
 0001:000c0b9f       pdf_to_str_len             00000001800c1b9f f   libmupdf:libmupdf.dll
 0001:000c0ba5       pdf_to_num                 00000001800c1ba5 f   libmupdf:libmupdf.dll
 0001:000c0bab       pdf_array_len              00000001800c1bab f   libmupdf:libmupdf.dll
 0001:000c0bb1       pdf_array_get              00000001800c1bb1 f   libmupdf:libmupdf.dll
 0001:000c0bb7       pdf_array_push             00000001800c1bb7 f   libmupdf:libmupdf.dll
 0001:000c0bbd       pdf_dict_len               00000001800c1bbd f   libmupdf:libmupdf.dll
 0001:000c0bc3       pdf_dict_get_key           00000001800c1bc3 f   libmupdf:libmupdf.dll
 0001:000c0bc9       pdf_dict_get_val           00000001800c1bc9 f   libmupdf:libmupdf.dll
 0001:000c0bcf       pdf_dict_getp              00000001800c1bcf f   libmupdf:libmupdf.dll
 0001:000c0bd5       pdf_dict_gets              00000001800c1bd5 f   libmupdf:libmupdf.dll
 0001:000c0bdb       pdf_dict_getsa             00000001800c1bdb f   libmupdf:libmupdf.dll
 0001:000c0be1       pdf_dict_put               00000001800c1be1 f   libmupdf:libmupdf.dll
 0001:000c0be7       pdf_dict_puts_drop         00000001800c1be7 f   libmupdf:libmupdf.dll
 0001:000c0bed       pdf_obj_parent_num         00000001800c1bed f   libmupdf:libmupdf.dll
 0001:000c0bf3       pdf_new_utf8_from_pdf_string_obj 00000001800c1bf3 f   libmupdf:libmupdf.dll
 0001:000c0bf9       pdf_specifics              00000001800c1bf9 f   libmupdf:libmupdf.dll
 0001:000c0bff       pdf_page_from_fz_page      00000001800c1bff f   libmupdf:libmupdf.dll
 0001:000c0c05       pdf_save_document          00000001800c1c05 f   libmupdf:libmupdf.dll
 0001:000c0c0b       pdf_can_be_saved_incrementally 00000001800c1c0b f   libmupdf:libmupdf.dll
 0001:000c0c11       pdf_resolve_indirect       00000001800c1c11 f   libmupdf:libmupdf.dll
 0001:000c0c17       pdf_load_stream_number     00000001800c1c17 f   libmupdf:libmupdf.dll
 0001:000c0c1d       pdf_trailer                00000001800c1c1d f   libmupdf:libmupdf.dll
 0001:000c0c23       pdf_doc_was_linearized     00000001800c1c23 f   libmupdf:libmupdf.dll
 0001:000c0c29       pdf_crypt_version          00000001800c1c29 f   libmupdf:libmupdf.dll
 0001:000c0c2f       pdf_crypt_revision         00000001800c1c2f f   libmupdf:libmupdf.dll
 0001:000c0c35       pdf_crypt_key              00000001800c1c35 f   libmupdf:libmupdf.dll
 0001:000c0c3b       pdf_xobject_resources      00000001800c1c3b f   libmupdf:libmupdf.dll
 0001:000c0c41       pdf_lookup_page_obj        00000001800c1c41 f   libmupdf:libmupdf.dll
 0001:000c0c47       pdf_drop_page_tree         00000001800c1c47 f   libmupdf:libmupdf.dll
 0001:000c0c4d       pdf_page_obj_transform     00000001800c1c4d f   libmupdf:libmupdf.dll
 0001:000c0c53       pdf_page_resources         00000001800c1c53 f   libmupdf:libmupdf.dll
 0001:000c0c59       pdf_run_page_with_usage    00000001800c1c59 f   libmupdf:libmupdf.dll
 0001:000c0c5f       pdf_first_annot            00000001800c1c5f f   libmupdf:libmupdf.dll
 0001:000c0c65       pdf_next_annot             00000001800c1c65 f   libmupdf:libmupdf.dll
 0001:000c0c6b       pdf_annot_obj              00000001800c1c6b f   libmupdf:libmupdf.dll
 0001:000c0c71       pdf_bound_annot            00000001800c1c71 f   libmupdf:libmupdf.dll
 0001:000c0c77       pdf_annot_type             00000001800c1c77 f   libmupdf:libmupdf.dll
 0001:000c0c7d       pdf_load_name_tree         00000001800c1c7d f   libmupdf:libmupdf.dll
 0001:000c0c83       pdf_annot_contents         00000001800c1c83 f   libmupdf:libmupdf.dll
 0001:000c0c89       pdf_annot_field_flags      00000001800c1c89 f   libmupdf:libmupdf.dll
 0001:000c0c8f       pdf_annot_field_label      00000001800c1c8f f   libmupdf:libmupdf.dll
 0001:000c0c95       pdf_is_embedded_file       00000001800c1c95 f   libmupdf:libmupdf.dll
 0001:000c0c9b       pdf_get_embedded_file_params 00000001800c1c9b f   libmupdf:libmupdf.dll
 0001:000c0ca1       pdf_load_embedded_file_contents 00000001800c1ca1 f   libmupdf:libmupdf.dll
 0001:000c0ca7       pdf_annot_ap               00000001800c1ca7 f   libmupdf:libmupdf.dll
 0001:000c0cad       pdf_annot_filespec         00000001800c1cad f   libmupdf:libmupdf.dll
 0001:000c0cb3       pdf_js_supported           00000001800c1cb3 f   libmupdf:libmupdf.dll
 0001:000c0cb9       fz_convert_pixmap_samples  00000001800c1cb9 f   libmupdf:libmupdf.dll
 0001:000c0cbf       install_load_windows_font_funcs 00000001800c1cbf f   libmupdf:libmupdf.dll
 0001:000c0cc5       ar_open_file_w             00000001800c1cc5 f   libmupdf:libmupdf.dll
 0001:000c0ccb       ar_open_istream            00000001800c1ccb f   libmupdf:libmupdf.dll
 0001:000c0cd1       ar_close                   00000001800c1cd1 f   libmupdf:libmupdf.dll
 0001:000c0cd7       ar_close_archive           00000001800c1cd7 f   libmupdf:libmupdf.dll
 0001:000c0cdd       ar_parse_entry             00000001800c1cdd f   libmupdf:libmupdf.dll
 0001:000c0ce3       ar_parse_entry_at          00000001800c1ce3 f   libmupdf:libmupdf.dll
 0001:000c0ce9       ar_at_eof                  00000001800c1ce9 f   libmupdf:libmupdf.dll
 0001:000c0cef       ar_entry_get_name          00000001800c1cef f   libmupdf:libmupdf.dll
 0001:000c0cf5       ar_entry_get_offset        00000001800c1cf5 f   libmupdf:libmupdf.dll
 0001:000c0cfb       ar_entry_get_size          00000001800c1cfb f   libmupdf:libmupdf.dll
 0001:000c0d01       ar_entry_get_filetime      00000001800c1d01 f   libmupdf:libmupdf.dll
 0001:000c0d07       ar_entry_uncompress        00000001800c1d07 f   libmupdf:libmupdf.dll
 0001:000c0d0d       ar_get_global_comment      00000001800c1d0d f   libmupdf:libmupdf.dll
 0001:000c0d13       ar_open_rar_archive        00000001800c1d13 f   libmupdf:libmupdf.dll
 0001:000c0d19       ar_open_tar_archive        00000001800c1d19 f   libmupdf:libmupdf.dll
 0001:000c0d1f       ar_open_zip_archive        00000001800c1d1f f   libmupdf:libmupdf.dll
 0001:000c0d25       ar_open_7z_archive         00000001800c1d25 f   libmupdf:libmupdf.dll
 0001:000c0d2b       WebPGetInfo                00000001800c1d2b f   libmupdf:libmupdf.dll
 0001:000c0d31       WebPDecodeBGRAInto         00000001800c1d31 f   libmupdf:libmupdf.dll
 0001:000c0d38       ??0bad_alloc@std@@QEAA@AEBV01@@Z 00000001800c1d38 f i libcpmt:xthrow.obj
 0001:000c0d84       ??0bad_alloc@std@@QEAA@XZ  00000001800c1d84 f i libcpmt:xthrow.obj
 0001:000c0dac       ??0bad_function_call@std@@QEAA@AEBV01@@Z 00000001800c1dac f i libcpmt:xthrow.obj
 0001:000c0df8       ??0bad_function_call@std@@QEAA@XZ 00000001800c1df8 f i libcpmt:xthrow.obj
 0001:000c0e14       ??0exception@std@@QEAA@AEBV01@@Z 00000001800c1e14 f i libcpmt:xthrow.obj
 0001:000c0e54       ??0exception@std@@QEAA@QEBD@Z 00000001800c1e54 f i libcpmt:xthrow.obj
 0001:000c0ea0       ??0exception@std@@QEAA@QEBDH@Z 00000001800c1ea0 f i libcpmt:xthrow.obj
 0001:000c0ebc       ??0exception@std@@QEAA@XZ  00000001800c1ebc f i libcpmt:xthrow.obj
 0001:000c0ed8       ??0invalid_argument@std@@QEAA@AEBV01@@Z 00000001800c1ed8 f i libcpmt:xthrow.obj
 0001:000c0f24       ??0invalid_argument@std@@QEAA@PEBD@Z 00000001800c1f24 f i libcpmt:xthrow.obj
 0001:000c0f7c       ??0length_error@std@@QEAA@AEBV01@@Z 00000001800c1f7c f i libcpmt:xthrow.obj
 0001:000c0fc8       ??0length_error@std@@QEAA@PEBD@Z 00000001800c1fc8 f i libcpmt:xthrow.obj
 0001:000c1020       ??0logic_error@std@@QEAA@AEBV01@@Z 00000001800c2020 f i libcpmt:xthrow.obj
 0001:000c106c       ??0logic_error@std@@QEAA@PEBD@Z 00000001800c206c f i libcpmt:xthrow.obj
 0001:000c10c4       ??0out_of_range@std@@QEAA@AEBV01@@Z 00000001800c20c4 f i libcpmt:xthrow.obj
 0001:000c1110       ??0out_of_range@std@@QEAA@PEBD@Z 00000001800c2110 f i libcpmt:xthrow.obj
 0001:000c1168       ??0overflow_error@std@@QEAA@AEBV01@@Z 00000001800c2168 f i libcpmt:xthrow.obj
 0001:000c11b4       ??0overflow_error@std@@QEAA@PEBD@Z 00000001800c21b4 f i libcpmt:xthrow.obj
 0001:000c120c       ??0regex_error@std@@QEAA@AEBV01@@Z 00000001800c220c f i libcpmt:xthrow.obj
 0001:000c126c       ??0regex_error@std@@QEAA@W4error_type@regex_constants@1@@Z 00000001800c226c f i libcpmt:xthrow.obj
 0001:000c12ec       ??0runtime_error@std@@QEAA@AEBV01@@Z 00000001800c22ec f i libcpmt:xthrow.obj
 0001:000c1338       ??0runtime_error@std@@QEAA@PEBD@Z 00000001800c2338 f i libcpmt:xthrow.obj
 0001:000c1390       ??1bad_alloc@std@@UEAA@XZ  00000001800c2390 f i libcpmt:xthrow.obj
 0001:000c13a8       ??1bad_function_call@std@@UEAA@XZ 00000001800c23a8 f i libcpmt:xthrow.obj
 0001:000c13c0       ??1exception@std@@UEAA@XZ  00000001800c23c0 f i libcpmt:xthrow.obj
 0001:000c13d8       ??1invalid_argument@std@@UEAA@XZ 00000001800c23d8 f i libcpmt:xthrow.obj
 0001:000c13f0       ??1length_error@std@@UEAA@XZ 00000001800c23f0 f i libcpmt:xthrow.obj
 0001:000c1408       ??1logic_error@std@@UEAA@XZ 00000001800c2408 f i libcpmt:xthrow.obj
 0001:000c1420       ??1out_of_range@std@@UEAA@XZ 00000001800c2420 f i libcpmt:xthrow.obj
 0001:000c1438       ??1overflow_error@std@@UEAA@XZ 00000001800c2438 f i libcpmt:xthrow.obj
 0001:000c1450       ??1regex_error@std@@UEAA@XZ 00000001800c2450 f i libcpmt:xthrow.obj
 0001:000c1468       ??1runtime_error@std@@UEAA@XZ 00000001800c2468 f i libcpmt:xthrow.obj
 0001:000c1480       ??_Ebad_alloc@std@@UEAAPEAXI@Z 00000001800c2480 f i libcpmt:xthrow.obj
 0001:000c1480       ??_Gbad_alloc@std@@UEAAPEAXI@Z 00000001800c2480 f i libcpmt:xthrow.obj
 0001:000c14d4       ??_Ebad_function_call@std@@UEAAPEAXI@Z 00000001800c24d4 f i libcpmt:xthrow.obj
 0001:000c14d4       ??_Gbad_function_call@std@@UEAAPEAXI@Z 00000001800c24d4 f i libcpmt:xthrow.obj
 0001:000c1528       ??_Eexception@std@@UEAAPEAXI@Z 00000001800c2528 f i libcpmt:xthrow.obj
 0001:000c1528       ??_Gexception@std@@UEAAPEAXI@Z 00000001800c2528 f i libcpmt:xthrow.obj
 0001:000c157c       ??_Einvalid_argument@std@@UEAAPEAXI@Z 00000001800c257c f i libcpmt:xthrow.obj
 0001:000c157c       ??_Ginvalid_argument@std@@UEAAPEAXI@Z 00000001800c257c f i libcpmt:xthrow.obj
 0001:000c15d0       ??_Elength_error@std@@UEAAPEAXI@Z 00000001800c25d0 f i libcpmt:xthrow.obj
 0001:000c15d0       ??_Glength_error@std@@UEAAPEAXI@Z 00000001800c25d0 f i libcpmt:xthrow.obj
 0001:000c1624       ??_Elogic_error@std@@UEAAPEAXI@Z 00000001800c2624 f i libcpmt:xthrow.obj
 0001:000c1624       ??_Glogic_error@std@@UEAAPEAXI@Z 00000001800c2624 f i libcpmt:xthrow.obj
 0001:000c1678       ??_Eout_of_range@std@@UEAAPEAXI@Z 00000001800c2678 f i libcpmt:xthrow.obj
 0001:000c1678       ??_Gout_of_range@std@@UEAAPEAXI@Z 00000001800c2678 f i libcpmt:xthrow.obj
 0001:000c16cc       ??_Eoverflow_error@std@@UEAAPEAXI@Z 00000001800c26cc f i libcpmt:xthrow.obj
 0001:000c16cc       ??_Goverflow_error@std@@UEAAPEAXI@Z 00000001800c26cc f i libcpmt:xthrow.obj
 0001:000c1720       ??_Eregex_error@std@@UEAAPEAXI@Z 00000001800c2720 f i libcpmt:xthrow.obj
 0001:000c1720       ??_Gregex_error@std@@UEAAPEAXI@Z 00000001800c2720 f i libcpmt:xthrow.obj
 0001:000c1774       ??_Eruntime_error@std@@UEAAPEAXI@Z 00000001800c2774 f i libcpmt:xthrow.obj
 0001:000c1774       ??_Gruntime_error@std@@UEAAPEAXI@Z 00000001800c2774 f i libcpmt:xthrow.obj
 0001:000c17c8       ?_Stringify@regex_error@std@@CAPEBDW4error_type@regex_constants@2@@Z 00000001800c27c8 f i libcpmt:xthrow.obj
 0001:000c18c8       ?_Xbad_alloc@std@@YAXXZ    00000001800c28c8 f   libcpmt:xthrow.obj
 0001:000c18f0       ?_Xbad_function_call@std@@YAXXZ 00000001800c28f0 f   libcpmt:xthrow.obj
 0001:000c1918       ?_Xinvalid_argument@std@@YAXPEBD@Z 00000001800c2918 f   libcpmt:xthrow.obj
 0001:000c1944       ?_Xlength_error@std@@YAXPEBD@Z 00000001800c2944 f   libcpmt:xthrow.obj
 0001:000c1970       ?_Xout_of_range@std@@YAXPEBD@Z 00000001800c2970 f   libcpmt:xthrow.obj
 0001:000c199c       ?_Xoverflow_error@std@@YAXPEBD@Z 00000001800c299c f   libcpmt:xthrow.obj
 0001:000c19c8       ?_Xregex_error@std@@YAXW4error_type@regex_constants@1@@Z 00000001800c29c8 f   libcpmt:xthrow.obj
 0001:000c19f4       ?_Xruntime_error@std@@YAXPEBD@Z 00000001800c29f4 f   libcpmt:xthrow.obj
 0001:000c1a20       ?what@bad_function_call@std@@UEBAPEBDXZ 00000001800c2a20 f i libcpmt:xthrow.obj
 0001:000c1a2c       ?what@exception@std@@UEBAPEBDXZ 00000001800c2a2c f i libcpmt:xthrow.obj
 0001:000c1a44       ??2@YAPEAX_K@Z             00000001800c2a44 f   LIBCMT:new_scalar.obj
 0001:000c1a90       ??3@YAXPEAX_K@Z            00000001800c2a90 f   LIBCMT:delete_scalar_size.obj
 0001:000c1a98       __GSHandlerCheck           00000001800c2a98 f   LIBCMT:gshandler.obj
 0001:000c1abc       __GSHandlerCheckCommon     00000001800c2abc f   LIBCMT:gshandler.obj
 0001:000c1b40       __security_check_cookie    00000001800c2b40 f   LIBCMT:amdsecgs.obj
 0001:000c1b6c       __raise_securityfailure    00000001800c2b6c f   LIBCMT:gs_report.obj
 0001:000c1bb0       __report_gsfailure         00000001800c2bb0 f   LIBCMT:gs_report.obj
 0001:000c1cb8       __report_rangecheckfailure 00000001800c2cb8 f   LIBCMT:gs_report.obj
 0001:000c1cd4       __report_securityfailure   00000001800c2cd4 f   LIBCMT:gs_report.obj
 0001:000c1d98       __report_securityfailureEx 00000001800c2d98 f   LIBCMT:gs_report.obj
 0001:000c2004       _Init_thread_abort         00000001800c3004 f   LIBCMT:thread_safe_statics.obj
 0001:000c204c       _Init_thread_footer        00000001800c304c f   LIBCMT:thread_safe_statics.obj
 0001:000c20d0       _Init_thread_header        00000001800c30d0 f   LIBCMT:thread_safe_statics.obj
 0001:000c2168       _Init_thread_lock          00000001800c3168 f   LIBCMT:thread_safe_statics.obj
 0001:000c217c       _Init_thread_notify        00000001800c317c f   LIBCMT:thread_safe_statics.obj
 0001:000c2190       _Init_thread_unlock        00000001800c3190 f   LIBCMT:thread_safe_statics.obj
 0001:000c21a4       _Init_thread_wait_v2       00000001800c31a4 f   LIBCMT:thread_safe_statics.obj
 0001:000c21c8       ?configure_argv@__scrt_narrow_argv_policy@@SAHXZ 00000001800c31c8 f i LIBCMT:utility.obj
 0001:000c2240       ?initialize_environment@__scrt_narrow_environment_policy@@SAHXZ 00000001800c3240 f i LIBCMT:utility.obj
 0001:000c2284       NtCurrentTeb               00000001800c3284 f i LIBCMT:utility.obj
 0001:000c2290       __scrt_acquire_startup_lock 00000001800c3290 f   LIBCMT:utility.obj
 0001:000c22d8       __scrt_dllmain_after_initialize_c 00000001800c32d8 f   LIBCMT:utility.obj
 0001:000c231c       __scrt_dllmain_before_initialize_c 00000001800c331c f   LIBCMT:utility.obj
 0001:000c2338       __scrt_dllmain_crt_thread_attach 00000001800c3338 f   LIBCMT:utility.obj
 0001:000c236c       __scrt_dllmain_crt_thread_detach 00000001800c336c f   LIBCMT:utility.obj
 0001:000c2388       __scrt_dllmain_exception_filter 00000001800c3388 f   LIBCMT:utility.obj
 0001:000c2400       __scrt_dllmain_uninitialize_c 00000001800c3400 f   LIBCMT:utility.obj
 0001:000c243c       __scrt_dllmain_uninitialize_critical 00000001800c343c f   LIBCMT:utility.obj
 0001:000c2458       __scrt_initialize_crt      00000001800c3458 f   LIBCMT:utility.obj
 0001:000c24a0       __scrt_initialize_onexit_tables 00000001800c34a0 f   LIBCMT:utility.obj
 0001:000c2550       __scrt_is_nonwritable_in_current_image 00000001800c3550 f   LIBCMT:utility.obj
 0001:000c2610       __scrt_release_startup_lock 00000001800c3610 f   LIBCMT:utility.obj
 0001:000c2640       __scrt_uninitialize_crt    00000001800c3640 f   LIBCMT:utility.obj
 0001:000c2674       _onexit                    00000001800c3674 f   LIBCMT:utility.obj
 0001:000c26bc       at_quick_exit              00000001800c36bc f   LIBCMT:utility.obj
 0001:000c26e0       atexit                     00000001800c36e0 f   LIBCMT:utility.obj
 0001:000c2af0       _CRT_INIT                  00000001800c3af0 f   LIBCMT:dll_dllmain.obj
 0001:000c2af8       _DllMainCRTStartup         00000001800c3af8 f   LIBCMT:dll_dllmain.obj
 0001:000c2b60       __chkstk                   00000001800c3b60 f   LIBCMT:chkstk.obj
 0001:000c2b60       _alloca_probe              00000001800c3b60 f   LIBCMT:chkstk.obj
 0001:000c2bc8       __GSHandlerCheck_EH4       00000001800c3bc8 f   LIBCMT:gshandlereh4.obj
 0001:000c2c68       ??1type_info@@UEAA@XZ      00000001800c3c68 f   LIBCMT:std_type_info_static.obj
 0001:000c2c78       ??_Etype_info@@UEAAPEAXI@Z 00000001800c3c78 f i LIBCMT:std_type_info_static.obj
 0001:000c2c78       ??_Gtype_info@@UEAAPEAXI@Z 00000001800c3c78 f i LIBCMT:std_type_info_static.obj
 0001:000c2cb0       ??_V@YAXPEAX@Z             00000001800c3cb0 f   LIBCMT:delete_array.obj
 0001:000c2cb8       ??_U@YAPEAX_K@Z            00000001800c3cb8 f   LIBCMT:new_array.obj
 0001:000c2cc0       ??_V@YAXPEAX_K@Z           00000001800c3cc0 f   LIBCMT:delete_array_size.obj
 0001:000c2cc8       ??0bad_alloc@std@@AEAA@QEBD@Z 00000001800c3cc8 f i LIBCMT:throw_bad_alloc.obj
 0001:000c2ce4       ??0bad_array_new_length@std@@QEAA@AEBV01@@Z 00000001800c3ce4 f i LIBCMT:throw_bad_alloc.obj
 0001:000c2d30       ??0bad_array_new_length@std@@QEAA@XZ 00000001800c3d30 f i LIBCMT:throw_bad_alloc.obj
 0001:000c2d58       ??1bad_array_new_length@std@@UEAA@XZ 00000001800c3d58 f i LIBCMT:throw_bad_alloc.obj
 0001:000c2d70       ??_Ebad_array_new_length@std@@UEAAPEAXI@Z 00000001800c3d70 f i LIBCMT:throw_bad_alloc.obj
 0001:000c2d70       ??_Gbad_array_new_length@std@@UEAAPEAXI@Z 00000001800c3d70 f i LIBCMT:throw_bad_alloc.obj
 0001:000c2dc4       ?__scrt_throw_std_bad_alloc@@YAXXZ 00000001800c3dc4 f   LIBCMT:throw_bad_alloc.obj
 0001:000c2dec       ?__scrt_throw_std_bad_array_new_length@@YAXXZ 00000001800c3dec f   LIBCMT:throw_bad_alloc.obj
 0001:000c2e14       ??3@YAXPEAX@Z              00000001800c3e14 f   LIBCMT:delete_scalar.obj
 0001:000c2e1c       __isa_available_init       00000001800c3e1c f   LIBCMT:cpu_disp.obj
 0001:000c3198       _get_startup_argv_mode     00000001800c4198 f   LIBCMT:argv_mode.obj
 0001:000c31a0       __scrt_is_ucrt_dll_in_use  00000001800c41a0 f   LIBCMT:ucrt_detection.obj
 0001:000c31b0       __crt_debugger_hook        00000001800c41b0 f   LIBCMT:utility_desktop.obj
 0001:000c31bc       __scrt_fastfail            00000001800c41bc f   LIBCMT:utility_desktop.obj
 0001:000c3358       __scrt_get_show_window_mode 00000001800c4358 f   LIBCMT:utility_desktop.obj
 0001:000c33a0       __scrt_initialize_mta      00000001800c43a0 f   LIBCMT:utility_desktop.obj
 0001:000c33a8       __scrt_initialize_winrt    00000001800c43a8 f   LIBCMT:utility_desktop.obj
 0001:000c33ac       __scrt_is_managed_app      00000001800c43ac f   LIBCMT:utility_desktop.obj
 0001:000c3414       __scrt_set_unhandled_exception_filter 00000001800c4414 f   LIBCMT:utility_desktop.obj
 0001:000c3428       __scrt_exe_initialize_mta  00000001800c4428 f   LIBCMT:utility_desktop.obj
 0001:000c3428       __scrt_stub_for_initialize_mta 00000001800c4428 f   LIBCMT:utility_desktop.obj
 0001:000c342c       __scrt_unhandled_exception_filter 00000001800c442c f   LIBCMT:utility_desktop.obj
 0001:000c34a0       _guard_check_icall_nop     00000001800c44a0 f i LIBCMT:guard_support.obj
 0001:000c34a4       ReadNoFence64              00000001800c44a4 f i LIBCMT:guard_support.obj
 0001:000c34a8       ReadPointerNoFence         00000001800c44a8 f i LIBCMT:guard_support.obj
 0001:000c34ac       __castguard_check_failure_debugbreak 00000001800c44ac f i LIBCMT:guard_support.obj
 0001:000c34d0       __castguard_check_failure_fastfail 00000001800c44d0 f i LIBCMT:guard_support.obj
 0001:000c34fc       __castguard_check_failure_nop 00000001800c44fc f i LIBCMT:guard_support.obj
 0001:000c3500       __castguard_check_failure_os_handled 00000001800c4500 f i LIBCMT:guard_support.obj
 0001:000c355c       __castguard_check_failure_user_handled 00000001800c455c f i LIBCMT:guard_support.obj
 0001:000c35e8       __castguard_set_user_handler 00000001800c45e8 f i LIBCMT:guard_support.obj
 0001:000c35f8       __castguard_slow_path_check_debugbreak 00000001800c45f8 f i LIBCMT:guard_support.obj
 0001:000c363c       __castguard_slow_path_check_fastfail 00000001800c463c f i LIBCMT:guard_support.obj
 0001:000c3684       __castguard_slow_path_check_nop 00000001800c4684 f i LIBCMT:guard_support.obj
 0001:000c3688       __castguard_slow_path_check_os_handled 00000001800c4688 f i LIBCMT:guard_support.obj
 0001:000c36e8       __castguard_slow_path_check_user_handled 00000001800c46e8 f i LIBCMT:guard_support.obj
 0001:000c376c       _guard_icall_checks_enforced 00000001800c476c f i LIBCMT:guard_support.obj
 0001:000c3788       _guard_rf_checks_enforced  00000001800c4788 f i LIBCMT:guard_support.obj
 0001:000c3814       __security_init_cookie     00000001800c4814 f   LIBCMT:gs_support.obj
 0001:000c38ec       ?__scrt_initialize_type_info@@YAXXZ 00000001800c48ec f   LIBCMT:tncleanup.obj
 0001:000c3900       ?__scrt_uninitialize_type_info@@YAXXZ 00000001800c4900 f   LIBCMT:tncleanup.obj
 0001:000c3910       __scrt_initialize_default_local_stdio_options 00000001800c4910 f   LIBCMT:default_local_stdio_options.obj
 0001:000c3934       __scrt_get_dyn_tls_init_callback 00000001800c4934 f   LIBCMT:dyn_tls_init.obj
 0001:000c3940       _RTC_Initialize            00000001800c4940 f   LIBCMT:initsect.obj
 0001:000c398c       _RTC_Terminate             00000001800c498c f   LIBCMT:initsect.obj
 0001:000c39e0       SetSuspendState            00000001800c49e0 f   PowrProf:POWRPROF.dll
 0001:000c39f0       ?_com_dispatch_method@@YAJPEAUIDispatch@@JGGPEAXPEB_WZZ 00000001800c49f0 f   comsuppw:comsupp.obj
 0001:000c3a60       ?_com_dispatch_propget@@YAJPEAUIDispatch@@JGPEAX@Z 00000001800c4a60 f   comsuppw:comsupp.obj
 0001:000c3aa0       ?_com_dispatch_propput@@YAJPEAUIDispatch@@JGZZ 00000001800c4aa0 f   comsuppw:comsupp.obj
 0001:000c3b50       ?_com_issue_error@@YAXJ@Z  00000001800c4b50 f   comsuppw:comsupp.obj
 0001:000c3b70       ?_com_issue_errorex@@YAXJPEAUIUnknown@@AEBU_GUID@@@Z 00000001800c4b70 f   comsuppw:comsupp.obj
 0001:000c3c50       ?_set_com_error_handler@@YAXP6AXJPEAUIErrorInfo@@@Z@Z 00000001800c4c50 f   comsuppw:comsupp.obj
 0001:000c3c60       ??0_variant_t@@QEAA@JG@Z   00000001800c4c60 f i comsuppw:comutil.obj
 0001:000c3ce0       ??1_variant_t@@QEAA@XZ     00000001800c4ce0 f i comsuppw:comutil.obj
 0001:000c3cf0       ?ConvertBSTRToString@_com_util@@YAPEADPEA_W@Z 00000001800c4cf0 f   comsuppw:comutil.obj
 0001:000c3e50       ?ConvertStringToBSTR@_com_util@@YAPEA_WPEBD@Z 00000001800c4e50 f   comsuppw:comutil.obj
 0001:000c4050       ?HRESULT_FROM_WIN32@@YAJK@Z 00000001800c5050 f i comsuppw:comutil.obj
 0001:000c4070       ??0_com_error@@QEAA@AEBV0@@Z 00000001800c5070 f i comsuppw:comraise.obj
 0001:000c40d0       ??0_com_error@@QEAA@JPEAUIErrorInfo@@_N@Z 00000001800c50d0 f i comsuppw:comraise.obj
 0001:000c4130       ??1_com_error@@UEAA@XZ     00000001800c5130 f i comsuppw:comraise.obj
 0001:000c4190       ??_E_com_error@@UEAAPEAXI@Z 00000001800c5190 f i comsuppw:comraise.obj
 0001:000c4190       ??_G_com_error@@UEAAPEAXI@Z 00000001800c5190 f i comsuppw:comraise.obj
 0001:000c4210       ?_com_raise_error@@YAXJPEAUIErrorInfo@@@Z 00000001800c5210 f   comsuppw:comraise.obj
 0001:000c4250       ?_com_dispatch_raw_method@@YAJPEAUIDispatch@@JGGPEAXPEB_WZZ 00000001800c5250 f   comsuppw:invkprxy.obj
 0001:000c42b0       ?_com_dispatch_raw_propget@@YAJPEAUIDispatch@@JGPEAX@Z 00000001800c52b0 f   comsuppw:invkprxy.obj
 0001:000c42f0       ?_com_dispatch_raw_propput@@YAJPEAUIDispatch@@JGZZ 00000001800c52f0 f   comsuppw:invkprxy.obj
 0001:000c43a0       ?_com_invoke_helper@@YAJPEAUIDispatch@@JGGPEAXPEB_WPEADPEAPEAUIErrorInfo@@@Z 00000001800c53a0 f   comsuppw:invkprxy.obj
 0001:000c4cf0       ?WCodeToHRESULT@_com_error@@SAJG@Z 00000001800c5cf0 f i comsuppw:invkerr.obj
 0001:000c4d10       ?_com_handle_excepinfo@@YAJAEAUtagEXCEPINFO@@PEAPEAUIErrorInfo@@@Z 00000001800c5d10 f   comsuppw:invkerr.obj
 0001:000c4ee0       ??$__crt_interlocked_exchange_pointer@$$A6AXXZP6AXXZ@@YAP6AXXZPEDS6AXXZQ6AXXZ@Z 00000001800c5ee0 f i libvcruntime:purevirt.obj
 0001:000c4ee8       ??$__crt_interlocked_read_pointer@$$A6AXXZ@@YAP6AXXZPEDS6AXXZ@Z 00000001800c5ee8 f i libvcruntime:purevirt.obj
 0001:000c4ef0       ?__crt_interlocked_read_64@@YA_JPED_J@Z 00000001800c5ef0 f i libvcruntime:purevirt.obj
 0001:000c4ef8       _get_purecall_handler      00000001800c5ef8 f   libvcruntime:purevirt.obj
 0001:000c4f04       _purecall                  00000001800c5f04 f   libvcruntime:purevirt.obj
 0001:000c4f24       _set_purecall_handler      00000001800c5f24 f   libvcruntime:purevirt.obj
 0001:000c4f34       wcschr                     00000001800c5f34 f   libvcruntime:wcschr.obj
 0001:000c4fd0       strchr                     00000001800c5fd0 f   libvcruntime:strchr.obj
 0001:000c506c       strrchr                    00000001800c606c f   libvcruntime:strrchr.obj
 0001:000c51f4       strstr                     00000001800c61f4 f   libvcruntime:strstr.obj
 0001:000c545c       wcsstr                     00000001800c645c f   libvcruntime:wcsstr.obj
 0001:000c56f0       ??$?0AEAViterator@TryBlockMap4@FH4@@AEAV012@$0A@@?$pair@Viterator@TryBlockMap4@FH4@@V123@@std@@QEAA@AEAViterator@TryBlockMap4@FH4@@0@Z 00000001800c66f0 f i libvcruntime:risctrnsctrl.obj
 0001:000c570c       ??$?0AEAViterator@TryBlockMap@__FrameHandler3@@AEAV012@$0A@@?$pair@Viterator@TryBlockMap@__FrameHandler3@@V123@@std@@QEAA@AEAViterator@TryBlockMap@__FrameHandler3@@0@Z 00000001800c670c f i libvcruntime:risctrnsctrl.obj
 0001:000c58f4       ??$_CallSETranslator@V__FrameHandler3@@@@YAHPEAUEHExceptionRecord@@PEA_KPEAU_CONTEXT@@PEAU_xDISPATCHER_CONTEXT@@PEBU_s_FuncInfo@@K1H@Z 00000001800c68f4 f i libvcruntime:risctrnsctrl.obj
 0001:000c595c       ??$_CallSETranslator@V__FrameHandler4@@@@YAHPEAUEHExceptionRecord@@PEA_KPEAU_CONTEXT@@PEAU_xDISPATCHER_CONTEXT@@PEAUFuncInfo4@FH4@@K1H@Z 00000001800c695c f i libvcruntime:risctrnsctrl.obj
 0001:000c59c4       ??$forward@AEAViterator@TryBlockMap4@FH4@@@std@@YAAEAViterator@TryBlockMap4@FH4@@AEAV123@@Z 00000001800c69c4 f i libvcruntime:risctrnsctrl.obj
 0001:000c59c8       ??$forward@AEAViterator@TryBlockMap@__FrameHandler3@@@std@@YAAEAViterator@TryBlockMap@__FrameHandler3@@AEAV123@@Z 00000001800c69c8 f i libvcruntime:risctrnsctrl.obj
 0001:000c59cc       ??0FuncInfo4@FH4@@QEAA@XZ  00000001800c69cc f i libvcruntime:risctrnsctrl.obj
 0001:000c59e4       ??0FuncInfoHeader@FH4@@QEAA@XZ 00000001800c69e4 f i libvcruntime:risctrnsctrl.obj
 0001:000c59ec       ??0iterator@TryBlockMap4@FH4@@QEAA@AEAV12@I@Z 00000001800c69ec f i libvcruntime:risctrnsctrl.obj
 0001:000c59fc       ??0iterator@TryBlockMap@__FrameHandler3@@QEAA@AEAV12@I@Z 00000001800c69fc f i libvcruntime:risctrnsctrl.obj
 0001:000c5a0c       ??4iterator@TryBlockMap4@FH4@@QEAAAEAV012@AEBV012@@Z 00000001800c6a0c f i libvcruntime:risctrnsctrl.obj
 0001:000c5a18       ??9iterator@TryBlockMap4@FH4@@QEBA_NAEBV012@@Z 00000001800c6a18 f i libvcruntime:risctrnsctrl.obj
 0001:000c5a24       ??Diterator@TryBlockMap4@FH4@@QEAA?AUTryBlockMapEntry4@2@XZ 00000001800c6a24 f i libvcruntime:risctrnsctrl.obj
 0001:000c5a38       ??Eiterator@TryBlockMap4@FH4@@QEAAAEAV012@XZ 00000001800c6a38 f i libvcruntime:risctrnsctrl.obj
 0001:000c5afc       ?CatchTryBlock@__FrameHandler3@@SAPEBU_s_TryBlockMapEntry@@PEBU_s_FuncInfo@@H@Z 00000001800c6afc f   libvcruntime:risctrnsctrl.obj
 0001:000c5b78       ?DecompFuncInfo@FH4@@YA_JPEAEAEAUFuncInfo4@1@_KH@Z 00000001800c6b78 f i libvcruntime:risctrnsctrl.obj
 0001:000c5b90       ?DecompFuncInfo@FH4@@YA_JPEAEAEAUFuncInfo4@1@_KH_N@Z 00000001800c6b90 f i libvcruntime:risctrnsctrl.obj
 0001:000c5d14       ?DecompTryBlock@TryBlockMap4@FH4@@AEAAXXZ 00000001800c6d14 f i libvcruntime:risctrnsctrl.obj
 0001:000c5dcc       ?ExecutionInCatch@__FrameHandler3@@SA_NPEAU_xDISPATCHER_CONTEXT@@PEBU_s_FuncInfo@@@Z 00000001800c6dcc f   libvcruntime:risctrnsctrl.obj
 0001:000c5e00       ?ExecutionInCatch@__FrameHandler4@@SA_NPEAU_xDISPATCHER_CONTEXT@@PEAUFuncInfo4@FH4@@@Z 00000001800c6e00 f   libvcruntime:risctrnsctrl.obj
 0001:000c5e08       ?FrameUnwindToEmptyState@__FrameHandler3@@SAXPEA_KPEAU_xDISPATCHER_CONTEXT@@PEBU_s_FuncInfo@@@Z 00000001800c6e08 f   libvcruntime:risctrnsctrl.obj
 0001:000c5e88       ?FrameUnwindToEmptyState@__FrameHandler4@@SAXPEA_KPEAU_xDISPATCHER_CONTEXT@@PEAUFuncInfo4@FH4@@@Z 00000001800c6e88 f   libvcruntime:risctrnsctrl.obj
 0001:000c5ec8       ?GetEstablisherFrame@__FrameHandler3@@SAPEA_KPEA_KPEAU_xDISPATCHER_CONTEXT@@PEBU_s_FuncInfo@@0@Z 00000001800c6ec8 f   libvcruntime:risctrnsctrl.obj
 0001:000c5fcc       ?GetEstablisherFrame@__FrameHandler4@@SAPEA_KPEA_KPEAU_xDISPATCHER_CONTEXT@@PEAUFuncInfo4@FH4@@0@Z 00000001800c6fcc f   libvcruntime:risctrnsctrl.obj
 0001:000c5ff8       ?GetRangeOfTrysToCheck@__FrameHandler3@@SA?AU?$pair@Viterator@TryBlockMap@__FrameHandler3@@V123@@std@@AEAVTryBlockMap@1@HPEAU_xDISPATCHER_CONTEXT@@PEBU_s_FuncInfo@@H@Z 00000001800c6ff8 f   libvcruntime:risctrnsctrl.obj
 0001:000c6178       ?GetRangeOfTrysToCheck@__FrameHandler4@@SA?AU?$pair@Viterator@TryBlockMap4@FH4@@V123@@std@@AEAVTryBlockMap4@FH4@@HPEAU_xDISPATCHER_CONTEXT@@PEAUFuncInfo4@5@H@Z 00000001800c7178 f   libvcruntime:risctrnsctrl.obj
 0001:000c633c       ?ReadInt@FH4@@YAHPEAPEAE@Z 00000001800c733c f i libvcruntime:risctrnsctrl.obj
 0001:000c634c       ?ReadUnsigned@FH4@@YAIPEAPEAE@Z 00000001800c734c f i libvcruntime:risctrnsctrl.obj
 0001:000c6388       ?UnwindNestedFrames@__FrameHandler3@@SAXPEA_KPEAUEHExceptionRecord@@PEAU_CONTEXT@@0PEAXPEBU_s_FuncInfo@@HHPEBU_s_HandlerType@@PEAU_xDISPATCHER_CONTEXT@@E@Z 00000001800c7388 f   libvcruntime:risctrnsctrl.obj
 0001:000c64cc       ?UnwindNestedFrames@__FrameHandler4@@SAXPEA_KPEAUEHExceptionRecord@@PEAU_CONTEXT@@0PEAXPEAUFuncInfo4@FH4@@HHPEAUHandlerType4@5@PEAU_xDISPATCHER_CONTEXT@@E@Z 00000001800c74cc f   libvcruntime:risctrnsctrl.obj
 0001:000c6634       ?begin@TryBlockMap4@FH4@@QEAA?AViterator@12@XZ 00000001800c7634 f i libvcruntime:risctrnsctrl.obj
 0001:000c6644       ?end@TryBlockMap4@FH4@@QEAA?AViterator@12@XZ 00000001800c7644 f i libvcruntime:risctrnsctrl.obj
 0001:000c6654       ?imageRelToByteBuffer@FH4@@YAPEAE_KH@Z 00000001800c7654 f i libvcruntime:risctrnsctrl.obj
 0001:000c665c       ?incrementToSentinel@iterator@TryBlockMap4@FH4@@QEAAXXZ 00000001800c765c f i libvcruntime:risctrnsctrl.obj
 0001:000c6660       ?setBuffer@TryBlockMap4@FH4@@QEAAXViterator@12@@Z 00000001800c7660 f i libvcruntime:risctrnsctrl.obj
 0001:000c6894       _CreateFrameInfo           00000001800c7894 f   libvcruntime:risctrnsctrl.obj
 0001:000c68dc       _FindAndUnlinkFrame        00000001800c78dc f   libvcruntime:risctrnsctrl.obj
 0001:000c6944       _GetImageBase              00000001800c7944 f   libvcruntime:risctrnsctrl.obj
 0001:000c695c       _GetThrowImageBase         00000001800c795c f   libvcruntime:risctrnsctrl.obj
 0001:000c6974       _SetImageBase              00000001800c7974 f   libvcruntime:risctrnsctrl.obj
 0001:000c6994       _SetThrowImageBase         00000001800c7994 f   libvcruntime:risctrnsctrl.obj
 0001:000c69b4       __CxxFrameHandler          00000001800c79b4 f   libvcruntime:risctrnsctrl.obj
 0001:000c69bc       __CxxFrameHandler2         00000001800c79bc f   libvcruntime:risctrnsctrl.obj
 0001:000c69c4       __CxxFrameHandler3         00000001800c79c4 f   libvcruntime:risctrnsctrl.obj
 0001:000c6a6c       __CxxFrameHandler4         00000001800c7a6c f   libvcruntime:risctrnsctrl.obj
 0001:000c6b5c       _CxxThrowException         00000001800c7b5c f   libvcruntime:throw.obj
 0001:000c6c2c       wcsrchr                    00000001800c7c2c f   libvcruntime:wcsrchr.obj
 0001:000c6d08       ??$?RD@__crt_public_free_policy@@QEBAXQEBD@Z 00000001800c7d08 f i libvcruntime:std_exception.obj
 0001:000c6d14       ??0?$__crt_unique_heap_ptr@DU__crt_public_free_policy@@@@QEAA@QEAD@Z 00000001800c7d14 f i libvcruntime:std_exception.obj
 0001:000c6d1c       ??1?$__crt_unique_heap_ptr@DU__crt_public_free_policy@@@@QEAA@XZ 00000001800c7d1c f i libvcruntime:std_exception.obj
 0001:000c6d40       ??B?$__crt_unique_heap_ptr@DU__crt_public_free_policy@@@@QEBA_NXZ 00000001800c7d40 f i libvcruntime:std_exception.obj
 0001:000c6d4c       ?detach@?$__crt_unique_heap_ptr@DU__crt_public_free_policy@@@@QEAAPEADXZ 00000001800c7d4c f i libvcruntime:std_exception.obj
 0001:000c6d58       ?get@?$__crt_unique_heap_ptr@DU__crt_public_free_policy@@@@QEBAPEADXZ 00000001800c7d58 f i libvcruntime:std_exception.obj
 0001:000c6d5c       ?is_valid@?$__crt_unique_heap_ptr@DU__crt_public_free_policy@@@@QEBA_NXZ 00000001800c7d5c f i libvcruntime:std_exception.obj
 0001:000c6d68       ?release@?$__crt_unique_heap_ptr@DU__crt_public_free_policy@@@@QEAAXXZ 00000001800c7d68 f i libvcruntime:std_exception.obj
 0001:000c6d8c       __std_exception_copy       00000001800c7d8c f   libvcruntime:std_exception.obj
 0001:000c6e3c       __std_exception_destroy    00000001800c7e3c f   libvcruntime:std_exception.obj
 0001:000c6e70       __vcrt_initialize          00000001800c7e70 f   libvcruntime:initialization.obj
 0001:000c6ea4       __vcrt_thread_attach       00000001800c7ea4 f   libvcruntime:initialization.obj
 0001:000c6ec0       __vcrt_thread_detach       00000001800c7ec0 f   libvcruntime:initialization.obj
 0001:000c6ed4       __vcrt_uninitialize        00000001800c7ed4 f   libvcruntime:initialization.obj
 0001:000c6ef4       __vcrt_uninitialize_critical 00000001800c7ef4 f   libvcruntime:initialization.obj
 0001:000c6f0c       __C_specific_handler       00000001800c7f0c f   libvcruntime:riscchandler.obj
 0001:000c71a8       __DestructExceptionObject  00000001800c81a8 f   libvcruntime:ehhelpers.obj
 0001:000c7230       ?_CallMemberFunction0@@YAXQEAX0@Z 00000001800c8230 f i libvcruntime:ehhelpers.obj
 0001:000c72a4       ?raw_name@type_info@@QEBAPEBDXZ 00000001800c82a4 f i libvcruntime:ehhelpers.obj
 0001:000c72ac       _IsExceptionObjectToBeDestroyed 00000001800c82ac f   libvcruntime:ehhelpers.obj
 0001:000c72e8       _SetWinRTOutOfMemoryExceptionCallback 00000001800c82e8 f   libvcruntime:ehhelpers.obj
 0001:000c72f4       __AdjustPointer            00000001800c82f4 f   libvcruntime:ehhelpers.obj
 0001:000c7320       __FrameUnwindFilter        00000001800c8320 f   libvcruntime:ehhelpers.obj
 0001:000c73a0       __GetPlatformExceptionInfo 00000001800c83a0 f   libvcruntime:ehhelpers.obj
 0001:000c7414       __current_exception        00000001800c8414 f   libvcruntime:ehhelpers.obj
 0001:000c742c       __current_exception_context 00000001800c842c f   libvcruntime:ehhelpers.obj
 0001:000c7444       __processing_throw         00000001800c8444 f   libvcruntime:ehhelpers.obj
 0001:000c745c       __std_terminate            00000001800c845c f   libvcruntime:ehhelpers.obj
 0001:000c7468       _is_exception_typeof       00000001800c8468 f   libvcruntime:ehhelpers.obj
 0001:000c7548       ??$?RD@__crt_internal_free_policy@@QEBAXQEBD@Z 00000001800c8548 f i libvcruntime:std_type_info.obj
 0001:000c7554       ??$?RX@__crt_internal_free_policy@@QEBAXQEBX@Z 00000001800c8554 f i libvcruntime:std_type_info.obj
 0001:000c7560       ??$__crt_interlocked_compare_exchange_pointer@$$CBDPEAD$$T@@YAPEBDPEDSEBDQEAD$$T@Z 00000001800c8560 f i libvcruntime:std_type_info.obj
 0001:000c756c       ??$__crt_interlocked_read_pointer@$$CBD@@YAPEBDPEDSEBD@Z 00000001800c856c f i libvcruntime:std_type_info.obj
 0001:000c7574       ??0?$__crt_unique_heap_ptr@DU__crt_internal_free_policy@@@@QEAA@QEAD@Z 00000001800c8574 f i libvcruntime:std_type_info.obj
 0001:000c757c       ??0?$__crt_unique_heap_ptr@XU__crt_internal_free_policy@@@@QEAA@QEAX@Z 00000001800c857c f i libvcruntime:std_type_info.obj
 0001:000c7584       ??1?$__crt_unique_heap_ptr@DU__crt_internal_free_policy@@@@QEAA@XZ 00000001800c8584 f i libvcruntime:std_type_info.obj
 0001:000c75a8       ??1?$__crt_unique_heap_ptr@XU__crt_internal_free_policy@@@@QEAA@XZ 00000001800c85a8 f i libvcruntime:std_type_info.obj
 0001:000c75cc       ??B?$__crt_unique_heap_ptr@DU__crt_internal_free_policy@@@@QEBA_NXZ 00000001800c85cc f i libvcruntime:std_type_info.obj
 0001:000c75d8       ??B?$__crt_unique_heap_ptr@XU__crt_internal_free_policy@@@@QEBA_NXZ 00000001800c85d8 f i libvcruntime:std_type_info.obj
 0001:000c75fc       ?detach@?$__crt_unique_heap_ptr@XU__crt_internal_free_policy@@@@QEAAPEAXXZ 00000001800c85fc f i libvcruntime:std_type_info.obj
 0001:000c7608       ?get@?$__crt_unique_heap_ptr@DU__crt_internal_free_policy@@@@QEBAPEADXZ 00000001800c8608 f i libvcruntime:std_type_info.obj
 0001:000c760c       ?get@?$__crt_unique_heap_ptr@XU__crt_internal_free_policy@@@@QEBAPEAXXZ 00000001800c860c f i libvcruntime:std_type_info.obj
 0001:000c7610       ?is_valid@?$__crt_unique_heap_ptr@DU__crt_internal_free_policy@@@@QEBA_NXZ 00000001800c8610 f i libvcruntime:std_type_info.obj
 0001:000c761c       ?is_valid@?$__crt_unique_heap_ptr@XU__crt_internal_free_policy@@@@QEBA_NXZ 00000001800c861c f i libvcruntime:std_type_info.obj
 0001:000c7628       ?release@?$__crt_unique_heap_ptr@DU__crt_internal_free_policy@@@@QEAAXXZ 00000001800c8628 f i libvcruntime:std_type_info.obj
 0001:000c764c       ?release@?$__crt_unique_heap_ptr@XU__crt_internal_free_policy@@@@QEAAXXZ 00000001800c864c f i libvcruntime:std_type_info.obj
 0001:000c7670       __std_type_info_compare    00000001800c8670 f   libvcruntime:std_type_info.obj
 0001:000c76a0       __std_type_info_destroy_list 00000001800c86a0 f   libvcruntime:std_type_info.obj
 0001:000c76d4       __std_type_info_hash       00000001800c86d4 f   libvcruntime:std_type_info.obj
 0001:000c771c       __std_type_info_name       00000001800c871c f   libvcruntime:std_type_info.obj
 0001:000c7878       ??$?RU__vcrt_ptd@@@__crt_internal_free_policy@@QEBAXQEBU__vcrt_ptd@@@Z 00000001800c8878 f i libvcruntime:per_thread_data.obj
 0001:000c7884       ??0?$__crt_unique_heap_ptr@U__vcrt_ptd@@U__crt_internal_free_policy@@@@QEAA@QEAU__vcrt_ptd@@@Z 00000001800c8884 f i libvcruntime:per_thread_data.obj
 0001:000c78ac       ??1?$__crt_unique_heap_ptr@U__vcrt_ptd@@U__crt_internal_free_policy@@@@QEAA@XZ 00000001800c88ac f i libvcruntime:per_thread_data.obj
 0001:000c78dc       ??B?$__crt_unique_heap_ptr@U__vcrt_ptd@@U__crt_internal_free_policy@@@@QEBA_NXZ 00000001800c88dc f i libvcruntime:per_thread_data.obj
 0001:000c78e8       ?detach@?$__crt_unique_heap_ptr@U__vcrt_ptd@@U__crt_internal_free_policy@@@@QEAAPEAU__vcrt_ptd@@XZ 00000001800c88e8 f i libvcruntime:per_thread_data.obj
 0001:000c78f4       ?get@?$__crt_unique_heap_ptr@U__vcrt_ptd@@U__crt_internal_free_policy@@@@QEBAPEAU__vcrt_ptd@@XZ 00000001800c88f4 f i libvcruntime:per_thread_data.obj
 0001:000c78f8       ?is_valid@?$__crt_unique_heap_ptr@U__vcrt_ptd@@U__crt_internal_free_policy@@@@QEBA_NXZ 00000001800c88f8 f i libvcruntime:per_thread_data.obj
 0001:000c7904       ?release@?$__crt_unique_heap_ptr@U__vcrt_ptd@@U__crt_internal_free_policy@@@@QEAAXXZ 00000001800c8904 f i libvcruntime:per_thread_data.obj
 0001:000c795c       __vcrt_freefls             00000001800c895c f   libvcruntime:per_thread_data.obj
 0001:000c7984       __vcrt_freeptd_for_this_thread 00000001800c8984 f   libvcruntime:per_thread_data.obj
 0001:000c79dc       __vcrt_getptd              00000001800c89dc f   libvcruntime:per_thread_data.obj
 0001:000c79fc       __vcrt_getptd_noexit       00000001800c89fc f   libvcruntime:per_thread_data.obj
 0001:000c7aec       __vcrt_getptd_noinit       00000001800c8aec f   libvcruntime:per_thread_data.obj
 0001:000c7b4c       __vcrt_initialize_ptd      00000001800c8b4c f   libvcruntime:per_thread_data.obj
 0001:000c7ba4       __vcrt_uninitialize_ptd    00000001800c8ba4 f   libvcruntime:per_thread_data.obj
 0001:000c7bd0       ?GetCurrentState@__FrameHandler3@@SAHPEA_KPEAU_xDISPATCHER_CONTEXT@@PEBU_s_FuncInfo@@@Z 00000001800c8bd0 f   libvcruntime:ehstate.obj
 0001:000c7c00       ?GetUnwindTryBlock@__FrameHandler3@@SAHPEA_KPEAU_xDISPATCHER_CONTEXT@@PEBU_s_FuncInfo@@@Z 00000001800c8c00 f   libvcruntime:ehstate.obj
 0001:000c7c34       ?SetState@__FrameHandler3@@SAXPEA_KPEBU_s_FuncInfo@@H@Z 00000001800c8c34 f   libvcruntime:ehstate.obj
 0001:000c7c44       ?SetUnwindTryBlock@__FrameHandler3@@SAXPEA_KPEAU_xDISPATCHER_CONTEXT@@PEBU_s_FuncInfo@@H@Z 00000001800c8c44 f   libvcruntime:ehstate.obj
 0001:000c7c90       ?StateFromControlPc@__FrameHandler3@@SAHPEBU_s_FuncInfo@@PEAU_xDISPATCHER_CONTEXT@@@Z 00000001800c8c90 f   libvcruntime:ehstate.obj
 0001:000c7c9c       ?StateFromControlPc@__FrameHandler4@@SAHPEAUFuncInfo4@FH4@@PEAU_xDISPATCHER_CONTEXT@@@Z 00000001800c8c9c f   libvcruntime:ehstate.obj
 0001:000c7ca8       ?StateFromIp@__FrameHandler3@@SAHPEBU_s_FuncInfo@@PEAU_xDISPATCHER_CONTEXT@@_K@Z 00000001800c8ca8 f   libvcruntime:ehstate.obj
 0001:000c7d28       ?StateFromIp@__FrameHandler4@@SAHPEAUFuncInfo4@FH4@@PEAU_xDISPATCHER_CONTEXT@@_K@Z 00000001800c8d28 f   libvcruntime:ehstate.obj
 0001:000c7e50       ?__FuncRelToRealOffset@@YA_KPEAU_xDISPATCHER_CONTEXT@@I@Z 00000001800c8e50 f i libvcruntime:ehstate.obj
 0001:000c7e64       ?__RVAtoRealOffset@@YA_KPEAU_xDISPATCHER_CONTEXT@@H@Z 00000001800c8e64 f i libvcruntime:ehstate.obj
 0001:000c9a70       ??$TypeMatchHelper@V__FrameHandler3@@@@YAHPEBU_s_HandlerType@@PEBU_s_CatchableType@@PEBU_s_ThrowInfo@@@Z 00000001800caa70 f i libvcruntime:frame.obj
 0001:000c9bfc       ??$TypeMatchHelper@V__FrameHandler4@@@@YAHPEAUHandlerType4@FH4@@PEBU_s_CatchableType@@PEBU_s_ThrowInfo@@@Z 00000001800cabfc f i libvcruntime:frame.obj
 0001:000c9d9c       ??$__InternalCxxFrameHandler@V__FrameHandler3@@@@YA?AW4_EXCEPTION_DISPOSITION@@PEAUEHExceptionRecord@@PEA_KPEAU_CONTEXT@@PEAU_xDISPATCHER_CONTEXT@@PEBU_s_FuncInfo@@H1E@Z 00000001800cad9c f i libvcruntime:frame.obj
 0001:000ca060       ??$__InternalCxxFrameHandler@V__FrameHandler4@@@@YA?AW4_EXCEPTION_DISPOSITION@@PEAUEHExceptionRecord@@PEA_KPEAU_CONTEXT@@PEAU_xDISPATCHER_CONTEXT@@PEAUFuncInfo4@FH4@@H1E@Z 00000001800cb060 f i libvcruntime:frame.obj
 0001:000ca39c       ??$__InternalCxxFrameHandlerWrapper@V__FrameHandler3@@@@YA?AW4_EXCEPTION_DISPOSITION@@PEAUEHExceptionRecord@@PEA_KPEAU_CONTEXT@@PEAU_xDISPATCHER_CONTEXT@@PEBU_s_FuncInfo@@H1E@Z 00000001800cb39c f i libvcruntime:frame.obj
 0001:000ca3a4       ??$__InternalCxxFrameHandlerWrapper@V__FrameHandler4@@@@YA?AW4_EXCEPTION_DISPOSITION@@PEAUEHExceptionRecord@@PEA_KPEAU_CONTEXT@@PEAU_xDISPATCHER_CONTEXT@@PEAUFuncInfo4@FH4@@H1E@Z 00000001800cb3a4 f i libvcruntime:frame.obj
 0001:000ca404       ??0HandlerMap4@FH4@@QEAA@PEBUTryBlockMapEntry4@1@_KH@Z 00000001800cb404 f i libvcruntime:frame.obj
 0001:000ca4a8       ??0HandlerMap@__FrameHandler3@@QEAA@PEBU_s_TryBlockMapEntry@@_KI@Z 00000001800cb4a8 f i libvcruntime:frame.obj
 0001:000ca4c4       ??0HandlerType4@FH4@@QEAA@XZ 00000001800cb4c4 f i libvcruntime:frame.obj
 0001:000ca4e0       ??0TryBlockMap4@FH4@@QEAA@PEBUFuncInfo4@1@_K@Z 00000001800cb4e0 f i libvcruntime:frame.obj
 0001:000ca600       ??0TryBlockMap@__FrameHandler3@@QEAA@PEBU_s_FuncInfo@@_K@Z 00000001800cb600 f i libvcruntime:frame.obj
 0001:000ca610       ??0UWMap4@FH4@@QEAA@PEBUFuncInfo4@1@_K@Z 00000001800cb610 f i libvcruntime:frame.obj
 0001:000ca670       ??0bad_exception@std@@QEAA@AEBV01@@Z 00000001800cb670 f i libvcruntime:frame.obj
 0001:000ca6bc       ??0bad_exception@std@@QEAA@XZ 00000001800cb6bc f i libvcruntime:frame.obj
 0001:000ca6e4       ??0iterator@HandlerMap4@FH4@@QEAA@AEAV12@I@Z 00000001800cb6e4 f i libvcruntime:frame.obj
 0001:000ca6f4       ??0iterator@HandlerMap@__FrameHandler3@@QEAA@AEAV12@I@Z 00000001800cb6f4 f i libvcruntime:frame.obj
 0001:000ca704       ??0iterator@UWMap4@FH4@@QEAA@AEAV12@PEAE@Z 00000001800cb704 f i libvcruntime:frame.obj
 0001:000ca714       ??1bad_exception@std@@UEAA@XZ 00000001800cb714 f i libvcruntime:frame.obj
 0001:000ca72c       ??4iterator@UWMap4@FH4@@QEAAAEAV012@AEBV012@@Z 00000001800cb72c f i libvcruntime:frame.obj
 0001:000ca754       ??8iterator@HandlerMap4@FH4@@QEBA_NAEBV012@@Z 00000001800cb754 f i libvcruntime:frame.obj
 0001:000ca760       ??8iterator@HandlerMap@__FrameHandler3@@QEBA_NAEBV012@@Z 00000001800cb760 f i libvcruntime:frame.obj
 0001:000ca76c       ??8type_info@@QEBA_NAEBV0@@Z 00000001800cb76c f i libvcruntime:frame.obj
 0001:000ca790       ??9iterator@HandlerMap4@FH4@@QEBA_NAEBV012@@Z 00000001800cb790 f i libvcruntime:frame.obj
 0001:000ca79c       ??9iterator@HandlerMap@__FrameHandler3@@QEBA_NAEBV012@@Z 00000001800cb79c f i libvcruntime:frame.obj
 0001:000ca7a8       ??Diterator@HandlerMap4@FH4@@QEAA?AUHandlerType4@2@XZ 00000001800cb7a8 f i libvcruntime:frame.obj
 0001:000ca7d0       ??Diterator@HandlerMap@__FrameHandler3@@QEAA?BU_s_HandlerType@@XZ 00000001800cb7d0 f i libvcruntime:frame.obj
 0001:000ca7fc       ??Diterator@TryBlockMap@__FrameHandler3@@QEAA?BU_s_TryBlockMapEntry@@XZ 00000001800cb7fc f i libvcruntime:frame.obj
 0001:000ca834       ??Diterator@UWMap4@FH4@@QEAA?AUUnwindMapEntry4@2@XZ 00000001800cb834 f i libvcruntime:frame.obj
 0001:000ca89c       ??Eiterator@HandlerMap4@FH4@@QEAAAEAV012@XZ 00000001800cb89c f i libvcruntime:frame.obj
 0001:000ca8c0       ??Eiterator@HandlerMap@__FrameHandler3@@QEAAAEAV012@XZ 00000001800cb8c0 f i libvcruntime:frame.obj
 0001:000ca8c8       ??Eiterator@TryBlockMap@__FrameHandler3@@QEAAAEAV012@XZ 00000001800cb8c8 f i libvcruntime:frame.obj
 0001:000ca8d0       ??Eiterator@UWMap4@FH4@@QEAAAEAV012@XZ 00000001800cb8d0 f i libvcruntime:frame.obj
 0001:000ca8f8       ??Giterator@UWMap4@FH4@@QEBA_JAEBV012@@Z 00000001800cb8f8 f i libvcruntime:frame.obj
 0001:000ca904       ??Miterator@TryBlockMap4@FH4@@QEBA_NAEBV012@@Z 00000001800cb904 f i libvcruntime:frame.obj
 0001:000ca910       ??Miterator@TryBlockMap@__FrameHandler3@@QEBA_NAEBV012@@Z 00000001800cb910 f i libvcruntime:frame.obj
 0001:000ca91c       ??Oiterator@UWMap4@FH4@@QEBA_NAEBV012@@Z 00000001800cb91c f i libvcruntime:frame.obj
 0001:000ca92c       ??Piterator@UWMap4@FH4@@QEBA_NAEBV012@@Z 00000001800cb92c f i libvcruntime:frame.obj
 0001:000ca93c       ??_Ebad_exception@std@@UEAAPEAXI@Z 00000001800cb93c f i libvcruntime:frame.obj
 0001:000ca93c       ??_Gbad_exception@std@@UEAAPEAXI@Z 00000001800cb93c f i libvcruntime:frame.obj
 0001:000ca990       ?BuildCatchObject@__FrameHandler3@@SAXPEAUEHExceptionRecord@@PEAXPEBU_s_HandlerType@@PEBU_s_CatchableType@@@Z 00000001800cb990 f   libvcruntime:frame.obj
 0001:000ca998       ?BuildCatchObject@__FrameHandler4@@SAXPEAUEHExceptionRecord@@PEAXPEAUHandlerType4@FH4@@PEBU_s_CatchableType@@@Z 00000001800cb998 f   libvcruntime:frame.obj
 0001:000ca9a0       ?BuildCatchObjectHelper@__FrameHandler3@@SAHPEAUEHExceptionRecord@@PEAXPEBU_s_HandlerType@@PEBU_s_CatchableType@@@Z 00000001800cb9a0 f   libvcruntime:frame.obj
 0001:000ca9a8       ?BuildCatchObjectHelper@__FrameHandler4@@SAHPEAUEHExceptionRecord@@PEAXPEAUHandlerType4@FH4@@PEBU_s_CatchableType@@@Z 00000001800cb9a8 f   libvcruntime:frame.obj
 0001:000ca9b0       ?CxxCallCatchBlock@__FrameHandler3@@SAPEAXPEAU_EXCEPTION_RECORD@@@Z 00000001800cb9b0 f   libvcruntime:frame.obj
 0001:000cac14       ?CxxCallCatchBlock@__FrameHandler4@@SAPEAXPEAU_EXCEPTION_RECORD@@@Z 00000001800cbc14 f   libvcruntime:frame.obj
 0001:000caef4       ?DecompHandler@HandlerMap4@FH4@@AEAAXXZ 00000001800cbef4 f i libvcruntime:frame.obj
 0001:000cb1d0       ?FrameUnwindToState@__FrameHandler3@@SAXPEA_KPEAU_xDISPATCHER_CONTEXT@@PEBU_s_FuncInfo@@H@Z 00000001800cc1d0 f   libvcruntime:frame.obj
 0001:000cb3bc       ?FrameUnwindToState@__FrameHandler4@@SAXPEA_KPEAU_xDISPATCHER_CONTEXT@@PEAUFuncInfo4@FH4@@H@Z 00000001800cc3bc f   libvcruntime:frame.obj
 0001:000cb784       ?GetHandlerSearchState@__FrameHandler3@@SAHPEA_KPEAU_xDISPATCHER_CONTEXT@@PEBU_s_FuncInfo@@@Z 00000001800cc784 f i libvcruntime:frame.obj
 0001:000cb840       ?GetHandlerSearchState@__FrameHandler4@@SAHPEA_KPEAU_xDISPATCHER_CONTEXT@@PEAUFuncInfo4@FH4@@@Z 00000001800cc840 f i libvcruntime:frame.obj
 0001:000cb8bc       ?GetMaxState@__FrameHandler3@@SAHPEAU_xDISPATCHER_CONTEXT@@PEBU_s_FuncInfo@@@Z 00000001800cc8bc f i libvcruntime:frame.obj
 0001:000cb8c0       ?GetMaxState@__FrameHandler4@@SAHPEAU_xDISPATCHER_CONTEXT@@PEAUFuncInfo4@FH4@@@Z 00000001800cc8c0 f i libvcruntime:frame.obj
 0001:000cbadc       ?ReadEntry@UWMap4@FH4@@AEAAXPEAPEAE@Z 00000001800ccadc f i libvcruntime:frame.obj
 0001:000cbba0       ?TypeMatch@__FrameHandler3@@SAHPEBU_s_HandlerType@@PEBU_s_CatchableType@@PEBU_s_ThrowInfo@@@Z 00000001800ccba0 f   libvcruntime:frame.obj
 0001:000cbba8       ?TypeMatch@__FrameHandler4@@SAHPEAUHandlerType4@FH4@@PEBU_s_CatchableType@@PEBU_s_ThrowInfo@@@Z 00000001800ccba8 f   libvcruntime:frame.obj
 0001:000cbbb0       ?WalkBack@UWMap4@FH4@@AEAAXPEAPEAE@Z 00000001800ccbb0 f i libvcruntime:frame.obj
 0001:000cbbf4       ?WalkBack@iterator@UWMap4@FH4@@QEAAXXZ 00000001800ccbf4 f i libvcruntime:frame.obj
 0001:000cbc40       ?WalkForward@UWMap4@FH4@@AEAAXPEAPEAE@Z 00000001800ccc40 f i libvcruntime:frame.obj
 0001:000cbc48       ?_CallMemberFunction1@@YAXQEAX00@Z 00000001800ccc48 f i libvcruntime:frame.obj
 0001:000cbc54       ?_CallMemberFunction2@@YAXQEAX00H@Z 00000001800ccc54 f i libvcruntime:frame.obj
 0001:000cbc84       ?begin@HandlerMap4@FH4@@QEAA?AViterator@12@XZ 00000001800ccc84 f i libvcruntime:frame.obj
 0001:000cbc94       ?begin@HandlerMap@__FrameHandler3@@QEAA?AViterator@12@XZ 00000001800ccc94 f i libvcruntime:frame.obj
 0001:000cbca4       ?begin@UWMap4@FH4@@QEAA?AViterator@12@XZ 00000001800ccca4 f i libvcruntime:frame.obj
 0001:000cbcb8       ?end@HandlerMap4@FH4@@QEAA?AViterator@12@XZ 00000001800cccb8 f i libvcruntime:frame.obj
 0001:000cbcc8       ?end@HandlerMap@__FrameHandler3@@QEAA?AViterator@12@XZ 00000001800cccc8 f i libvcruntime:frame.obj
 0001:000cbcd8       ?getESTypes@__FrameHandler3@@SAPEBU_s_ESTypeList@@PEBU_s_FuncInfo@@@Z 00000001800cccd8 f i libvcruntime:frame.obj
 0001:000cbd0c       ?getESTypes@__FrameHandler4@@SAPEBU_s_ESTypeList@@PEAUFuncInfo4@FH4@@@Z 00000001800ccd0c f i libvcruntime:frame.obj
 0001:000cbd10       ?getLastEntry@HandlerMap4@FH4@@QEAAPEAUHandlerType4@2@XZ 00000001800ccd10 f i libvcruntime:frame.obj
 0001:000cbd74       ?getLastEntry@HandlerMap@__FrameHandler3@@QEAAPEBU_s_HandlerType@@XZ 00000001800ccd74 f i libvcruntime:frame.obj
 0001:000cbd8c       ?getMagicNum@__FrameHandler3@@SAIPEBU_s_FuncInfo@@@Z 00000001800ccd8c f i libvcruntime:frame.obj
 0001:000cbd98       ?getMagicNum@__FrameHandler4@@SAIPEAUFuncInfo4@FH4@@@Z 00000001800ccd98 f i libvcruntime:frame.obj
 0001:000cbda0       ?getNumTryBlocks@TryBlockMap4@FH4@@QEAAIXZ 00000001800ccda0 f i libvcruntime:frame.obj
 0001:000cbda4       ?getNumTryBlocks@TryBlockMap@__FrameHandler3@@QEAAIXZ 00000001800ccda4 f i libvcruntime:frame.obj
 0001:000cbdac       ?getStartStop@UWMap4@FH4@@QEAAXHHAEAViterator@12@0@Z 00000001800ccdac f i libvcruntime:frame.obj
 0001:000cbeb0       ?getStateFromIterators@UWMap4@FH4@@SAHAEBViterator@12@H0H0@Z 00000001800cceb0 f i libvcruntime:frame.obj
 0001:000cbf8c       ?isEHs@__FrameHandler3@@SA_NPEBU_s_FuncInfo@@@Z 00000001800ccf8c f i libvcruntime:frame.obj
 0001:000cbf94       ?isEHs@__FrameHandler4@@SA_NPEAUFuncInfo4@FH4@@@Z 00000001800ccf94 f i libvcruntime:frame.obj
 0001:000cbfa0       ?isNoExcept@__FrameHandler3@@SA_NPEBU_s_FuncInfo@@@Z 00000001800ccfa0 f i libvcruntime:frame.obj
 0001:000cbfac       ?isNoExcept@__FrameHandler4@@SA_NPEAUFuncInfo4@FH4@@@Z 00000001800ccfac f i libvcruntime:frame.obj
 0001:000cbfb8       ?reset@HandlerType4@FH4@@QEAAXXZ 00000001800ccfb8 f i libvcruntime:frame.obj
 0001:000cbfd4       ?resetBuffer@HandlerMap4@FH4@@QEAAXXZ 00000001800ccfd4 f i libvcruntime:frame.obj
 0001:000cbfe4       ?setBuffer@HandlerMap4@FH4@@QEAAXI@Z 00000001800ccfe4 f i libvcruntime:frame.obj
 0001:000cc02c       __BuildCatchObject         00000001800cd02c f   libvcruntime:frame.obj
 0001:000cc034       __BuildCatchObjectHelper   00000001800cd034 f   libvcruntime:frame.obj
 0001:000cc03c       __TypeMatch                00000001800cd03c f   libvcruntime:frame.obj
 0001:000cc044       __vcrt_EncodePointer       00000001800cd044 f i libvcruntime:frame.obj
 0001:000cc04c       __vcrt_initialize_locks    00000001800cd04c f   libvcruntime:locks.obj
 0001:000cc0a4       __vcrt_lock                00000001800cd0a4 f   libvcruntime:locks.obj
 0001:000cc0c4       __vcrt_uninitialize_locks  00000001800cd0c4 f   libvcruntime:locks.obj
 0001:000cc108       __vcrt_unlock              00000001800cd108 f   libvcruntime:locks.obj
 0001:000cc170       _NLG_Notify                00000001800cd170 f   libvcruntime:notify.obj
 0001:000cc1a0       __NLG_Dispatch2            00000001800cd1a0 f   libvcruntime:notify.obj
 0001:000cc1b0       __NLG_Return2              00000001800cd1b0 f   libvcruntime:notify.obj
 0001:000cc1bc       __except_validate_context_record 00000001800cd1bc f   libvcruntime:jbcxrval.obj
 0001:000cc200       __except_validate_jump_buffer 00000001800cd200 f   libvcruntime:jbcxrval.obj
 0001:000cc250       __except_validate_jump_buffer_common 00000001800cd250 f i libvcruntime:jbcxrval.obj
 0001:000cc2c4       ??$?0$00@DName@@QEAA@PEBDU?$StringLifeSelector@$00@@@Z 00000001800cd2c4 f i libvcruntime:undname.obj
 0001:000cc314       ??$?0$00@pcharNode@@QEAA@PEBDHU?$StringLifeSelector@$00@@@Z 00000001800cd314 f i libvcruntime:undname.obj
 0001:000cc330       ??$?0$01@DName@@QEAA@PEBDU?$StringLifeSelector@$01@@@Z 00000001800cd330 f i libvcruntime:undname.obj
 0001:000cc380       ??$?0$01@pcharNode@@QEAA@PEBDHU?$StringLifeSelector@$01@@@Z 00000001800cd380 f i libvcruntime:undname.obj
 0001:000cc410       ??$?0$0A@@DName@@QEAA@PEBDU?$StringLifeSelector@$0A@@@@Z 00000001800cd410 f i libvcruntime:undname.obj
 0001:000cc460       ??$?0$0A@@pcharNode@@QEAA@PEBDHU?$StringLifeSelector@$0A@@@@Z 00000001800cd460 f i libvcruntime:undname.obj
 0001:000cc4f0       ??$?0_K$0A@@?$optional@_K@std@@QEAA@$$QEA_K@Z 00000001800cd4f0 f i libvcruntime:undname.obj
 0001:000cc504       ??$?0_K@?$_Optional_construct_base@_K@std@@QEAA@Uin_place_t@1@$$QEA_K@Z 00000001800cd504 f i libvcruntime:undname.obj
 0001:000cc518       ??$?0_K@?$_Optional_destruct_base@_K$00@std@@QEAA@Uin_place_t@1@$$QEA_K@Z 00000001800cd518 f i libvcruntime:undname.obj
 0001:000cc52c       ??$append@VDNameNode@@@DName@@AEAAXPEBVDNameNode@@@Z 00000001800cd52c f i libvcruntime:undname.obj
 0001:000cc5a8       ??$append@VDNameStatusNode@@@DName@@AEAAXPEBVDNameStatusNode@@@Z 00000001800cd5a8 f i libvcruntime:undname.obj
 0001:000cc624       ??$append@VcharNode@@@DName@@AEAAXPEBVcharNode@@@Z 00000001800cd624 f i libvcruntime:undname.obj
 0001:000cc6a0       ??$append@VpDNameNode@@@DName@@AEAAXPEBVpDNameNode@@@Z 00000001800cd6a0 f i libvcruntime:undname.obj
 0001:000cc71c       ??$append@VpcharNode@@@DName@@AEAAXPEBVpcharNode@@@Z 00000001800cd71c f i libvcruntime:undname.obj
 0001:000cc798       ??$doPchar@$00@DName@@AEAAXPEBDH@Z 00000001800cd798 f i libvcruntime:undname.obj
 0001:000cc854       ??$doPchar@$01@DName@@AEAAXPEBDH@Z 00000001800cd854 f i libvcruntime:undname.obj
 0001:000cc910       ??$doPchar@$0A@@DName@@AEAAXPEBDH@Z 00000001800cd910 f i libvcruntime:undname.obj
 0001:000cc9cc       ??$forward@_K@std@@YA$$QEA_KAEA_K@Z 00000001800cd9cc f i libvcruntime:undname.obj
 0001:000ccb30       ??0?$_Optional_construct_base@_K@std@@QEAA@XZ 00000001800cdb30 f i libvcruntime:undname.obj
 0001:000ccb3c       ??0?$_Optional_destruct_base@_K$00@std@@QEAA@XZ 00000001800cdb3c f i libvcruntime:undname.obj
 0001:000ccb48       ??0?$optional@_K@std@@QEAA@XZ 00000001800cdb48 f i libvcruntime:undname.obj
 0001:000ccb54       ??0Block@_HeapManager@@QEAA@XZ 00000001800cdb54 f i libvcruntime:undname.obj
 0001:000ccb60       ??0DName@@QEAA@AEAPEBDD@Z  00000001800cdb60 f   libvcruntime:undname.obj
 0001:000ccc40       ??0DName@@QEAA@AEBUStringLiteral@@@Z 00000001800cdc40 f   libvcruntime:undname.obj
 0001:000ccc78       ??0DName@@QEAA@AEBV0@@Z    00000001800cdc78 f i libvcruntime:undname.obj
 0001:000ccc8c       ??0DName@@QEAA@D@Z         00000001800cdc8c f   libvcruntime:undname.obj
 0001:000cccb4       ??0DName@@QEAA@PEAV0@@Z    00000001800cdcb4 f   libvcruntime:undname.obj
 0001:000ccd58       ??0DName@@QEAA@W4DNameStatus@@@Z 00000001800cdd58 f   libvcruntime:undname.obj
 0001:000ccd94       ??0DName@@QEAA@XZ          00000001800cdd94 f i libvcruntime:undname.obj
 0001:000ccda4       ??0DName@@QEAA@_J@Z        00000001800cdda4 f   libvcruntime:undname.obj
 0001:000cce70       ??0DName@@QEAA@_K@Z        00000001800cde70 f   libvcruntime:undname.obj
 0001:000ccf1c       ??0DNameNode@@IEAA@XZ      00000001800cdf1c f i libvcruntime:undname.obj
 0001:000ccf30       ??0Replicator@@QEAA@XZ     00000001800cdf30 f i libvcruntime:undname.obj
 0001:000ccf6c       ??0UnDecorator@@QEAA@PEBDP6APEADJ@ZK@Z 00000001800cdf6c f i libvcruntime:undname.obj
 0001:000cd040       ??0_Nontrivial_dummy_type@std@@QEAA@XZ 00000001800ce040 f i libvcruntime:undname.obj
 0001:000cd044       ??0charNode@@QEAA@D@Z      00000001800ce044 f i libvcruntime:undname.obj
 0001:000cd05c       ??0pDNameNode@@QEAA@PEAVDName@@@Z 00000001800ce05c f   libvcruntime:undname.obj
 0001:000cd08c       ??0pairNode@@QEAA@PEBVDNameNode@@0@Z 00000001800ce08c f i libvcruntime:undname.obj
 0001:000cd0b4       ??2@YAPEAX_KAEAV_HeapManager@@H@Z 00000001800ce0b4 f   libvcruntime:undname.obj
 0001:000cd0e8       ??4DName@@QEAAAEAV0@AEBUStringLiteral@@@Z 00000001800ce0e8 f   libvcruntime:undname.obj
 0001:000cd118       ??4DName@@QEAAAEAV0@AEBV0@@Z 00000001800ce118 f   libvcruntime:undname.obj
 0001:000cd12c       ??4DName@@QEAAAEAV0@D@Z    00000001800ce12c f i libvcruntime:undname.obj
 0001:000cd154       ??4DName@@QEAAAEAV0@PEAV0@@Z 00000001800ce154 f   libvcruntime:undname.obj
 0001:000cd1e8       ??4DName@@QEAAAEAV0@W4DNameStatus@@@Z 00000001800ce1e8 f   libvcruntime:undname.obj
 0001:000cd210       ??AReplicator@@QEBA?AVDName@@H@Z 00000001800ce210 f   libvcruntime:undname.obj
 0001:000cd260       ??B?$optional@_K@std@@QEBA_NXZ 00000001800ce260 f i libvcruntime:undname.obj
 0001:000cd264       ??D?$_Optional_construct_base@_K@std@@QEGAAAEA_KXZ 00000001800ce264 f i libvcruntime:undname.obj
 0001:000cd268       ??H@YA?AVDName@@AEBUStringLiteral@@AEBV0@@Z 00000001800ce268 f i libvcruntime:undname.obj
 0001:000cd2ac       ??H@YA?AVDName@@DAEBV0@@Z  00000001800ce2ac f i libvcruntime:undname.obj
 0001:000cd300       ??H@YA?AVDName@@W4DNameStatus@@AEBV0@@Z 00000001800ce300 f i libvcruntime:undname.obj
 0001:000cd344       ??HDName@@QEBA?AV0@AEBUStringLiteral@@@Z 00000001800ce344 f   libvcruntime:undname.obj
 0001:000cd378       ??HDName@@QEBA?AV0@AEBV0@@Z 00000001800ce378 f   libvcruntime:undname.obj
 0001:000cd3ac       ??HDName@@QEBA?AV0@D@Z     00000001800ce3ac f   libvcruntime:undname.obj
 0001:000cd3e0       ??HDName@@QEBA?AV0@PEAV0@@Z 00000001800ce3e0 f   libvcruntime:undname.obj
 0001:000cd414       ??HDName@@QEBA?AV0@W4DNameStatus@@@Z 00000001800ce414 f   libvcruntime:undname.obj
 0001:000cd448       ??HStringLiteral@@QEBA?AU0@H@Z 00000001800ce448 f i libvcruntime:undname.obj
 0001:000cd464       ??YDName@@QEAAAEAV0@AEBUStringLiteral@@@Z 00000001800ce464 f   libvcruntime:undname.obj
 0001:000cd504       ??YDName@@QEAAAEAV0@AEBV0@@Z 00000001800ce504 f   libvcruntime:undname.obj
 0001:000cd5e4       ??YDName@@QEAAAEAV0@D@Z    00000001800ce5e4 f   libvcruntime:undname.obj
 0001:000cd66c       ??YDName@@QEAAAEAV0@PEAV0@@Z 00000001800ce66c f   libvcruntime:undname.obj
 0001:000cd724       ??YDName@@QEAAAEAV0@W4DNameStatus@@@Z 00000001800ce724 f   libvcruntime:undname.obj
 0001:000cd7ac       ??YReplicator@@QEAAAEAV0@AEBVDName@@@Z 00000001800ce7ac f   libvcruntime:undname.obj
 0001:000cd81c       ??_5DName@@QEAAAEAV0@AEBV0@@Z 00000001800ce81c f   libvcruntime:undname.obj
 0001:000cd83c       ??__K_l@@YA?AUStringLiteral@@PEBD_K@Z 00000001800ce83c f i libvcruntime:undname.obj
 0001:000cd84c       ?Constructor@_HeapManager@@QEAAXP6APEAX_K@ZP6AXPEAX@Z@Z 00000001800ce84c f i libvcruntime:undname.obj
 0001:000cd868       ?Destructor@_HeapManager@@QEAAXXZ 00000001800ce868 f i libvcruntime:undname.obj
 0001:000cd8c4       ?UScore@UnDecorator@@SA?AUStringLiteral@@W4Tokens@@@Z 00000001800ce8c4 f   libvcruntime:undname.obj
 0001:000cd924       ?composeDeclaration@UnDecorator@@CA?AVDName@@AEBV2@@Z 00000001800ce924 f i libvcruntime:undname.obj
 0001:000cecd8       ?doAccessSpecifiers@UnDecorator@@SAHXZ 00000001800cfcd8 f i libvcruntime:undname.obj
 0001:000cecec       ?doAllocationLanguage@UnDecorator@@SAHXZ 00000001800cfcec f i libvcruntime:undname.obj
 0001:000ced00       ?doAllocationModel@UnDecorator@@SAHXZ 00000001800cfd00 f i libvcruntime:undname.obj
 0001:000ced14       ?doEcsu@UnDecorator@@SAHXZ 00000001800cfd14 f i libvcruntime:undname.obj
 0001:000ced28       ?doEllipsis@UnDecorator@@SAHXZ 00000001800cfd28 f i libvcruntime:undname.obj
 0001:000ced3c       ?doFunctionReturns@UnDecorator@@SAHXZ 00000001800cfd3c f i libvcruntime:undname.obj
 0001:000ced50       ?doMSKeywords@UnDecorator@@SAHXZ 00000001800cfd50 f i libvcruntime:undname.obj
 0001:000ced64       ?doMemberTypes@UnDecorator@@SAHXZ 00000001800cfd64 f i libvcruntime:undname.obj
 0001:000ced78       ?doNameOnly@UnDecorator@@SAHXZ 00000001800cfd78 f i libvcruntime:undname.obj
 0001:000ced88       ?doNoIdentCharCheck@UnDecorator@@SAHXZ 00000001800cfd88 f i libvcruntime:undname.obj
 0001:000ced98       ?doPchar@DName@@AEAAXD@Z   00000001800cfd98 f   libvcruntime:undname.obj
 0001:000cedfc       ?doPtr64@UnDecorator@@SAHXZ 00000001800cfdfc f i libvcruntime:undname.obj
 0001:000cee10       ?doRestrictionSpec@UnDecorator@@SAHXZ 00000001800cfe10 f i libvcruntime:undname.obj
 0001:000cee24       ?doThisTypes@UnDecorator@@SAHXZ 00000001800cfe24 f i libvcruntime:undname.obj
 0001:000cee3c       ?doThrowTypes@UnDecorator@@SAHXZ 00000001800cfe3c f i libvcruntime:undname.obj
 0001:000cee50       ?doTypeOnly@UnDecorator@@SAHXZ 00000001800cfe50 f i libvcruntime:undname.obj
 0001:000cee60       ?doUnderScore@UnDecorator@@SAHXZ 00000001800cfe60 f i libvcruntime:undname.obj
 0001:000cee70       ?getAddressOf@UnDecorator@@CA?AVDName@@XZ 00000001800cfe70 f   libvcruntime:undname.obj
 0001:000cef24       ?getArgumentList@UnDecorator@@CA?AVDName@@XZ 00000001800cff24 f   libvcruntime:undname.obj
 0001:000cf11c       ?getArgumentTypes@UnDecorator@@CA?AVDName@@XZ 00000001800d011c f   libvcruntime:undname.obj
 0001:000cf2bc       ?getArrayAccess@UnDecorator@@CA?AVDName@@XZ 00000001800d02bc f   libvcruntime:undname.obj
 0001:000cf37c       ?getArrayObject@UnDecorator@@CA?AVDName@@XZ 00000001800d037c f   libvcruntime:undname.obj
 0001:000cf480       ?getArrayType@UnDecorator@@CA?AVDName@@AEBV2@@Z 00000001800d0480 f i libvcruntime:undname.obj
 0001:000cf774       ?getBasedType@UnDecorator@@CA?AVDName@@XZ 00000001800d0774 f   libvcruntime:undname.obj
 0001:000cf8a8       ?getBasicDataType@UnDecorator@@CA?AVDName@@AEBV2@@Z 00000001800d08a8 f   libvcruntime:undname.obj
 0001:000d002c       ?getCHPEName@UnDecorator@@QEAAPEADPEADH@Z 00000001800d102c f i libvcruntime:undname.obj
 0001:000d0190       ?getCallIndex@UnDecorator@@CA?AVDName@@XZ 00000001800d1190 f i libvcruntime:undname.obj
 0001:000d01b0       ?getCallingConvention@UnDecorator@@CA?AVDName@@XZ 00000001800d11b0 f   libvcruntime:undname.obj
 0001:000d0318       ?getDataIndirectType@UnDecorator@@CA?AVDName@@AEBV2@W4IndirectionKind@@0H@Z 00000001800d1318 f   libvcruntime:undname.obj
 0001:000d1078       ?getDataIndirectType@UnDecorator@@CA?AVDName@@XZ 00000001800d2078 f i libvcruntime:undname.obj
 0001:000d10c0       ?getDataType@UnDecorator@@CA?AVDName@@PEAV2@@Z 00000001800d20c0 f   libvcruntime:undname.obj
 0001:000d1218       ?getDecoratedName@UnDecorator@@CA?AVDName@@XZ 00000001800d2218 f   libvcruntime:undname.obj
 0001:000d15b8       ?getDimension@UnDecorator@@CA?AVDName@@_N@Z 00000001800d25b8 f   libvcruntime:undname.obj
 0001:000d1754       ?getDispatchTarget@UnDecorator@@CA?AVDName@@XZ 00000001800d2754 f   libvcruntime:undname.obj
 0001:000d17c8       ?getDisplacement@UnDecorator@@CA?AVDName@@XZ 00000001800d27c8 f i libvcruntime:undname.obj
 0001:000d17e8       ?getECSUDataType@UnDecorator@@CA?AVDName@@XZ 00000001800d27e8 f   libvcruntime:undname.obj
 0001:000d1a60       ?getECSUName@UnDecorator@@CA?AVDName@@XZ 00000001800d2a60 f i libvcruntime:undname.obj
 0001:000d1a7c       ?getEnumType@UnDecorator@@CA?AVDName@@XZ 00000001800d2a7c f i libvcruntime:undname.obj
 0001:000d1bec       ?getExtendedDataIndirectType@UnDecorator@@CA?AVDName@@AEAW4IndirectionKind@@AEA_NH@Z 00000001800d2bec f   libvcruntime:undname.obj
 0001:000d1ef8       ?getExternalDataType@UnDecorator@@CA?AVDName@@AEBV2@@Z 00000001800d2ef8 f i libvcruntime:undname.obj
 0001:000d1fe8       ?getFloatingPoint@UnDecorator@@CA?AVDName@@H@Z 00000001800d2fe8 f   libvcruntime:undname.obj
 0001:000d21a8       ?getFunctionIndirectType@UnDecorator@@CA?AVDName@@AEBV2@@Z 00000001800d31a8 f   libvcruntime:undname.obj
 0001:000d282c       ?getGuardNumber@UnDecorator@@CA?AVDName@@XZ 00000001800d382c f i libvcruntime:undname.obj
 0001:000d284c       ?getLastChar@DName@@QEBADXZ 00000001800d384c f i libvcruntime:undname.obj
 0001:000d286c       ?getLastChar@DNameStatusNode@@UEBADXZ 00000001800d386c f i libvcruntime:undname.obj
 0001:000d287c       ?getLastChar@charNode@@UEBADXZ 00000001800d387c f i libvcruntime:undname.obj
 0001:000d2880       ?getLastChar@pDNameNode@@UEBADXZ 00000001800d3880 f i libvcruntime:undname.obj
 0001:000d28b4       ?getLastChar@pairNode@@UEBADXZ 00000001800d38b4 f i libvcruntime:undname.obj
 0001:000d28f8       ?getLastChar@pcharNode@@UEBADXZ 00000001800d38f8 f i libvcruntime:undname.obj
 0001:000d2914       ?getLexicalFrame@UnDecorator@@CA?AVDName@@XZ 00000001800d3914 f i libvcruntime:undname.obj
 0001:000d2990       ?getMemberAccess@UnDecorator@@CA?AVDName@@XZ 00000001800d3990 f   libvcruntime:undname.obj
 0001:000d2a48       ?getMemoryWithBuffer@_HeapManager@@QEAAPEAX_K@Z 00000001800d3a48 f   libvcruntime:undname.obj
 0001:000d2afc       ?getMemoryWithoutBuffer@_HeapManager@@QEAAPEAX_K@Z 00000001800d3afc f   libvcruntime:undname.obj
 0001:000d2b14       ?getNoexcept@UnDecorator@@CA?AVDName@@XZ 00000001800d3b14 f   libvcruntime:undname.obj
 0001:000d2b90       ?getNumberOfDimensions@UnDecorator@@CAHXZ 00000001800d3b90 f   libvcruntime:undname.obj
 0001:000d2c00       ?getOperatorName@UnDecorator@@CA?AVDName@@_NPEA_N@Z 00000001800d3c00 f i libvcruntime:undname.obj
 0001:000d3804       ?getPointerToMember@UnDecorator@@CA?AVDName@@XZ 00000001800d4804 f   libvcruntime:undname.obj
 0001:000d3938       ?getPointerType@UnDecorator@@CA?AVDName@@AEBV2@0@Z 00000001800d4938 f i libvcruntime:undname.obj
 0001:000d395c       ?getPointerTypeArray@UnDecorator@@CA?AVDName@@AEBV2@0@Z 00000001800d495c f i libvcruntime:undname.obj
 0001:000d397c       ?getPrimaryDataType@UnDecorator@@CA?AVDName@@AEBV2@@Z 00000001800d497c f   libvcruntime:undname.obj
 0001:000d3ce4       ?getPtrRefDataType@UnDecorator@@CA?AVDName@@AEBV2@H@Z 00000001800d4ce4 f   libvcruntime:undname.obj
 0001:000d3f24       ?getPtrRefType@UnDecorator@@CA?AVDName@@AEBV2@0W4IndirectionKind@@@Z 00000001800d4f24 f   libvcruntime:undname.obj
 0001:000d4184       ?getReferenceType@UnDecorator@@CA?AVDName@@AEBV2@0W4IndirectionKind@@@Z 00000001800d5184 f i libvcruntime:undname.obj
 0001:000d41a0       ?getRestrictionSpec@UnDecorator@@CA?AVDName@@XZ 00000001800d51a0 f   libvcruntime:undname.obj
 0001:000d43f0       ?getReturnType@UnDecorator@@CA?AVDName@@PEAV2@@Z 00000001800d53f0 f   libvcruntime:undname.obj
 0001:000d4434       ?getScope@UnDecorator@@CA?AVDName@@XZ 00000001800d5434 f   libvcruntime:undname.obj
 0001:000d4a18       ?getScopedName@UnDecorator@@CA?AVDName@@XZ 00000001800d5a18 f   libvcruntime:undname.obj
 0001:000d4ba8       ?getSignedDimension@UnDecorator@@CA?AVDName@@XZ 00000001800d5ba8 f   libvcruntime:undname.obj
 0001:000d4c50       ?getStorageConvention@UnDecorator@@CA?AVDName@@XZ 00000001800d5c50 f i libvcruntime:undname.obj
 0001:000d4c98       ?getString@DName@@QEBAPEADPEAD0@Z 00000001800d5c98 f i libvcruntime:undname.obj
 0001:000d4cb8       ?getString@DName@@QEBAPEADPEADH@Z 00000001800d5cb8 f i libvcruntime:undname.obj
 0001:000d4d70       ?getString@DNameStatusNode@@UEBAPEADPEAD0@Z 00000001800d5d70 f i libvcruntime:undname.obj
 0001:000d4dc8       ?getString@charNode@@UEBAPEADPEAD0@Z 00000001800d5dc8 f i libvcruntime:undname.obj
 0001:000d4de0       ?getString@pDNameNode@@UEBAPEADPEAD0@Z 00000001800d5de0 f i libvcruntime:undname.obj
 0001:000d4e18       ?getString@pairNode@@UEBAPEADPEAD0@Z 00000001800d5e18 f i libvcruntime:undname.obj
 0001:000d4e78       ?getString@pcharNode@@UEBAPEADPEAD0@Z 00000001800d5e78 f i libvcruntime:undname.obj
 0001:000d4ebc       ?getStringEncoding@UnDecorator@@CA?AVDName@@W4PrefixKind@@H@Z 00000001800d5ebc f   libvcruntime:undname.obj
 0001:000d500c       ?getStringHelper@@YAPEADPEADPEBD1H@Z 00000001800d600c f i libvcruntime:undname.obj
 0001:000d5044       ?getStringObject@UnDecorator@@CA?AVDName@@XZ 00000001800d6044 f   libvcruntime:undname.obj
 0001:000d50f8       ?getSymbolName@UnDecorator@@CA?AVDName@@XZ 00000001800d60f8 f i libvcruntime:undname.obj
 0001:000d5158       ?getTemplateArgumentList@UnDecorator@@CA?AVDName@@XZ 00000001800d6158 f   libvcruntime:undname.obj
 0001:000d53fc       ?getTemplateName@UnDecorator@@CA?AVDName@@_N@Z 00000001800d63fc f   libvcruntime:undname.obj
 0001:000d5754       ?getTemplateNonTypeArgument@UnDecorator@@CA?AVDName@@XZ 00000001800d6754 f   libvcruntime:undname.obj
 0001:000d5df8       ?getTemplateTypeArgument@UnDecorator@@CA?AVDName@@XZ 00000001800d6df8 f   libvcruntime:undname.obj
 0001:000d5fbc       ?getThisType@UnDecorator@@CA?AVDName@@XZ 00000001800d6fbc f i libvcruntime:undname.obj
 0001:000d600c       ?getThrowTypes@UnDecorator@@CA?AVDName@@XZ 00000001800d700c f   libvcruntime:undname.obj
 0001:000d6038       ?getTypeEncoding@UnDecorator@@CAHXZ 00000001800d7038 f i libvcruntime:undname.obj
 0001:000d64dc       ?getUndecoratedName@UnDecorator@@QEAAPEADPEADH@Z 00000001800d74dc f i libvcruntime:undname.obj
 0001:000d6694       ?getUnionObject@UnDecorator@@CA?AVDName@@XZ 00000001800d7694 f   libvcruntime:undname.obj
 0001:000d67a0       ?getVCallThunkType@UnDecorator@@CA?AVDName@@XZ 00000001800d77a0 f i libvcruntime:undname.obj
 0001:000d6834       ?getValue@UnDecorator@@CA?AV?$optional@_K@std@@XZ 00000001800d7834 f   libvcruntime:undname.obj
 0001:000d6888       ?getValueObject@UnDecorator@@CA?AVDName@@XZ 00000001800d7888 f   libvcruntime:undname.obj
 0001:000d6a6c       ?getVbTableType@UnDecorator@@CA?AVDName@@AEBV2@@Z 00000001800d7a6c f i libvcruntime:undname.obj
 0001:000d6a88       ?getVdispMapType@UnDecorator@@CA?AVDName@@AEBV2@@Z 00000001800d7a88 f i libvcruntime:undname.obj
 0001:000d6b24       ?getVfTableType@UnDecorator@@CA?AVDName@@AEBV2@@Z 00000001800d7b24 f i libvcruntime:undname.obj
 0001:000d6db0       ?getZName@UnDecorator@@CA?AVDName@@_N0@Z 00000001800d7db0 f   libvcruntime:undname.obj
 0001:000d713c       ?get_current_character_and_increment_buffer@UnDecorator@@CADXZ 00000001800d813c f i libvcruntime:undname.obj
 0001:000d715c       ?haveTemplateParameters@UnDecorator@@SAHXZ 00000001800d815c f i libvcruntime:undname.obj
 0001:000d716c       ?increment_buffer@UnDecorator@@CA_N_K@Z 00000001800d816c f i libvcruntime:undname.obj
 0001:000d71a4       ?increment_buffer_no_check@UnDecorator@@CAXXZ 00000001800d81a4 f i libvcruntime:undname.obj
 0001:000d71b0       ?increment_buffer_no_check@UnDecorator@@CAX_K@Z 00000001800d81b0 f i libvcruntime:undname.obj
 0001:000d71bc       ?isArray@DName@@QEBAHXZ    00000001800d81bc f i libvcruntime:undname.obj
 0001:000d71c8       ?isComArray@DName@@QEBAHXZ 00000001800d81c8 f i libvcruntime:undname.obj
 0001:000d71d4       ?isEmpty@DName@@QEBAHXZ    00000001800d81d4 f i libvcruntime:undname.obj
 0001:000d71e0       ?isFull@Replicator@@QEBAHXZ 00000001800d81e0 f i libvcruntime:undname.obj
 0001:000d71ec       ?isNoTE@DName@@QEBAHXZ     00000001800d81ec f i libvcruntime:undname.obj
 0001:000d71f8       ?isPinPtr@DName@@QEBAHXZ   00000001800d81f8 f i libvcruntime:undname.obj
 0001:000d7204       ?isPtrRef@DName@@QEBAHXZ   00000001800d8204 f i libvcruntime:undname.obj
 0001:000d7210       ?isUDC@DName@@QEBAHXZ      00000001800d8210 f i libvcruntime:undname.obj
 0001:000d722c       ?isUDTThunk@DName@@QEBAHXZ 00000001800d822c f i libvcruntime:undname.obj
 0001:000d7248       ?isVCallThunk@DName@@QEBAHXZ 00000001800d8248 f i libvcruntime:undname.obj
 0001:000d7254       ?isValid@DName@@QEBAHXZ    00000001800d8254 f i libvcruntime:undname.obj
 0001:000d7260       ?length@DName@@QEBAHXZ     00000001800d8260 f i libvcruntime:undname.obj
 0001:000d7280       ?length@DNameStatusNode@@UEBAHXZ 00000001800d8280 f i libvcruntime:undname.obj
 0001:000d7284       ?length@charNode@@UEBAHXZ  00000001800d8284 f i libvcruntime:undname.obj
 0001:000d728c       ?length@pDNameNode@@UEBAHXZ 00000001800d828c f i libvcruntime:undname.obj
 0001:000d72c0       ?length@pairNode@@UEBAHXZ  00000001800d82c0 f i libvcruntime:undname.obj
 0001:000d7318       ?length@pcharNode@@UEBAHXZ 00000001800d8318 f i libvcruntime:undname.obj
 0001:000d731c       ?make@DNameStatusNode@@SAPEBV1@W4DNameStatus@@@Z 00000001800d831c f i libvcruntime:undname.obj
 0001:000d7344       ?parseDecoratedName@UnDecorator@@CA?AVDName@@XZ 00000001800d8344 f   libvcruntime:undname.obj
 0001:000d74a0       ?raw_length@DNameStatusNode@@UEBAHXZ 00000001800d84a0 f i libvcruntime:undname.obj
 0001:000d74a4       ?raw_length@charNode@@UEBAHXZ 00000001800d84a4 f i libvcruntime:undname.obj
 0001:000d74ac       ?raw_length@pDNameNode@@UEBAHXZ 00000001800d84ac f i libvcruntime:undname.obj
 0001:000d74b0       ?raw_length@pairNode@@UEBAHXZ 00000001800d84b0 f i libvcruntime:undname.obj
 0001:000d74b4       ?raw_length@pcharNode@@UEBAHXZ 00000001800d84b4 f i libvcruntime:undname.obj
 0001:000d74b8       ?setIsArray@DName@@QEAAXXZ 00000001800d84b8 f i libvcruntime:undname.obj
 0001:000d74c0       ?setIsComArray@DName@@QEAAXXZ 00000001800d84c0 f i libvcruntime:undname.obj
 0001:000d74c8       ?setIsNoTE@DName@@QEAAXXZ  00000001800d84c8 f i libvcruntime:undname.obj
 0001:000d74d0       ?setIsPinPtr@DName@@QEAAXXZ 00000001800d84d0 f i libvcruntime:undname.obj
 0001:000d74d8       ?setIsUDC@DName@@QEAAXXZ   00000001800d84d8 f i libvcruntime:undname.obj
 0001:000d74e8       ?setIsVCallThunk@DName@@QEAAXXZ 00000001800d84e8 f i libvcruntime:undname.obj
 0001:000d74f0       ?setPtrRef@DName@@QEAAAEAV1@XZ 00000001800d84f0 f i libvcruntime:undname.obj
 0001:000d74fc       ?status@DName@@QEBA?AW4DNameStatus@@XZ 00000001800d84fc f i libvcruntime:undname.obj
 0001:000d7574       __unDName                  00000001800d8574 f   libvcruntime:undname.obj
 0001:000d75a4       __unDNameEx                00000001800d85a4 f   libvcruntime:undname.obj
 0001:000d76cc       unDNameGenerateCHPE        00000001800d86cc f   libvcruntime:undname.obj
 0001:000d7868       ??$__crt_interlocked_exchange_pointer@UHINSTANCE__@@PEAU1@@@YAPEAUHINSTANCE__@@PEDSEAU0@QEAU0@@Z 00000001800d8868 f i libvcruntime:winapi_downlevel.obj
 0001:000d7870       ??$__crt_interlocked_exchange_pointer@UHINSTANCE__@@PEAX@@YAPEAUHINSTANCE__@@PEDSEAU0@QEAX@Z 00000001800d8870 f i libvcruntime:winapi_downlevel.obj
 0001:000d7878       ??$__crt_interlocked_exchange_pointer@XPEAX@@YAPEAXPEDSEAXQEAX@Z 00000001800d8878 f i libvcruntime:winapi_downlevel.obj
 0001:000d7880       ??$__crt_interlocked_read_pointer@UHINSTANCE__@@@@YAPEAUHINSTANCE__@@PEDSEAU0@@Z 00000001800d8880 f i libvcruntime:winapi_downlevel.obj
 0001:000d7888       ??$__crt_interlocked_read_pointer@X@@YAPEAXPEDSEAX@Z 00000001800d8888 f i libvcruntime:winapi_downlevel.obj
 0001:000d7f10       __vcrt_FlsAlloc            00000001800d8f10 f   libvcruntime:winapi_downlevel.obj
 0001:000d7f68       __vcrt_FlsFree             00000001800d8f68 f   libvcruntime:winapi_downlevel.obj
 0001:000d7fc0       __vcrt_FlsGetValue         00000001800d8fc0 f   libvcruntime:winapi_downlevel.obj
 0001:000d8018       __vcrt_FlsSetValue         00000001800d9018 f   libvcruntime:winapi_downlevel.obj
 0001:000d8080       __vcrt_InitializeCriticalSectionEx 00000001800d9080 f   libvcruntime:winapi_downlevel.obj
 0001:000d8150       _CallSettingFrame          00000001800d9150 f   libvcruntime:handlers.obj
 0001:000d81a0       _CallSettingFrame_LookupContinuationIndex 00000001800d91a0 f   libvcruntime:handlers.obj
 0001:000d81e0       _CallSettingFrame_NotifyContinuationAddr 00000001800d91e0 f   libvcruntime:handlers.obj
 0001:000d8210       _CallSettingFrameEncoded   00000001800d9210 f   libvcruntime:handlers.obj
 0001:000d84e8       __acrt_locale_changed      00000001800d94e8 f i libucrt:_ctype.obj
 0001:000d84f8       __acrt_locale_get_ctype_array_value 00000001800d94f8 f i libucrt:_ctype.obj
 0001:000d8520       __isascii                  00000001800d9520 f   libucrt:_ctype.obj
 0001:000d8530       __iscsym                   00000001800d9530 f   libucrt:_ctype.obj
 0001:000d85d0       __iscsymf                  00000001800d95d0 f   libucrt:_ctype.obj
 0001:000d86b0       __toascii                  00000001800d96b0 f   libucrt:_ctype.obj
 0001:000d86c0       _isalnum_l                 00000001800d96c0 f   libucrt:_ctype.obj
 0001:000d8800       _isalpha_l                 00000001800d9800 f   libucrt:_ctype.obj
 0001:000d8940       _isblank_l                 00000001800d9940 f   libucrt:_ctype.obj
 0001:000d8a70       _iscntrl_l                 00000001800d9a70 f   libucrt:_ctype.obj
 0001:000d8ba0       _iscsym_l                  00000001800d9ba0 f   libucrt:_ctype.obj
 0001:000d8cb0       _iscsymf_l                 00000001800d9cb0 f   libucrt:_ctype.obj
 0001:000d8dc0       _isdigit_l                 00000001800d9dc0 f   libucrt:_ctype.obj
 0001:000d8ef0       _isgraph_l                 00000001800d9ef0 f   libucrt:_ctype.obj
 0001:000d9030       _islower_l                 00000001800da030 f   libucrt:_ctype.obj
 0001:000d9160       _isprint_l                 00000001800da160 f   libucrt:_ctype.obj
 0001:000d92a0       _ispunct_l                 00000001800da2a0 f   libucrt:_ctype.obj
 0001:000d93d0       _isspace_l                 00000001800da3d0 f   libucrt:_ctype.obj
 0001:000d9500       _isupper_l                 00000001800da500 f   libucrt:_ctype.obj
 0001:000d9630       _isxdigit_l                00000001800da630 f   libucrt:_ctype.obj
 0001:000d9770       isalnum                    00000001800da770 f   libucrt:_ctype.obj
 0001:000d9850       isalpha                    00000001800da850 f   libucrt:_ctype.obj
 0001:000d9930       isblank                    00000001800da930 f   libucrt:_ctype.obj
 0001:000d9a20       iscntrl                    00000001800daa20 f   libucrt:_ctype.obj
 0001:000d9af0       isdigit                    00000001800daaf0 f   libucrt:_ctype.obj
 0001:000d9bc0       isgraph                    00000001800dabc0 f   libucrt:_ctype.obj
 0001:000d9ca0       islower                    00000001800daca0 f   libucrt:_ctype.obj
 0001:000d9d70       isprint                    00000001800dad70 f   libucrt:_ctype.obj
 0001:000d9e50       ispunct                    00000001800dae50 f   libucrt:_ctype.obj
 0001:000d9f20       isspace                    00000001800daf20 f   libucrt:_ctype.obj
 0001:000d9ff0       isupper                    00000001800daff0 f   libucrt:_ctype.obj
 0001:000da0c0       isxdigit                   00000001800db0c0 f   libucrt:_ctype.obj
 0001:000da1b0       strlen                     00000001800db1b0 f   libucrt:strlen.obj
 0001:000da288       free                       00000001800db288 f   libucrt:free.obj
 0001:000da2a0       ??$is_overflow_condition@K@__crt_strtox@@YA_NIK@Z 00000001800db2a0 f i libucrt:atox.obj
 0001:000da2d0       ??$is_overflow_condition@_K@__crt_strtox@@YA_NI_K@Z 00000001800db2d0 f i libucrt:atox.obj
 0001:000da314       ??$make_c_string_character_source@D$$T@__crt_strtox@@YA?AV?$c_string_character_source@D@0@QEBD$$T@Z 00000001800db314 f i libucrt:atox.obj
 0001:000da32c       ??$make_c_string_character_source@_W$$T@__crt_strtox@@YA?AV?$c_string_character_source@_W@0@QEB_W$$T@Z 00000001800db32c f i libucrt:atox.obj
 0001:000da344       ??$parse_integer@KV?$c_string_character_source@D@__crt_strtox@@$00@__crt_strtox@@YAKAEAV__crt_cached_ptd_host@@V?$c_string_character_source@D@0@H_N@Z 00000001800db344 f i libucrt:atox.obj
 0001:000da6ec       ??$parse_integer@KV?$c_string_character_source@_W@__crt_strtox@@$00@__crt_strtox@@YAKAEAV__crt_cached_ptd_host@@V?$c_string_character_source@_W@0@H_N@Z 00000001800db6ec f i libucrt:atox.obj
 0001:000db06c       ??$parse_integer@_KV?$c_string_character_source@D@__crt_strtox@@$00@__crt_strtox@@YA_KAEAV__crt_cached_ptd_host@@V?$c_string_character_source@D@0@H_N@Z 00000001800dc06c f i libucrt:atox.obj
 0001:000db400       ??$parse_integer@_KV?$c_string_character_source@_W@__crt_strtox@@$00@__crt_strtox@@YA_KAEAV__crt_cached_ptd_host@@V?$c_string_character_source@_W@0@H_N@Z 00000001800dc400 f i libucrt:atox.obj
 0001:000dbd64       ??$parse_integer_from_string@JD$$T@__crt_strtox@@YAJQEBD$$THQEAU__crt_locale_pointers@@@Z 00000001800dcd64 f i libucrt:atox.obj
 0001:000dbe50       ??$parse_integer_from_string@J_W$$T@__crt_strtox@@YAJQEB_W$$THQEAU__crt_locale_pointers@@@Z 00000001800dce50 f i libucrt:atox.obj
 0001:000dbf3c       ??$parse_integer_from_string@_JD$$T@__crt_strtox@@YA_JQEBD$$THQEAU__crt_locale_pointers@@@Z 00000001800dcf3c f i libucrt:atox.obj
 0001:000dc02c       ??$parse_integer_from_string@_J_W$$T@__crt_strtox@@YA_JQEB_W$$THQEAU__crt_locale_pointers@@@Z 00000001800dd02c f i libucrt:atox.obj
 0001:000dc11c       ??0?$c_string_character_source@D@__crt_strtox@@QEAA@QEBDQEAPEBD@Z 00000001800dd11c f i libucrt:atox.obj
 0001:000dc134       ??0?$c_string_character_source@_W@__crt_strtox@@QEAA@QEB_WQEAPEB_W@Z 00000001800dd134 f i libucrt:atox.obj
 0001:000dc14c       ??0?$cached@H@__crt_cached_ptd_host@@QEAA@XZ 00000001800dd14c f i libucrt:atox.obj
 0001:000dc158       ??0?$cached@K@__crt_cached_ptd_host@@QEAA@XZ 00000001800dd158 f i libucrt:atox.obj
 0001:000dc170       ??0__crt_cached_ptd_host@@QEAA@QEAU__crt_locale_pointers@@@Z 00000001800dd170 f i libucrt:atox.obj
 0001:000dc1c8       ??0__crt_scoped_get_last_error_reset@@QEAA@XZ 00000001800dd1c8 f i libucrt:atox.obj
 0001:000dc1e8       ??1?$c_string_character_source@D@__crt_strtox@@QEAA@XZ 00000001800dd1e8 f i libucrt:atox.obj
 0001:000dc1fc       ??1?$c_string_character_source@_W@__crt_strtox@@QEAA@XZ 00000001800dd1fc f i libucrt:atox.obj
 0001:000dc210       ??1__crt_cached_ptd_host@@QEAA@XZ 00000001800dd210 f i libucrt:atox.obj
 0001:000dc274       ??1__crt_scoped_get_last_error_reset@@QEAA@XZ 00000001800dd274 f i libucrt:atox.obj
 0001:000dc280       ?check_synchronize_global_state_index@__crt_cached_ptd_host@@AEAA_KAEBV__crt_scoped_get_last_error_reset@@@Z 00000001800dd280 f i libucrt:atox.obj
 0001:000dc2a0       ?check_synchronize_per_thread_data@__crt_cached_ptd_host@@AEAAPEAU__acrt_ptd@@XZ 00000001800dd2a0 f i libucrt:atox.obj
 0001:000dc320       ?force_synchronize_global_state_index@__crt_cached_ptd_host@@AEAA_KAEBV__crt_scoped_get_last_error_reset@@@Z 00000001800dd320 f i libucrt:atox.obj
 0001:000dc340       ?force_synchronize_per_thread_data@__crt_cached_ptd_host@@AEAAPEAU__acrt_ptd@@XZ 00000001800dd340 f i libucrt:atox.obj
 0001:000dc3ac       ?get@?$c_string_character_source@D@__crt_strtox@@QEAADXZ 00000001800dd3ac f i libucrt:atox.obj
 0001:000dc3bc       ?get@?$c_string_character_source@_W@__crt_strtox@@QEAA_WXZ 00000001800dd3bc f i libucrt:atox.obj
 0001:000dc3d0       ?get_current_state_index@__crt_state_management@@YA_KAEBV__crt_scoped_get_last_error_reset@@@Z 00000001800dd3d0 f i libucrt:atox.obj
 0001:000dc3e0       ?get_errno@__crt_cached_ptd_host@@QEAA@XZ 00000001800dd3e0 f i libucrt:atox.obj
 0001:000dc3f0       ?get_locale@__crt_cached_ptd_host@@QEAAPEAU__crt_locale_pointers@@XZ 00000001800dd3f0 f i libucrt:atox.obj
 0001:000dc430       ?get_raw_ptd@__crt_cached_ptd_host@@QEAAPEAU__acrt_ptd@@XZ 00000001800dd430 f i libucrt:atox.obj
 0001:000dc4b0       ?is_space@__crt_strtox@@YA_NDQEAU__crt_locale_pointers@@@Z 00000001800dd4b0 f i libucrt:atox.obj
 0001:000dc4d8       ?is_space@__crt_strtox@@YA_N_WPEAU__crt_locale_pointers@@@Z 00000001800dd4d8 f i libucrt:atox.obj
 0001:000dc4f8       ?maximum_signed_value@__crt_strtox@@YAJK@Z 00000001800dd4f8 f i libucrt:atox.obj
 0001:000dc500       ?maximum_signed_value@__crt_strtox@@YA_J_K@Z 00000001800dd500 f i libucrt:atox.obj
 0001:000dc510       ?minimum_signed_value@__crt_strtox@@YAJK@Z 00000001800dd510 f i libucrt:atox.obj
 0001:000dc518       ?minimum_signed_value@__crt_strtox@@YA_J_K@Z 00000001800dd518 f i libucrt:atox.obj
 0001:000dc528       ?parse_digit@__crt_strtox@@YAID@Z 00000001800dd528 f i libucrt:atox.obj
 0001:000dc564       ?parse_digit@__crt_strtox@@YAI_W@Z 00000001800dd564 f i libucrt:atox.obj
 0001:000dc78c       ?restore_state@?$c_string_character_source@D@__crt_strtox@@QEAA_NQEBD@Z 00000001800dd78c f i libucrt:atox.obj
 0001:000dc794       ?restore_state@?$c_string_character_source@_W@__crt_strtox@@QEAA_NQEB_W@Z 00000001800dd794 f i libucrt:atox.obj
 0001:000dc79c       ?save_state@?$c_string_character_source@D@__crt_strtox@@QEBAPEBDXZ 00000001800dd79c f i libucrt:atox.obj
 0001:000dc7a0       ?save_state@?$c_string_character_source@_W@__crt_strtox@@QEBAPEB_WXZ 00000001800dd7a0 f i libucrt:atox.obj
 0001:000dc7a4       ?set@?$cached@H@__crt_cached_ptd_host@@QEAAHH@Z 00000001800dd7a4 f i libucrt:atox.obj
 0001:000dc7b0       ?unget@?$c_string_character_source@D@__crt_strtox@@QEAAXD@Z 00000001800dd7b0 f i libucrt:atox.obj
 0001:000dc7e4       ?unget@?$c_string_character_source@_W@__crt_strtox@@QEAAX_W@Z 00000001800dd7e4 f i libucrt:atox.obj
 0001:000dc81c       ?unsafe_value@?$cached@H@__crt_cached_ptd_host@@QEAAHXZ 00000001800dd81c f i libucrt:atox.obj
 0001:000dc820       ?unsafe_value@?$cached@K@__crt_cached_ptd_host@@QEAAKXZ 00000001800dd820 f i libucrt:atox.obj
 0001:000dc830       ?update_locale@__crt_cached_ptd_host@@AEAAXXZ 00000001800dd830 f i libucrt:atox.obj
 0001:000dc840       ?update_locale_slow@__crt_cached_ptd_host@@AEAAXXZ 00000001800dd840 f i libucrt:atox.obj
 0001:000dc8d4       ?valid@?$cached@H@__crt_cached_ptd_host@@QEBA_NXZ 00000001800dd8d4 f i libucrt:atox.obj
 0001:000dc8d8       ?valid@?$cached@K@__crt_cached_ptd_host@@QEBA_NXZ 00000001800dd8d8 f i libucrt:atox.obj
 0001:000dc8dc       ?validate@?$c_string_character_source@D@__crt_strtox@@QEBA_NXZ 00000001800dd8dc f i libucrt:atox.obj
 0001:000dc90c       ?validate@?$c_string_character_source@_W@__crt_strtox@@QEBA_NXZ 00000001800dd90c f i libucrt:atox.obj
 0001:000dc93c       ?wide_character_to_digit@__crt_strtox@@YAH_W@Z 00000001800dd93c f i libucrt:atox.obj
 0001:000dcb44       __acrt_disable_global_locale_sync 00000001800ddb44 f i libucrt:atox.obj
 0001:000dcb4c       __acrt_enable_global_locale_sync 00000001800ddb4c f i libucrt:atox.obj
 0001:000dcb58       __acrt_get_locale_data_prefix 00000001800ddb58 f i libucrt:atox.obj
 0001:000dcb5c       __ascii_iswalpha           00000001800ddb5c f i libucrt:atox.obj
 0001:000dcb7c       __ascii_toupper            00000001800ddb7c f i libucrt:atox.obj
 0001:000dcb90       __ascii_towupper           00000001800ddb90 f i libucrt:atox.obj
 0001:000dcba0       _atoi64                    00000001800ddba0 f   libucrt:atox.obj
 0001:000dcc80       _atoi64_l                  00000001800ddc80 f   libucrt:atox.obj
 0001:000dcd6c       _atoi_l                    00000001800ddd6c f   libucrt:atox.obj
 0001:000dce54       _atol_l                    00000001800dde54 f   libucrt:atox.obj
 0001:000dcf3c       _atoll_l                   00000001800ddf3c f   libucrt:atox.obj
 0001:000dd028       _chvalidchk_l              00000001800de028 f i libucrt:atox.obj
 0001:000dd0a4       _ischartype_l              00000001800de0a4 f i libucrt:atox.obj
 0001:000dd138       _wtoi                      00000001800de138 f   libucrt:atox.obj
 0001:000dd214       _wtoi64                    00000001800de214 f   libucrt:atox.obj
 0001:000dd2f4       _wtoi64_l                  00000001800de2f4 f   libucrt:atox.obj
 0001:000dd3e0       _wtoi_l                    00000001800de3e0 f   libucrt:atox.obj
 0001:000dd4c8       _wtol                      00000001800de4c8 f   libucrt:atox.obj
 0001:000dd5a4       _wtol_l                    00000001800de5a4 f   libucrt:atox.obj
 0001:000dd68c       _wtoll                     00000001800de68c f   libucrt:atox.obj
 0001:000dd76c       _wtoll_l                   00000001800de76c f   libucrt:atox.obj
 0001:000dd858       atoi                       00000001800de858 f   libucrt:atox.obj
 0001:000dd934       atol                       00000001800de934 f   libucrt:atox.obj
 0001:000dda10       atoll                      00000001800dea10 f   libucrt:atox.obj
 0001:000ddaf0       calloc                     00000001800deaf0 f   libucrt:calloc.obj
 0001:000ddaf8       ??1scoped_global_state_reset@__crt_state_management@@QEAA@XZ 00000001800deaf8 f i libucrt:qsort.obj
 0001:000ddc40       qsort                      00000001800dec40 f   libucrt:qsort.obj
 0001:000de214       _d_int                     00000001800df214 f   libucrt:_test.obj
 0001:000de370       _dtest                     00000001800df370 f   libucrt:_test.obj
 0001:000de3ec       _fd_int                    00000001800df3ec f   libucrt:_test.obj
 0001:000de4f8       _fdtest                    00000001800df4f8 f   libucrt:_test.obj
 0001:000de554       _fperrraise                00000001800df554 f   libucrt:_test.obj
 0001:000de634       _ld_int                    00000001800df634 f   libucrt:_test.obj
 0001:000de63c       _ldtest                    00000001800df63c f   libucrt:_test.obj
 0001:000de644       ??0_LocaleUpdate@@QEAA@QEAU__crt_locale_pointers@@@Z 00000001800df644 f i libucrt:_wctype.obj
 0001:000de708       ??1_LocaleUpdate@@QEAA@XZ  00000001800df708 f i libucrt:_wctype.obj
 0001:000de720       ?GetLocaleT@_LocaleUpdate@@QEAAPEAU__crt_locale_pointers@@XZ 00000001800df720 f i libucrt:_wctype.obj
 0001:000de728       __iswcsym                  00000001800df728 f i libucrt:_wctype.obj
 0001:000de760       __iswcsymf                 00000001800df760 f i libucrt:_wctype.obj
 0001:000de798       _isleadbyte_l              00000001800df798 f i libucrt:_wctype.obj
 0001:000de7f8       _iswalnum_l                00000001800df7f8 f i libucrt:_wctype.obj
 0001:000de804       _iswalpha_l                00000001800df804 f i libucrt:_wctype.obj
 0001:000de810       _iswblank_l                00000001800df810 f i libucrt:_wctype.obj
 0001:000de82c       _iswcntrl_l                00000001800df82c f i libucrt:_wctype.obj
 0001:000de838       _iswcsym_l                 00000001800df838 f i libucrt:_wctype.obj
 0001:000de870       _iswcsymf_l                00000001800df870 f i libucrt:_wctype.obj
 0001:000de8a8       _iswdigit_l                00000001800df8a8 f i libucrt:_wctype.obj
 0001:000de8b4       _iswgraph_l                00000001800df8b4 f i libucrt:_wctype.obj
 0001:000de8c0       _iswlower_l                00000001800df8c0 f i libucrt:_wctype.obj
 0001:000de8cc       _iswprint_l                00000001800df8cc f i libucrt:_wctype.obj
 0001:000de8d8       _iswpunct_l                00000001800df8d8 f i libucrt:_wctype.obj
 0001:000de8e4       _iswspace_l                00000001800df8e4 f i libucrt:_wctype.obj
 0001:000de8f0       _iswupper_l                00000001800df8f0 f i libucrt:_wctype.obj
 0001:000de8fc       _iswxdigit_l               00000001800df8fc f i libucrt:_wctype.obj
 0001:000de908       isleadbyte                 00000001800df908 f i libucrt:_wctype.obj
 0001:000de968       iswalnum                   00000001800df968 f i libucrt:_wctype.obj
 0001:000de974       iswalpha                   00000001800df974 f i libucrt:_wctype.obj
 0001:000de980       iswascii                   00000001800df980 f i libucrt:_wctype.obj
 0001:000de994       iswblank                   00000001800df994 f i libucrt:_wctype.obj
 0001:000de9b0       iswcntrl                   00000001800df9b0 f i libucrt:_wctype.obj
 0001:000de9bc       iswdigit                   00000001800df9bc f i libucrt:_wctype.obj
 0001:000de9c8       iswgraph                   00000001800df9c8 f i libucrt:_wctype.obj
 0001:000de9d4       iswlower                   00000001800df9d4 f i libucrt:_wctype.obj
 0001:000de9e0       iswprint                   00000001800df9e0 f i libucrt:_wctype.obj
 0001:000de9ec       iswpunct                   00000001800df9ec f i libucrt:_wctype.obj
 0001:000de9f8       iswspace                   00000001800df9f8 f i libucrt:_wctype.obj
 0001:000dea04       iswupper                   00000001800dfa04 f i libucrt:_wctype.obj
 0001:000dea10       iswxdigit                  00000001800dfa10 f i libucrt:_wctype.obj
 0001:000df4e8       ??1?$__crt_simd_cleanup_guard@$00@@QEAA@XZ 00000001800e04e8 f i libucrt:strnlen.obj
 0001:000df4ec       ??1?$__crt_simd_cleanup_guard@$0A@@@QEAA@XZ 00000001800e04ec f i libucrt:strnlen.obj
 0001:000df4f0       ?compare_equals@?$__crt_simd_traits@$00E@@SA?AT__m256i@@T2@0@Z 00000001800e04f0 f i libucrt:strnlen.obj
 0001:000df4fc       ?compare_equals@?$__crt_simd_traits@$00G@@SA?AT__m256i@@T2@0@Z 00000001800e04fc f i libucrt:strnlen.obj
 0001:000df508       ?compare_equals@?$__crt_simd_traits@$0A@E@@SA?AT__m128i@@T2@0@Z 00000001800e0508 f i libucrt:strnlen.obj
 0001:000df514       ?compare_equals@?$__crt_simd_traits@$0A@G@@SA?AT__m128i@@T2@0@Z 00000001800e0514 f i libucrt:strnlen.obj
 0001:000df520       ?compute_byte_mask@?$__crt_simd_pack_traits@$00@@SAHT__m256i@@@Z 00000001800e0520 f i libucrt:strnlen.obj
 0001:000df530       ?compute_byte_mask@?$__crt_simd_pack_traits@$0A@@@SAHT__m128i@@@Z 00000001800e0530 f i libucrt:strnlen.obj
 0001:000df53c       ?get_zero_pack@?$__crt_simd_pack_traits@$00@@SA?AT__m256i@@XZ 00000001800e053c f i libucrt:strnlen.obj
 0001:000df544       ?get_zero_pack@?$__crt_simd_pack_traits@$0A@@@SA?AT__m128i@@XZ 00000001800e0544 f i libucrt:strnlen.obj
 0001:000df548       strnlen                    00000001800e0548 f   libucrt:strnlen.obj
 0001:000df6ec       wcslen                     00000001800e06ec f   libucrt:strnlen.obj
 0001:000df860       wcsnlen                    00000001800e0860 f   libucrt:strnlen.obj
 0001:000dfaac       wcsncmp                    00000001800e0aac f   libucrt:wcsncmp.obj
 0001:000dfae4       ??$__acrt_convert_wcs_mbs_cp@D_WV<lambda_7c9dea7b4ca7285d2cdb541a38da6275>@@U__crt_win32_buffer_internal_dynamic_resizing@@@@YAHQEBDAEAV?$__crt_win32_buffer@_WU__crt_win32_buffer_internal_dynamic_resizing@@@@AEBV<lambda_7c9dea7b4ca7285d2cdb541a38da6275>@@I@Z 00000001800e0ae4 f i libucrt:unlink.obj
 0001:000dfcbc       ??$__acrt_mbs_to_wcs_cp@U__crt_win32_buffer_internal_dynamic_resizing@@@@YAHQEBDAEAV?$__crt_win32_buffer@_WU__crt_win32_buffer_internal_dynamic_resizing@@@@I@Z 00000001800e0cbc f i libucrt:unlink.obj
 0001:000dfccc       ??0?$__crt_win32_buffer@_WU__crt_win32_buffer_internal_dynamic_resizing@@@@QEAA@XZ 00000001800e0ccc f i libucrt:unlink.obj
 0001:000dfcf0       ??1?$__crt_win32_buffer@_WU__crt_win32_buffer_internal_dynamic_resizing@@@@QEAA@XZ 00000001800e0cf0 f i libucrt:unlink.obj
 0001:000dfd1c       ??R<lambda_7c9dea7b4ca7285d2cdb541a38da6275>@@QEBA@IQEBDQEA_W_K@Z 00000001800e0d1c f i libucrt:unlink.obj
 0001:000dfd4c       ?__acrt_get_utf8_acp_compatibility_codepage@@YAIXZ 00000001800e0d4c f i libucrt:unlink.obj
 0001:000dfda8       ?_deallocate@?$__crt_win32_buffer@_WU__crt_win32_buffer_internal_dynamic_resizing@@@@AEAAXXZ 00000001800e0da8 f i libucrt:unlink.obj
 0001:000dfdd4       ?allocate@?$__crt_win32_buffer@_WU__crt_win32_buffer_internal_dynamic_resizing@@@@QEAAH_K@Z 00000001800e0dd4 f i libucrt:unlink.obj
 0001:000dfe50       ?allocate@__crt_win32_buffer_internal_dynamic_resizing@@SAHQEAPEAX_KAEBV__crt_win32_buffer_empty_debug_info@@@Z 00000001800e0e50 f i libucrt:unlink.obj
 0001:000dfe80       ?capacity@?$__crt_win32_buffer@_WU__crt_win32_buffer_internal_dynamic_resizing@@@@QEBA_KXZ 00000001800e0e80 f i libucrt:unlink.obj
 0001:000dfe88       ?data@?$__crt_win32_buffer@_WU__crt_win32_buffer_internal_dynamic_resizing@@@@QEAAPEA_WXZ 00000001800e0e88 f i libucrt:unlink.obj
 0001:000dfe90       ?deallocate@__crt_win32_buffer_internal_dynamic_resizing@@SAXQEAXAEBV__crt_win32_buffer_empty_debug_info@@@Z 00000001800e0e90 f i libucrt:unlink.obj
 0001:000dfe98       ?debug_info@?$__crt_win32_buffer@_WU__crt_win32_buffer_internal_dynamic_resizing@@@@QEBAAEBV__crt_win32_buffer_empty_debug_info@@XZ 00000001800e0e98 f i libucrt:unlink.obj
 0001:000dfe9c       ?set_to_nullptr@?$__crt_win32_buffer@_WU__crt_win32_buffer_internal_dynamic_resizing@@@@QEAAXXZ 00000001800e0e9c f i libucrt:unlink.obj
 0001:000dfee4       ?size@?$__crt_win32_buffer@_WU__crt_win32_buffer_internal_dynamic_resizing@@@@QEAAX_K@Z 00000001800e0ee4 f i libucrt:unlink.obj
 0001:000dfeec       _unlink                    00000001800e0eec f   libucrt:unlink.obj
 0001:000dfef4       remove                     00000001800e0ef4 f   libucrt:unlink.obj
 0001:000e0010       ??$?RPEAU__crt_stdio_stream_data@@@__crt_internal_free_policy@@QEBAXQEBQEAU__crt_stdio_stream_data@@@Z 00000001800e1010 f i libucrt:_file.obj
 0001:000e001c       ??0?$__crt_unique_heap_ptr@PEAU__crt_stdio_stream_data@@U__crt_internal_free_policy@@@@QEAA@QEAPEAU__crt_stdio_stream_data@@@Z 00000001800e101c f i libucrt:_file.obj
 0001:000e0024       ??0__crt_stdio_stream@@QEAA@QEAU_iobuf@@@Z 00000001800e1024 f i libucrt:_file.obj
 0001:000e002c       ??1?$__crt_unique_heap_ptr@PEAU__crt_stdio_stream_data@@U__crt_internal_free_policy@@@@QEAA@XZ 00000001800e102c f i libucrt:_file.obj
 0001:000e0050       ??C__crt_stdio_stream@@QEBAPEAU__crt_stdio_stream_data@@XZ 00000001800e1050 f i libucrt:_file.obj
 0001:000e0054       ?detach@?$__crt_unique_heap_ptr@PEAU__crt_stdio_stream_data@@U__crt_internal_free_policy@@@@QEAAPEAPEAU__crt_stdio_stream_data@@XZ 00000001800e1054 f i libucrt:_file.obj
 0001:000e0060       ?release@?$__crt_unique_heap_ptr@PEAU__crt_stdio_stream_data@@U__crt_internal_free_policy@@@@QEAAXXZ 00000001800e1060 f i libucrt:_file.obj
 0001:000e0084       __acrt_initialize_stdio    00000001800e1084 f   libucrt:_file.obj
 0001:000e01ec       __acrt_iob_func            00000001800e11ec f   libucrt:_file.obj
 0001:000e0204       __acrt_uninitialize_stdio  00000001800e1204 f   libucrt:_file.obj
 0001:000e0278       _get_stream_buffer_pointers 00000001800e1278 f   libucrt:_file.obj
 0001:000e02d0       _lock_file                 00000001800e12d0 f   libucrt:_file.obj
 0001:000e02e0       _unlock_file               00000001800e12e0 f   libucrt:_file.obj
 0001:000e02f0       ??$__crt_interlocked_read@J@@YAJPEDJ@Z 00000001800e12f0 f i libucrt:fclose.obj
 0001:000e02f4       ?__crt_interlocked_read_32@@YAHPEDH@Z 00000001800e12f4 f i libucrt:fclose.obj
 0001:000e0460       ?get_flags@__crt_stdio_stream@@QEBAJXZ 00000001800e1460 f i libucrt:fclose.obj
 0001:000e046c       ?is_in_use@__crt_stdio_stream@@QEBA_NXZ 00000001800e146c f i libucrt:fclose.obj
 0001:000e047c       ?is_string_backed@__crt_stdio_stream@@QEBA_NXZ 00000001800e147c f i libucrt:fclose.obj
 0001:000e048c       ?public_stream@__crt_stdio_stream@@QEBAPEAU_iobuf@@XZ 00000001800e148c f i libucrt:fclose.obj
 0001:000e0490       ?valid@__crt_stdio_stream@@QEBA_NXZ 00000001800e1490 f i libucrt:fclose.obj
 0001:000e049c       _fclose_nolock             00000001800e149c f   libucrt:fclose.obj
 0001:000e055c       fclose                     00000001800e155c f   libucrt:fclose.obj
 0001:000e0968       ??0__crt_stdio_stream@@QEAA@QEAU__crt_stdio_stream_data@@@Z 00000001800e1968 f i libucrt:fflush.obj
 0001:000e0b34       ?__acrt_stdio_reset_buffer@@YAXV__crt_stdio_stream@@@Z 00000001800e1b34 f i libucrt:fflush.obj
 0001:000e0c5c       ?has_all_of@__crt_stdio_stream@@QEBA_NJ@Z 00000001800e1c5c f i libucrt:fflush.obj
 0001:000e0cb4       ?set_flags@__crt_stdio_stream@@QEBA_NJ@Z 00000001800e1cb4 f i libucrt:fflush.obj
 0001:000e0cdc       ?unset_flags@__crt_stdio_stream@@QEBA_NJ@Z 00000001800e1cdc f i libucrt:fflush.obj
 0001:000e0d0c       __acrt_stdio_flush_nolock  00000001800e1d0c f   libucrt:fflush.obj
 0001:000e0dbc       _fflush_nolock             00000001800e1dbc f   libucrt:fflush.obj
 0001:000e0ec4       _flushall                  00000001800e1ec4 f   libucrt:fflush.obj
 0001:000e0ecc       fflush                     00000001800e1ecc f   libucrt:fflush.obj
 0001:000e1200       ??$open_file@AEBQEBDAEBQEBDAEBHPEAU_iobuf@@@?$__crt_char_traits@D@@SAPEAU_iobuf@@AEBQEBD0AEBH$$QEAPEAU1@@Z 00000001800e2200 f i libucrt:fopen.obj
 0001:000e1218       ??$open_file@AEBQEB_WAEBQEB_WAEBHPEAU_iobuf@@@?$__crt_char_traits@_W@@SAPEAU_iobuf@@AEBQEB_W0AEBH$$QEAPEAU1@@Z 00000001800e2218 f i libucrt:fopen.obj
 0001:000e1230       ?unlock@__crt_stdio_stream@@QEBAXXZ 00000001800e2230 f i libucrt:fopen.obj
 0001:000e123c       _fsopen                    00000001800e223c f   libucrt:fopen.obj
 0001:000e1244       _wfopen                    00000001800e2244 f   libucrt:fopen.obj
 0001:000e1254       _wfopen_s                  00000001800e2254 f   libucrt:fopen.obj
 0001:000e12c4       _wfsopen                   00000001800e22c4 f   libucrt:fopen.obj
 0001:000e12cc       fopen                      00000001800e22cc f   libucrt:fopen.obj
 0001:000e12dc       fopen_s                    00000001800e22dc f   libucrt:fopen.obj
 0001:000e1414       ??0__acrt_stdio_temporary_buffering_guard@@QEAA@QEAU_iobuf@@AEAV__crt_cached_ptd_host@@@Z 00000001800e2414 f i libucrt:fwrite.obj
 0001:000e1444       ??1__acrt_stdio_temporary_buffering_guard@@QEAA@XZ 00000001800e2444 f i libucrt:fwrite.obj
 0001:000e1510       ?has_any_buffer@__crt_stdio_stream@@QEBA_NXZ 00000001800e2510 f i libucrt:fwrite.obj
 0001:000e1528       ?has_any_of@__crt_stdio_stream@@QEBA_NJ@Z 00000001800e2528 f i libucrt:fwrite.obj
 0001:000e1538       ?has_big_buffer@__crt_stdio_stream@@QEBA_NXZ 00000001800e2538 f i libucrt:fwrite.obj
 0001:000e154c       _fwrite_internal           00000001800e254c f   libucrt:fwrite.obj
 0001:000e1610       _fwrite_nolock             00000001800e2610 f   libucrt:fwrite.obj
 0001:000e16dc       _fwrite_nolock_internal    00000001800e26dc f   libucrt:fwrite.obj
 0001:000e1974       fwrite                     00000001800e2974 f   libucrt:fwrite.obj
 0001:000e1a40       _tolower_fast_internal     00000001800e2a40 f i libucrt:towlower.obj
 0001:000e1a58       _towlower_fast_internal    00000001800e2a58 f i libucrt:towlower.obj
 0001:000e1a88       _towlower_l                00000001800e2a88 f   libucrt:towlower.obj
 0001:000e1bb8       towlower                   00000001800e2bb8 f   libucrt:towlower.obj
 0001:000e1fac       __ascii_tolower            00000001800e2fac f i libucrt:tolower_toupper.obj
 0001:000e1fc0       _ctype_fast_check_internal 00000001800e2fc0 f i libucrt:tolower_toupper.obj
 0001:000e1fd8       _isleadbyte_fast_internal  00000001800e2fd8 f i libucrt:tolower_toupper.obj
 0001:000e1ff8       _tolower                   00000001800e2ff8 f   libucrt:tolower_toupper.obj
 0001:000e1ffc       _tolower_l                 00000001800e2ffc f   libucrt:tolower_toupper.obj
 0001:000e217c       _toupper                   00000001800e317c f   libucrt:tolower_toupper.obj
 0001:000e2180       _toupper_fast_internal     00000001800e3180 f i libucrt:tolower_toupper.obj
 0001:000e2198       _toupper_l                 00000001800e3198 f   libucrt:tolower_toupper.obj
 0001:000e2318       tolower                    00000001800e3318 f   libucrt:tolower_toupper.obj
 0001:000e234c       toupper                    00000001800e334c f   libucrt:tolower_toupper.obj
 0001:000e2380       wcscmp                     00000001800e3380 f   libucrt:wcscmp.obj
 0001:000e23c4       __ascii_towlower           00000001800e33c4 f i libucrt:wcsicmp.obj
 0001:000e23d4       __ascii_wcsicmp            00000001800e33d4 f   libucrt:wcsicmp.obj
 0001:000e2424       _towlower_internal         00000001800e3424 f i libucrt:wcsicmp.obj
 0001:000e2468       _wcsicmp                   00000001800e3468 f   libucrt:wcsicmp.obj
 0001:000e24c0       _wcsicmp_l                 00000001800e34c0 f   libucrt:wcsicmp.obj
 0001:000e2640       __ascii_wcsnicmp           00000001800e3640 f   libucrt:wcsnicmp.obj
 0001:000e26a0       _wcsnicmp                  00000001800e36a0 f   libucrt:wcsnicmp.obj
 0001:000e26f8       _wcsnicmp_l                00000001800e36f8 f   libucrt:wcsnicmp.obj
 0001:000e29b8       strncat_s                  00000001800e39b8 f   libucrt:strncat_s.obj
 0001:000e2bf0       strncpy_s                  00000001800e3bf0 f   libucrt:strncpy_s.obj
 0001:000e2d30       strcmp                     00000001800e3d30 f   libucrt:strcmp.obj
 0001:000e2db4       __ascii_stricmp            00000001800e3db4 f   libucrt:stricmp.obj
 0001:000e2e00       _stricmp                   00000001800e3e00 f   libucrt:stricmp.obj
 0001:000e2e58       _stricmp_l                 00000001800e3e58 f   libucrt:stricmp.obj
 0001:000e2f20       strncmp                    00000001800e3f20 f   libucrt:strncmp.obj
 0001:000e2fc0       __ascii_strnicmp           00000001800e3fc0 f   libucrt:strnicmp.obj
 0001:000e301c       _strnicmp                  00000001800e401c f   libucrt:strnicmp.obj
 0001:000e3080       _strnicmp_l                00000001800e4080 f   libucrt:strnicmp.obj
 0001:000e3158       ??$assemble_floating_point_ind@M@__crt_strtox@@YAXAEAM@Z 00000001800e4158 f i libucrt:strtod.obj
 0001:000e3160       ??$assemble_floating_point_ind@N@__crt_strtox@@YAXAEAN@Z 00000001800e4160 f i libucrt:strtod.obj
 0001:000e3174       ??$assemble_floating_point_infinity@M@__crt_strtox@@YAX_NAEAM@Z 00000001800e4174 f i libucrt:strtod.obj
 0001:000e3188       ??$assemble_floating_point_infinity@N@__crt_strtox@@YAX_NAEAN@Z 00000001800e4188 f i libucrt:strtod.obj
 0001:000e31a8       ??$assemble_floating_point_qnan@M@__crt_strtox@@YAX_NAEAM@Z 00000001800e41a8 f i libucrt:strtod.obj
 0001:000e31bc       ??$assemble_floating_point_qnan@N@__crt_strtox@@YAX_NAEAN@Z 00000001800e41bc f i libucrt:strtod.obj
 0001:000e31dc       ??$assemble_floating_point_snan@M@__crt_strtox@@YAX_NAEAM@Z 00000001800e41dc f i libucrt:strtod.obj
 0001:000e31f0       ??$assemble_floating_point_snan@N@__crt_strtox@@YAX_NAEAN@Z 00000001800e41f0 f i libucrt:strtod.obj
 0001:000e3210       ??$assemble_floating_point_value_t@M@__crt_strtox@@YA?AW4SLD_STATUS@@_NH_KAEAM@Z 00000001800e4210 f i libucrt:strtod.obj
 0001:000e3240       ??$assemble_floating_point_value_t@N@__crt_strtox@@YA?AW4SLD_STATUS@@_NH_KAEAN@Z 00000001800e4240 f i libucrt:strtod.obj
 0001:000e3280       ??$assemble_floating_point_zero@M@__crt_strtox@@YAX_NAEAM@Z 00000001800e4280 f i libucrt:strtod.obj
 0001:000e328c       ??$assemble_floating_point_zero@N@__crt_strtox@@YAX_NAEAN@Z 00000001800e428c f i libucrt:strtod.obj
 0001:000e35dc       ??$convert_decimal_string_to_floating_type@M@__crt_strtox@@YA?AW4SLD_STATUS@@AEBUfloating_point_string@0@AEAM@Z 00000001800e45dc f i libucrt:strtod.obj
 0001:000e3600       ??$convert_decimal_string_to_floating_type@N@__crt_strtox@@YA?AW4SLD_STATUS@@AEBUfloating_point_string@0@AEAN@Z 00000001800e4600 f i libucrt:strtod.obj
 0001:000e3624       ??$convert_hexadecimal_string_to_floating_type@M@__crt_strtox@@YA?AW4SLD_STATUS@@AEBUfloating_point_string@0@AEAM@Z 00000001800e4624 f i libucrt:strtod.obj
 0001:000e3648       ??$convert_hexadecimal_string_to_floating_type@N@__crt_strtox@@YA?AW4SLD_STATUS@@AEBUfloating_point_string@0@AEAN@Z 00000001800e4648 f i libucrt:strtod.obj
 0001:000e366c       ??$make_c_string_character_source@DPEAPEAD@__crt_strtox@@YA?AV?$c_string_character_source@D@0@QEBDQEAPEAD@Z 00000001800e466c f i libucrt:strtod.obj
 0001:000e3684       ??$make_c_string_character_source@_WPEAPEA_W@__crt_strtox@@YA?AV?$c_string_character_source@_W@0@QEB_WQEAPEA_W@Z 00000001800e4684 f i libucrt:strtod.obj
 0001:000e369c       ??$parse_floating_point@V?$c_string_character_source@D@__crt_strtox@@M@__crt_strtox@@YA?AW4SLD_STATUS@@QEAU__crt_locale_pointers@@V?$c_string_character_source@D@0@QEAM@Z 00000001800e469c f i libucrt:strtod.obj
 0001:000e3764       ??$parse_floating_point@V?$c_string_character_source@D@__crt_strtox@@N@__crt_strtox@@YA?AW4SLD_STATUS@@QEAU__crt_locale_pointers@@V?$c_string_character_source@D@0@QEAN@Z 00000001800e4764 f i libucrt:strtod.obj
 0001:000e382c       ??$parse_floating_point@V?$c_string_character_source@_W@__crt_strtox@@M@__crt_strtox@@YA?AW4SLD_STATUS@@QEAU__crt_locale_pointers@@V?$c_string_character_source@_W@0@QEAM@Z 00000001800e482c f i libucrt:strtod.obj
 0001:000e38f4       ??$parse_floating_point@V?$c_string_character_source@_W@__crt_strtox@@N@__crt_strtox@@YA?AW4SLD_STATUS@@QEAU__crt_locale_pointers@@V?$c_string_character_source@_W@0@QEAN@Z 00000001800e48f4 f i libucrt:strtod.obj
 0001:000e39bc       ??$parse_floating_point_from_source@V?$c_string_character_source@D@__crt_strtox@@@__crt_strtox@@YA?AW4floating_point_parse_result@0@QEAU__crt_locale_pointers@@AEAV?$c_string_character_source@D@0@AEAUfloating_point_string@0@@Z 00000001800e49bc f i libucrt:strtod.obj
 0001:000e3f90       ??$parse_floating_point_from_source@V?$c_string_character_source@_W@__crt_strtox@@@__crt_strtox@@YA?AW4floating_point_parse_result@0@QEAU__crt_locale_pointers@@AEAV?$c_string_character_source@_W@0@AEAUfloating_point_string@0@@Z 00000001800e4f90 f i libucrt:strtod.obj
 0001:000e50cc       ??$parse_floating_point_possible_infinity@DV?$c_string_character_source@D@__crt_strtox@@PEBD@__crt_strtox@@YA?AW4floating_point_parse_result@0@AEADAEAV?$c_string_character_source@D@0@PEBD@Z 00000001800e60cc f i libucrt:strtod.obj
 0001:000e5260       ??$parse_floating_point_possible_infinity@_WV?$c_string_character_source@_W@__crt_strtox@@PEB_W@__crt_strtox@@YA?AW4floating_point_parse_result@0@AEA_WAEAV?$c_string_character_source@_W@0@PEB_W@Z 00000001800e6260 f i libucrt:strtod.obj
 0001:000e5424       ??$parse_floating_point_possible_nan@DV?$c_string_character_source@D@__crt_strtox@@PEBD@__crt_strtox@@YA?AW4floating_point_parse_result@0@AEADAEAV?$c_string_character_source@D@0@PEBD@Z 00000001800e6424 f i libucrt:strtod.obj
 0001:000e568c       ??$parse_floating_point_possible_nan@_WV?$c_string_character_source@_W@__crt_strtox@@PEB_W@__crt_strtox@@YA?AW4floating_point_parse_result@0@AEA_WAEAV?$c_string_character_source@_W@0@PEB_W@Z 00000001800e668c f i libucrt:strtod.obj
 0001:000e5940       ??$parse_floating_point_possible_nan_is_ind@DV?$c_string_character_source@D@__crt_strtox@@@__crt_strtox@@YA_NAEADAEAV?$c_string_character_source@D@0@@Z 00000001800e6940 f i libucrt:strtod.obj
 0001:000e5998       ??$parse_floating_point_possible_nan_is_ind@_WV?$c_string_character_source@_W@__crt_strtox@@@__crt_strtox@@YA_NAEA_WAEAV?$c_string_character_source@_W@0@@Z 00000001800e6998 f i libucrt:strtod.obj
 0001:000e59f8       ??$parse_floating_point_possible_nan_is_snan@DV?$c_string_character_source@D@__crt_strtox@@@__crt_strtox@@YA_NAEADAEAV?$c_string_character_source@D@0@@Z 00000001800e69f8 f i libucrt:strtod.obj
 0001:000e5a50       ??$parse_floating_point_possible_nan_is_snan@_WV?$c_string_character_source@_W@__crt_strtox@@@__crt_strtox@@YA_NAEA_WAEAV?$c_string_character_source@_W@0@@Z 00000001800e6a50 f i libucrt:strtod.obj
 0001:000e5ab0       ??$parse_floating_point_write_result@M@__crt_strtox@@YA?AW4SLD_STATUS@@W4floating_point_parse_result@0@AEBUfloating_point_string@0@QEAM@Z 00000001800e6ab0 f i libucrt:strtod.obj
 0001:000e5c7c       ??$parse_floating_point_write_result@N@__crt_strtox@@YA?AW4SLD_STATUS@@W4floating_point_parse_result@0@AEBUfloating_point_string@0@QEAN@Z 00000001800e6c7c f i libucrt:strtod.obj
 0001:000e5ed4       ??$parse_next_characters_from_source@DV?$c_string_character_source@D@__crt_strtox@@@__crt_strtox@@YA_NQEBD0_KAEADAEAV?$c_string_character_source@D@0@@Z 00000001800e6ed4 f i libucrt:strtod.obj
 0001:000e5f38       ??$parse_next_characters_from_source@_WV?$c_string_character_source@_W@__crt_strtox@@@__crt_strtox@@YA_NQEB_W0_KAEA_WAEAV?$c_string_character_source@_W@0@@Z 00000001800e6f38 f i libucrt:strtod.obj
 0001:000e5fa0       ??0<lambda_74a2d8e426d717992967bf549d0b1d46>@@QEAA@AEAV?$c_string_character_source@_W@__crt_strtox@@AEA_WAEAPEB_W@Z 00000001800e6fa0 f i libucrt:strtod.obj
 0001:000e5fb4       ??0<lambda_85175643e3245fab8ee1d5c9ffbed652>@@QEAA@AEAV?$c_string_character_source@D@__crt_strtox@@AEADAEAPEBD@Z 00000001800e6fb4 f i libucrt:strtod.obj
 0001:000e5fc8       ??0<lambda_a4d13f8896d4166bcf1a62c02ca9256c>@@QEAA@AEAV?$c_string_character_source@D@__crt_strtox@@AEADAEAPEBD@Z 00000001800e6fc8 f i libucrt:strtod.obj
 0001:000e5fdc       ??0<lambda_aaca0f6c2c612c0ee38e1ea27fdc2ad6>@@QEAA@AEAV?$c_string_character_source@D@__crt_strtox@@AEADAEAPEBD@Z 00000001800e6fdc f i libucrt:strtod.obj
 0001:000e5ff0       ??0<lambda_b2e4b863da30a29f1a9fc7ecc6d00735>@@QEAA@AEAV?$c_string_character_source@_W@__crt_strtox@@AEA_WAEAPEB_W@Z 00000001800e6ff0 f i libucrt:strtod.obj
 0001:000e6004       ??0<lambda_c728f12739a3597330a783bb0930d4cc>@@QEAA@AEAV?$c_string_character_source@_W@__crt_strtox@@AEA_WAEAPEB_W@Z 00000001800e7004 f i libucrt:strtod.obj
 0001:000e6020       ??0big_integer@__crt_strtox@@QEAA@AEBU01@@Z 00000001800e7020 f i libucrt:strtod.obj
 0001:000e6060       ??0big_integer@__crt_strtox@@QEAA@XZ 00000001800e7060 f i libucrt:strtod.obj
 0001:000e606c       ??0floating_point_value@__crt_strtox@@QEAA@QEAM@Z 00000001800e706c f i libucrt:strtod.obj
 0001:000e607c       ??0floating_point_value@__crt_strtox@@QEAA@QEAN@Z 00000001800e707c f i libucrt:strtod.obj
 0001:000e6090       ??4big_integer@__crt_strtox@@QEAAAEAU01@AEBU01@@Z 00000001800e7090 f i libucrt:strtod.obj
 0001:000e60d0       ??M__crt_strtox@@YA_NAEBUbig_integer@0@0@Z 00000001800e70d0 f i libucrt:strtod.obj
 0001:000e610c       ??R<lambda_74a2d8e426d717992967bf549d0b1d46>@@QEBA@XZ 00000001800e710c f i libucrt:strtod.obj
 0001:000e6184       ??R<lambda_85175643e3245fab8ee1d5c9ffbed652>@@QEBA@XZ 00000001800e7184 f i libucrt:strtod.obj
 0001:000e61e8       ??R<lambda_a4d13f8896d4166bcf1a62c02ca9256c>@@QEBA@XZ 00000001800e71e8 f i libucrt:strtod.obj
 0001:000e624c       ??R<lambda_aaca0f6c2c612c0ee38e1ea27fdc2ad6>@@QEBA@XZ 00000001800e724c f i libucrt:strtod.obj
 0001:000e62b0       ??R<lambda_b2e4b863da30a29f1a9fc7ecc6d00735>@@QEBA@XZ 00000001800e72b0 f i libucrt:strtod.obj
 0001:000e6328       ??R<lambda_c728f12739a3597330a783bb0930d4cc>@@QEBA@XZ 00000001800e7328 f i libucrt:strtod.obj
 0001:000e63a0       ?accumulate_decimal_digits_into_big_integer@__crt_strtox@@YAXQEBE0AEAUbig_integer@1@@Z 00000001800e73a0 f i libucrt:strtod.obj
 0001:000e6ad0       ?add@__crt_strtox@@YA_NAEAUbig_integer@1@I@Z 00000001800e7ad0 f i libucrt:strtod.obj
 0001:000e6b80       ?add_carry@__crt_strtox@@YAIAEAIII@Z 00000001800e7b80 f i libucrt:strtod.obj
 0001:000e6ba0       ?add_multiply_carry@__crt_strtox@@YAIAEAIIII@Z 00000001800e7ba0 f i libucrt:strtod.obj
 0001:000e6bc8       ?as_double@floating_point_value@__crt_strtox@@QEBAAEANXZ 00000001800e7bc8 f i libucrt:strtod.obj
 0001:000e6c10       ?as_float@floating_point_value@__crt_strtox@@QEBAAEAMXZ 00000001800e7c10 f i libucrt:strtod.obj
 0001:000e6c58       ?assemble_floating_point_infinity@__crt_strtox@@YAX_NAEBVfloating_point_value@1@@Z 00000001800e7c58 f i libucrt:strtod.obj
 0001:000e6c94       ?assemble_floating_point_value@__crt_strtox@@YA?AW4SLD_STATUS@@_KH_N1AEBVfloating_point_value@1@@Z 00000001800e7c94 f i libucrt:strtod.obj
 0001:000e712c       ?assemble_floating_point_value_from_big_integer@__crt_strtox@@YA?AW4SLD_STATUS@@AEBUbig_integer@1@I_N1AEBVfloating_point_value@1@@Z 00000001800e812c f i libucrt:strtod.obj
 0001:000e72e4       ?assemble_floating_point_zero@__crt_strtox@@YAX_NAEBVfloating_point_value@1@@Z 00000001800e82e4 f i libucrt:strtod.obj
 0001:000e7310       ?bit_scan_reverse@__crt_strtox@@YAIAEBUbig_integer@1@@Z 00000001800e8310 f i libucrt:strtod.obj
 0001:000e7340       ?bit_scan_reverse@__crt_strtox@@YAII@Z 00000001800e8340 f i libucrt:strtod.obj
 0001:000e7360       ?bit_scan_reverse@__crt_strtox@@YAI_K@Z 00000001800e8360 f i libucrt:strtod.obj
 0001:000e7390       ?convert_decimal_string_to_floating_type_common@__crt_strtox@@YA?AW4SLD_STATUS@@AEBUfloating_point_string@1@AEBVfloating_point_value@1@@Z 00000001800e8390 f i libucrt:strtod.obj
 0001:000e99b0       ?convert_hexadecimal_string_to_floating_type_common@__crt_strtox@@YA?AW4SLD_STATUS@@AEBUfloating_point_string@1@AEBVfloating_point_value@1@@Z 00000001800ea9b0 f i libucrt:strtod.obj
 0001:000e9a90       ?count_sequential_high_zeroes@__crt_strtox@@YAII@Z 00000001800eaa90 f i libucrt:strtod.obj
 0001:000e9aa8       ?denormal_mantissa_mask@floating_point_value@__crt_strtox@@QEBA_KXZ 00000001800eaaa8 f i libucrt:strtod.obj
 0001:000e9ad0       ?divide@__crt_strtox@@YA_KAEAUbig_integer@1@AEBU21@@Z 00000001800eaad0 f i libucrt:strtod.obj
 0001:000ea094       ?exponent_bias@floating_point_value@__crt_strtox@@QEBAHXZ 00000001800eb094 f i libucrt:strtod.obj
 0001:000ea0a8       ?is_digit_or_nondigit@__crt_strtox@@YA_NH@Z 00000001800eb0a8 f i libucrt:strtod.obj
 0001:000ea0d4       ?is_double@floating_point_value@__crt_strtox@@QEBA_NXZ 00000001800eb0d4 f i libucrt:strtod.obj
 0001:000ea0e0       ?make_big_integer@__crt_strtox@@YA?AUbig_integer@1@_K@Z 00000001800eb0e0 f i libucrt:strtod.obj
 0001:000ea100       ?mantissa_bits@floating_point_value@__crt_strtox@@QEBAHXZ 00000001800eb100 f i libucrt:strtod.obj
 0001:000ea114       ?maximum_binary_exponent@floating_point_value@__crt_strtox@@QEBAHXZ 00000001800eb114 f i libucrt:strtod.obj
 0001:000ea128       ?minimum_binary_exponent@floating_point_value@__crt_strtox@@QEBAHXZ 00000001800eb128 f i libucrt:strtod.obj
 0001:000ea140       ?multiply@__crt_strtox@@YA_NAEAUbig_integer@1@AEBU21@@Z 00000001800eb140 f i libucrt:strtod.obj
 0001:000ea5c0       ?multiply@__crt_strtox@@YA_NAEAUbig_integer@1@I@Z 00000001800eb5c0 f i libucrt:strtod.obj
 0001:000ea6f0       ?multiply_64_32@__crt_strtox@@YA_K_KI@Z 00000001800eb6f0 f i libucrt:strtod.obj
 0001:000ea700       ?multiply_by_power_of_ten@__crt_strtox@@YA_NAEAUbig_integer@1@I@Z 00000001800eb700 f i libucrt:strtod.obj
 0001:000eadd0       ?multiply_core@__crt_strtox@@YAIQEAIII@Z 00000001800ebdd0 f i libucrt:strtod.obj
 0001:000eae2c       ?normal_mantissa_mask@floating_point_value@__crt_strtox@@QEBA_KXZ 00000001800ebe2c f i libucrt:strtod.obj
 0001:000eae50       ?right_shift_with_rounding@__crt_strtox@@YA_K_N_KI0@Z 00000001800ebe50 f i libucrt:strtod.obj
 0001:000eaf50       ?shift_left@__crt_strtox@@YA_NAEAUbig_integer@1@I@Z 00000001800ebf50 f i libucrt:strtod.obj
 0001:000eb12c       ?should_round_up@__crt_strtox@@YA_N_N000@Z 00000001800ec12c f i libucrt:strtod.obj
 0001:000eb1d4       _strtod_l                  00000001800ec1d4 f   libucrt:strtod.obj
 0001:000eb1dc       _strtof_l                  00000001800ec1dc f   libucrt:strtod.obj
 0001:000eb1e4       _strtold_l                 00000001800ec1e4 f   libucrt:strtod.obj
 0001:000eb1ec       _wcstod_l                  00000001800ec1ec f   libucrt:strtod.obj
 0001:000eb1f4       _wcstof_l                  00000001800ec1f4 f   libucrt:strtod.obj
 0001:000eb1fc       _wcstold_l                 00000001800ec1fc f   libucrt:strtod.obj
 0001:000eb2ac       strtod                     00000001800ec2ac f   libucrt:strtod.obj
 0001:000eb2b8       strtof                     00000001800ec2b8 f   libucrt:strtod.obj
 0001:000eb2c4       strtold                    00000001800ec2c4 f   libucrt:strtod.obj
 0001:000eb2d0       wcstod                     00000001800ec2d0 f   libucrt:strtod.obj
 0001:000eb2dc       wcstof                     00000001800ec2dc f   libucrt:strtod.obj
 0001:000eb2e8       wcstold                    00000001800ec2e8 f   libucrt:strtod.obj
 0001:000eb2f4       ??$parse_integer_from_string@JDPEAPEAD@__crt_strtox@@YAJQEBDQEAPEADHQEAU__crt_locale_pointers@@@Z 00000001800ec2f4 f i libucrt:strtox.obj
 0001:000eb3e0       ??$parse_integer_from_string@J_WPEAPEA_W@__crt_strtox@@YAJQEB_WQEAPEA_WHQEAU__crt_locale_pointers@@@Z 00000001800ec3e0 f i libucrt:strtox.obj
 0001:000eb4cc       ??$parse_integer_from_string@KDPEAPEAD@__crt_strtox@@YAKQEBDQEAPEADHQEAU__crt_locale_pointers@@@Z 00000001800ec4cc f i libucrt:strtox.obj
 0001:000eb5b8       ??$parse_integer_from_string@K_WPEAPEA_W@__crt_strtox@@YAKQEB_WQEAPEA_WHQEAU__crt_locale_pointers@@@Z 00000001800ec5b8 f i libucrt:strtox.obj
 0001:000eb6a4       ??$parse_integer_from_string@_JDPEAPEAD@__crt_strtox@@YA_JQEBDQEAPEADHQEAU__crt_locale_pointers@@@Z 00000001800ec6a4 f i libucrt:strtox.obj
 0001:000eb794       ??$parse_integer_from_string@_J_WPEAPEA_W@__crt_strtox@@YA_JQEB_WQEAPEA_WHQEAU__crt_locale_pointers@@@Z 00000001800ec794 f i libucrt:strtox.obj
 0001:000eb884       ??$parse_integer_from_string@_KDPEAPEAD@__crt_strtox@@YA_KQEBDQEAPEADHQEAU__crt_locale_pointers@@@Z 00000001800ec884 f i libucrt:strtox.obj
 0001:000eb974       ??$parse_integer_from_string@_K_WPEAPEA_W@__crt_strtox@@YA_KQEB_WQEAPEA_WHQEAU__crt_locale_pointers@@@Z 00000001800ec974 f i libucrt:strtox.obj
 0001:000eba64       _strtoi64                  00000001800eca64 f   libucrt:strtox.obj
 0001:000ebb44       _strtoi64_l                00000001800ecb44 f   libucrt:strtox.obj
 0001:000ebc34       _strtoimax_l               00000001800ecc34 f   libucrt:strtox.obj
 0001:000ebd24       _strtol_l                  00000001800ecd24 f   libucrt:strtox.obj
 0001:000ebe10       _strtoll_l                 00000001800ece10 f   libucrt:strtox.obj
 0001:000ebf00       _strtoui64                 00000001800ecf00 f   libucrt:strtox.obj
 0001:000ebfe0       _strtoui64_l               00000001800ecfe0 f   libucrt:strtox.obj
 0001:000ec0d0       _strtoul_l                 00000001800ed0d0 f   libucrt:strtox.obj
 0001:000ec1bc       _strtoull_l                00000001800ed1bc f   libucrt:strtox.obj
 0001:000ec2ac       _strtoumax_l               00000001800ed2ac f   libucrt:strtox.obj
 0001:000ec39c       _wcstoi64                  00000001800ed39c f   libucrt:strtox.obj
 0001:000ec47c       _wcstoi64_l                00000001800ed47c f   libucrt:strtox.obj
 0001:000ec56c       _wcstoimax_l               00000001800ed56c f   libucrt:strtox.obj
 0001:000ec65c       _wcstol_l                  00000001800ed65c f   libucrt:strtox.obj
 0001:000ec748       _wcstoll_l                 00000001800ed748 f   libucrt:strtox.obj
 0001:000ec838       _wcstoui64                 00000001800ed838 f   libucrt:strtox.obj
 0001:000ec918       _wcstoui64_l               00000001800ed918 f   libucrt:strtox.obj
 0001:000eca08       _wcstoul_l                 00000001800eda08 f   libucrt:strtox.obj
 0001:000ecaf4       _wcstoull_l                00000001800edaf4 f   libucrt:strtox.obj
 0001:000ecbe4       _wcstoumax_l               00000001800edbe4 f   libucrt:strtox.obj
 0001:000eccd4       strtoimax                  00000001800edcd4 f   libucrt:strtox.obj
 0001:000ecdb4       strtol                     00000001800eddb4 f   libucrt:strtox.obj
 0001:000ece94       strtoll                    00000001800ede94 f   libucrt:strtox.obj
 0001:000ecf74       strtoul                    00000001800edf74 f   libucrt:strtox.obj
 0001:000ed054       strtoull                   00000001800ee054 f   libucrt:strtox.obj
 0001:000ed134       strtoumax                  00000001800ee134 f   libucrt:strtox.obj
 0001:000ed214       wcstoimax                  00000001800ee214 f   libucrt:strtox.obj
 0001:000ed2f4       wcstol                     00000001800ee2f4 f   libucrt:strtox.obj
 0001:000ed3d4       wcstoll                    00000001800ee3d4 f   libucrt:strtox.obj
 0001:000ed4b4       wcstoul                    00000001800ee4b4 f   libucrt:strtox.obj
 0001:000ed594       wcstoull                   00000001800ee594 f   libucrt:strtox.obj
 0001:000ed674       wcstoumax                  00000001800ee674 f   libucrt:strtox.obj
 0001:000ed754       ??$?0AEBV?$stream_output_adapter@D@__crt_stdio_output@@AEB_KAEBQEBDAEAV__crt_cached_ptd_host@@AEBQEAD@?$format_validation_base@DV?$stream_output_adapter@D@__crt_stdio_output@@@__crt_stdio_output@@IEAA@AEBV?$stream_output_adapter@D@1@AEB_KAEBQEBDAEAV__crt_cached_ptd_host@@AEBQEAD@Z 00000001800ee754 f i libucrt:output.obj
 0001:000ed7e0       ??$?0AEBV?$stream_output_adapter@D@__crt_stdio_output@@AEB_KAEBQEBDAEAV__crt_cached_ptd_host@@AEBQEAD@?$positional_parameter_base@DV?$stream_output_adapter@D@__crt_stdio_output@@@__crt_stdio_output@@IEAA@AEBV?$stream_output_adapter@D@1@AEB_KAEBQEBDAEAV__crt_cached_ptd_host@@AEBQEAD@Z 00000001800ee7e0 f i libucrt:output.obj
 0001:000ed890       ??$?0AEBV?$stream_output_adapter@D@__crt_stdio_output@@AEB_KAEBQEBDAEAV__crt_cached_ptd_host@@AEBQEAD@?$standard_base@DV?$stream_output_adapter@D@__crt_stdio_output@@@__crt_stdio_output@@IEAA@AEBV?$stream_output_adapter@D@1@AEB_KAEBQEBDAEAV__crt_cached_ptd_host@@AEBQEAD@Z 00000001800ee890 f i libucrt:output.obj
 0001:000ed91c       ??$?0AEBV?$stream_output_adapter@_W@__crt_stdio_output@@AEB_KAEBQEB_WAEAV__crt_cached_ptd_host@@AEBQEAD@?$format_validation_base@_WV?$stream_output_adapter@_W@__crt_stdio_output@@@__crt_stdio_output@@IEAA@AEBV?$stream_output_adapter@_W@1@AEB_KAEBQEB_WAEAV__crt_cached_ptd_host@@AEBQEAD@Z 00000001800ee91c f i libucrt:output.obj
 0001:000ed9b0       ??$?0AEBV?$stream_output_adapter@_W@__crt_stdio_output@@AEB_KAEBQEB_WAEAV__crt_cached_ptd_host@@AEBQEAD@?$positional_parameter_base@_WV?$stream_output_adapter@_W@__crt_stdio_output@@@__crt_stdio_output@@IEAA@AEBV?$stream_output_adapter@_W@1@AEB_KAEBQEB_WAEAV__crt_cached_ptd_host@@AEBQEAD@Z 00000001800ee9b0 f i libucrt:output.obj
 0001:000eda68       ??$?0AEBV?$stream_output_adapter@_W@__crt_stdio_output@@AEB_KAEBQEB_WAEAV__crt_cached_ptd_host@@AEBQEAD@?$standard_base@_WV?$stream_output_adapter@_W@__crt_stdio_output@@@__crt_stdio_output@@IEAA@AEBV?$stream_output_adapter@_W@1@AEB_KAEBQEB_WAEAV__crt_cached_ptd_host@@AEBQEAD@Z 00000001800eea68 f i libucrt:output.obj
 0001:000edafc       ??$?0AEBV?$string_output_adapter@D@__crt_stdio_output@@AEB_KAEBQEBDAEAV__crt_cached_ptd_host@@AEBQEAD@?$format_validation_base@DV?$string_output_adapter@D@__crt_stdio_output@@@__crt_stdio_output@@IEAA@AEBV?$string_output_adapter@D@1@AEB_KAEBQEBDAEAV__crt_cached_ptd_host@@AEBQEAD@Z 00000001800eeafc f i libucrt:output.obj
 0001:000edb88       ??$?0AEBV?$string_output_adapter@D@__crt_stdio_output@@AEB_KAEBQEBDAEAV__crt_cached_ptd_host@@AEBQEAD@?$positional_parameter_base@DV?$string_output_adapter@D@__crt_stdio_output@@@__crt_stdio_output@@IEAA@AEBV?$string_output_adapter@D@1@AEB_KAEBQEBDAEAV__crt_cached_ptd_host@@AEBQEAD@Z 00000001800eeb88 f i libucrt:output.obj
 0001:000edc38       ??$?0AEBV?$string_output_adapter@D@__crt_stdio_output@@AEB_KAEBQEBDAEAV__crt_cached_ptd_host@@AEBQEAD@?$standard_base@DV?$string_output_adapter@D@__crt_stdio_output@@@__crt_stdio_output@@IEAA@AEBV?$string_output_adapter@D@1@AEB_KAEBQEBDAEAV__crt_cached_ptd_host@@AEBQEAD@Z 00000001800eec38 f i libucrt:output.obj
 0001:000edcc4       ??$?0AEBV?$string_output_adapter@_W@__crt_stdio_output@@AEB_KAEBQEB_WAEAV__crt_cached_ptd_host@@AEBQEAD@?$format_validation_base@_WV?$string_output_adapter@_W@__crt_stdio_output@@@__crt_stdio_output@@IEAA@AEBV?$string_output_adapter@_W@1@AEB_KAEBQEB_WAEAV__crt_cached_ptd_host@@AEBQEAD@Z 00000001800eecc4 f i libucrt:output.obj
 0001:000edd58       ??$?0AEBV?$string_output_adapter@_W@__crt_stdio_output@@AEB_KAEBQEB_WAEAV__crt_cached_ptd_host@@AEBQEAD@?$positional_parameter_base@_WV?$string_output_adapter@_W@__crt_stdio_output@@@__crt_stdio_output@@IEAA@AEBV?$string_output_adapter@_W@1@AEB_KAEBQEB_WAEAV__crt_cached_ptd_host@@AEBQEAD@Z 00000001800eed58 f i libucrt:output.obj
 0001:000ede10       ??$?0AEBV?$string_output_adapter@_W@__crt_stdio_output@@AEB_KAEBQEB_WAEAV__crt_cached_ptd_host@@AEBQEAD@?$standard_base@_WV?$string_output_adapter@_W@__crt_stdio_output@@@__crt_stdio_output@@IEAA@AEBV?$string_output_adapter@_W@1@AEB_KAEBQEB_WAEAV__crt_cached_ptd_host@@AEBQEAD@Z 00000001800eee10 f i libucrt:output.obj
 0001:000ee1a4       ??$_tcstol_internal@DPEAPEAD$0A@@@YAJAEAV__crt_cached_ptd_host@@QEBDQEAPEADH@Z 00000001800ef1a4 f i libucrt:output.obj
 0001:000ee1e0       ??$_tcstol_internal@_WPEAPEA_W$0A@@@YAJAEAV__crt_cached_ptd_host@@QEB_WQEAPEA_WH@Z 00000001800ef1e0 f i libucrt:output.obj
 0001:000ef77c       ??$count@D@formatting_buffer@__crt_stdio_output@@QEBA_KXZ 00000001800f077c f i libucrt:output.obj
 0001:000ef7a0       ??$count@_W@formatting_buffer@__crt_stdio_output@@QEBA_KXZ 00000001800f07a0 f i libucrt:output.obj
 0001:000ef7c4       ??$data@D@formatting_buffer@__crt_stdio_output@@QEAAPEADXZ 00000001800f07c4 f i libucrt:output.obj
 0001:000ef7d8       ??$data@_W@formatting_buffer@__crt_stdio_output@@QEAAPEA_WXZ 00000001800f07d8 f i libucrt:output.obj
 0001:000ef7ec       ??$ensure_buffer_is_big_enough@D@formatting_buffer@__crt_stdio_output@@QEAA_N_KAEAV__crt_cached_ptd_host@@@Z 00000001800f07ec f i libucrt:output.obj
 0001:000ef8c0       ??$ensure_buffer_is_big_enough@_W@formatting_buffer@__crt_stdio_output@@QEAA_N_KAEAV__crt_cached_ptd_host@@@Z 00000001800f08c0 f i libucrt:output.obj
 0001:000ef998       ??$extract_argument_from_va_list@C_J@?$positional_parameter_base@DV?$stream_output_adapter@D@__crt_stdio_output@@@__crt_stdio_output@@IEAA_NAEA_J@Z 00000001800f0998 f i libucrt:output.obj
 0001:000efae4       ??$extract_argument_from_va_list@C_J@?$positional_parameter_base@DV?$string_output_adapter@D@__crt_stdio_output@@@__crt_stdio_output@@IEAA_NAEA_J@Z 00000001800f0ae4 f i libucrt:output.obj
 0001:000efc30       ??$extract_argument_from_va_list@C_J@?$positional_parameter_base@_WV?$stream_output_adapter@_W@__crt_stdio_output@@@__crt_stdio_output@@IEAA_NAEA_J@Z 00000001800f0c30 f i libucrt:output.obj
 0001:000efd80       ??$extract_argument_from_va_list@C_J@?$positional_parameter_base@_WV?$string_output_adapter@_W@__crt_stdio_output@@@__crt_stdio_output@@IEAA_NAEA_J@Z 00000001800f0d80 f i libucrt:output.obj
 0001:000efed0       ??$extract_argument_from_va_list@C_J@?$standard_base@DV?$stream_output_adapter@D@__crt_stdio_output@@@__crt_stdio_output@@IEAA_NAEA_J@Z 00000001800f0ed0 f i libucrt:output.obj
 0001:000efeec       ??$extract_argument_from_va_list@C_J@?$standard_base@DV?$string_output_adapter@D@__crt_stdio_output@@@__crt_stdio_output@@IEAA_NAEA_J@Z 00000001800f0eec f i libucrt:output.obj
 0001:000eff08       ??$extract_argument_from_va_list@C_J@?$standard_base@_WV?$stream_output_adapter@_W@__crt_stdio_output@@@__crt_stdio_output@@IEAA_NAEA_J@Z 00000001800f0f08 f i libucrt:output.obj
 0001:000eff24       ??$extract_argument_from_va_list@C_J@?$standard_base@_WV?$string_output_adapter@_W@__crt_stdio_output@@@__crt_stdio_output@@IEAA_NAEA_J@Z 00000001800f0f24 f i libucrt:output.obj
 0001:000eff40       ??$extract_argument_from_va_list@E_J@?$positional_parameter_base@DV?$stream_output_adapter@D@__crt_stdio_output@@@__crt_stdio_output@@IEAA_NAEA_J@Z 00000001800f0f40 f i libucrt:output.obj
 0001:000f008c       ??$extract_argument_from_va_list@E_J@?$positional_parameter_base@DV?$string_output_adapter@D@__crt_stdio_output@@@__crt_stdio_output@@IEAA_NAEA_J@Z 00000001800f108c f i libucrt:output.obj
 0001:000f01d8       ??$extract_argument_from_va_list@E_J@?$positional_parameter_base@_WV?$stream_output_adapter@_W@__crt_stdio_output@@@__crt_stdio_output@@IEAA_NAEA_J@Z 00000001800f11d8 f i libucrt:output.obj
 0001:000f0324       ??$extract_argument_from_va_list@E_J@?$positional_parameter_base@_WV?$string_output_adapter@_W@__crt_stdio_output@@@__crt_stdio_output@@IEAA_NAEA_J@Z 00000001800f1324 f i libucrt:output.obj
 0001:000f0470       ??$extract_argument_from_va_list@E_J@?$standard_base@DV?$stream_output_adapter@D@__crt_stdio_output@@@__crt_stdio_output@@IEAA_NAEA_J@Z 00000001800f1470 f i libucrt:output.obj
 0001:000f048c       ??$extract_argument_from_va_list@E_J@?$standard_base@DV?$string_output_adapter@D@__crt_stdio_output@@@__crt_stdio_output@@IEAA_NAEA_J@Z 00000001800f148c f i libucrt:output.obj
 0001:000f04a8       ??$extract_argument_from_va_list@E_J@?$standard_base@_WV?$stream_output_adapter@_W@__crt_stdio_output@@@__crt_stdio_output@@IEAA_NAEA_J@Z 00000001800f14a8 f i libucrt:output.obj
 0001:000f04c4       ??$extract_argument_from_va_list@E_J@?$standard_base@_WV?$string_output_adapter@_W@__crt_stdio_output@@@__crt_stdio_output@@IEAA_NAEA_J@Z 00000001800f14c4 f i libucrt:output.obj
 0001:000f04e0       ??$extract_argument_from_va_list@F_J@?$positional_parameter_base@DV?$stream_output_adapter@D@__crt_stdio_output@@@__crt_stdio_output@@IEAA_NAEA_J@Z 00000001800f14e0 f i libucrt:output.obj
 0001:000f062c       ??$extract_argument_from_va_list@F_J@?$positional_parameter_base@DV?$string_output_adapter@D@__crt_stdio_output@@@__crt_stdio_output@@IEAA_NAEA_J@Z 00000001800f162c f i libucrt:output.obj
 0001:000f0778       ??$extract_argument_from_va_list@F_J@?$positional_parameter_base@_WV?$stream_output_adapter@_W@__crt_stdio_output@@@__crt_stdio_output@@IEAA_NAEA_J@Z 00000001800f1778 f i libucrt:output.obj
 0001:000f08c8       ??$extract_argument_from_va_list@F_J@?$positional_parameter_base@_WV?$string_output_adapter@_W@__crt_stdio_output@@@__crt_stdio_output@@IEAA_NAEA_J@Z 00000001800f18c8 f i libucrt:output.obj
 0001:000f0a18       ??$extract_argument_from_va_list@F_J@?$standard_base@DV?$stream_output_adapter@D@__crt_stdio_output@@@__crt_stdio_output@@IEAA_NAEA_J@Z 00000001800f1a18 f i libucrt:output.obj
 0001:000f0a34       ??$extract_argument_from_va_list@F_J@?$standard_base@DV?$string_output_adapter@D@__crt_stdio_output@@@__crt_stdio_output@@IEAA_NAEA_J@Z 00000001800f1a34 f i libucrt:output.obj
 0001:000f0a50       ??$extract_argument_from_va_list@F_J@?$standard_base@_WV?$stream_output_adapter@_W@__crt_stdio_output@@@__crt_stdio_output@@IEAA_NAEA_J@Z 00000001800f1a50 f i libucrt:output.obj
 0001:000f0a6c       ??$extract_argument_from_va_list@F_J@?$standard_base@_WV?$string_output_adapter@_W@__crt_stdio_output@@@__crt_stdio_output@@IEAA_NAEA_J@Z 00000001800f1a6c f i libucrt:output.obj
 0001:000f0a88       ??$extract_argument_from_va_list@GD@?$positional_parameter_base@DV?$stream_output_adapter@D@__crt_stdio_output@@@__crt_stdio_output@@IEAA_NAEAD@Z 00000001800f1a88 f i libucrt:output.obj
 0001:000f0bd0       ??$extract_argument_from_va_list@GD@?$positional_parameter_base@DV?$string_output_adapter@D@__crt_stdio_output@@@__crt_stdio_output@@IEAA_NAEAD@Z 00000001800f1bd0 f i libucrt:output.obj
 0001:000f0d18       ??$extract_argument_from_va_list@GD@?$standard_base@DV?$stream_output_adapter@D@__crt_stdio_output@@@__crt_stdio_output@@IEAA_NAEAD@Z 00000001800f1d18 f i libucrt:output.obj
 0001:000f0d34       ??$extract_argument_from_va_list@GD@?$standard_base@DV?$string_output_adapter@D@__crt_stdio_output@@@__crt_stdio_output@@IEAA_NAEAD@Z 00000001800f1d34 f i libucrt:output.obj
 0001:000f0d50       ??$extract_argument_from_va_list@G_J@?$positional_parameter_base@DV?$stream_output_adapter@D@__crt_stdio_output@@@__crt_stdio_output@@IEAA_NAEA_J@Z 00000001800f1d50 f i libucrt:output.obj
 0001:000f0e9c       ??$extract_argument_from_va_list@G_J@?$positional_parameter_base@DV?$string_output_adapter@D@__crt_stdio_output@@@__crt_stdio_output@@IEAA_NAEA_J@Z 00000001800f1e9c f i libucrt:output.obj
 0001:000f0fe8       ??$extract_argument_from_va_list@G_J@?$positional_parameter_base@_WV?$stream_output_adapter@_W@__crt_stdio_output@@@__crt_stdio_output@@IEAA_NAEA_J@Z 00000001800f1fe8 f i libucrt:output.obj
 0001:000f1134       ??$extract_argument_from_va_list@G_J@?$positional_parameter_base@_WV?$string_output_adapter@_W@__crt_stdio_output@@@__crt_stdio_output@@IEAA_NAEA_J@Z 00000001800f2134 f i libucrt:output.obj
 0001:000f1280       ??$extract_argument_from_va_list@G_J@?$standard_base@DV?$stream_output_adapter@D@__crt_stdio_output@@@__crt_stdio_output@@IEAA_NAEA_J@Z 00000001800f2280 f i libucrt:output.obj
 0001:000f129c       ??$extract_argument_from_va_list@G_J@?$standard_base@DV?$string_output_adapter@D@__crt_stdio_output@@@__crt_stdio_output@@IEAA_NAEA_J@Z 00000001800f229c f i libucrt:output.obj
 0001:000f12b8       ??$extract_argument_from_va_list@G_J@?$standard_base@_WV?$stream_output_adapter@_W@__crt_stdio_output@@@__crt_stdio_output@@IEAA_NAEA_J@Z 00000001800f22b8 f i libucrt:output.obj
 0001:000f12d4       ??$extract_argument_from_va_list@G_J@?$standard_base@_WV?$string_output_adapter@_W@__crt_stdio_output@@@__crt_stdio_output@@IEAA_NAEA_J@Z 00000001800f22d4 f i libucrt:output.obj
 0001:000f12f0       ??$extract_argument_from_va_list@H_J@?$positional_parameter_base@DV?$stream_output_adapter@D@__crt_stdio_output@@@__crt_stdio_output@@IEAA_NAEA_J@Z 00000001800f22f0 f i libucrt:output.obj
 0001:000f1438       ??$extract_argument_from_va_list@H_J@?$positional_parameter_base@DV?$string_output_adapter@D@__crt_stdio_output@@@__crt_stdio_output@@IEAA_NAEA_J@Z 00000001800f2438 f i libucrt:output.obj
 0001:000f1580       ??$extract_argument_from_va_list@H_J@?$positional_parameter_base@_WV?$stream_output_adapter@_W@__crt_stdio_output@@@__crt_stdio_output@@IEAA_NAEA_J@Z 00000001800f2580 f i libucrt:output.obj
 0001:000f16cc       ??$extract_argument_from_va_list@H_J@?$positional_parameter_base@_WV?$string_output_adapter@_W@__crt_stdio_output@@@__crt_stdio_output@@IEAA_NAEA_J@Z 00000001800f26cc f i libucrt:output.obj
 0001:000f1818       ??$extract_argument_from_va_list@H_J@?$standard_base@DV?$stream_output_adapter@D@__crt_stdio_output@@@__crt_stdio_output@@IEAA_NAEA_J@Z 00000001800f2818 f i libucrt:output.obj
 0001:000f1834       ??$extract_argument_from_va_list@H_J@?$standard_base@DV?$string_output_adapter@D@__crt_stdio_output@@@__crt_stdio_output@@IEAA_NAEA_J@Z 00000001800f2834 f i libucrt:output.obj
 0001:000f1850       ??$extract_argument_from_va_list@H_J@?$standard_base@_WV?$stream_output_adapter@_W@__crt_stdio_output@@@__crt_stdio_output@@IEAA_NAEA_J@Z 00000001800f2850 f i libucrt:output.obj
 0001:000f186c       ??$extract_argument_from_va_list@H_J@?$standard_base@_WV?$string_output_adapter@_W@__crt_stdio_output@@@__crt_stdio_output@@IEAA_NAEA_J@Z 00000001800f286c f i libucrt:output.obj
 0001:000f1888       ??$extract_argument_from_va_list@I_J@?$positional_parameter_base@DV?$stream_output_adapter@D@__crt_stdio_output@@@__crt_stdio_output@@IEAA_NAEA_J@Z 00000001800f2888 f i libucrt:output.obj
 0001:000f19d0       ??$extract_argument_from_va_list@I_J@?$positional_parameter_base@DV?$string_output_adapter@D@__crt_stdio_output@@@__crt_stdio_output@@IEAA_NAEA_J@Z 00000001800f29d0 f i libucrt:output.obj
 0001:000f1b18       ??$extract_argument_from_va_list@I_J@?$positional_parameter_base@_WV?$stream_output_adapter@_W@__crt_stdio_output@@@__crt_stdio_output@@IEAA_NAEA_J@Z 00000001800f2b18 f i libucrt:output.obj
 0001:000f1c64       ??$extract_argument_from_va_list@I_J@?$positional_parameter_base@_WV?$string_output_adapter@_W@__crt_stdio_output@@@__crt_stdio_output@@IEAA_NAEA_J@Z 00000001800f2c64 f i libucrt:output.obj
 0001:000f1db0       ??$extract_argument_from_va_list@I_J@?$standard_base@DV?$stream_output_adapter@D@__crt_stdio_output@@@__crt_stdio_output@@IEAA_NAEA_J@Z 00000001800f2db0 f i libucrt:output.obj
 0001:000f1dcc       ??$extract_argument_from_va_list@I_J@?$standard_base@DV?$string_output_adapter@D@__crt_stdio_output@@@__crt_stdio_output@@IEAA_NAEA_J@Z 00000001800f2dcc f i libucrt:output.obj
 0001:000f1de8       ??$extract_argument_from_va_list@I_J@?$standard_base@_WV?$stream_output_adapter@_W@__crt_stdio_output@@@__crt_stdio_output@@IEAA_NAEA_J@Z 00000001800f2de8 f i libucrt:output.obj
 0001:000f1e04       ??$extract_argument_from_va_list@I_J@?$standard_base@_WV?$string_output_adapter@_W@__crt_stdio_output@@@__crt_stdio_output@@IEAA_NAEA_J@Z 00000001800f2e04 f i libucrt:output.obj
 0001:000f1e20       ??$extract_argument_from_va_list@PEADPEAD@?$positional_parameter_base@DV?$stream_output_adapter@D@__crt_stdio_output@@@__crt_stdio_output@@IEAA_NAEAPEAD@Z 00000001800f2e20 f i libucrt:output.obj
 0001:000f1f68       ??$extract_argument_from_va_list@PEADPEAD@?$positional_parameter_base@DV?$string_output_adapter@D@__crt_stdio_output@@@__crt_stdio_output@@IEAA_NAEAPEAD@Z 00000001800f2f68 f i libucrt:output.obj
 0001:000f20b0       ??$extract_argument_from_va_list@PEADPEAD@?$positional_parameter_base@_WV?$stream_output_adapter@_W@__crt_stdio_output@@@__crt_stdio_output@@IEAA_NAEAPEAD@Z 00000001800f30b0 f i libucrt:output.obj
 0001:000f21fc       ??$extract_argument_from_va_list@PEADPEAD@?$positional_parameter_base@_WV?$string_output_adapter@_W@__crt_stdio_output@@@__crt_stdio_output@@IEAA_NAEAPEAD@Z 00000001800f31fc f i libucrt:output.obj
 0001:000f2348       ??$extract_argument_from_va_list@PEADPEAD@?$standard_base@DV?$stream_output_adapter@D@__crt_stdio_output@@@__crt_stdio_output@@IEAA_NAEAPEAD@Z 00000001800f3348 f i libucrt:output.obj
 0001:000f2364       ??$extract_argument_from_va_list@PEADPEAD@?$standard_base@DV?$string_output_adapter@D@__crt_stdio_output@@@__crt_stdio_output@@IEAA_NAEAPEAD@Z 00000001800f3364 f i libucrt:output.obj
 0001:000f2380       ??$extract_argument_from_va_list@PEADPEAD@?$standard_base@_WV?$stream_output_adapter@_W@__crt_stdio_output@@@__crt_stdio_output@@IEAA_NAEAPEAD@Z 00000001800f3380 f i libucrt:output.obj
 0001:000f239c       ??$extract_argument_from_va_list@PEADPEAD@?$standard_base@_WV?$string_output_adapter@_W@__crt_stdio_output@@@__crt_stdio_output@@IEAA_NAEAPEAD@Z 00000001800f339c f i libucrt:output.obj
 0001:000f23b8       ??$extract_argument_from_va_list@PEAUansi_string@?1??type_case_Z@?$output_processor@DV?$stream_output_adapter@D@__crt_stdio_output@@V?$format_validation_base@DV?$stream_output_adapter@D@__crt_stdio_output@@@2@@__crt_stdio_output@@AEAA_NXZ@PEAU1?1??234@AEAA_NXZ@@?$standard_base@DV?$stream_output_adapter@D@__crt_stdio_output@@@__crt_stdio_output@@IEAA_NAEAPEAUansi_string@?1??type_case_Z@?$output_processor@DV?$stream_output_adapter@D@__crt_stdio_output@@V?$format_validation_base@DV?$stream_output_adapter@D@__crt_stdio_output@@@2@@1@AEAA_NXZ@@Z 00000001800f33b8 f i libucrt:output.obj
 0001:000f23d4       ??$extract_argument_from_va_list@PEAUansi_string@?1??type_case_Z@?$output_processor@DV?$stream_output_adapter@D@__crt_stdio_output@@V?$positional_parameter_base@DV?$stream_output_adapter@D@__crt_stdio_output@@@2@@__crt_stdio_output@@AEAA_NXZ@PEAU1?1??234@AEAA_NXZ@@?$positional_parameter_base@DV?$stream_output_adapter@D@__crt_stdio_output@@@__crt_stdio_output@@IEAA_NAEAPEAUansi_string@?1??type_case_Z@?$output_processor@DV?$stream_output_adapter@D@__crt_stdio_output@@V?$positional_parameter_base@DV?$stream_output_adapter@D@__crt_stdio_output@@@2@@1@AEAA_NXZ@@Z 00000001800f33d4 f i libucrt:output.obj
 0001:000f251c       ??$extract_argument_from_va_list@PEAUansi_string@?1??type_case_Z@?$output_processor@DV?$stream_output_adapter@D@__crt_stdio_output@@V?$positional_parameter_base@DV?$stream_output_adapter@D@__crt_stdio_output@@@2@@__crt_stdio_output@@AEAA_NXZ@PEAU1?1??234@AEAA_NXZ@@?$standard_base@DV?$stream_output_adapter@D@__crt_stdio_output@@@__crt_stdio_output@@IEAA_NAEAPEAUansi_string@?1??type_case_Z@?$output_processor@DV?$stream_output_adapter@D@__crt_stdio_output@@V?$positional_parameter_base@DV?$stream_output_adapter@D@__crt_stdio_output@@@2@@1@AEAA_NXZ@@Z 00000001800f351c f i libucrt:output.obj
 0001:000f2538       ??$extract_argument_from_va_list@PEAUansi_string@?1??type_case_Z@?$output_processor@DV?$stream_output_adapter@D@__crt_stdio_output@@V?$standard_base@DV?$stream_output_adapter@D@__crt_stdio_output@@@2@@__crt_stdio_output@@AEAA_NXZ@PEAU1?1??234@AEAA_NXZ@@?$standard_base@DV?$stream_output_adapter@D@__crt_stdio_output@@@__crt_stdio_output@@IEAA_NAEAPEAUansi_string@?1??type_case_Z@?$output_processor@DV?$stream_output_adapter@D@__crt_stdio_output@@V?$standard_base@DV?$stream_output_adapter@D@__crt_stdio_output@@@2@@1@AEAA_NXZ@@Z 00000001800f3538 f i libucrt:output.obj
 0001:000f2554       ??$extract_argument_from_va_list@PEAUansi_string@?1??type_case_Z@?$output_processor@DV?$string_output_adapter@D@__crt_stdio_output@@V?$format_validation_base@DV?$string_output_adapter@D@__crt_stdio_output@@@2@@__crt_stdio_output@@AEAA_NXZ@PEAU1?1??234@AEAA_NXZ@@?$standard_base@DV?$string_output_adapter@D@__crt_stdio_output@@@__crt_stdio_output@@IEAA_NAEAPEAUansi_string@?1??type_case_Z@?$output_processor@DV?$string_output_adapter@D@__crt_stdio_output@@V?$format_validation_base@DV?$string_output_adapter@D@__crt_stdio_output@@@2@@1@AEAA_NXZ@@Z 00000001800f3554 f i libucrt:output.obj
 0001:000f2570       ??$extract_argument_from_va_list@PEAUansi_string@?1??type_case_Z@?$output_processor@DV?$string_output_adapter@D@__crt_stdio_output@@V?$positional_parameter_base@DV?$string_output_adapter@D@__crt_stdio_output@@@2@@__crt_stdio_output@@AEAA_NXZ@PEAU1?1??234@AEAA_NXZ@@?$positional_parameter_base@DV?$string_output_adapter@D@__crt_stdio_output@@@__crt_stdio_output@@IEAA_NAEAPEAUansi_string@?1??type_case_Z@?$output_processor@DV?$string_output_adapter@D@__crt_stdio_output@@V?$positional_parameter_base@DV?$string_output_adapter@D@__crt_stdio_output@@@2@@1@AEAA_NXZ@@Z 00000001800f3570 f i libucrt:output.obj
 0001:000f26b8       ??$extract_argument_from_va_list@PEAUansi_string@?1??type_case_Z@?$output_processor@DV?$string_output_adapter@D@__crt_stdio_output@@V?$positional_parameter_base@DV?$string_output_adapter@D@__crt_stdio_output@@@2@@__crt_stdio_output@@AEAA_NXZ@PEAU1?1??234@AEAA_NXZ@@?$standard_base@DV?$string_output_adapter@D@__crt_stdio_output@@@__crt_stdio_output@@IEAA_NAEAPEAUansi_string@?1??type_case_Z@?$output_processor@DV?$string_output_adapter@D@__crt_stdio_output@@V?$positional_parameter_base@DV?$string_output_adapter@D@__crt_stdio_output@@@2@@1@AEAA_NXZ@@Z 00000001800f36b8 f i libucrt:output.obj
 0001:000f26d4       ??$extract_argument_from_va_list@PEAUansi_string@?1??type_case_Z@?$output_processor@DV?$string_output_adapter@D@__crt_stdio_output@@V?$standard_base@DV?$string_output_adapter@D@__crt_stdio_output@@@2@@__crt_stdio_output@@AEAA_NXZ@PEAU1?1??234@AEAA_NXZ@@?$standard_base@DV?$string_output_adapter@D@__crt_stdio_output@@@__crt_stdio_output@@IEAA_NAEAPEAUansi_string@?1??type_case_Z@?$output_processor@DV?$string_output_adapter@D@__crt_stdio_output@@V?$standard_base@DV?$string_output_adapter@D@__crt_stdio_output@@@2@@1@AEAA_NXZ@@Z 00000001800f36d4 f i libucrt:output.obj
 0001:000f26f0       ??$extract_argument_from_va_list@PEAUansi_string@?1??type_case_Z@?$output_processor@_WV?$stream_output_adapter@_W@__crt_stdio_output@@V?$format_validation_base@_WV?$stream_output_adapter@_W@__crt_stdio_output@@@2@@__crt_stdio_output@@AEAA_NXZ@PEAU1?1??234@AEAA_NXZ@@?$standard_base@_WV?$stream_output_adapter@_W@__crt_stdio_output@@@__crt_stdio_output@@IEAA_NAEAPEAUansi_string@?1??type_case_Z@?$output_processor@_WV?$stream_output_adapter@_W@__crt_stdio_output@@V?$format_validation_base@_WV?$stream_output_adapter@_W@__crt_stdio_output@@@2@@1@AEAA_NXZ@@Z 00000001800f36f0 f i libucrt:output.obj
 0001:000f270c       ??$extract_argument_from_va_list@PEAUansi_string@?1??type_case_Z@?$output_processor@_WV?$stream_output_adapter@_W@__crt_stdio_output@@V?$positional_parameter_base@_WV?$stream_output_adapter@_W@__crt_stdio_output@@@2@@__crt_stdio_output@@AEAA_NXZ@PEAU1?1??234@AEAA_NXZ@@?$positional_parameter_base@_WV?$stream_output_adapter@_W@__crt_stdio_output@@@__crt_stdio_output@@IEAA_NAEAPEAUansi_string@?1??type_case_Z@?$output_processor@_WV?$stream_output_adapter@_W@__crt_stdio_output@@V?$positional_parameter_base@_WV?$stream_output_adapter@_W@__crt_stdio_output@@@2@@1@AEAA_NXZ@@Z 00000001800f370c f i libucrt:output.obj
 0001:000f2858       ??$extract_argument_from_va_list@PEAUansi_string@?1??type_case_Z@?$output_processor@_WV?$stream_output_adapter@_W@__crt_stdio_output@@V?$positional_parameter_base@_WV?$stream_output_adapter@_W@__crt_stdio_output@@@2@@__crt_stdio_output@@AEAA_NXZ@PEAU1?1??234@AEAA_NXZ@@?$standard_base@_WV?$stream_output_adapter@_W@__crt_stdio_output@@@__crt_stdio_output@@IEAA_NAEAPEAUansi_string@?1??type_case_Z@?$output_processor@_WV?$stream_output_adapter@_W@__crt_stdio_output@@V?$positional_parameter_base@_WV?$stream_output_adapter@_W@__crt_stdio_output@@@2@@1@AEAA_NXZ@@Z 00000001800f3858 f i libucrt:output.obj
 0001:000f2874       ??$extract_argument_from_va_list@PEAUansi_string@?1??type_case_Z@?$output_processor@_WV?$stream_output_adapter@_W@__crt_stdio_output@@V?$standard_base@_WV?$stream_output_adapter@_W@__crt_stdio_output@@@2@@__crt_stdio_output@@AEAA_NXZ@PEAU1?1??234@AEAA_NXZ@@?$standard_base@_WV?$stream_output_adapter@_W@__crt_stdio_output@@@__crt_stdio_output@@IEAA_NAEAPEAUansi_string@?1??type_case_Z@?$output_processor@_WV?$stream_output_adapter@_W@__crt_stdio_output@@V?$standard_base@_WV?$stream_output_adapter@_W@__crt_stdio_output@@@2@@1@AEAA_NXZ@@Z 00000001800f3874 f i libucrt:output.obj
 0001:000f2890       ??$extract_argument_from_va_list@PEAUansi_string@?1??type_case_Z@?$output_processor@_WV?$string_output_adapter@_W@__crt_stdio_output@@V?$format_validation_base@_WV?$string_output_adapter@_W@__crt_stdio_output@@@2@@__crt_stdio_output@@AEAA_NXZ@PEAU1?1??234@AEAA_NXZ@@?$standard_base@_WV?$string_output_adapter@_W@__crt_stdio_output@@@__crt_stdio_output@@IEAA_NAEAPEAUansi_string@?1??type_case_Z@?$output_processor@_WV?$string_output_adapter@_W@__crt_stdio_output@@V?$format_validation_base@_WV?$string_output_adapter@_W@__crt_stdio_output@@@2@@1@AEAA_NXZ@@Z 00000001800f3890 f i libucrt:output.obj
 0001:000f28ac       ??$extract_argument_from_va_list@PEAUansi_string@?1??type_case_Z@?$output_processor@_WV?$string_output_adapter@_W@__crt_stdio_output@@V?$positional_parameter_base@_WV?$string_output_adapter@_W@__crt_stdio_output@@@2@@__crt_stdio_output@@AEAA_NXZ@PEAU1?1??234@AEAA_NXZ@@?$positional_parameter_base@_WV?$string_output_adapter@_W@__crt_stdio_output@@@__crt_stdio_output@@IEAA_NAEAPEAUansi_string@?1??type_case_Z@?$output_processor@_WV?$string_output_adapter@_W@__crt_stdio_output@@V?$positional_parameter_base@_WV?$string_output_adapter@_W@__crt_stdio_output@@@2@@1@AEAA_NXZ@@Z 00000001800f38ac f i libucrt:output.obj
 0001:000f29f8       ??$extract_argument_from_va_list@PEAUansi_string@?1??type_case_Z@?$output_processor@_WV?$string_output_adapter@_W@__crt_stdio_output@@V?$positional_parameter_base@_WV?$string_output_adapter@_W@__crt_stdio_output@@@2@@__crt_stdio_output@@AEAA_NXZ@PEAU1?1??234@AEAA_NXZ@@?$standard_base@_WV?$string_output_adapter@_W@__crt_stdio_output@@@__crt_stdio_output@@IEAA_NAEAPEAUansi_string@?1??type_case_Z@?$output_processor@_WV?$string_output_adapter@_W@__crt_stdio_output@@V?$positional_parameter_base@_WV?$string_output_adapter@_W@__crt_stdio_output@@@2@@1@AEAA_NXZ@@Z 00000001800f39f8 f i libucrt:output.obj
 0001:000f2a14       ??$extract_argument_from_va_list@PEAUansi_string@?1??type_case_Z@?$output_processor@_WV?$string_output_adapter@_W@__crt_stdio_output@@V?$standard_base@_WV?$string_output_adapter@_W@__crt_stdio_output@@@2@@__crt_stdio_output@@AEAA_NXZ@PEAU1?1??234@AEAA_NXZ@@?$standard_base@_WV?$string_output_adapter@_W@__crt_stdio_output@@@__crt_stdio_output@@IEAA_NAEAPEAUansi_string@?1??type_case_Z@?$output_processor@_WV?$string_output_adapter@_W@__crt_stdio_output@@V?$standard_base@_WV?$string_output_adapter@_W@__crt_stdio_output@@@2@@1@AEAA_NXZ@@Z 00000001800f3a14 f i libucrt:output.obj
 0001:000f2a30       ??$extract_argument_from_va_list@PEAXPEAX@?$positional_parameter_base@DV?$stream_output_adapter@D@__crt_stdio_output@@@__crt_stdio_output@@IEAA_NAEAPEAX@Z 00000001800f3a30 f i libucrt:output.obj
 0001:000f2b78       ??$extract_argument_from_va_list@PEAXPEAX@?$positional_parameter_base@DV?$string_output_adapter@D@__crt_stdio_output@@@__crt_stdio_output@@IEAA_NAEAPEAX@Z 00000001800f3b78 f i libucrt:output.obj
 0001:000f2cc0       ??$extract_argument_from_va_list@PEAXPEAX@?$positional_parameter_base@_WV?$stream_output_adapter@_W@__crt_stdio_output@@@__crt_stdio_output@@IEAA_NAEAPEAX@Z 00000001800f3cc0 f i libucrt:output.obj
 0001:000f2e0c       ??$extract_argument_from_va_list@PEAXPEAX@?$positional_parameter_base@_WV?$string_output_adapter@_W@__crt_stdio_output@@@__crt_stdio_output@@IEAA_NAEAPEAX@Z 00000001800f3e0c f i libucrt:output.obj
 0001:000f2f58       ??$extract_argument_from_va_list@PEAXPEAX@?$standard_base@DV?$stream_output_adapter@D@__crt_stdio_output@@@__crt_stdio_output@@IEAA_NAEAPEAX@Z 00000001800f3f58 f i libucrt:output.obj
 0001:000f2f74       ??$extract_argument_from_va_list@PEAXPEAX@?$standard_base@DV?$string_output_adapter@D@__crt_stdio_output@@@__crt_stdio_output@@IEAA_NAEAPEAX@Z 00000001800f3f74 f i libucrt:output.obj
 0001:000f2f90       ??$extract_argument_from_va_list@PEAXPEAX@?$standard_base@_WV?$stream_output_adapter@_W@__crt_stdio_output@@@__crt_stdio_output@@IEAA_NAEAPEAX@Z 00000001800f3f90 f i libucrt:output.obj
 0001:000f2fac       ??$extract_argument_from_va_list@PEAXPEAX@?$standard_base@_WV?$string_output_adapter@_W@__crt_stdio_output@@@__crt_stdio_output@@IEAA_NAEAPEAX@Z 00000001800f3fac f i libucrt:output.obj
 0001:000f2fc8       ??$extract_argument_from_va_list@U_CRT_DOUBLE@@U1@@?$positional_parameter_base@DV?$stream_output_adapter@D@__crt_stdio_output@@@__crt_stdio_output@@IEAA_NAEAU_CRT_DOUBLE@@@Z 00000001800f3fc8 f i libucrt:output.obj
 0001:000f3114       ??$extract_argument_from_va_list@U_CRT_DOUBLE@@U1@@?$positional_parameter_base@DV?$string_output_adapter@D@__crt_stdio_output@@@__crt_stdio_output@@IEAA_NAEAU_CRT_DOUBLE@@@Z 00000001800f4114 f i libucrt:output.obj
 0001:000f3260       ??$extract_argument_from_va_list@U_CRT_DOUBLE@@U1@@?$positional_parameter_base@_WV?$stream_output_adapter@_W@__crt_stdio_output@@@__crt_stdio_output@@IEAA_NAEAU_CRT_DOUBLE@@@Z 00000001800f4260 f i libucrt:output.obj
 0001:000f33ac       ??$extract_argument_from_va_list@U_CRT_DOUBLE@@U1@@?$positional_parameter_base@_WV?$string_output_adapter@_W@__crt_stdio_output@@@__crt_stdio_output@@IEAA_NAEAU_CRT_DOUBLE@@@Z 00000001800f43ac f i libucrt:output.obj
 0001:000f34f8       ??$extract_argument_from_va_list@U_CRT_DOUBLE@@U1@@?$standard_base@DV?$stream_output_adapter@D@__crt_stdio_output@@@__crt_stdio_output@@IEAA_NAEAU_CRT_DOUBLE@@@Z 00000001800f44f8 f i libucrt:output.obj
 0001:000f3518       ??$extract_argument_from_va_list@U_CRT_DOUBLE@@U1@@?$standard_base@DV?$string_output_adapter@D@__crt_stdio_output@@@__crt_stdio_output@@IEAA_NAEAU_CRT_DOUBLE@@@Z 00000001800f4518 f i libucrt:output.obj
 0001:000f3538       ??$extract_argument_from_va_list@U_CRT_DOUBLE@@U1@@?$standard_base@_WV?$stream_output_adapter@_W@__crt_stdio_output@@@__crt_stdio_output@@IEAA_NAEAU_CRT_DOUBLE@@@Z 00000001800f4538 f i libucrt:output.obj
 0001:000f3558       ??$extract_argument_from_va_list@U_CRT_DOUBLE@@U1@@?$standard_base@_WV?$string_output_adapter@_W@__crt_stdio_output@@@__crt_stdio_output@@IEAA_NAEAU_CRT_DOUBLE@@@Z 00000001800f4558 f i libucrt:output.obj
 0001:000f3578       ??$extract_argument_from_va_list@_J_J@?$positional_parameter_base@DV?$stream_output_adapter@D@__crt_stdio_output@@@__crt_stdio_output@@IEAA_NAEA_J@Z 00000001800f4578 f i libucrt:output.obj
 0001:000f36c0       ??$extract_argument_from_va_list@_J_J@?$positional_parameter_base@DV?$string_output_adapter@D@__crt_stdio_output@@@__crt_stdio_output@@IEAA_NAEA_J@Z 00000001800f46c0 f i libucrt:output.obj
 0001:000f3808       ??$extract_argument_from_va_list@_J_J@?$positional_parameter_base@_WV?$stream_output_adapter@_W@__crt_stdio_output@@@__crt_stdio_output@@IEAA_NAEA_J@Z 00000001800f4808 f i libucrt:output.obj
 0001:000f3954       ??$extract_argument_from_va_list@_J_J@?$positional_parameter_base@_WV?$string_output_adapter@_W@__crt_stdio_output@@@__crt_stdio_output@@IEAA_NAEA_J@Z 00000001800f4954 f i libucrt:output.obj
 0001:000f3aa0       ??$extract_argument_from_va_list@_J_J@?$standard_base@DV?$stream_output_adapter@D@__crt_stdio_output@@@__crt_stdio_output@@IEAA_NAEA_J@Z 00000001800f4aa0 f i libucrt:output.obj
 0001:000f3abc       ??$extract_argument_from_va_list@_J_J@?$standard_base@DV?$string_output_adapter@D@__crt_stdio_output@@@__crt_stdio_output@@IEAA_NAEA_J@Z 00000001800f4abc f i libucrt:output.obj
 0001:000f3ad8       ??$extract_argument_from_va_list@_J_J@?$standard_base@_WV?$stream_output_adapter@_W@__crt_stdio_output@@@__crt_stdio_output@@IEAA_NAEA_J@Z 00000001800f4ad8 f i libucrt:output.obj
 0001:000f3af4       ??$extract_argument_from_va_list@_J_J@?$standard_base@_WV?$string_output_adapter@_W@__crt_stdio_output@@@__crt_stdio_output@@IEAA_NAEA_J@Z 00000001800f4af4 f i libucrt:output.obj
 0001:000f3b10       ??$extract_argument_from_va_list@_K_J@?$positional_parameter_base@DV?$stream_output_adapter@D@__crt_stdio_output@@@__crt_stdio_output@@IEAA_NAEA_J@Z 00000001800f4b10 f i libucrt:output.obj
 0001:000f3c58       ??$extract_argument_from_va_list@_K_J@?$positional_parameter_base@DV?$string_output_adapter@D@__crt_stdio_output@@@__crt_stdio_output@@IEAA_NAEA_J@Z 00000001800f4c58 f i libucrt:output.obj
 0001:000f3da0       ??$extract_argument_from_va_list@_K_J@?$positional_parameter_base@_WV?$stream_output_adapter@_W@__crt_stdio_output@@@__crt_stdio_output@@IEAA_NAEA_J@Z 00000001800f4da0 f i libucrt:output.obj
 0001:000f3eec       ??$extract_argument_from_va_list@_K_J@?$positional_parameter_base@_WV?$string_output_adapter@_W@__crt_stdio_output@@@__crt_stdio_output@@IEAA_NAEA_J@Z 00000001800f4eec f i libucrt:output.obj
 0001:000f4038       ??$extract_argument_from_va_list@_K_J@?$standard_base@DV?$stream_output_adapter@D@__crt_stdio_output@@@__crt_stdio_output@@IEAA_NAEA_J@Z 00000001800f5038 f i libucrt:output.obj
 0001:000f4054       ??$extract_argument_from_va_list@_K_J@?$standard_base@DV?$string_output_adapter@D@__crt_stdio_output@@@__crt_stdio_output@@IEAA_NAEA_J@Z 00000001800f5054 f i libucrt:output.obj
 0001:000f4070       ??$extract_argument_from_va_list@_K_J@?$standard_base@_WV?$stream_output_adapter@_W@__crt_stdio_output@@@__crt_stdio_output@@IEAA_NAEA_J@Z 00000001800f5070 f i libucrt:output.obj
 0001:000f408c       ??$extract_argument_from_va_list@_K_J@?$standard_base@_WV?$string_output_adapter@_W@__crt_stdio_output@@@__crt_stdio_output@@IEAA_NAEA_J@Z 00000001800f508c f i libucrt:output.obj
 0001:000f40a8       ??$extract_argument_from_va_list@_W_W@?$positional_parameter_base@DV?$stream_output_adapter@D@__crt_stdio_output@@@__crt_stdio_output@@IEAA_NAEA_W@Z 00000001800f50a8 f i libucrt:output.obj
 0001:000f41f4       ??$extract_argument_from_va_list@_W_W@?$positional_parameter_base@DV?$string_output_adapter@D@__crt_stdio_output@@@__crt_stdio_output@@IEAA_NAEA_W@Z 00000001800f51f4 f i libucrt:output.obj
 0001:000f4340       ??$extract_argument_from_va_list@_W_W@?$positional_parameter_base@_WV?$stream_output_adapter@_W@__crt_stdio_output@@@__crt_stdio_output@@IEAA_NAEA_W@Z 00000001800f5340 f i libucrt:output.obj
 0001:000f448c       ??$extract_argument_from_va_list@_W_W@?$positional_parameter_base@_WV?$string_output_adapter@_W@__crt_stdio_output@@@__crt_stdio_output@@IEAA_NAEA_W@Z 00000001800f548c f i libucrt:output.obj
 0001:000f45d8       ??$extract_argument_from_va_list@_W_W@?$standard_base@DV?$stream_output_adapter@D@__crt_stdio_output@@@__crt_stdio_output@@IEAA_NAEA_W@Z 00000001800f55d8 f i libucrt:output.obj
 0001:000f45f4       ??$extract_argument_from_va_list@_W_W@?$standard_base@DV?$string_output_adapter@D@__crt_stdio_output@@@__crt_stdio_output@@IEAA_NAEA_W@Z 00000001800f55f4 f i libucrt:output.obj
 0001:000f4610       ??$extract_argument_from_va_list@_W_W@?$standard_base@_WV?$stream_output_adapter@_W@__crt_stdio_output@@@__crt_stdio_output@@IEAA_NAEA_W@Z 00000001800f5610 f i libucrt:output.obj
 0001:000f462c       ??$extract_argument_from_va_list@_W_W@?$standard_base@_WV?$string_output_adapter@_W@__crt_stdio_output@@@__crt_stdio_output@@IEAA_NAEA_W@Z 00000001800f562c f i libucrt:output.obj
 0001:000f4648       ??$get_parameter_type@D@?$positional_parameter_base@DV?$stream_output_adapter@D@__crt_stdio_output@@@__crt_stdio_output@@CA?AW4parameter_type@01@PEAD@Z 00000001800f5648 f i libucrt:output.obj
 0001:000f4650       ??$get_parameter_type@D@?$positional_parameter_base@DV?$string_output_adapter@D@__crt_stdio_output@@@__crt_stdio_output@@CA?AW4parameter_type@01@PEAD@Z 00000001800f5650 f i libucrt:output.obj
 0001:000f4658       ??$get_parameter_type@D@?$positional_parameter_base@_WV?$stream_output_adapter@_W@__crt_stdio_output@@@__crt_stdio_output@@CA?AW4parameter_type@01@PEAD@Z 00000001800f5658 f i libucrt:output.obj
 0001:000f4660       ??$get_parameter_type@D@?$positional_parameter_base@_WV?$string_output_adapter@_W@__crt_stdio_output@@@__crt_stdio_output@@CA?AW4parameter_type@01@PEAD@Z 00000001800f5660 f i libucrt:output.obj
 0001:000f4668       ??$get_parameter_type@Uansi_string@?1??type_case_Z@?$output_processor@DV?$stream_output_adapter@D@__crt_stdio_output@@V?$positional_parameter_base@DV?$stream_output_adapter@D@__crt_stdio_output@@@2@@__crt_stdio_output@@AEAA_NXZ@@?$positional_parameter_base@DV?$stream_output_adapter@D@__crt_stdio_output@@@__crt_stdio_output@@CA?AW4parameter_type@01@PEAUansi_string@?1??type_case_Z@?$output_processor@DV?$stream_output_adapter@D@__crt_stdio_output@@V?$positional_parameter_base@DV?$stream_output_adapter@D@__crt_stdio_output@@@2@@1@AEAA_NXZ@@Z 00000001800f5668 f i libucrt:output.obj
 0001:000f4670       ??$get_parameter_type@Uansi_string@?1??type_case_Z@?$output_processor@DV?$string_output_adapter@D@__crt_stdio_output@@V?$positional_parameter_base@DV?$string_output_adapter@D@__crt_stdio_output@@@2@@__crt_stdio_output@@AEAA_NXZ@@?$positional_parameter_base@DV?$string_output_adapter@D@__crt_stdio_output@@@__crt_stdio_output@@CA?AW4parameter_type@01@PEAUansi_string@?1??type_case_Z@?$output_processor@DV?$string_output_adapter@D@__crt_stdio_output@@V?$positional_parameter_base@DV?$string_output_adapter@D@__crt_stdio_output@@@2@@1@AEAA_NXZ@@Z 00000001800f5670 f i libucrt:output.obj
 0001:000f4678       ??$get_parameter_type@Uansi_string@?1??type_case_Z@?$output_processor@_WV?$stream_output_adapter@_W@__crt_stdio_output@@V?$positional_parameter_base@_WV?$stream_output_adapter@_W@__crt_stdio_output@@@2@@__crt_stdio_output@@AEAA_NXZ@@?$positional_parameter_base@_WV?$stream_output_adapter@_W@__crt_stdio_output@@@__crt_stdio_output@@CA?AW4parameter_type@01@PEAUansi_string@?1??type_case_Z@?$output_processor@_WV?$stream_output_adapter@_W@__crt_stdio_output@@V?$positional_parameter_base@_WV?$stream_output_adapter@_W@__crt_stdio_output@@@2@@1@AEAA_NXZ@@Z 00000001800f5678 f i libucrt:output.obj
 0001:000f4680       ??$get_parameter_type@Uansi_string@?1??type_case_Z@?$output_processor@_WV?$string_output_adapter@_W@__crt_stdio_output@@V?$positional_parameter_base@_WV?$string_output_adapter@_W@__crt_stdio_output@@@2@@__crt_stdio_output@@AEAA_NXZ@@?$positional_parameter_base@_WV?$string_output_adapter@_W@__crt_stdio_output@@@__crt_stdio_output@@CA?AW4parameter_type@01@PEAUansi_string@?1??type_case_Z@?$output_processor@_WV?$string_output_adapter@_W@__crt_stdio_output@@V?$positional_parameter_base@_WV?$string_output_adapter@_W@__crt_stdio_output@@@2@@1@AEAA_NXZ@@Z 00000001800f5680 f i libucrt:output.obj
 0001:000f4688       ??$get_parameter_type@X@?$positional_parameter_base@DV?$stream_output_adapter@D@__crt_stdio_output@@@__crt_stdio_output@@CA?AW4parameter_type@01@PEAX@Z 00000001800f5688 f i libucrt:output.obj
 0001:000f4690       ??$get_parameter_type@X@?$positional_parameter_base@DV?$string_output_adapter@D@__crt_stdio_output@@@__crt_stdio_output@@CA?AW4parameter_type@01@PEAX@Z 00000001800f5690 f i libucrt:output.obj
 0001:000f4698       ??$get_parameter_type@X@?$positional_parameter_base@_WV?$stream_output_adapter@_W@__crt_stdio_output@@@__crt_stdio_output@@CA?AW4parameter_type@01@PEAX@Z 00000001800f5698 f i libucrt:output.obj
 0001:000f46a0       ??$get_parameter_type@X@?$positional_parameter_base@_WV?$string_output_adapter@_W@__crt_stdio_output@@@__crt_stdio_output@@CA?AW4parameter_type@01@PEAX@Z 00000001800f56a0 f i libucrt:output.obj
 0001:000f46a8       ??$is_character_specifier@D@?$positional_parameter_base@DV?$stream_output_adapter@D@__crt_stdio_output@@@__crt_stdio_output@@CA_ND@Z 00000001800f56a8 f i libucrt:output.obj
 0001:000f46b4       ??$is_character_specifier@D@?$positional_parameter_base@DV?$string_output_adapter@D@__crt_stdio_output@@@__crt_stdio_output@@CA_ND@Z 00000001800f56b4 f i libucrt:output.obj
 0001:000f46c0       ??$is_character_specifier@_W@?$positional_parameter_base@_WV?$stream_output_adapter@_W@__crt_stdio_output@@@__crt_stdio_output@@CA_N_W@Z 00000001800f56c0 f i libucrt:output.obj
 0001:000f46d4       ??$is_character_specifier@_W@?$positional_parameter_base@_WV?$string_output_adapter@_W@__crt_stdio_output@@@__crt_stdio_output@@CA_N_W@Z 00000001800f56d4 f i libucrt:output.obj
 0001:000f46e8       ??$is_integral_specifier@D@?$positional_parameter_base@DV?$stream_output_adapter@D@__crt_stdio_output@@@__crt_stdio_output@@CA_ND@Z 00000001800f56e8 f i libucrt:output.obj
 0001:000f4714       ??$is_integral_specifier@D@?$positional_parameter_base@DV?$string_output_adapter@D@__crt_stdio_output@@@__crt_stdio_output@@CA_ND@Z 00000001800f5714 f i libucrt:output.obj
 0001:000f4740       ??$is_integral_specifier@_W@?$positional_parameter_base@_WV?$stream_output_adapter@_W@__crt_stdio_output@@@__crt_stdio_output@@CA_N_W@Z 00000001800f5740 f i libucrt:output.obj
 0001:000f4770       ??$is_integral_specifier@_W@?$positional_parameter_base@_WV?$string_output_adapter@_W@__crt_stdio_output@@@__crt_stdio_output@@CA_N_W@Z 00000001800f5770 f i libucrt:output.obj
 0001:000f47a0       ??$is_pointer_specifier@D@?$positional_parameter_base@DV?$stream_output_adapter@D@__crt_stdio_output@@@__crt_stdio_output@@CA_ND@Z 00000001800f57a0 f i libucrt:output.obj
 0001:000f47a8       ??$is_pointer_specifier@D@?$positional_parameter_base@DV?$string_output_adapter@D@__crt_stdio_output@@@__crt_stdio_output@@CA_ND@Z 00000001800f57a8 f i libucrt:output.obj
 0001:000f47b0       ??$is_pointer_specifier@_W@?$positional_parameter_base@_WV?$stream_output_adapter@_W@__crt_stdio_output@@@__crt_stdio_output@@CA_N_W@Z 00000001800f57b0 f i libucrt:output.obj
 0001:000f47bc       ??$is_pointer_specifier@_W@?$positional_parameter_base@_WV?$string_output_adapter@_W@__crt_stdio_output@@@__crt_stdio_output@@CA_N_W@Z 00000001800f57bc f i libucrt:output.obj
 0001:000f47c8       ??$is_string_specifier@D@?$positional_parameter_base@DV?$stream_output_adapter@D@__crt_stdio_output@@@__crt_stdio_output@@CA_ND@Z 00000001800f57c8 f i libucrt:output.obj
 0001:000f47d4       ??$is_string_specifier@D@?$positional_parameter_base@DV?$string_output_adapter@D@__crt_stdio_output@@@__crt_stdio_output@@CA_ND@Z 00000001800f57d4 f i libucrt:output.obj
 0001:000f47e0       ??$is_string_specifier@_W@?$positional_parameter_base@_WV?$stream_output_adapter@_W@__crt_stdio_output@@@__crt_stdio_output@@CA_N_W@Z 00000001800f57e0 f i libucrt:output.obj
 0001:000f47f4       ??$is_string_specifier@_W@?$positional_parameter_base@_WV?$string_output_adapter@_W@__crt_stdio_output@@@__crt_stdio_output@@CA_N_W@Z 00000001800f57f4 f i libucrt:output.obj
 0001:000f4808       ??$is_wide_character_specifier@D@__crt_stdio_output@@YA_N_KDW4length_modifier@0@@Z 00000001800f5808 f i libucrt:output.obj
 0001:000f483c       ??$is_wide_character_specifier@_W@__crt_stdio_output@@YA_N_K_WW4length_modifier@0@@Z 00000001800f583c f i libucrt:output.obj
 0001:000f488c       ??$parse_integer@KV?$c_string_character_source@D@__crt_strtox@@$0A@@__crt_strtox@@YAKAEAV__crt_cached_ptd_host@@V?$c_string_character_source@D@0@H_N@Z 00000001800f588c f i libucrt:output.obj
 0001:000f4bec       ??$parse_integer@KV?$c_string_character_source@_W@__crt_strtox@@$0A@@__crt_strtox@@YAKAEAV__crt_cached_ptd_host@@V?$c_string_character_source@_W@0@H_N@Z 00000001800f5bec f i libucrt:output.obj
 0001:000f5540       ??$peek_va_arg@C@__crt_stdio_output@@YACPEAD@Z 00000001800f6540 f i libucrt:output.obj
 0001:000f5544       ??$peek_va_arg@E@__crt_stdio_output@@YAEPEAD@Z 00000001800f6544 f i libucrt:output.obj
 0001:000f5548       ??$peek_va_arg@F@__crt_stdio_output@@YAFPEAD@Z 00000001800f6548 f i libucrt:output.obj
 0001:000f554c       ??$peek_va_arg@G@__crt_stdio_output@@YAGPEAD@Z 00000001800f654c f i libucrt:output.obj
 0001:000f5550       ??$peek_va_arg@H@__crt_stdio_output@@YAHPEAD@Z 00000001800f6550 f i libucrt:output.obj
 0001:000f5554       ??$peek_va_arg@I@__crt_stdio_output@@YAIPEAD@Z 00000001800f6554 f i libucrt:output.obj
 0001:000f5558       ??$peek_va_arg@PEAD@__crt_stdio_output@@YAPEADPEAD@Z 00000001800f6558 f i libucrt:output.obj
 0001:000f555c       ??$peek_va_arg@PEAUansi_string@?1??type_case_Z@?$output_processor@DV?$stream_output_adapter@D@__crt_stdio_output@@V?$positional_parameter_base@DV?$stream_output_adapter@D@__crt_stdio_output@@@2@@__crt_stdio_output@@AEAA_NXZ@@__crt_stdio_output@@YAPEAUansi_string@?1??type_case_Z@?$output_processor@DV?$stream_output_adapter@D@__crt_stdio_output@@V?$positional_parameter_base@DV?$stream_output_adapter@D@__crt_stdio_output@@@2@@0@AEAA_NXZ@PEAD@Z 00000001800f655c f i libucrt:output.obj
 0001:000f5560       ??$peek_va_arg@PEAUansi_string@?1??type_case_Z@?$output_processor@DV?$string_output_adapter@D@__crt_stdio_output@@V?$positional_parameter_base@DV?$string_output_adapter@D@__crt_stdio_output@@@2@@__crt_stdio_output@@AEAA_NXZ@@__crt_stdio_output@@YAPEAUansi_string@?1??type_case_Z@?$output_processor@DV?$string_output_adapter@D@__crt_stdio_output@@V?$positional_parameter_base@DV?$string_output_adapter@D@__crt_stdio_output@@@2@@0@AEAA_NXZ@PEAD@Z 00000001800f6560 f i libucrt:output.obj
 0001:000f5564       ??$peek_va_arg@PEAUansi_string@?1??type_case_Z@?$output_processor@_WV?$stream_output_adapter@_W@__crt_stdio_output@@V?$positional_parameter_base@_WV?$stream_output_adapter@_W@__crt_stdio_output@@@2@@__crt_stdio_output@@AEAA_NXZ@@__crt_stdio_output@@YAPEAUansi_string@?1??type_case_Z@?$output_processor@_WV?$stream_output_adapter@_W@__crt_stdio_output@@V?$positional_parameter_base@_WV?$stream_output_adapter@_W@__crt_stdio_output@@@2@@0@AEAA_NXZ@PEAD@Z 00000001800f6564 f i libucrt:output.obj
 0001:000f5568       ??$peek_va_arg@PEAUansi_string@?1??type_case_Z@?$output_processor@_WV?$string_output_adapter@_W@__crt_stdio_output@@V?$positional_parameter_base@_WV?$string_output_adapter@_W@__crt_stdio_output@@@2@@__crt_stdio_output@@AEAA_NXZ@@__crt_stdio_output@@YAPEAUansi_string@?1??type_case_Z@?$output_processor@_WV?$string_output_adapter@_W@__crt_stdio_output@@V?$positional_parameter_base@_WV?$string_output_adapter@_W@__crt_stdio_output@@@2@@0@AEAA_NXZ@PEAD@Z 00000001800f6568 f i libucrt:output.obj
 0001:000f556c       ??$peek_va_arg@PEAX@__crt_stdio_output@@YAPEAXPEAD@Z 00000001800f656c f i libucrt:output.obj
 0001:000f5570       ??$peek_va_arg@U_CRT_DOUBLE@@@__crt_stdio_output@@YA?AU_CRT_DOUBLE@@PEAD@Z 00000001800f6570 f i libucrt:output.obj
 0001:000f5574       ??$peek_va_arg@_J@__crt_stdio_output@@YA_JPEAD@Z 00000001800f6574 f i libucrt:output.obj
 0001:000f5578       ??$peek_va_arg@_K@__crt_stdio_output@@YA_KPEAD@Z 00000001800f6578 f i libucrt:output.obj
 0001:000f557c       ??$peek_va_arg@_W@__crt_stdio_output@@YA_WPEAD@Z 00000001800f657c f i libucrt:output.obj
 0001:000f5580       ??$puttc_nolock_internal@AEBDPEAU_iobuf@@AEAV__crt_cached_ptd_host@@@?$__crt_char_traits@D@@SAHAEBD$$QEAPEAU_iobuf@@AEAV__crt_cached_ptd_host@@@Z 00000001800f6580 f i libucrt:output.obj
 0001:000f5590       ??$puttc_nolock_internal@AEB_WPEAU_iobuf@@AEAV__crt_cached_ptd_host@@@?$__crt_char_traits@_W@@SAGAEB_W$$QEAPEAU_iobuf@@AEAV__crt_cached_ptd_host@@@Z 00000001800f6590 f i libucrt:output.obj
 0001:000f55a0       ??$read_va_arg@C@__crt_stdio_output@@YACAEAPEAD@Z 00000001800f65a0 f i libucrt:output.obj
 0001:000f55b0       ??$read_va_arg@E@__crt_stdio_output@@YAEAEAPEAD@Z 00000001800f65b0 f i libucrt:output.obj
 0001:000f55c0       ??$read_va_arg@F@__crt_stdio_output@@YAFAEAPEAD@Z 00000001800f65c0 f i libucrt:output.obj
 0001:000f55d4       ??$read_va_arg@G@__crt_stdio_output@@YAGAEAPEAD@Z 00000001800f65d4 f i libucrt:output.obj
 0001:000f55e8       ??$read_va_arg@H@__crt_stdio_output@@YAHAEAPEAD@Z 00000001800f65e8 f i libucrt:output.obj
 0001:000f55f8       ??$read_va_arg@I@__crt_stdio_output@@YAIAEAPEAD@Z 00000001800f65f8 f i libucrt:output.obj
 0001:000f5608       ??$read_va_arg@PEAD@__crt_stdio_output@@YAPEADAEAPEAD@Z 00000001800f6608 f i libucrt:output.obj
 0001:000f561c       ??$read_va_arg@PEAUansi_string@?1??type_case_Z@?$output_processor@DV?$stream_output_adapter@D@__crt_stdio_output@@V?$format_validation_base@DV?$stream_output_adapter@D@__crt_stdio_output@@@2@@__crt_stdio_output@@AEAA_NXZ@@__crt_stdio_output@@YAPEAUansi_string@?1??type_case_Z@?$output_processor@DV?$stream_output_adapter@D@__crt_stdio_output@@V?$format_validation_base@DV?$stream_output_adapter@D@__crt_stdio_output@@@2@@0@AEAA_NXZ@AEAPEAD@Z 00000001800f661c f i libucrt:output.obj
 0001:000f5630       ??$read_va_arg@PEAUansi_string@?1??type_case_Z@?$output_processor@DV?$stream_output_adapter@D@__crt_stdio_output@@V?$positional_parameter_base@DV?$stream_output_adapter@D@__crt_stdio_output@@@2@@__crt_stdio_output@@AEAA_NXZ@@__crt_stdio_output@@YAPEAUansi_string@?1??type_case_Z@?$output_processor@DV?$stream_output_adapter@D@__crt_stdio_output@@V?$positional_parameter_base@DV?$stream_output_adapter@D@__crt_stdio_output@@@2@@0@AEAA_NXZ@AEAPEAD@Z 00000001800f6630 f i libucrt:output.obj
 0001:000f5644       ??$read_va_arg@PEAUansi_string@?1??type_case_Z@?$output_processor@DV?$stream_output_adapter@D@__crt_stdio_output@@V?$standard_base@DV?$stream_output_adapter@D@__crt_stdio_output@@@2@@__crt_stdio_output@@AEAA_NXZ@@__crt_stdio_output@@YAPEAUansi_string@?1??type_case_Z@?$output_processor@DV?$stream_output_adapter@D@__crt_stdio_output@@V?$standard_base@DV?$stream_output_adapter@D@__crt_stdio_output@@@2@@0@AEAA_NXZ@AEAPEAD@Z 00000001800f6644 f i libucrt:output.obj
 0001:000f5658       ??$read_va_arg@PEAUansi_string@?1??type_case_Z@?$output_processor@DV?$string_output_adapter@D@__crt_stdio_output@@V?$format_validation_base@DV?$string_output_adapter@D@__crt_stdio_output@@@2@@__crt_stdio_output@@AEAA_NXZ@@__crt_stdio_output@@YAPEAUansi_string@?1??type_case_Z@?$output_processor@DV?$string_output_adapter@D@__crt_stdio_output@@V?$format_validation_base@DV?$string_output_adapter@D@__crt_stdio_output@@@2@@0@AEAA_NXZ@AEAPEAD@Z 00000001800f6658 f i libucrt:output.obj
 0001:000f566c       ??$read_va_arg@PEAUansi_string@?1??type_case_Z@?$output_processor@DV?$string_output_adapter@D@__crt_stdio_output@@V?$positional_parameter_base@DV?$string_output_adapter@D@__crt_stdio_output@@@2@@__crt_stdio_output@@AEAA_NXZ@@__crt_stdio_output@@YAPEAUansi_string@?1??type_case_Z@?$output_processor@DV?$string_output_adapter@D@__crt_stdio_output@@V?$positional_parameter_base@DV?$string_output_adapter@D@__crt_stdio_output@@@2@@0@AEAA_NXZ@AEAPEAD@Z 00000001800f666c f i libucrt:output.obj
 0001:000f5680       ??$read_va_arg@PEAUansi_string@?1??type_case_Z@?$output_processor@DV?$string_output_adapter@D@__crt_stdio_output@@V?$standard_base@DV?$string_output_adapter@D@__crt_stdio_output@@@2@@__crt_stdio_output@@AEAA_NXZ@@__crt_stdio_output@@YAPEAUansi_string@?1??type_case_Z@?$output_processor@DV?$string_output_adapter@D@__crt_stdio_output@@V?$standard_base@DV?$string_output_adapter@D@__crt_stdio_output@@@2@@0@AEAA_NXZ@AEAPEAD@Z 00000001800f6680 f i libucrt:output.obj
 0001:000f5694       ??$read_va_arg@PEAUansi_string@?1??type_case_Z@?$output_processor@_WV?$stream_output_adapter@_W@__crt_stdio_output@@V?$format_validation_base@_WV?$stream_output_adapter@_W@__crt_stdio_output@@@2@@__crt_stdio_output@@AEAA_NXZ@@__crt_stdio_output@@YAPEAUansi_string@?1??type_case_Z@?$output_processor@_WV?$stream_output_adapter@_W@__crt_stdio_output@@V?$format_validation_base@_WV?$stream_output_adapter@_W@__crt_stdio_output@@@2@@0@AEAA_NXZ@AEAPEAD@Z 00000001800f6694 f i libucrt:output.obj
 0001:000f56a8       ??$read_va_arg@PEAUansi_string@?1??type_case_Z@?$output_processor@_WV?$stream_output_adapter@_W@__crt_stdio_output@@V?$positional_parameter_base@_WV?$stream_output_adapter@_W@__crt_stdio_output@@@2@@__crt_stdio_output@@AEAA_NXZ@@__crt_stdio_output@@YAPEAUansi_string@?1??type_case_Z@?$output_processor@_WV?$stream_output_adapter@_W@__crt_stdio_output@@V?$positional_parameter_base@_WV?$stream_output_adapter@_W@__crt_stdio_output@@@2@@0@AEAA_NXZ@AEAPEAD@Z 00000001800f66a8 f i libucrt:output.obj
 0001:000f56bc       ??$read_va_arg@PEAUansi_string@?1??type_case_Z@?$output_processor@_WV?$stream_output_adapter@_W@__crt_stdio_output@@V?$standard_base@_WV?$stream_output_adapter@_W@__crt_stdio_output@@@2@@__crt_stdio_output@@AEAA_NXZ@@__crt_stdio_output@@YAPEAUansi_string@?1??type_case_Z@?$output_processor@_WV?$stream_output_adapter@_W@__crt_stdio_output@@V?$standard_base@_WV?$stream_output_adapter@_W@__crt_stdio_output@@@2@@0@AEAA_NXZ@AEAPEAD@Z 00000001800f66bc f i libucrt:output.obj
 0001:000f56d0       ??$read_va_arg@PEAUansi_string@?1??type_case_Z@?$output_processor@_WV?$string_output_adapter@_W@__crt_stdio_output@@V?$format_validation_base@_WV?$string_output_adapter@_W@__crt_stdio_output@@@2@@__crt_stdio_output@@AEAA_NXZ@@__crt_stdio_output@@YAPEAUansi_string@?1??type_case_Z@?$output_processor@_WV?$string_output_adapter@_W@__crt_stdio_output@@V?$format_validation_base@_WV?$string_output_adapter@_W@__crt_stdio_output@@@2@@0@AEAA_NXZ@AEAPEAD@Z 00000001800f66d0 f i libucrt:output.obj
 0001:000f56e4       ??$read_va_arg@PEAUansi_string@?1??type_case_Z@?$output_processor@_WV?$string_output_adapter@_W@__crt_stdio_output@@V?$positional_parameter_base@_WV?$string_output_adapter@_W@__crt_stdio_output@@@2@@__crt_stdio_output@@AEAA_NXZ@@__crt_stdio_output@@YAPEAUansi_string@?1??type_case_Z@?$output_processor@_WV?$string_output_adapter@_W@__crt_stdio_output@@V?$positional_parameter_base@_WV?$string_output_adapter@_W@__crt_stdio_output@@@2@@0@AEAA_NXZ@AEAPEAD@Z 00000001800f66e4 f i libucrt:output.obj
 0001:000f56f8       ??$read_va_arg@PEAUansi_string@?1??type_case_Z@?$output_processor@_WV?$string_output_adapter@_W@__crt_stdio_output@@V?$standard_base@_WV?$string_output_adapter@_W@__crt_stdio_output@@@2@@__crt_stdio_output@@AEAA_NXZ@@__crt_stdio_output@@YAPEAUansi_string@?1??type_case_Z@?$output_processor@_WV?$string_output_adapter@_W@__crt_stdio_output@@V?$standard_base@_WV?$string_output_adapter@_W@__crt_stdio_output@@@2@@0@AEAA_NXZ@AEAPEAD@Z 00000001800f66f8 f i libucrt:output.obj
 0001:000f570c       ??$read_va_arg@PEAX@__crt_stdio_output@@YAPEAXAEAPEAD@Z 00000001800f670c f i libucrt:output.obj
 0001:000f5720       ??$read_va_arg@U_CRT_DOUBLE@@@__crt_stdio_output@@YA?AU_CRT_DOUBLE@@AEAPEAD@Z 00000001800f6720 f i libucrt:output.obj
 0001:000f5734       ??$read_va_arg@_J@__crt_stdio_output@@YA_JAEAPEAD@Z 00000001800f6734 f i libucrt:output.obj
 0001:000f5748       ??$read_va_arg@_K@__crt_stdio_output@@YA_KAEAPEAD@Z 00000001800f6748 f i libucrt:output.obj
 0001:000f575c       ??$read_va_arg@_W@__crt_stdio_output@@YA_WAEAPEAD@Z 00000001800f675c f i libucrt:output.obj
 0001:000f5770       ??$scratch_count@D@formatting_buffer@__crt_stdio_output@@QEBA_KXZ 00000001800f6770 f i libucrt:output.obj
 0001:000f5794       ??$scratch_data@D@formatting_buffer@__crt_stdio_output@@QEAAPEADXZ 00000001800f6794 f i libucrt:output.obj
 0001:000f57c0       ??$type_case_integer@$07@?$output_processor@DV?$stream_output_adapter@D@__crt_stdio_output@@V?$format_validation_base@DV?$stream_output_adapter@D@__crt_stdio_output@@@2@@__crt_stdio_output@@AEAA_N_N@Z 00000001800f67c0 f i libucrt:output.obj
 0001:000f5a44       ??$type_case_integer@$07@?$output_processor@DV?$stream_output_adapter@D@__crt_stdio_output@@V?$positional_parameter_base@DV?$stream_output_adapter@D@__crt_stdio_output@@@2@@__crt_stdio_output@@AEAA_N_N@Z 00000001800f6a44 f i libucrt:output.obj
 0001:000f5cfc       ??$type_case_integer@$07@?$output_processor@DV?$stream_output_adapter@D@__crt_stdio_output@@V?$standard_base@DV?$stream_output_adapter@D@__crt_stdio_output@@@2@@__crt_stdio_output@@AEAA_N_N@Z 00000001800f6cfc f i libucrt:output.obj
 0001:000f5f80       ??$type_case_integer@$07@?$output_processor@DV?$string_output_adapter@D@__crt_stdio_output@@V?$format_validation_base@DV?$string_output_adapter@D@__crt_stdio_output@@@2@@__crt_stdio_output@@AEAA_N_N@Z 00000001800f6f80 f i libucrt:output.obj
 0001:000f6204       ??$type_case_integer@$07@?$output_processor@DV?$string_output_adapter@D@__crt_stdio_output@@V?$positional_parameter_base@DV?$string_output_adapter@D@__crt_stdio_output@@@2@@__crt_stdio_output@@AEAA_N_N@Z 00000001800f7204 f i libucrt:output.obj
 0001:000f64bc       ??$type_case_integer@$07@?$output_processor@DV?$string_output_adapter@D@__crt_stdio_output@@V?$standard_base@DV?$string_output_adapter@D@__crt_stdio_output@@@2@@__crt_stdio_output@@AEAA_N_N@Z 00000001800f74bc f i libucrt:output.obj
 0001:000f6740       ??$type_case_integer@$07@?$output_processor@_WV?$stream_output_adapter@_W@__crt_stdio_output@@V?$format_validation_base@_WV?$stream_output_adapter@_W@__crt_stdio_output@@@2@@__crt_stdio_output@@AEAA_N_N@Z 00000001800f7740 f i libucrt:output.obj
 0001:000f69cc       ??$type_case_integer@$07@?$output_processor@_WV?$stream_output_adapter@_W@__crt_stdio_output@@V?$positional_parameter_base@_WV?$stream_output_adapter@_W@__crt_stdio_output@@@2@@__crt_stdio_output@@AEAA_N_N@Z 00000001800f79cc f i libucrt:output.obj
 0001:000f6c8c       ??$type_case_integer@$07@?$output_processor@_WV?$stream_output_adapter@_W@__crt_stdio_output@@V?$standard_base@_WV?$stream_output_adapter@_W@__crt_stdio_output@@@2@@__crt_stdio_output@@AEAA_N_N@Z 00000001800f7c8c f i libucrt:output.obj
 0001:000f6f18       ??$type_case_integer@$07@?$output_processor@_WV?$string_output_adapter@_W@__crt_stdio_output@@V?$format_validation_base@_WV?$string_output_adapter@_W@__crt_stdio_output@@@2@@__crt_stdio_output@@AEAA_N_N@Z 00000001800f7f18 f i libucrt:output.obj
 0001:000f71a4       ??$type_case_integer@$07@?$output_processor@_WV?$string_output_adapter@_W@__crt_stdio_output@@V?$positional_parameter_base@_WV?$string_output_adapter@_W@__crt_stdio_output@@@2@@__crt_stdio_output@@AEAA_N_N@Z 00000001800f81a4 f i libucrt:output.obj
 0001:000f7464       ??$type_case_integer@$07@?$output_processor@_WV?$string_output_adapter@_W@__crt_stdio_output@@V?$standard_base@_WV?$string_output_adapter@_W@__crt_stdio_output@@@2@@__crt_stdio_output@@AEAA_N_N@Z 00000001800f8464 f i libucrt:output.obj
 0001:000f76f0       ??$type_case_integer@$09@?$output_processor@DV?$stream_output_adapter@D@__crt_stdio_output@@V?$format_validation_base@DV?$stream_output_adapter@D@__crt_stdio_output@@@2@@__crt_stdio_output@@AEAA_N_N@Z 00000001800f86f0 f i libucrt:output.obj
 0001:000f7974       ??$type_case_integer@$09@?$output_processor@DV?$stream_output_adapter@D@__crt_stdio_output@@V?$positional_parameter_base@DV?$stream_output_adapter@D@__crt_stdio_output@@@2@@__crt_stdio_output@@AEAA_N_N@Z 00000001800f8974 f i libucrt:output.obj
 0001:000f7c2c       ??$type_case_integer@$09@?$output_processor@DV?$stream_output_adapter@D@__crt_stdio_output@@V?$standard_base@DV?$stream_output_adapter@D@__crt_stdio_output@@@2@@__crt_stdio_output@@AEAA_N_N@Z 00000001800f8c2c f i libucrt:output.obj
 0001:000f7eb0       ??$type_case_integer@$09@?$output_processor@DV?$string_output_adapter@D@__crt_stdio_output@@V?$format_validation_base@DV?$string_output_adapter@D@__crt_stdio_output@@@2@@__crt_stdio_output@@AEAA_N_N@Z 00000001800f8eb0 f i libucrt:output.obj
 0001:000f8134       ??$type_case_integer@$09@?$output_processor@DV?$string_output_adapter@D@__crt_stdio_output@@V?$positional_parameter_base@DV?$string_output_adapter@D@__crt_stdio_output@@@2@@__crt_stdio_output@@AEAA_N_N@Z 00000001800f9134 f i libucrt:output.obj
 0001:000f83ec       ??$type_case_integer@$09@?$output_processor@DV?$string_output_adapter@D@__crt_stdio_output@@V?$standard_base@DV?$string_output_adapter@D@__crt_stdio_output@@@2@@__crt_stdio_output@@AEAA_N_N@Z 00000001800f93ec f i libucrt:output.obj
 0001:000f8670       ??$type_case_integer@$09@?$output_processor@_WV?$stream_output_adapter@_W@__crt_stdio_output@@V?$format_validation_base@_WV?$stream_output_adapter@_W@__crt_stdio_output@@@2@@__crt_stdio_output@@AEAA_N_N@Z 00000001800f9670 f i libucrt:output.obj
 0001:000f88fc       ??$type_case_integer@$09@?$output_processor@_WV?$stream_output_adapter@_W@__crt_stdio_output@@V?$positional_parameter_base@_WV?$stream_output_adapter@_W@__crt_stdio_output@@@2@@__crt_stdio_output@@AEAA_N_N@Z 00000001800f98fc f i libucrt:output.obj
 0001:000f8bbc       ??$type_case_integer@$09@?$output_processor@_WV?$stream_output_adapter@_W@__crt_stdio_output@@V?$standard_base@_WV?$stream_output_adapter@_W@__crt_stdio_output@@@2@@__crt_stdio_output@@AEAA_N_N@Z 00000001800f9bbc f i libucrt:output.obj
 0001:000f8e48       ??$type_case_integer@$09@?$output_processor@_WV?$string_output_adapter@_W@__crt_stdio_output@@V?$format_validation_base@_WV?$string_output_adapter@_W@__crt_stdio_output@@@2@@__crt_stdio_output@@AEAA_N_N@Z 00000001800f9e48 f i libucrt:output.obj
 0001:000f90d4       ??$type_case_integer@$09@?$output_processor@_WV?$string_output_adapter@_W@__crt_stdio_output@@V?$positional_parameter_base@_WV?$string_output_adapter@_W@__crt_stdio_output@@@2@@__crt_stdio_output@@AEAA_N_N@Z 00000001800fa0d4 f i libucrt:output.obj
 0001:000f9394       ??$type_case_integer@$09@?$output_processor@_WV?$string_output_adapter@_W@__crt_stdio_output@@V?$standard_base@_WV?$string_output_adapter@_W@__crt_stdio_output@@@2@@__crt_stdio_output@@AEAA_N_N@Z 00000001800fa394 f i libucrt:output.obj
 0001:000f9620       ??$type_case_integer@$0BA@@?$output_processor@DV?$stream_output_adapter@D@__crt_stdio_output@@V?$format_validation_base@DV?$stream_output_adapter@D@__crt_stdio_output@@@2@@__crt_stdio_output@@AEAA_N_N@Z 00000001800fa620 f i libucrt:output.obj
 0001:000f98a4       ??$type_case_integer@$0BA@@?$output_processor@DV?$stream_output_adapter@D@__crt_stdio_output@@V?$positional_parameter_base@DV?$stream_output_adapter@D@__crt_stdio_output@@@2@@__crt_stdio_output@@AEAA_N_N@Z 00000001800fa8a4 f i libucrt:output.obj
 0001:000f9b5c       ??$type_case_integer@$0BA@@?$output_processor@DV?$stream_output_adapter@D@__crt_stdio_output@@V?$standard_base@DV?$stream_output_adapter@D@__crt_stdio_output@@@2@@__crt_stdio_output@@AEAA_N_N@Z 00000001800fab5c f i libucrt:output.obj
 0001:000f9de0       ??$type_case_integer@$0BA@@?$output_processor@DV?$string_output_adapter@D@__crt_stdio_output@@V?$format_validation_base@DV?$string_output_adapter@D@__crt_stdio_output@@@2@@__crt_stdio_output@@AEAA_N_N@Z 00000001800fade0 f i libucrt:output.obj
 0001:000fa064       ??$type_case_integer@$0BA@@?$output_processor@DV?$string_output_adapter@D@__crt_stdio_output@@V?$positional_parameter_base@DV?$string_output_adapter@D@__crt_stdio_output@@@2@@__crt_stdio_output@@AEAA_N_N@Z 00000001800fb064 f i libucrt:output.obj
 0001:000fa31c       ??$type_case_integer@$0BA@@?$output_processor@DV?$string_output_adapter@D@__crt_stdio_output@@V?$standard_base@DV?$string_output_adapter@D@__crt_stdio_output@@@2@@__crt_stdio_output@@AEAA_N_N@Z 00000001800fb31c f i libucrt:output.obj
 0001:000fa5a0       ??$type_case_integer@$0BA@@?$output_processor@_WV?$stream_output_adapter@_W@__crt_stdio_output@@V?$format_validation_base@_WV?$stream_output_adapter@_W@__crt_stdio_output@@@2@@__crt_stdio_output@@AEAA_N_N@Z 00000001800fb5a0 f i libucrt:output.obj
 0001:000fa82c       ??$type_case_integer@$0BA@@?$output_processor@_WV?$stream_output_adapter@_W@__crt_stdio_output@@V?$positional_parameter_base@_WV?$stream_output_adapter@_W@__crt_stdio_output@@@2@@__crt_stdio_output@@AEAA_N_N@Z 00000001800fb82c f i libucrt:output.obj
 0001:000faaec       ??$type_case_integer@$0BA@@?$output_processor@_WV?$stream_output_adapter@_W@__crt_stdio_output@@V?$standard_base@_WV?$stream_output_adapter@_W@__crt_stdio_output@@@2@@__crt_stdio_output@@AEAA_N_N@Z 00000001800fbaec f i libucrt:output.obj
 0001:000fad78       ??$type_case_integer@$0BA@@?$output_processor@_WV?$string_output_adapter@_W@__crt_stdio_output@@V?$format_validation_base@_WV?$string_output_adapter@_W@__crt_stdio_output@@@2@@__crt_stdio_output@@AEAA_N_N@Z 00000001800fbd78 f i libucrt:output.obj
 0001:000fb004       ??$type_case_integer@$0BA@@?$output_processor@_WV?$string_output_adapter@_W@__crt_stdio_output@@V?$positional_parameter_base@_WV?$string_output_adapter@_W@__crt_stdio_output@@@2@@__crt_stdio_output@@AEAA_N_N@Z 00000001800fc004 f i libucrt:output.obj
 0001:000fb2c4       ??$type_case_integer@$0BA@@?$output_processor@_WV?$string_output_adapter@_W@__crt_stdio_output@@V?$standard_base@_WV?$string_output_adapter@_W@__crt_stdio_output@@@2@@__crt_stdio_output@@AEAA_N_N@Z 00000001800fc2c4 f i libucrt:output.obj
 0001:000fb550       ??$type_case_integer_parse_into_buffer@I$07@?$output_processor@DV?$stream_output_adapter@D@__crt_stdio_output@@V?$format_validation_base@DV?$stream_output_adapter@D@__crt_stdio_output@@@2@@__crt_stdio_output@@AEAAXI_N@Z 00000001800fc550 f i libucrt:output.obj
 0001:000fb5d8       ??$type_case_integer_parse_into_buffer@I$07@?$output_processor@DV?$stream_output_adapter@D@__crt_stdio_output@@V?$positional_parameter_base@DV?$stream_output_adapter@D@__crt_stdio_output@@@2@@__crt_stdio_output@@AEAAXI_N@Z 00000001800fc5d8 f i libucrt:output.obj
 0001:000fb660       ??$type_case_integer_parse_into_buffer@I$07@?$output_processor@DV?$stream_output_adapter@D@__crt_stdio_output@@V?$standard_base@DV?$stream_output_adapter@D@__crt_stdio_output@@@2@@__crt_stdio_output@@AEAAXI_N@Z 00000001800fc660 f i libucrt:output.obj
 0001:000fb6e8       ??$type_case_integer_parse_into_buffer@I$07@?$output_processor@DV?$string_output_adapter@D@__crt_stdio_output@@V?$format_validation_base@DV?$string_output_adapter@D@__crt_stdio_output@@@2@@__crt_stdio_output@@AEAAXI_N@Z 00000001800fc6e8 f i libucrt:output.obj
 0001:000fb770       ??$type_case_integer_parse_into_buffer@I$07@?$output_processor@DV?$string_output_adapter@D@__crt_stdio_output@@V?$positional_parameter_base@DV?$string_output_adapter@D@__crt_stdio_output@@@2@@__crt_stdio_output@@AEAAXI_N@Z 00000001800fc770 f i libucrt:output.obj
 0001:000fb7f8       ??$type_case_integer_parse_into_buffer@I$07@?$output_processor@DV?$string_output_adapter@D@__crt_stdio_output@@V?$standard_base@DV?$string_output_adapter@D@__crt_stdio_output@@@2@@__crt_stdio_output@@AEAAXI_N@Z 00000001800fc7f8 f i libucrt:output.obj
 0001:000fb880       ??$type_case_integer_parse_into_buffer@I$07@?$output_processor@_WV?$stream_output_adapter@_W@__crt_stdio_output@@V?$format_validation_base@_WV?$stream_output_adapter@_W@__crt_stdio_output@@@2@@__crt_stdio_output@@AEAAXI_N@Z 00000001800fc880 f i libucrt:output.obj
 0001:000fb928       ??$type_case_integer_parse_into_buffer@I$07@?$output_processor@_WV?$stream_output_adapter@_W@__crt_stdio_output@@V?$positional_parameter_base@_WV?$stream_output_adapter@_W@__crt_stdio_output@@@2@@__crt_stdio_output@@AEAAXI_N@Z 00000001800fc928 f i libucrt:output.obj
 0001:000fb9d0       ??$type_case_integer_parse_into_buffer@I$07@?$output_processor@_WV?$stream_output_adapter@_W@__crt_stdio_output@@V?$standard_base@_WV?$stream_output_adapter@_W@__crt_stdio_output@@@2@@__crt_stdio_output@@AEAAXI_N@Z 00000001800fc9d0 f i libucrt:output.obj
 0001:000fba78       ??$type_case_integer_parse_into_buffer@I$07@?$output_processor@_WV?$string_output_adapter@_W@__crt_stdio_output@@V?$format_validation_base@_WV?$string_output_adapter@_W@__crt_stdio_output@@@2@@__crt_stdio_output@@AEAAXI_N@Z 00000001800fca78 f i libucrt:output.obj
 0001:000fbb20       ??$type_case_integer_parse_into_buffer@I$07@?$output_processor@_WV?$string_output_adapter@_W@__crt_stdio_output@@V?$positional_parameter_base@_WV?$string_output_adapter@_W@__crt_stdio_output@@@2@@__crt_stdio_output@@AEAAXI_N@Z 00000001800fcb20 f i libucrt:output.obj
 0001:000fbbc8       ??$type_case_integer_parse_into_buffer@I$07@?$output_processor@_WV?$string_output_adapter@_W@__crt_stdio_output@@V?$standard_base@_WV?$string_output_adapter@_W@__crt_stdio_output@@@2@@__crt_stdio_output@@AEAAXI_N@Z 00000001800fcbc8 f i libucrt:output.obj
 0001:000fbc70       ??$type_case_integer_parse_into_buffer@I$09@?$output_processor@DV?$stream_output_adapter@D@__crt_stdio_output@@V?$format_validation_base@DV?$stream_output_adapter@D@__crt_stdio_output@@@2@@__crt_stdio_output@@AEAAXI_N@Z 00000001800fcc70 f i libucrt:output.obj
 0001:000fbd44       ??$type_case_integer_parse_into_buffer@I$09@?$output_processor@DV?$stream_output_adapter@D@__crt_stdio_output@@V?$positional_parameter_base@DV?$stream_output_adapter@D@__crt_stdio_output@@@2@@__crt_stdio_output@@AEAAXI_N@Z 00000001800fcd44 f i libucrt:output.obj
 0001:000fbe18       ??$type_case_integer_parse_into_buffer@I$09@?$output_processor@DV?$stream_output_adapter@D@__crt_stdio_output@@V?$standard_base@DV?$stream_output_adapter@D@__crt_stdio_output@@@2@@__crt_stdio_output@@AEAAXI_N@Z 00000001800fce18 f i libucrt:output.obj
 0001:000fbeec       ??$type_case_integer_parse_into_buffer@I$09@?$output_processor@DV?$string_output_adapter@D@__crt_stdio_output@@V?$format_validation_base@DV?$string_output_adapter@D@__crt_stdio_output@@@2@@__crt_stdio_output@@AEAAXI_N@Z 00000001800fceec f i libucrt:output.obj
 0001:000fbfc0       ??$type_case_integer_parse_into_buffer@I$09@?$output_processor@DV?$string_output_adapter@D@__crt_stdio_output@@V?$positional_parameter_base@DV?$string_output_adapter@D@__crt_stdio_output@@@2@@__crt_stdio_output@@AEAAXI_N@Z 00000001800fcfc0 f i libucrt:output.obj
 0001:000fc094       ??$type_case_integer_parse_into_buffer@I$09@?$output_processor@DV?$string_output_adapter@D@__crt_stdio_output@@V?$standard_base@DV?$string_output_adapter@D@__crt_stdio_output@@@2@@__crt_stdio_output@@AEAAXI_N@Z 00000001800fd094 f i libucrt:output.obj
 0001:000fc168       ??$type_case_integer_parse_into_buffer@I$09@?$output_processor@_WV?$stream_output_adapter@_W@__crt_stdio_output@@V?$format_validation_base@_WV?$stream_output_adapter@_W@__crt_stdio_output@@@2@@__crt_stdio_output@@AEAAXI_N@Z 00000001800fd168 f i libucrt:output.obj
 0001:000fc254       ??$type_case_integer_parse_into_buffer@I$09@?$output_processor@_WV?$stream_output_adapter@_W@__crt_stdio_output@@V?$positional_parameter_base@_WV?$stream_output_adapter@_W@__crt_stdio_output@@@2@@__crt_stdio_output@@AEAAXI_N@Z 00000001800fd254 f i libucrt:output.obj
 0001:000fc340       ??$type_case_integer_parse_into_buffer@I$09@?$output_processor@_WV?$stream_output_adapter@_W@__crt_stdio_output@@V?$standard_base@_WV?$stream_output_adapter@_W@__crt_stdio_output@@@2@@__crt_stdio_output@@AEAAXI_N@Z 00000001800fd340 f i libucrt:output.obj
 0001:000fc42c       ??$type_case_integer_parse_into_buffer@I$09@?$output_processor@_WV?$string_output_adapter@_W@__crt_stdio_output@@V?$format_validation_base@_WV?$string_output_adapter@_W@__crt_stdio_output@@@2@@__crt_stdio_output@@AEAAXI_N@Z 00000001800fd42c f i libucrt:output.obj
 0001:000fc518       ??$type_case_integer_parse_into_buffer@I$09@?$output_processor@_WV?$string_output_adapter@_W@__crt_stdio_output@@V?$positional_parameter_base@_WV?$string_output_adapter@_W@__crt_stdio_output@@@2@@__crt_stdio_output@@AEAAXI_N@Z 00000001800fd518 f i libucrt:output.obj
 0001:000fc604       ??$type_case_integer_parse_into_buffer@I$09@?$output_processor@_WV?$string_output_adapter@_W@__crt_stdio_output@@V?$standard_base@_WV?$string_output_adapter@_W@__crt_stdio_output@@@2@@__crt_stdio_output@@AEAAXI_N@Z 00000001800fd604 f i libucrt:output.obj
 0001:000fc6f0       ??$type_case_integer_parse_into_buffer@I$0BA@@?$output_processor@DV?$stream_output_adapter@D@__crt_stdio_output@@V?$format_validation_base@DV?$stream_output_adapter@D@__crt_stdio_output@@@2@@__crt_stdio_output@@AEAAXI_N@Z 00000001800fd6f0 f i libucrt:output.obj
 0001:000fc798       ??$type_case_integer_parse_into_buffer@I$0BA@@?$output_processor@DV?$stream_output_adapter@D@__crt_stdio_output@@V?$positional_parameter_base@DV?$stream_output_adapter@D@__crt_stdio_output@@@2@@__crt_stdio_output@@AEAAXI_N@Z 00000001800fd798 f i libucrt:output.obj
 0001:000fc840       ??$type_case_integer_parse_into_buffer@I$0BA@@?$output_processor@DV?$stream_output_adapter@D@__crt_stdio_output@@V?$standard_base@DV?$stream_output_adapter@D@__crt_stdio_output@@@2@@__crt_stdio_output@@AEAAXI_N@Z 00000001800fd840 f i libucrt:output.obj
 0001:000fc8e8       ??$type_case_integer_parse_into_buffer@I$0BA@@?$output_processor@DV?$string_output_adapter@D@__crt_stdio_output@@V?$format_validation_base@DV?$string_output_adapter@D@__crt_stdio_output@@@2@@__crt_stdio_output@@AEAAXI_N@Z 00000001800fd8e8 f i libucrt:output.obj
 0001:000fc990       ??$type_case_integer_parse_into_buffer@I$0BA@@?$output_processor@DV?$string_output_adapter@D@__crt_stdio_output@@V?$positional_parameter_base@DV?$string_output_adapter@D@__crt_stdio_output@@@2@@__crt_stdio_output@@AEAAXI_N@Z 00000001800fd990 f i libucrt:output.obj
 0001:000fca38       ??$type_case_integer_parse_into_buffer@I$0BA@@?$output_processor@DV?$string_output_adapter@D@__crt_stdio_output@@V?$standard_base@DV?$string_output_adapter@D@__crt_stdio_output@@@2@@__crt_stdio_output@@AEAAXI_N@Z 00000001800fda38 f i libucrt:output.obj
 0001:000fcae0       ??$type_case_integer_parse_into_buffer@I$0BA@@?$output_processor@_WV?$stream_output_adapter@_W@__crt_stdio_output@@V?$format_validation_base@_WV?$stream_output_adapter@_W@__crt_stdio_output@@@2@@__crt_stdio_output@@AEAAXI_N@Z 00000001800fdae0 f i libucrt:output.obj
 0001:000fcba8       ??$type_case_integer_parse_into_buffer@I$0BA@@?$output_processor@_WV?$stream_output_adapter@_W@__crt_stdio_output@@V?$positional_parameter_base@_WV?$stream_output_adapter@_W@__crt_stdio_output@@@2@@__crt_stdio_output@@AEAAXI_N@Z 00000001800fdba8 f i libucrt:output.obj
 0001:000fcc70       ??$type_case_integer_parse_into_buffer@I$0BA@@?$output_processor@_WV?$stream_output_adapter@_W@__crt_stdio_output@@V?$standard_base@_WV?$stream_output_adapter@_W@__crt_stdio_output@@@2@@__crt_stdio_output@@AEAAXI_N@Z 00000001800fdc70 f i libucrt:output.obj
 0001:000fcd38       ??$type_case_integer_parse_into_buffer@I$0BA@@?$output_processor@_WV?$string_output_adapter@_W@__crt_stdio_output@@V?$format_validation_base@_WV?$string_output_adapter@_W@__crt_stdio_output@@@2@@__crt_stdio_output@@AEAAXI_N@Z 00000001800fdd38 f i libucrt:output.obj
 0001:000fce00       ??$type_case_integer_parse_into_buffer@I$0BA@@?$output_processor@_WV?$string_output_adapter@_W@__crt_stdio_output@@V?$positional_parameter_base@_WV?$string_output_adapter@_W@__crt_stdio_output@@@2@@__crt_stdio_output@@AEAAXI_N@Z 00000001800fde00 f i libucrt:output.obj
 0001:000fcec8       ??$type_case_integer_parse_into_buffer@I$0BA@@?$output_processor@_WV?$string_output_adapter@_W@__crt_stdio_output@@V?$standard_base@_WV?$string_output_adapter@_W@__crt_stdio_output@@@2@@__crt_stdio_output@@AEAAXI_N@Z 00000001800fdec8 f i libucrt:output.obj
 0001:000fcf90       ??$type_case_integer_parse_into_buffer@_K$07@?$output_processor@DV?$stream_output_adapter@D@__crt_stdio_output@@V?$format_validation_base@DV?$stream_output_adapter@D@__crt_stdio_output@@@2@@__crt_stdio_output@@AEAAX_K_N@Z 00000001800fdf90 f i libucrt:output.obj
 0001:000fd018       ??$type_case_integer_parse_into_buffer@_K$07@?$output_processor@DV?$stream_output_adapter@D@__crt_stdio_output@@V?$positional_parameter_base@DV?$stream_output_adapter@D@__crt_stdio_output@@@2@@__crt_stdio_output@@AEAAX_K_N@Z 00000001800fe018 f i libucrt:output.obj
 0001:000fd0a0       ??$type_case_integer_parse_into_buffer@_K$07@?$output_processor@DV?$stream_output_adapter@D@__crt_stdio_output@@V?$standard_base@DV?$stream_output_adapter@D@__crt_stdio_output@@@2@@__crt_stdio_output@@AEAAX_K_N@Z 00000001800fe0a0 f i libucrt:output.obj
 0001:000fd128       ??$type_case_integer_parse_into_buffer@_K$07@?$output_processor@DV?$string_output_adapter@D@__crt_stdio_output@@V?$format_validation_base@DV?$string_output_adapter@D@__crt_stdio_output@@@2@@__crt_stdio_output@@AEAAX_K_N@Z 00000001800fe128 f i libucrt:output.obj
 0001:000fd1b0       ??$type_case_integer_parse_into_buffer@_K$07@?$output_processor@DV?$string_output_adapter@D@__crt_stdio_output@@V?$positional_parameter_base@DV?$string_output_adapter@D@__crt_stdio_output@@@2@@__crt_stdio_output@@AEAAX_K_N@Z 00000001800fe1b0 f i libucrt:output.obj
 0001:000fd238       ??$type_case_integer_parse_into_buffer@_K$07@?$output_processor@DV?$string_output_adapter@D@__crt_stdio_output@@V?$standard_base@DV?$string_output_adapter@D@__crt_stdio_output@@@2@@__crt_stdio_output@@AEAAX_K_N@Z 00000001800fe238 f i libucrt:output.obj
 0001:000fd2c0       ??$type_case_integer_parse_into_buffer@_K$07@?$output_processor@_WV?$stream_output_adapter@_W@__crt_stdio_output@@V?$format_validation_base@_WV?$stream_output_adapter@_W@__crt_stdio_output@@@2@@__crt_stdio_output@@AEAAX_K_N@Z 00000001800fe2c0 f i libucrt:output.obj
 0001:000fd368       ??$type_case_integer_parse_into_buffer@_K$07@?$output_processor@_WV?$stream_output_adapter@_W@__crt_stdio_output@@V?$positional_parameter_base@_WV?$stream_output_adapter@_W@__crt_stdio_output@@@2@@__crt_stdio_output@@AEAAX_K_N@Z 00000001800fe368 f i libucrt:output.obj
 0001:000fd410       ??$type_case_integer_parse_into_buffer@_K$07@?$output_processor@_WV?$stream_output_adapter@_W@__crt_stdio_output@@V?$standard_base@_WV?$stream_output_adapter@_W@__crt_stdio_output@@@2@@__crt_stdio_output@@AEAAX_K_N@Z 00000001800fe410 f i libucrt:output.obj
 0001:000fd4b8       ??$type_case_integer_parse_into_buffer@_K$07@?$output_processor@_WV?$string_output_adapter@_W@__crt_stdio_output@@V?$format_validation_base@_WV?$string_output_adapter@_W@__crt_stdio_output@@@2@@__crt_stdio_output@@AEAAX_K_N@Z 00000001800fe4b8 f i libucrt:output.obj
 0001:000fd560       ??$type_case_integer_parse_into_buffer@_K$07@?$output_processor@_WV?$string_output_adapter@_W@__crt_stdio_output@@V?$positional_parameter_base@_WV?$string_output_adapter@_W@__crt_stdio_output@@@2@@__crt_stdio_output@@AEAAX_K_N@Z 00000001800fe560 f i libucrt:output.obj
 0001:000fd608       ??$type_case_integer_parse_into_buffer@_K$07@?$output_processor@_WV?$string_output_adapter@_W@__crt_stdio_output@@V?$standard_base@_WV?$string_output_adapter@_W@__crt_stdio_output@@@2@@__crt_stdio_output@@AEAAX_K_N@Z 00000001800fe608 f i libucrt:output.obj
 0001:000fd6b0       ??$type_case_integer_parse_into_buffer@_K$09@?$output_processor@DV?$stream_output_adapter@D@__crt_stdio_output@@V?$format_validation_base@DV?$stream_output_adapter@D@__crt_stdio_output@@@2@@__crt_stdio_output@@AEAAX_K_N@Z 00000001800fe6b0 f i libucrt:output.obj
 0001:000fd78c       ??$type_case_integer_parse_into_buffer@_K$09@?$output_processor@DV?$stream_output_adapter@D@__crt_stdio_output@@V?$positional_parameter_base@DV?$stream_output_adapter@D@__crt_stdio_output@@@2@@__crt_stdio_output@@AEAAX_K_N@Z 00000001800fe78c f i libucrt:output.obj
 0001:000fd868       ??$type_case_integer_parse_into_buffer@_K$09@?$output_processor@DV?$stream_output_adapter@D@__crt_stdio_output@@V?$standard_base@DV?$stream_output_adapter@D@__crt_stdio_output@@@2@@__crt_stdio_output@@AEAAX_K_N@Z 00000001800fe868 f i libucrt:output.obj
 0001:000fd944       ??$type_case_integer_parse_into_buffer@_K$09@?$output_processor@DV?$string_output_adapter@D@__crt_stdio_output@@V?$format_validation_base@DV?$string_output_adapter@D@__crt_stdio_output@@@2@@__crt_stdio_output@@AEAAX_K_N@Z 00000001800fe944 f i libucrt:output.obj
 0001:000fda20       ??$type_case_integer_parse_into_buffer@_K$09@?$output_processor@DV?$string_output_adapter@D@__crt_stdio_output@@V?$positional_parameter_base@DV?$string_output_adapter@D@__crt_stdio_output@@@2@@__crt_stdio_output@@AEAAX_K_N@Z 00000001800fea20 f i libucrt:output.obj
 0001:000fdafc       ??$type_case_integer_parse_into_buffer@_K$09@?$output_processor@DV?$string_output_adapter@D@__crt_stdio_output@@V?$standard_base@DV?$string_output_adapter@D@__crt_stdio_output@@@2@@__crt_stdio_output@@AEAAX_K_N@Z 00000001800feafc f i libucrt:output.obj
 0001:000fdbd8       ??$type_case_integer_parse_into_buffer@_K$09@?$output_processor@_WV?$stream_output_adapter@_W@__crt_stdio_output@@V?$format_validation_base@_WV?$stream_output_adapter@_W@__crt_stdio_output@@@2@@__crt_stdio_output@@AEAAX_K_N@Z 00000001800febd8 f i libucrt:output.obj
 0001:000fdccc       ??$type_case_integer_parse_into_buffer@_K$09@?$output_processor@_WV?$stream_output_adapter@_W@__crt_stdio_output@@V?$positional_parameter_base@_WV?$stream_output_adapter@_W@__crt_stdio_output@@@2@@__crt_stdio_output@@AEAAX_K_N@Z 00000001800feccc f i libucrt:output.obj
 0001:000fddc0       ??$type_case_integer_parse_into_buffer@_K$09@?$output_processor@_WV?$stream_output_adapter@_W@__crt_stdio_output@@V?$standard_base@_WV?$stream_output_adapter@_W@__crt_stdio_output@@@2@@__crt_stdio_output@@AEAAX_K_N@Z 00000001800fedc0 f i libucrt:output.obj
 0001:000fdeb4       ??$type_case_integer_parse_into_buffer@_K$09@?$output_processor@_WV?$string_output_adapter@_W@__crt_stdio_output@@V?$format_validation_base@_WV?$string_output_adapter@_W@__crt_stdio_output@@@2@@__crt_stdio_output@@AEAAX_K_N@Z 00000001800feeb4 f i libucrt:output.obj
 0001:000fdfa8       ??$type_case_integer_parse_into_buffer@_K$09@?$output_processor@_WV?$string_output_adapter@_W@__crt_stdio_output@@V?$positional_parameter_base@_WV?$string_output_adapter@_W@__crt_stdio_output@@@2@@__crt_stdio_output@@AEAAX_K_N@Z 00000001800fefa8 f i libucrt:output.obj
 0001:000fe09c       ??$type_case_integer_parse_into_buffer@_K$09@?$output_processor@_WV?$string_output_adapter@_W@__crt_stdio_output@@V?$standard_base@_WV?$string_output_adapter@_W@__crt_stdio_output@@@2@@__crt_stdio_output@@AEAAX_K_N@Z 00000001800ff09c f i libucrt:output.obj
 0001:000fe190       ??$type_case_integer_parse_into_buffer@_K$0BA@@?$output_processor@DV?$stream_output_adapter@D@__crt_stdio_output@@V?$format_validation_base@DV?$stream_output_adapter@D@__crt_stdio_output@@@2@@__crt_stdio_output@@AEAAX_K_N@Z 00000001800ff190 f i libucrt:output.obj
 0001:000fe238       ??$type_case_integer_parse_into_buffer@_K$0BA@@?$output_processor@DV?$stream_output_adapter@D@__crt_stdio_output@@V?$positional_parameter_base@DV?$stream_output_adapter@D@__crt_stdio_output@@@2@@__crt_stdio_output@@AEAAX_K_N@Z 00000001800ff238 f i libucrt:output.obj
 0001:000fe2e0       ??$type_case_integer_parse_into_buffer@_K$0BA@@?$output_processor@DV?$stream_output_adapter@D@__crt_stdio_output@@V?$standard_base@DV?$stream_output_adapter@D@__crt_stdio_output@@@2@@__crt_stdio_output@@AEAAX_K_N@Z 00000001800ff2e0 f i libucrt:output.obj
 0001:000fe388       ??$type_case_integer_parse_into_buffer@_K$0BA@@?$output_processor@DV?$string_output_adapter@D@__crt_stdio_output@@V?$format_validation_base@DV?$string_output_adapter@D@__crt_stdio_output@@@2@@__crt_stdio_output@@AEAAX_K_N@Z 00000001800ff388 f i libucrt:output.obj
 0001:000fe430       ??$type_case_integer_parse_into_buffer@_K$0BA@@?$output_processor@DV?$string_output_adapter@D@__crt_stdio_output@@V?$positional_parameter_base@DV?$string_output_adapter@D@__crt_stdio_output@@@2@@__crt_stdio_output@@AEAAX_K_N@Z 00000001800ff430 f i libucrt:output.obj
 0001:000fe4d8       ??$type_case_integer_parse_into_buffer@_K$0BA@@?$output_processor@DV?$string_output_adapter@D@__crt_stdio_output@@V?$standard_base@DV?$string_output_adapter@D@__crt_stdio_output@@@2@@__crt_stdio_output@@AEAAX_K_N@Z 00000001800ff4d8 f i libucrt:output.obj
 0001:000fe580       ??$type_case_integer_parse_into_buffer@_K$0BA@@?$output_processor@_WV?$stream_output_adapter@_W@__crt_stdio_output@@V?$format_validation_base@_WV?$stream_output_adapter@_W@__crt_stdio_output@@@2@@__crt_stdio_output@@AEAAX_K_N@Z 00000001800ff580 f i libucrt:output.obj
 0001:000fe648       ??$type_case_integer_parse_into_buffer@_K$0BA@@?$output_processor@_WV?$stream_output_adapter@_W@__crt_stdio_output@@V?$positional_parameter_base@_WV?$stream_output_adapter@_W@__crt_stdio_output@@@2@@__crt_stdio_output@@AEAAX_K_N@Z 00000001800ff648 f i libucrt:output.obj
 0001:000fe710       ??$type_case_integer_parse_into_buffer@_K$0BA@@?$output_processor@_WV?$stream_output_adapter@_W@__crt_stdio_output@@V?$standard_base@_WV?$stream_output_adapter@_W@__crt_stdio_output@@@2@@__crt_stdio_output@@AEAAX_K_N@Z 00000001800ff710 f i libucrt:output.obj
 0001:000fe7d8       ??$type_case_integer_parse_into_buffer@_K$0BA@@?$output_processor@_WV?$string_output_adapter@_W@__crt_stdio_output@@V?$format_validation_base@_WV?$string_output_adapter@_W@__crt_stdio_output@@@2@@__crt_stdio_output@@AEAAX_K_N@Z 00000001800ff7d8 f i libucrt:output.obj
 0001:000fe8a0       ??$type_case_integer_parse_into_buffer@_K$0BA@@?$output_processor@_WV?$string_output_adapter@_W@__crt_stdio_output@@V?$positional_parameter_base@_WV?$string_output_adapter@_W@__crt_stdio_output@@@2@@__crt_stdio_output@@AEAAX_K_N@Z 00000001800ff8a0 f i libucrt:output.obj
 0001:000fe968       ??$type_case_integer_parse_into_buffer@_K$0BA@@?$output_processor@_WV?$string_output_adapter@_W@__crt_stdio_output@@V?$standard_base@_WV?$string_output_adapter@_W@__crt_stdio_output@@@2@@__crt_stdio_output@@AEAAX_K_N@Z 00000001800ff968 f i libucrt:output.obj
 0001:000fea30       ??$write_multiple_characters@V?$stream_output_adapter@D@__crt_stdio_output@@D@__crt_stdio_output@@YAXAEBV?$stream_output_adapter@D@0@DHQEAHAEAV__crt_cached_ptd_host@@@Z 00000001800ffa30 f i libucrt:output.obj
 0001:000feae8       ??$write_multiple_characters@V?$stream_output_adapter@_W@__crt_stdio_output@@D@__crt_stdio_output@@YAXAEBV?$stream_output_adapter@_W@0@DHQEAHAEAV__crt_cached_ptd_host@@@Z 00000001800ffae8 f i libucrt:output.obj
 0001:000feba4       ??$write_multiple_characters@V?$string_output_adapter@D@__crt_stdio_output@@D@__crt_stdio_output@@YAXAEBV?$string_output_adapter@D@0@DHQEAHAEAV__crt_cached_ptd_host@@@Z 00000001800ffba4 f i libucrt:output.obj
 0001:000fec38       ??$write_multiple_characters@V?$string_output_adapter@_W@__crt_stdio_output@@D@__crt_stdio_output@@YAXAEBV?$string_output_adapter@_W@0@DHQEAHAEAV__crt_cached_ptd_host@@@Z 00000001800ffc38 f i libucrt:output.obj
 0001:000fee64       ??0?$common_data@D@__crt_stdio_output@@IEAA@AEAV__crt_cached_ptd_host@@@Z 00000001800ffe64 f i libucrt:output.obj
 0001:000feeac       ??0?$common_data@_W@__crt_stdio_output@@IEAA@AEAV__crt_cached_ptd_host@@@Z 00000001800ffeac f i libucrt:output.obj
 0001:000feef8       ??0?$output_adapter_data@DV?$stream_output_adapter@D@__crt_stdio_output@@@__crt_stdio_output@@IEAA@AEBV?$stream_output_adapter@D@1@_KQEBDAEAV__crt_cached_ptd_host@@QEAD@Z 00000001800ffef8 f i libucrt:output.obj
 0001:000fef70       ??0?$output_adapter_data@DV?$string_output_adapter@D@__crt_stdio_output@@@__crt_stdio_output@@IEAA@AEBV?$string_output_adapter@D@1@_KQEBDAEAV__crt_cached_ptd_host@@QEAD@Z 00000001800fff70 f i libucrt:output.obj
 0001:000fefe8       ??0?$output_adapter_data@_WV?$stream_output_adapter@_W@__crt_stdio_output@@@__crt_stdio_output@@IEAA@AEBV?$stream_output_adapter@_W@1@_KQEB_WAEAV__crt_cached_ptd_host@@QEAD@Z 00000001800fffe8 f i libucrt:output.obj
 0001:000ff068       ??0?$output_adapter_data@_WV?$string_output_adapter@_W@__crt_stdio_output@@@__crt_stdio_output@@IEAA@AEBV?$string_output_adapter@_W@1@_KQEB_WAEAV__crt_cached_ptd_host@@QEAD@Z 0000000180100068 f i libucrt:output.obj
 0001:000ff0e8       ??0?$output_processor@DV?$stream_output_adapter@D@__crt_stdio_output@@V?$format_validation_base@DV?$stream_output_adapter@D@__crt_stdio_output@@@2@@__crt_stdio_output@@QEAA@AEBV?$stream_output_adapter@D@1@_KQEBDAEAV__crt_cached_ptd_host@@QEAD@Z 00000001801000e8 f i libucrt:output.obj
 0001:000ff168       ??0?$output_processor@DV?$stream_output_adapter@D@__crt_stdio_output@@V?$positional_parameter_base@DV?$stream_output_adapter@D@__crt_stdio_output@@@2@@__crt_stdio_output@@QEAA@AEBV?$stream_output_adapter@D@1@_KQEBDAEAV__crt_cached_ptd_host@@QEAD@Z 0000000180100168 f i libucrt:output.obj
 0001:000ff210       ??0?$output_processor@DV?$stream_output_adapter@D@__crt_stdio_output@@V?$standard_base@DV?$stream_output_adapter@D@__crt_stdio_output@@@2@@__crt_stdio_output@@QEAA@AEBV?$stream_output_adapter@D@1@_KQEBDAEAV__crt_cached_ptd_host@@QEAD@Z 0000000180100210 f i libucrt:output.obj
 0001:000ff290       ??0?$output_processor@DV?$string_output_adapter@D@__crt_stdio_output@@V?$format_validation_base@DV?$string_output_adapter@D@__crt_stdio_output@@@2@@__crt_stdio_output@@QEAA@AEBV?$string_output_adapter@D@1@_KQEBDAEAV__crt_cached_ptd_host@@QEAD@Z 0000000180100290 f i libucrt:output.obj
 0001:000ff310       ??0?$output_processor@DV?$string_output_adapter@D@__crt_stdio_output@@V?$positional_parameter_base@DV?$string_output_adapter@D@__crt_stdio_output@@@2@@__crt_stdio_output@@QEAA@AEBV?$string_output_adapter@D@1@_KQEBDAEAV__crt_cached_ptd_host@@QEAD@Z 0000000180100310 f i libucrt:output.obj
 0001:000ff3b8       ??0?$output_processor@DV?$string_output_adapter@D@__crt_stdio_output@@V?$standard_base@DV?$string_output_adapter@D@__crt_stdio_output@@@2@@__crt_stdio_output@@QEAA@AEBV?$string_output_adapter@D@1@_KQEBDAEAV__crt_cached_ptd_host@@QEAD@Z 00000001801003b8 f i libucrt:output.obj
 0001:000ff438       ??0?$output_processor@_WV?$stream_output_adapter@_W@__crt_stdio_output@@V?$format_validation_base@_WV?$stream_output_adapter@_W@__crt_stdio_output@@@2@@__crt_stdio_output@@QEAA@AEBV?$stream_output_adapter@_W@1@_KQEB_WAEAV__crt_cached_ptd_host@@QEAD@Z 0000000180100438 f i libucrt:output.obj
 0001:000ff4c0       ??0?$output_processor@_WV?$stream_output_adapter@_W@__crt_stdio_output@@V?$positional_parameter_base@_WV?$stream_output_adapter@_W@__crt_stdio_output@@@2@@__crt_stdio_output@@QEAA@AEBV?$stream_output_adapter@_W@1@_KQEB_WAEAV__crt_cached_ptd_host@@QEAD@Z 00000001801004c0 f i libucrt:output.obj
 0001:000ff56c       ??0?$output_processor@_WV?$stream_output_adapter@_W@__crt_stdio_output@@V?$standard_base@_WV?$stream_output_adapter@_W@__crt_stdio_output@@@2@@__crt_stdio_output@@QEAA@AEBV?$stream_output_adapter@_W@1@_KQEB_WAEAV__crt_cached_ptd_host@@QEAD@Z 000000018010056c f i libucrt:output.obj
 0001:000ff5f4       ??0?$output_processor@_WV?$string_output_adapter@_W@__crt_stdio_output@@V?$format_validation_base@_WV?$string_output_adapter@_W@__crt_stdio_output@@@2@@__crt_stdio_output@@QEAA@AEBV?$string_output_adapter@_W@1@_KQEB_WAEAV__crt_cached_ptd_host@@QEAD@Z 00000001801005f4 f i libucrt:output.obj
 0001:000ff67c       ??0?$output_processor@_WV?$string_output_adapter@_W@__crt_stdio_output@@V?$positional_parameter_base@_WV?$string_output_adapter@_W@__crt_stdio_output@@@2@@__crt_stdio_output@@QEAA@AEBV?$string_output_adapter@_W@1@_KQEB_WAEAV__crt_cached_ptd_host@@QEAD@Z 000000018010067c f i libucrt:output.obj
 0001:000ff728       ??0?$output_processor@_WV?$string_output_adapter@_W@__crt_stdio_output@@V?$standard_base@_WV?$string_output_adapter@_W@__crt_stdio_output@@@2@@__crt_stdio_output@@QEAA@AEBV?$string_output_adapter@_W@1@_KQEB_WAEAV__crt_cached_ptd_host@@QEAD@Z 0000000180100728 f i libucrt:output.obj
 0001:000ff7b0       ??0?$stream_output_adapter@D@__crt_stdio_output@@QEAA@QEAU_iobuf@@@Z 00000001801007b0 f i libucrt:output.obj
 0001:000ff7b8       ??0?$stream_output_adapter@_W@__crt_stdio_output@@QEAA@QEAU_iobuf@@@Z 00000001801007b8 f i libucrt:output.obj
 0001:000ff7c0       ??0?$string_output_adapter@D@__crt_stdio_output@@QEAA@QEAU?$string_output_adapter_context@D@1@@Z 00000001801007c0 f i libucrt:output.obj
 0001:000ff7c8       ??0?$string_output_adapter@_W@__crt_stdio_output@@QEAA@QEAU?$string_output_adapter_context@_W@1@@Z 00000001801007c8 f i libucrt:output.obj
 0001:000ff7d0       ??0formatting_buffer@__crt_stdio_output@@QEAA@XZ 00000001801007d0 f i libucrt:output.obj
 0001:000ff7ec       ??0guard@?$cached@H@__crt_cached_ptd_host@@QEAA@AEAU12@@Z 00000001801007ec f i libucrt:output.obj
 0001:000ff804       ??1?$common_data@D@__crt_stdio_output@@QEAA@XZ 0000000180100804 f i libucrt:output.obj
 0001:000ff830       ??1?$common_data@_W@__crt_stdio_output@@QEAA@XZ 0000000180100830 f i libucrt:output.obj
 0001:000ff85c       ??1?$format_validation_base@DV?$stream_output_adapter@D@__crt_stdio_output@@@__crt_stdio_output@@QEAA@XZ 000000018010085c f i libucrt:output.obj
 0001:000ff888       ??1?$format_validation_base@DV?$string_output_adapter@D@__crt_stdio_output@@@__crt_stdio_output@@QEAA@XZ 0000000180100888 f i libucrt:output.obj
 0001:000ff8b4       ??1?$format_validation_base@_WV?$stream_output_adapter@_W@__crt_stdio_output@@@__crt_stdio_output@@QEAA@XZ 00000001801008b4 f i libucrt:output.obj
 0001:000ff8e0       ??1?$format_validation_base@_WV?$string_output_adapter@_W@__crt_stdio_output@@@__crt_stdio_output@@QEAA@XZ 00000001801008e0 f i libucrt:output.obj
 0001:000ff90c       ??1?$output_adapter_data@DV?$stream_output_adapter@D@__crt_stdio_output@@@__crt_stdio_output@@QEAA@XZ 000000018010090c f i libucrt:output.obj
 0001:000ff938       ??1?$output_adapter_data@DV?$string_output_adapter@D@__crt_stdio_output@@@__crt_stdio_output@@QEAA@XZ 0000000180100938 f i libucrt:output.obj
 0001:000ff964       ??1?$output_adapter_data@_WV?$stream_output_adapter@_W@__crt_stdio_output@@@__crt_stdio_output@@QEAA@XZ 0000000180100964 f i libucrt:output.obj
 0001:000ff990       ??1?$output_adapter_data@_WV?$string_output_adapter@_W@__crt_stdio_output@@@__crt_stdio_output@@QEAA@XZ 0000000180100990 f i libucrt:output.obj
 0001:000ff9bc       ??1?$output_processor@DV?$stream_output_adapter@D@__crt_stdio_output@@V?$format_validation_base@DV?$stream_output_adapter@D@__crt_stdio_output@@@2@@__crt_stdio_output@@QEAA@XZ 00000001801009bc f i libucrt:output.obj
 0001:000ff9e8       ??1?$output_processor@DV?$stream_output_adapter@D@__crt_stdio_output@@V?$positional_parameter_base@DV?$stream_output_adapter@D@__crt_stdio_output@@@2@@__crt_stdio_output@@QEAA@XZ 00000001801009e8 f i libucrt:output.obj
 0001:000ffa14       ??1?$output_processor@DV?$stream_output_adapter@D@__crt_stdio_output@@V?$standard_base@DV?$stream_output_adapter@D@__crt_stdio_output@@@2@@__crt_stdio_output@@QEAA@XZ 0000000180100a14 f i libucrt:output.obj
 0001:000ffa40       ??1?$output_processor@DV?$string_output_adapter@D@__crt_stdio_output@@V?$format_validation_base@DV?$string_output_adapter@D@__crt_stdio_output@@@2@@__crt_stdio_output@@QEAA@XZ 0000000180100a40 f i libucrt:output.obj
 0001:000ffa6c       ??1?$output_processor@DV?$string_output_adapter@D@__crt_stdio_output@@V?$positional_parameter_base@DV?$string_output_adapter@D@__crt_stdio_output@@@2@@__crt_stdio_output@@QEAA@XZ 0000000180100a6c f i libucrt:output.obj
 0001:000ffa98       ??1?$output_processor@DV?$string_output_adapter@D@__crt_stdio_output@@V?$standard_base@DV?$string_output_adapter@D@__crt_stdio_output@@@2@@__crt_stdio_output@@QEAA@XZ 0000000180100a98 f i libucrt:output.obj
 0001:000ffac4       ??1?$output_processor@_WV?$stream_output_adapter@_W@__crt_stdio_output@@V?$format_validation_base@_WV?$stream_output_adapter@_W@__crt_stdio_output@@@2@@__crt_stdio_output@@QEAA@XZ 0000000180100ac4 f i libucrt:output.obj
 0001:000ffaf0       ??1?$output_processor@_WV?$stream_output_adapter@_W@__crt_stdio_output@@V?$positional_parameter_base@_WV?$stream_output_adapter@_W@__crt_stdio_output@@@2@@__crt_stdio_output@@QEAA@XZ 0000000180100af0 f i libucrt:output.obj
 0001:000ffb1c       ??1?$output_processor@_WV?$stream_output_adapter@_W@__crt_stdio_output@@V?$standard_base@_WV?$stream_output_adapter@_W@__crt_stdio_output@@@2@@__crt_stdio_output@@QEAA@XZ 0000000180100b1c f i libucrt:output.obj
 0001:000ffb48       ??1?$output_processor@_WV?$string_output_adapter@_W@__crt_stdio_output@@V?$format_validation_base@_WV?$string_output_adapter@_W@__crt_stdio_output@@@2@@__crt_stdio_output@@QEAA@XZ 0000000180100b48 f i libucrt:output.obj
 0001:000ffb74       ??1?$output_processor@_WV?$string_output_adapter@_W@__crt_stdio_output@@V?$positional_parameter_base@_WV?$string_output_adapter@_W@__crt_stdio_output@@@2@@__crt_stdio_output@@QEAA@XZ 0000000180100b74 f i libucrt:output.obj
 0001:000ffba0       ??1?$output_processor@_WV?$string_output_adapter@_W@__crt_stdio_output@@V?$standard_base@_WV?$string_output_adapter@_W@__crt_stdio_output@@@2@@__crt_stdio_output@@QEAA@XZ 0000000180100ba0 f i libucrt:output.obj
 0001:000ffbcc       ??1?$positional_parameter_base@DV?$stream_output_adapter@D@__crt_stdio_output@@@__crt_stdio_output@@QEAA@XZ 0000000180100bcc f i libucrt:output.obj
 0001:000ffbf8       ??1?$positional_parameter_base@DV?$string_output_adapter@D@__crt_stdio_output@@@__crt_stdio_output@@QEAA@XZ 0000000180100bf8 f i libucrt:output.obj
 0001:000ffc24       ??1?$positional_parameter_base@_WV?$stream_output_adapter@_W@__crt_stdio_output@@@__crt_stdio_output@@QEAA@XZ 0000000180100c24 f i libucrt:output.obj
 0001:000ffc50       ??1?$positional_parameter_base@_WV?$string_output_adapter@_W@__crt_stdio_output@@@__crt_stdio_output@@QEAA@XZ 0000000180100c50 f i libucrt:output.obj
 0001:000ffc7c       ??1?$standard_base@DV?$stream_output_adapter@D@__crt_stdio_output@@@__crt_stdio_output@@QEAA@XZ 0000000180100c7c f i libucrt:output.obj
 0001:000ffca8       ??1?$standard_base@DV?$string_output_adapter@D@__crt_stdio_output@@@__crt_stdio_output@@QEAA@XZ 0000000180100ca8 f i libucrt:output.obj
 0001:000ffcd4       ??1?$standard_base@_WV?$stream_output_adapter@_W@__crt_stdio_output@@@__crt_stdio_output@@QEAA@XZ 0000000180100cd4 f i libucrt:output.obj
 0001:000ffd00       ??1?$standard_base@_WV?$string_output_adapter@_W@__crt_stdio_output@@@__crt_stdio_output@@QEAA@XZ 0000000180100d00 f i libucrt:output.obj
 0001:000ffd2c       ??1formatting_buffer@__crt_stdio_output@@QEAA@XZ 0000000180100d2c f i libucrt:output.obj
 0001:000ffd58       ??1guard@?$cached@H@__crt_cached_ptd_host@@QEAA@XZ 0000000180100d58 f i libucrt:output.obj
 0001:000ffd70       ??4?$__crt_unique_heap_ptr@DU__crt_internal_free_policy@@@@QEAAAEAV0@$$QEAV0@@Z 0000000180100d70 f i libucrt:output.obj
 0001:000ffdb4       ??A?$spectre_mitigated_lookup_table@Ustate_transition_pair@__crt_stdio_output@@$0IA@@__crt_stdio_output@@QEBAAEBUstate_transition_pair@1@_K@Z 0000000180100db4 f i libucrt:output.obj
 0001:001006f0       ?adjust_hexit@?$output_processor@DV?$stream_output_adapter@D@__crt_stdio_output@@V?$format_validation_base@DV?$stream_output_adapter@D@__crt_stdio_output@@@2@@__crt_stdio_output@@CADH_N@Z 00000001801016f0 f i libucrt:output.obj
 0001:00100700       ?adjust_hexit@?$output_processor@DV?$stream_output_adapter@D@__crt_stdio_output@@V?$positional_parameter_base@DV?$stream_output_adapter@D@__crt_stdio_output@@@2@@__crt_stdio_output@@CADH_N@Z 0000000180101700 f i libucrt:output.obj
 0001:00100710       ?adjust_hexit@?$output_processor@DV?$stream_output_adapter@D@__crt_stdio_output@@V?$standard_base@DV?$stream_output_adapter@D@__crt_stdio_output@@@2@@__crt_stdio_output@@CADH_N@Z 0000000180101710 f i libucrt:output.obj
 0001:00100720       ?adjust_hexit@?$output_processor@DV?$string_output_adapter@D@__crt_stdio_output@@V?$format_validation_base@DV?$string_output_adapter@D@__crt_stdio_output@@@2@@__crt_stdio_output@@CADH_N@Z 0000000180101720 f i libucrt:output.obj
 0001:00100730       ?adjust_hexit@?$output_processor@DV?$string_output_adapter@D@__crt_stdio_output@@V?$positional_parameter_base@DV?$string_output_adapter@D@__crt_stdio_output@@@2@@__crt_stdio_output@@CADH_N@Z 0000000180101730 f i libucrt:output.obj
 0001:00100740       ?adjust_hexit@?$output_processor@DV?$string_output_adapter@D@__crt_stdio_output@@V?$standard_base@DV?$string_output_adapter@D@__crt_stdio_output@@@2@@__crt_stdio_output@@CADH_N@Z 0000000180101740 f i libucrt:output.obj
 0001:00100750       ?adjust_hexit@?$output_processor@_WV?$stream_output_adapter@_W@__crt_stdio_output@@V?$format_validation_base@_WV?$stream_output_adapter@_W@__crt_stdio_output@@@2@@__crt_stdio_output@@CADH_N@Z 0000000180101750 f i libucrt:output.obj
 0001:00100760       ?adjust_hexit@?$output_processor@_WV?$stream_output_adapter@_W@__crt_stdio_output@@V?$positional_parameter_base@_WV?$stream_output_adapter@_W@__crt_stdio_output@@@2@@__crt_stdio_output@@CADH_N@Z 0000000180101760 f i libucrt:output.obj
 0001:00100770       ?adjust_hexit@?$output_processor@_WV?$stream_output_adapter@_W@__crt_stdio_output@@V?$standard_base@_WV?$stream_output_adapter@_W@__crt_stdio_output@@@2@@__crt_stdio_output@@CADH_N@Z 0000000180101770 f i libucrt:output.obj
 0001:00100780       ?adjust_hexit@?$output_processor@_WV?$string_output_adapter@_W@__crt_stdio_output@@V?$format_validation_base@_WV?$string_output_adapter@_W@__crt_stdio_output@@@2@@__crt_stdio_output@@CADH_N@Z 0000000180101780 f i libucrt:output.obj
 0001:00100790       ?adjust_hexit@?$output_processor@_WV?$string_output_adapter@_W@__crt_stdio_output@@V?$positional_parameter_base@_WV?$string_output_adapter@_W@__crt_stdio_output@@@2@@__crt_stdio_output@@CADH_N@Z 0000000180101790 f i libucrt:output.obj
 0001:001007a0       ?adjust_hexit@?$output_processor@_WV?$string_output_adapter@_W@__crt_stdio_output@@V?$standard_base@_WV?$string_output_adapter@_W@__crt_stdio_output@@@2@@__crt_stdio_output@@CADH_N@Z 00000001801017a0 f i libucrt:output.obj
 0001:001007b0       ?advance_to_next_pass@?$positional_parameter_base@DV?$stream_output_adapter@D@__crt_stdio_output@@@__crt_stdio_output@@IEAA_NXZ 00000001801017b0 f i libucrt:output.obj
 0001:00100818       ?advance_to_next_pass@?$positional_parameter_base@DV?$string_output_adapter@D@__crt_stdio_output@@@__crt_stdio_output@@IEAA_NXZ 0000000180101818 f i libucrt:output.obj
 0001:00100880       ?advance_to_next_pass@?$positional_parameter_base@_WV?$stream_output_adapter@_W@__crt_stdio_output@@@__crt_stdio_output@@IEAA_NXZ 0000000180101880 f i libucrt:output.obj
 0001:001008e8       ?advance_to_next_pass@?$positional_parameter_base@_WV?$string_output_adapter@_W@__crt_stdio_output@@@__crt_stdio_output@@IEAA_NXZ 00000001801018e8 f i libucrt:output.obj
 0001:00100950       ?advance_to_next_pass@?$standard_base@DV?$stream_output_adapter@D@__crt_stdio_output@@@__crt_stdio_output@@IEAA_NXZ 0000000180101950 f i libucrt:output.obj
 0001:00100968       ?advance_to_next_pass@?$standard_base@DV?$string_output_adapter@D@__crt_stdio_output@@@__crt_stdio_output@@IEAA_NXZ 0000000180101968 f i libucrt:output.obj
 0001:00100980       ?advance_to_next_pass@?$standard_base@_WV?$stream_output_adapter@_W@__crt_stdio_output@@@__crt_stdio_output@@IEAA_NXZ 0000000180101980 f i libucrt:output.obj
 0001:00100998       ?advance_to_next_pass@?$standard_base@_WV?$string_output_adapter@_W@__crt_stdio_output@@@__crt_stdio_output@@IEAA_NXZ 0000000180101998 f i libucrt:output.obj
 0001:001009b0       ?check@?$cached@H@__crt_cached_ptd_host@@QEBA_NH@Z 00000001801019b0 f i libucrt:output.obj
 0001:001009c4       ?create_guard@?$cached@H@__crt_cached_ptd_host@@QEAA?AVguard@12@XZ 00000001801019c4 f i libucrt:output.obj
 0001:001009dc       ?crop_zeroes@__crt_stdio_output@@YAXPEADQEAU__crt_locale_pointers@@@Z 00000001801019dc f i libucrt:output.obj
 0001:00100a60       ?disable@guard@?$cached@H@__crt_cached_ptd_host@@QEAAXXZ 0000000180101a60 f i libucrt:output.obj
 0001:00100a68       ?enable@guard@?$cached@H@__crt_cached_ptd_host@@QEAAXXZ 0000000180101a68 f i libucrt:output.obj
 0001:00100a70       ?find_next_state@?$output_processor@DV?$stream_output_adapter@D@__crt_stdio_output@@V?$format_validation_base@DV?$stream_output_adapter@D@__crt_stdio_output@@@2@@__crt_stdio_output@@AEBA?AW4state@2@DW432@@Z 0000000180101a70 f i libucrt:output.obj
 0001:00100ab4       ?find_next_state@?$output_processor@DV?$stream_output_adapter@D@__crt_stdio_output@@V?$positional_parameter_base@DV?$stream_output_adapter@D@__crt_stdio_output@@@2@@__crt_stdio_output@@AEBA?AW4state@2@DW432@@Z 0000000180101ab4 f i libucrt:output.obj
 0001:00100af8       ?find_next_state@?$output_processor@DV?$stream_output_adapter@D@__crt_stdio_output@@V?$standard_base@DV?$stream_output_adapter@D@__crt_stdio_output@@@2@@__crt_stdio_output@@AEBA?AW4state@2@DW432@@Z 0000000180101af8 f i libucrt:output.obj
 0001:00100b3c       ?find_next_state@?$output_processor@DV?$string_output_adapter@D@__crt_stdio_output@@V?$format_validation_base@DV?$string_output_adapter@D@__crt_stdio_output@@@2@@__crt_stdio_output@@AEBA?AW4state@2@DW432@@Z 0000000180101b3c f i libucrt:output.obj
 0001:00100b80       ?find_next_state@?$output_processor@DV?$string_output_adapter@D@__crt_stdio_output@@V?$positional_parameter_base@DV?$string_output_adapter@D@__crt_stdio_output@@@2@@__crt_stdio_output@@AEBA?AW4state@2@DW432@@Z 0000000180101b80 f i libucrt:output.obj
 0001:00100bc4       ?find_next_state@?$output_processor@DV?$string_output_adapter@D@__crt_stdio_output@@V?$standard_base@DV?$string_output_adapter@D@__crt_stdio_output@@@2@@__crt_stdio_output@@AEBA?AW4state@2@DW432@@Z 0000000180101bc4 f i libucrt:output.obj
 0001:00100c08       ?find_next_state@?$output_processor@_WV?$stream_output_adapter@_W@__crt_stdio_output@@V?$format_validation_base@_WV?$stream_output_adapter@_W@__crt_stdio_output@@@2@@__crt_stdio_output@@AEBA?AW4state@2@_WW432@@Z 0000000180101c08 f i libucrt:output.obj
 0001:00100c58       ?find_next_state@?$output_processor@_WV?$stream_output_adapter@_W@__crt_stdio_output@@V?$positional_parameter_base@_WV?$stream_output_adapter@_W@__crt_stdio_output@@@2@@__crt_stdio_output@@AEBA?AW4state@2@_WW432@@Z 0000000180101c58 f i libucrt:output.obj
