 PdfPreview

 Timestamp is 674c1d61 (Sun Dec  1 13:55:05 2024)

 Preferred load address is 0000000180000000

 Start         Length     Name                   Class
 0001:00000000 00017570H .text$di                CODE
 0001:00017570 00194e70H .text$mn                CODE
 0001:001ac3e0 00001140H .text$mn$00             CODE
 0001:001ad520 00001f30H .text$mn$21             CODE
 0001:001af450 00002550H .text$x                 CODE
 0001:001b19a0 000010fbH .text$yd                CODE
 0002:00000000 00000110H .CRT$XCA                DATA
 0002:00000110 00000230H .CRT$XCU                DATA
 0002:00000340 00000110H .CRT$XCZ                DATA
 0002:00000450 00000110H .CRT$XIA                DATA
 0002:00000560 00000158H .CRT$XIC                DATA
 0002:000006b8 00000110H .CRT$XIZ                DATA
 0002:000007c8 00000008H .CRT$XLA                DATA
 0002:000007d0 00000008H .CRT$XLZ                DATA
 0002:000007d8 00000110H .CRT$XPA                DATA
 0002:000008e8 00000120H .CRT$XPX                DATA
 0002:00000a08 00000110H .CRT$XPXA               DATA
 0002:00000b18 00000110H .CRT$XPZ                DATA
 0002:00000c28 00000110H .CRT$XTA                DATA
 0002:00000d38 00000118H .CRT$XTZ                DATA
 0002:00000e50 00029c10H .rdata                  DATA
 0002:0002aa60 000002a0H .rdata$00               DATA
 0002:0002ad00 00000200H .rdata$CastGuardVftablesA DATA
 0002:0002af00 000001a0H .rdata$CastGuardVftablesC DATA
 0002:0002b0a0 00000130H .rdata$T                DATA
 0002:0002b1d0 00000c30H .rdata$r                DATA
 0002:0002be00 00000188H .rdata$zzzdbg           DATA
 0002:0002bf88 00000110H .rtc$IAA                DATA
 0002:0002c098 00000110H .rtc$IZZ                DATA
 0002:0002c1a8 00000110H .rtc$TAA                DATA
 0002:0002c2b8 00000110H .rtc$TZZ                DATA
 0002:0002c3c8 00013508H .xdata                  DATA
 0002:0003f8d0 00000720H .xdata$x                DATA
 0002:0003fff0 000001e1H .edata                  DATA
 0003:00000000 00002508H .data                   DATA
 0003:00002508 00000420H .data$r                 DATA
 0003:00002928 00000228H .data$rs                DATA
 0003:00002b50 0000f191H .bss                    DATA
 0004:00000000 000116f4H .pdata                  DATA
 0005:00000000 00001f10H .idata$5                DATA
 0005:00001f10 00000140H .idata$2                DATA
 0005:00002050 00000018H .idata$3                DATA
 0005:00002068 00001f10H .idata$4                DATA
 0005:00003f78 00003b7dH .idata$6                DATA
 0006:00000000 00000108H .tls                    DATA
 0006:00000108 00000112H .tls$                   DATA
 0006:0000021a 00000101H .tls$ZZZ                DATA
 0007:00000000 00000175H .00cfg                  DATA
 0008:00000000 000001c0H .rsrc$01                DATA
 0008:000001c0 000005e9H .rsrc$02                DATA

  Address         Publics by Value              Rva+Base               Lib:Object

 0000:00000000       __AbsoluteZero             0000000000000000     <absolute>
 0000:00000000       ___safe_se_handler_count   0000000000000000     <absolute>
 0000:00000000       ___safe_se_handler_table   0000000000000000     <absolute>
 0000:00000000       __arm64x_extra_rfe_table   0000000000000000     <absolute>
 0000:00000000       __arm64x_extra_rfe_table_size 0000000000000000     <absolute>
 0000:00000000       __arm64x_native_entrypoint 0000000000000000     <absolute>
 0000:00000000       __arm64x_redirection_metadata 0000000000000000     <absolute>
 0000:00000000       __arm64x_redirection_metadata_count 0000000000000000     <absolute>
 0000:00000000       __dynamic_value_reloc_table 0000000000000000     <absolute>
 0000:00000000       __enclave_config           0000000000000000     <absolute>
 0000:00000000       __guard_check_icall_a64n_fptr 0000000000000000     <absolute>
 0000:00000000       __guard_eh_cont_count      0000000000000000     <absolute>
 0000:00000000       __guard_eh_cont_table      0000000000000000     <absolute>
 0000:00000000       __guard_fids_count         0000000000000000     <absolute>
 0000:00000000       __guard_fids_table         0000000000000000     <absolute>
 0000:00000000       __guard_iat_count          0000000000000000     <absolute>
 0000:00000000       __guard_iat_table          0000000000000000     <absolute>
 0000:00000000       __guard_longjmp_count      0000000000000000     <absolute>
 0000:00000000       __guard_longjmp_table      0000000000000000     <absolute>
 0000:00000000       __hybrid_auxiliary_delayload_iat 0000000000000000     <absolute>
 0000:00000000       __hybrid_auxiliary_delayload_iat_copy 0000000000000000     <absolute>
 0000:00000000       __hybrid_auxiliary_iat     0000000000000000     <absolute>
 0000:00000000       __hybrid_auxiliary_iat_copy 0000000000000000     <absolute>
 0000:00000000       __hybrid_code_map          0000000000000000     <absolute>
 0000:00000000       __hybrid_code_map_count    0000000000000000     <absolute>
 0000:00000000       __hybrid_image_info_bitfield 0000000000000000     <absolute>
 0000:00000000       __volatile_metadata        0000000000000000     <absolute>
 0000:00000000       __x64_code_ranges_to_entry_points 0000000000000000     <absolute>
 0000:00000000       __x64_code_ranges_to_entry_points_count 0000000000000000     <absolute>
 0000:00000100       __guard_flags              0000000000000100     <absolute>
 0000:00000000       __ImageBase                0000000180000000     <linker-defined>
 0001:00017570       ?ParseWindowsData@ChmFile@@QEAAXXZ 0000000180018570 f   ChmFile.obj
 0001:000178e0       ?ParseSystemData@ChmFile@@QEAA_NXZ 00000001800188e0 f   ChmFile.obj
 0001:00017c40       ?ParseTocOrIndex@ChmFile@@QEBA_NPEAVEbookTocVisitor@@PEBD_N@Z 0000000180018c40 f   ChmFile.obj
 0001:00017e30       ?FixPathCodepage@ChmFile@@QEAAXAEAUAutoFree@@AEAI@Z 0000000180018e30 f   ChmFile.obj
 0001:00017f50       ?Load@ChmFile@@QEAA_NPEBD@Z 0000000180018f50 f   ChmFile.obj
 0001:00018280       ??1ChmFile@@QEAA@XZ        0000000180019280 f   ChmFile.obj
 0001:00018310       ?HasData@ChmFile@@QEBA_NPEBD@Z 0000000180019310 f   ChmFile.obj
 0001:00018420       ?GetData@ChmFile@@QEBA?AUByteSlice@@PEBD@Z 0000000180019420 f   ChmFile.obj
 0001:00018690       ?ResolveTopicID@ChmFile@@QEBAPEADI@Z 0000000180019690 f   ChmFile.obj
 0001:00018830       ?SmartToUtf8Temp@ChmFile@@QEBAPEADPEBDI@Z 0000000180019830 f   ChmFile.obj
 0001:000188f0       ?GetPropertyTemp@ChmFile@@QEBAPEADPEBD@Z 00000001800198f0 f   ChmFile.obj
 0001:000189e0       ?GetHomePath@ChmFile@@QEBAPEBDXZ 00000001800199e0 f   ChmFile.obj
 0001:00018a10       ?GetAllPaths@ChmFile@@QEBAXPEAUStrVec@@@Z 0000000180019a10 f   ChmFile.obj
 0001:00018a50       ?HasToc@ChmFile@@QEBA_NXZ  0000000180019a50 f   ChmFile.obj
 0001:00018aa0       ?ParseToc@ChmFile@@QEBA_NPEAVEbookTocVisitor@@@Z 0000000180019aa0 f   ChmFile.obj
 0001:00018ae0       ?HasIndex@ChmFile@@QEBA_NXZ 0000000180019ae0 f   ChmFile.obj
 0001:00018b30       ?ParseIndex@ChmFile@@QEBA_NPEAVEbookTocVisitor@@@Z 0000000180019b30 f   ChmFile.obj
 0001:00018b70       ?IsSupportedFileType@ChmFile@@SA_NPEBD@Z 0000000180019b70 f   ChmFile.obj
 0001:00018bb0       ?CreateFromFile@ChmFile@@SAPEAU1@PEBD@Z 0000000180019bb0 f   ChmFile.obj
 0001:0001a110       ??$AllocArray@E@@YAPEAE_K@Z 000000018001b110 f i ChmFile.obj
 0001:0001a140       ??0AutoFree@@QEAA@PEBD@Z   000000018001b140 f i ChmFile.obj
 0001:0001a180       ??0AutoFree@@QEAA@PEBE@Z   000000018001b180 f i ChmFile.obj
 0001:0001a1c0       ??0AutoFree@@QEAA@XZ       000000018001b1c0 f i ChmFile.obj
 0001:0001a1e0       ??0AutoFreeWStr@@QEAA@PEA_W@Z 000000018001b1e0 f i ChmFile.obj
 0001:0001a230       ??0AutoFreeWStr@@QEAA@XZ   000000018001b230 f i ChmFile.obj
 0001:0001a260       ??0ByteSlice@@QEAA@PEBE_K@Z 000000018001b260 f i ChmFile.obj
 0001:0001a2c0       ??0ByteSlice@@QEAA@XZ      000000018001b2c0 f i ChmFile.obj
 0001:0001a2f0       ??0ChmFile@@QEAA@XZ        000000018001b2f0 f i ChmFile.obj
 0001:0001a3b0       ??0StrVec@@QEAA@XZ         000000018001b3b0 f i ChmFile.obj
 0001:0001a410       ??1AutoFree@@QEAA@XZ       000000018001b410 f i ChmFile.obj
 0001:0001a440       ??1AutoFreeWStr@@QEAA@XZ   000000018001b440 f i ChmFile.obj
 0001:0001a470       ??4AutoFree@@QEAAAEAU0@$$QEAU0@@Z 000000018001b470 f i ChmFile.obj
 0001:0001a4e0       ??BAutoFree@@QEBAPEADXZ    000000018001b4e0 f i ChmFile.obj
 0001:0001a500       ??BAutoFreeWStr@@QEBAPEA_WXZ 000000018001b500 f i ChmFile.obj
 0001:0001a520       ??BByteSlice@@QEAAPEBDXZ   000000018001b520 f i ChmFile.obj
 0001:0001a540       ??_GChmFile@@QEAAPEAXI@Z   000000018001b540 f i ChmFile.obj
 0001:0001a590       ??_H@YAXPEAX_K1P6APEAX0@Z@Z 000000018001b590 f i ChmFile.obj
 0001:0001a610       ?CStr@AutoFree@@QEBAPEADXZ 000000018001b610 f i ChmFile.obj
 0001:0001a630       ?Free@ByteSlice@@QEAAXXZ   000000018001b630 f i ChmFile.obj
 0001:0001a680       ?Get@AutoFree@@QEBAPEADXZ  000000018001b680 f i ChmFile.obj
 0001:0001a6a0       ?Get@ByteSlice@@QEBAPEAEXZ 000000018001b6a0 f i ChmFile.obj
 0001:0001a6c0       ?Set@AutoFree@@QEAAXPEBD@Z 000000018001b6c0 f i ChmFile.obj
 0001:0001a700       ?Set@AutoFreeWStr@@QEAAXPEB_W@Z 000000018001b700 f i ChmFile.obj
 0001:0001a740       ?SetCopy@AutoFree@@QEAAXPEBD@Z 000000018001b740 f i ChmFile.obj
 0001:0001a7a0       ?SetCopy@AutoFreeWStr@@QEAAXPEB_W@Z 000000018001b7a0 f i ChmFile.obj
 0001:0001a7f0       ?StealData@AutoFreeWStr@@QEAAPEA_WXZ 000000018001b7f0 f i ChmFile.obj
 0001:0001a840       ?__empty_global_delete@@YAXPEAX@Z 000000018001b840 f i ChmFile.obj
 0001:0001a850       ?__empty_global_delete@@YAXPEAXW4align_val_t@std@@@Z 000000018001b850 f i ChmFile.obj
 0001:0001a860       ?__empty_global_delete@@YAXPEAX_K@Z 000000018001b860 f i ChmFile.obj
 0001:0001a860       ?__global_delete@@YAXPEAX_K@Z 000000018001b860 f i ChmFile.obj
 0001:0001a870       ?__empty_global_delete@@YAXPEAX_KW4align_val_t@std@@@Z 000000018001b870 f i ChmFile.obj
 0001:0001a890       ?data@ByteSlice@@QEBAPEAEXZ 000000018001b890 f i ChmFile.obj
 0001:0001a8b0       ?empty@ByteSlice@@QEBA_NXZ 000000018001b8b0 f i ChmFile.obj
 0001:0001a8f0       ?memchr@@YAPEAXPEAXH_K@Z   000000018001b8f0 f i ChmFile.obj
 0001:0001a940       ?size@ByteSlice@@QEBA_KXZ  000000018001b940 f i ChmFile.obj
 0001:0001a960       ?_uploadDebugReport@@YAXPEBD_N1@Z 000000018001b960 f   CrashHandlerNoOp.obj
 0001:0001a9a0       ?PropsCount@@YAHAEBUStrVec@@@Z 000000018001b9a0 f   DocProperties.obj
 0001:0001aa00       ?GetPropIdx@@YAHAEBUStrVec@@PEBD@Z 000000018001ba00 f   DocProperties.obj
 0001:0001aa90       ?GetPropValueTemp@@YAPEADAEBUStrVec@@PEBD@Z 000000018001ba90 f   DocProperties.obj
 0001:0001aae0       ?AddProp@@YAXAEAUStrVec@@PEBD1_N@Z 000000018001bae0 f   DocProperties.obj
 0001:0001abb0       ?GetMatchingString@@YAPEBDPEAPEBDPEBD@Z 000000018001bbb0 f   DocProperties.obj
 0001:0001acf0       ?NormalizeURL@@YAPEADPEBD0@Z 000000018001bcf0 f   EbookDoc.obj
 0001:0001af90       ?Load@EpubDoc@@AEAA_NXZ    000000018001bf90 f   EbookDoc.obj
 0001:0001bb80       ?ParseMetadata@EpubDoc@@AEAAXPEBD@Z 000000018001cb80 f   EbookDoc.obj
 0001:0001bd70       ?ParseNavToc@EpubDoc@@AEAA_NPEBD_K0PEAVEbookTocVisitor@@@Z 000000018001cd70 f   EbookDoc.obj
 0001:0001c240       ?ParseNcxToc@EpubDoc@@AEAA_NPEBD_K0PEAVEbookTocVisitor@@@Z 000000018001d240 f   EbookDoc.obj
 0001:0001c670       ??0EpubDoc@@QEAA@PEBD@Z    000000018001d670 f   EbookDoc.obj
 0001:0001c770       ??0EpubDoc@@QEAA@PEAUIStream@@@Z 000000018001d770 f   EbookDoc.obj
 0001:0001c850       ??1EpubDoc@@QEAA@XZ        000000018001d850 f   EbookDoc.obj
 0001:0001c9b0       ?GetHtmlData@EpubDoc@@QEBA?AUByteSlice@@XZ 000000018001d9b0 f   EbookDoc.obj
 0001:0001c9f0       ?GetImageData@EpubDoc@@QEAAPEAUByteSlice@@PEBD0@Z 000000018001d9f0 f   EbookDoc.obj
 0001:0001ce80       ?GetFileData@EpubDoc@@QEAA?AUByteSlice@@PEBD0@Z 000000018001de80 f   EbookDoc.obj
 0001:0001cf70       ?GetPropertyTemp@EpubDoc@@QEBAPEADPEBD@Z 000000018001df70 f   EbookDoc.obj
 0001:0001cfb0       ?GetFileName@EpubDoc@@QEBAPEBDXZ 000000018001dfb0 f   EbookDoc.obj
 0001:0001cfe0       ?IsRTL@EpubDoc@@QEBA_NXZ   000000018001dfe0 f   EbookDoc.obj
 0001:0001d000       ?HasToc@EpubDoc@@QEBA_NXZ  000000018001e000 f   EbookDoc.obj
 0001:0001d050       ?ParseToc@EpubDoc@@QEAA_NPEAVEbookTocVisitor@@@Z 000000018001e050 f   EbookDoc.obj
 0001:0001d210       ?IsSupportedFileType@EpubDoc@@SA_NPEBD@Z 000000018001e210 f   EbookDoc.obj
 0001:0001d250       ?CreateFromFile@EpubDoc@@SAPEAV1@PEBD@Z 000000018001e250 f   EbookDoc.obj
 0001:0001d300       ?CreateFromStream@EpubDoc@@SAPEAV1@PEAUIStream@@@Z 000000018001e300 f   EbookDoc.obj
 0001:0001d3b0       ?Load@Fb2Doc@@QEAA_NXZ     000000018001e3b0 f   EbookDoc.obj
 0001:0001de60       ?ExtractImage@Fb2Doc@@QEAAXPEAVHtmlPullParser@@PEAUHtmlToken@@@Z 000000018001ee60 f   EbookDoc.obj
 0001:0001e000       ??0Fb2Doc@@QEAA@PEBD@Z     000000018001f000 f   EbookDoc.obj
 0001:0001e0d0       ??0Fb2Doc@@QEAA@PEAUIStream@@@Z 000000018001f0d0 f   EbookDoc.obj
 0001:0001e1a0       ??1Fb2Doc@@QEAA@XZ         000000018001f1a0 f   EbookDoc.obj
 0001:0001e2b0       ?GetXmlData@Fb2Doc@@QEBA?AUByteSlice@@XZ 000000018001f2b0 f   EbookDoc.obj
 0001:0001e310       ?GetImageData@Fb2Doc@@QEBAPEAUByteSlice@@PEBD@Z 000000018001f310 f   EbookDoc.obj
 0001:0001e3b0       ?GetCoverImage@Fb2Doc@@QEBAPEAUByteSlice@@XZ 000000018001f3b0 f   EbookDoc.obj
 0001:0001e400       ?GetPropertyTemp@Fb2Doc@@QEBAPEADPEBD@Z 000000018001f400 f   EbookDoc.obj
 0001:0001e440       ?GetFileName@Fb2Doc@@QEBAPEBDXZ 000000018001f440 f   EbookDoc.obj
 0001:0001e470       ?IsZipped@Fb2Doc@@QEBA_NXZ 000000018001f470 f   EbookDoc.obj
 0001:0001e490       ?HasToc@Fb2Doc@@QEBA_NXZ   000000018001f490 f   EbookDoc.obj
 0001:0001e4b0       ?ParseToc@Fb2Doc@@QEBA_NPEAVEbookTocVisitor@@@Z 000000018001f4b0 f   EbookDoc.obj
 0001:0001e790       ?IsSupportedFileType@Fb2Doc@@SA_NPEBD@Z 000000018001f790 f   EbookDoc.obj
 0001:0001e7e0       ?CreateFromFile@Fb2Doc@@SAPEAV1@PEBD@Z 000000018001f7e0 f   EbookDoc.obj
 0001:0001e890       ?CreateFromStream@Fb2Doc@@SAPEAV1@PEAUIStream@@@Z 000000018001f890 f   EbookDoc.obj
 0001:0001e940       ?Load@PalmDoc@@AEAA_NXZ    000000018001f940 f   EbookDoc.obj
 0001:0001ec40       ??0PalmDoc@@QEAA@PEBD@Z    000000018001fc40 f   EbookDoc.obj
 0001:0001ecc0       ??1PalmDoc@@QEAA@XZ        000000018001fcc0 f   EbookDoc.obj
 0001:0001ed10       ?GetHtmlData@PalmDoc@@QEBA?AUByteSlice@@XZ 000000018001fd10 f   EbookDoc.obj
 0001:0001ed50       ?GetPropertyTemp@PalmDoc@@QEBAPEADPEBD@Z 000000018001fd50 f   EbookDoc.obj
 0001:0001ed70       ?GetFileName@PalmDoc@@QEBAPEBDXZ 000000018001fd70 f   EbookDoc.obj
 0001:0001eda0       ?HasToc@PalmDoc@@QEBA_NXZ  000000018001fda0 f   EbookDoc.obj
 0001:0001ede0       ?ParseToc@PalmDoc@@QEAA_NPEAVEbookTocVisitor@@@Z 000000018001fde0 f   EbookDoc.obj
 0001:0001ee90       ?IsSupportedFileType@PalmDoc@@SA_NPEBD@Z 000000018001fe90 f   EbookDoc.obj
 0001:0001eed0       ?CreateFromFile@PalmDoc@@SAPEAV1@PEBD@Z 000000018001fed0 f   EbookDoc.obj
 0001:0001ef80       ?Load@HtmlDoc@@AEAA_NXZ    000000018001ff80 f   EbookDoc.obj
 0001:0001f330       ?LoadURL@HtmlDoc@@AEAA?AUByteSlice@@PEBD@Z 0000000180020330 f   EbookDoc.obj
 0001:0001f400       ??0HtmlDoc@@QEAA@PEBD@Z    0000000180020400 f   EbookDoc.obj
 0001:0001f4a0       ??1HtmlDoc@@QEAA@XZ        00000001800204a0 f   EbookDoc.obj
 0001:0001f590       ?GetHtmlData@HtmlDoc@@QEAA?AUByteSlice@@XZ 0000000180020590 f   EbookDoc.obj
 0001:0001f5d0       ?GetImageData@HtmlDoc@@QEAAPEAUByteSlice@@PEBD@Z 00000001800205d0 f   EbookDoc.obj
 0001:0001f7b0       ?GetFileData@HtmlDoc@@QEAA?AUByteSlice@@PEBD@Z 00000001800207b0 f   EbookDoc.obj
 0001:0001f830       ?GetPropertyTemp@HtmlDoc@@QEBAPEADPEBD@Z 0000000180020830 f   EbookDoc.obj
 0001:0001f870       ?GetFileName@HtmlDoc@@QEBAPEBDXZ 0000000180020870 f   EbookDoc.obj
 0001:0001f8a0       ?IsSupportedFileType@HtmlDoc@@SA_NPEBD@Z 00000001800208a0 f   EbookDoc.obj
 0001:0001f8e0       ?CreateFromFile@HtmlDoc@@SAPEAV1@PEBD@Z 00000001800208e0 f   EbookDoc.obj
 0001:0001f990       ?Load@TxtDoc@@AEAA_NXZ     0000000180020990 f   EbookDoc.obj
 0001:00020140       ??0TxtDoc@@QEAA@PEBD@Z     0000000180021140 f   EbookDoc.obj
 0001:000201b0       ?GetHtmlData@TxtDoc@@QEBA?AUByteSlice@@XZ 00000001800211b0 f   EbookDoc.obj
 0001:000201f0       ?GetPropertyTemp@TxtDoc@@QEBAPEADPEBD@Z 00000001800211f0 f   EbookDoc.obj
 0001:00020210       ?GetFileName@TxtDoc@@QEBAPEBDXZ 0000000180021210 f   EbookDoc.obj
 0001:00020240       ?IsRFC@TxtDoc@@QEBA_NXZ    0000000180021240 f   EbookDoc.obj
 0001:00020260       ?HasToc@TxtDoc@@QEBA_NXZ   0000000180021260 f   EbookDoc.obj
 0001:00020280       ?ParseToc@TxtDoc@@QEAA_NPEAVEbookTocVisitor@@@Z 0000000180021280 f   EbookDoc.obj
 0001:00020490       ?IsSupportedFileType@TxtDoc@@SA_NPEBD@Z 0000000180021490 f   EbookDoc.obj
 0001:000204d0       ?CreateFromFile@TxtDoc@@SAPEAV1@PEBD@Z 00000001800214d0 f   EbookDoc.obj
 0001:00023f90       ??$max@_K@std@@YAAEB_KAEB_K0@Z 0000000180024f90 f i EbookDoc.obj
 0001:00023ff0       ??$swap@D$0A@@std@@YAXAEAD0@Z 0000000180024ff0 f i EbookDoc.obj
 0001:00024040       ??0?$AutoDelete@VMultiFormatArchive@@@@QEAA@PEAVMultiFormatArchive@@@Z 0000000180025040 f i EbookDoc.obj
 0001:00024080       ??0?$Vec@UImageData@@@@QEAA@_KPEAUAllocator@@@Z 0000000180025080 f i EbookDoc.obj
 0001:00024170       ??0ByteSlice@@QEAA@AEBU0@@Z 0000000180025170 f i EbookDoc.obj
 0001:000241e0       ??0ByteSlice@@QEAA@PEAD@Z  00000001800251e0 f i EbookDoc.obj
 0001:00024250       ??0HtmlPullParser@@QEAA@AEBUByteSlice@@@Z 0000000180025250 f i EbookDoc.obj
 0001:00024320       ??0HtmlPullParser@@QEAA@PEBD_K@Z 0000000180025320 f i EbookDoc.obj
 0001:000243d0       ??0HtmlToken@@QEAA@XZ      00000001800253d0 f i EbookDoc.obj
 0001:00024440       ??0ImageData@@QEAA@XZ      0000000180025440 f i EbookDoc.obj
 0001:00024490       ??0ScopedCritSec@@QEAA@PEAU_RTL_CRITICAL_SECTION@@@Z 0000000180025490 f i EbookDoc.obj
 0001:000244d0       ??1?$AutoDelete@VMultiFormatArchive@@@@QEAA@XZ 00000001800254d0 f i EbookDoc.obj
 0001:00024530       ??1?$Vec@UImageData@@@@QEAA@XZ 0000000180025530 f i EbookDoc.obj
 0001:00024550       ??1ScopedCritSec@@QEAA@XZ  0000000180025550 f i EbookDoc.obj
 0001:00024580       ??1TxtDoc@@QEAA@XZ         0000000180025580 f i EbookDoc.obj
 0001:000245c0       ??4AutoFree@@QEAAAEAU0@PEBD@Z 00000001800255c0 f i EbookDoc.obj
 0001:00024620       ??4ByteSlice@@QEAAAEAU0@AEBU0@@Z 0000000180025620 f i EbookDoc.obj
 0001:00024660       ??4ImageData@@QEAAAEAU0@AEBU0@@Z 0000000180025660 f i EbookDoc.obj
 0001:000246d0       ??_GEpubDoc@@QEAAPEAXI@Z   00000001800256d0 f i EbookDoc.obj
 0001:00024720       ??_GFb2Doc@@QEAAPEAXI@Z    0000000180025720 f i EbookDoc.obj
 0001:00024770       ??_GHtmlDoc@@QEAAPEAXI@Z   0000000180025770 f i EbookDoc.obj
 0001:000247c0       ??_GMobiDoc@@QEAAPEAXI@Z   00000001800257c0 f i EbookDoc.obj
 0001:00024810       ??_GMultiFormatArchive@@QEAAPEAXI@Z 0000000180025810 f i EbookDoc.obj
 0001:00024860       ??_GPalmDoc@@QEAAPEAXI@Z   0000000180025860 f i EbookDoc.obj
 0001:000248b0       ??_GTxtDoc@@QEAAPEAXI@Z    00000001800258b0 f i EbookDoc.obj
 0001:00024900       ?Append@?$Vec@UImageData@@@@QEAA_NAEBUImageData@@@Z 0000000180025900 f i EbookDoc.obj
 0001:00024940       ?EnsureCap@?$Vec@UImageData@@@@IEAA_N_K@Z 0000000180025940 f i EbookDoc.obj
 0001:00024990       ?EnsureCapSlow@?$Vec@UImageData@@@@IEAA_N_K@Z 0000000180025990 f i EbookDoc.obj
 0001:00024b90       ?FreeEls@?$Vec@UImageData@@@@IEAAXXZ 0000000180025b90 f i EbookDoc.obj
 0001:00024bf0       ?FromHtmlUtf8@strconv@@YAPEA_WPEBD_K@Z 0000000180025bf0 f i EbookDoc.obj
 0001:00024c40       ?Get@AutoFreeWStr@@QEBAPEA_WXZ 0000000180025c40 f i EbookDoc.obj
 0001:00024c60       ?GetDocType@MobiDoc@@QEBA?AW4PdbDocType@@XZ 0000000180025c60 f i EbookDoc.obj
 0001:00024c80       ?InsertAt@?$Vec@UImageData@@@@QEAA_N_KAEBUImageData@@@Z 0000000180025c80 f i EbookDoc.obj
 0001:00024d00       ?IsEmailDomainChar@@YA_ND@Z 0000000180025d00 f i EbookDoc.obj
 0001:00024d50       ?IsEmailUsernameChar@@YA_ND@Z 0000000180025d50 f i EbookDoc.obj
 0001:00024dc0       ?IsEmptyElementEndTag@HtmlToken@@QEBA_NXZ 0000000180025dc0 f i EbookDoc.obj
 0001:00024e00       ?IsEndTag@HtmlToken@@QEBA_NXZ 0000000180025e00 f i EbookDoc.obj
 0001:00024e40       ?IsError@HtmlToken@@QEBA_NXZ 0000000180025e40 f i EbookDoc.obj
 0001:00024e80       ?IsStartTag@HtmlToken@@QEBA_NXZ 0000000180025e80 f i EbookDoc.obj
 0001:00024ec0       ?IsTag@HtmlToken@@QEBA_NXZ 0000000180025ec0 f i EbookDoc.obj
 0001:00024f30       ?IsText@HtmlToken@@QEBA_NXZ 0000000180025f30 f i EbookDoc.obj
 0001:00024f70       ?Last@?$Vec@UImageData@@@@QEBAAEAUImageData@@XZ 0000000180025f70 f i EbookDoc.obj
 0001:00024fe0       ?MakeSpaceAt@?$Vec@UImageData@@@@IEAAPEAUImageData@@_K0@Z 0000000180025fe0 f i EbookDoc.obj
 0001:00025120       ?Release@AutoFree@@QEAAPEADXZ 0000000180026120 f i EbookDoc.obj
 0001:00025160       ?Reset@?$Vec@UImageData@@@@QEAAXXZ 0000000180026160 f i EbookDoc.obj
 0001:000251e0       ?Reset@AutoFreeWStr@@QEAAXXZ 00000001800261e0 f i EbookDoc.obj
 0001:00025210       ?at@?$Vec@UImageData@@@@QEBAAEAUImageData@@_K@Z 0000000180026210 f i EbookDoc.obj
 0001:00025280       ?begin@?$Vec@PEAUFileInfo@MultiFormatArchive@@@@QEBAPEBQEAUFileInfo@MultiFormatArchive@@XZ 0000000180026280 f i EbookDoc.obj
 0001:000252a0       ?begin@?$Vec@UImageData@@@@QEAAPEAUImageData@@XZ 00000001800262a0 f i EbookDoc.obj
 0001:000252c0       ?decode64@@YADD@Z          00000001800262c0 f i EbookDoc.obj
 0001:00025360       ?end@?$Vec@PEAUFileInfo@MultiFormatArchive@@@@QEBAPEBQEAUFileInfo@MultiFormatArchive@@XZ 0000000180026360 f i EbookDoc.obj
 0001:00025390       ?end@?$Vec@UImageData@@@@QEAAPEAUImageData@@XZ 0000000180026390 f i EbookDoc.obj
 0001:000253b0       ?size@?$Vec@PEAUFileInfo@MultiFormatArchive@@@@QEBA_KXZ 00000001800263b0 f i EbookDoc.obj
 0001:000253d0       ?size@?$Vec@UImageData@@@@QEBA_KXZ 00000001800263d0 f i EbookDoc.obj
 0001:000253f0       ?HandleSpacing_Mobi@MobiFormatter@@AEAAXPEAUHtmlToken@@@Z 00000001800263f0 f   EbookFormatter.obj
 0001:00025520       ?HandleTagImg@MobiFormatter@@EEAAXPEAUHtmlToken@@@Z 0000000180026520 f   EbookFormatter.obj
 0001:00025650       ?HandleHtmlTag@MobiFormatter@@EEAAXPEAUHtmlToken@@@Z 0000000180026650 f   EbookFormatter.obj
 0001:00025790       ??0MobiFormatter@@QEAA@PEAUHtmlFormatterArgs@@PEAUMobiDoc@@@Z 0000000180026790 f   EbookFormatter.obj
 0001:00025870       ?HandleTagImg@EpubFormatter@@EEAAXPEAUHtmlToken@@@Z 0000000180026870 f   EbookFormatter.obj
 0001:000259e0       ?HandleTagPagebreak@EpubFormatter@@EEAAXPEAUHtmlToken@@@Z 00000001800269e0 f   EbookFormatter.obj
 0001:00025be0       ?HandleTagLink@EpubFormatter@@EEAAXPEAUHtmlToken@@@Z 0000000180026be0 f   EbookFormatter.obj
 0001:00025d90       ?HandleHtmlTag@EpubFormatter@@EEAAXPEAUHtmlToken@@@Z 0000000180026d90 f   EbookFormatter.obj
 0001:00025f10       ?IgnoreText@EpubFormatter@@EEAA_NXZ 0000000180026f10 f   EbookFormatter.obj
 0001:00025f60       ?HandleTagSvgImage@EpubFormatter@@AEAAXPEAUHtmlToken@@@Z 0000000180026f60 f   EbookFormatter.obj
 0001:000260b0       ?HandleTagImg@Fb2Formatter@@EEAAXPEAUHtmlToken@@@Z 00000001800270b0 f   EbookFormatter.obj
 0001:000261a0       ?HandleTagAsHtml@Fb2Formatter@@AEAAXPEAUHtmlToken@@PEBD@Z 00000001800271a0 f   EbookFormatter.obj
 0001:00026230       ?HandleHtmlTag@Fb2Formatter@@EEAAXPEAUHtmlToken@@@Z 0000000180027230 f   EbookFormatter.obj
 0001:000267e0       ??0Fb2Formatter@@QEAA@PEAUHtmlFormatterArgs@@PEAVFb2Doc@@@Z 00000001800277e0 f   EbookFormatter.obj
 0001:000268f0       ?HandleTagImg@HtmlFileFormatter@@MEAAXPEAUHtmlToken@@@Z 00000001800278f0 f   EbookFormatter.obj
 0001:00026a40       ?HandleTagLink@HtmlFileFormatter@@MEAAXPEAUHtmlToken@@@Z 0000000180027a40 f   EbookFormatter.obj
 0001:00027300       ??0RectF@Gdiplus@@QEAA@MMMM@Z 0000000180028300 f i EbookFormatter.obj
 0001:00027380       ??1Fb2Formatter@@UEAA@XZ   0000000180028380 f i EbookFormatter.obj
 0001:000273a0       ??1MobiFormatter@@UEAA@XZ  00000001800283a0 f i EbookFormatter.obj
 0001:000273c0       ??_EFb2Formatter@@UEAAPEAXI@Z 00000001800283c0 f i EbookFormatter.obj
 0001:000273c0       ??_GFb2Formatter@@UEAAPEAXI@Z 00000001800283c0 f i EbookFormatter.obj
 0001:00027410       ??_EMobiFormatter@@UEAAPEAXI@Z 0000000180028410 f i EbookFormatter.obj
 0001:00027410       ??_GMobiFormatter@@UEAAPEAXI@Z 0000000180028410 f i EbookFormatter.obj
 0001:00027460       ?Append@?$Vec@UDrawInstr@@@@QEAA_NAEBUDrawInstr@@@Z 0000000180028460 f i EbookFormatter.obj
 0001:000274a0       ?Contains@?$Vec@W4HtmlTag@@@@QEBA_NAEBW4HtmlTag@@@Z 00000001800284a0 f i EbookFormatter.obj
 0001:00027500       ?CurrFont@HtmlFormatter@@IEAAPEAUCachedFont@mui@@XZ 0000000180028500 f i EbookFormatter.obj
 0001:00027530       ?CurrStyle@HtmlFormatter@@IEAAPEAUDrawStyle@@XZ 0000000180028530 f i EbookFormatter.obj
 0001:00027560       ?EnsureCap@?$Vec@UDrawInstr@@@@IEAA_N_K@Z 0000000180028560 f i EbookFormatter.obj
 0001:000275b0       ?EnsureCapSlow@?$Vec@UDrawInstr@@@@IEAA_N_K@Z 00000001800285b0 f i EbookFormatter.obj
 0001:000277b0       ?Find@?$Vec@W4HtmlTag@@@@QEBAHAEBW4HtmlTag@@_K@Z 00000001800287b0 f i EbookFormatter.obj
 0001:00027830       ?FreeEls@?$Vec@UStyleRule@@@@IEAAXXZ 0000000180028830 f i EbookFormatter.obj
 0001:00027890       ?GetSize@CachedFont@mui@@QEBAMXZ 0000000180028890 f i EbookFormatter.obj
 0001:000278b0       ?HandleTagLink@HtmlFormatter@@MEAAXPEAUHtmlToken@@@Z 00000001800288b0 f i EbookFormatter.obj
 0001:000278c0       ?HandleTagPagebreak@HtmlFormatter@@MEAAXPEAUHtmlToken@@@Z 00000001800288c0 f i EbookFormatter.obj
 0001:000278d0       ?IgnoreText@Fb2Formatter@@EEAA_NXZ 00000001800288d0 f i EbookFormatter.obj
 0001:000278e0       ?InsertAt@?$Vec@UDrawInstr@@@@QEAA_N_KAEBUDrawInstr@@@Z 00000001800288e0 f i EbookFormatter.obj
 0001:00027960       ?Last@?$Vec@UDrawInstr@@@@QEBAAEAUDrawInstr@@XZ 0000000180028960 f i EbookFormatter.obj
 0001:000279d0       ?Last@?$Vec@UDrawStyle@@@@QEBAAEAUDrawStyle@@XZ 00000001800289d0 f i EbookFormatter.obj
 0001:00027a40       ?Last@?$Vec@W4HtmlTag@@@@QEBAAEAW4HtmlTag@@XZ 0000000180028a40 f i EbookFormatter.obj
 0001:00027ab0       ?MakeSpaceAt@?$Vec@UDrawInstr@@@@IEAAPEAUDrawInstr@@_K0@Z 0000000180028ab0 f i EbookFormatter.obj
 0001:00027bf0       ?Reset@?$Vec@UStyleRule@@@@QEAAXXZ 0000000180028bf0 f i EbookFormatter.obj
 0001:00027c70       ?at@?$Vec@UDrawInstr@@@@QEBAAEAUDrawInstr@@_K@Z 0000000180028c70 f i EbookFormatter.obj
 0001:00027ce0       ?at@?$Vec@UDrawStyle@@@@QEBAAEAUDrawStyle@@_K@Z 0000000180028ce0 f i EbookFormatter.obj
 0001:00027d50       ?at@?$Vec@W4HtmlTag@@@@QEBAAEAW4HtmlTag@@_K@Z 0000000180028d50 f i EbookFormatter.obj
 0001:00027dc0       ?size@?$Vec@UDrawInstr@@@@QEBA_KXZ 0000000180028dc0 f i EbookFormatter.obj
 0001:00027de0       ?size@?$Vec@W4HtmlTag@@@@QEBA_KXZ 0000000180028de0 f i EbookFormatter.obj
 0001:00027e00       __local_stdio_printf_options 0000000180028e00 f i EbookFormatter.obj
 0001:00027e10       _vsprintf_s_l              0000000180028e10 f i EbookFormatter.obj
 0001:00027ea0       sprintf_s                  0000000180028ea0 f i EbookFormatter.obj
 0001:00027f10       ?IsExternalUrl@@YA_NPEB_W@Z 0000000180028f10 f   EngineBase.obj
 0001:00027f90       ?IsExternalUrl@@YA_NPEBD@Z 0000000180028f90 f   EngineBase.obj
 0001:00028010       ?FreePageText@@YAXPEAUPageText@@@Z 0000000180029010 f   EngineBase.obj
 0001:000280a0       ??1PageDestination@@UEAA@XZ 00000001800290a0 f   EngineBase.obj
 0001:000280f0       ?GetValue2@PageDestination@@UEAAPEADXZ 00000001800290f0 f   EngineBase.obj
 0001:00028110       ?GetName2@PageDestination@@UEAAPEADXZ 0000000180029110 f   EngineBase.obj
 0001:00028130       ?NewSimpleDest@@YAPEAUIPageDestination@@HURectF@@MPEBD@Z 0000000180029130 f   EngineBase.obj
 0001:00028240       ?Is@IPageElement@@QEAA_NPEBD@Z 0000000180029240 f   EngineBase.obj
 0001:00028280       ??0TocItem@@QEAA@PEAU0@PEBDH@Z 0000000180029280 f   EngineBase.obj
 0001:000283a0       ??1TocItem@@QEAA@XZ        00000001800293a0 f   EngineBase.obj
 0001:000284c0       ?AddSibling@TocItem@@QEAAXPEAU1@@Z 00000001800294c0 f   EngineBase.obj
 0001:00028520       ?AddSiblingAtEnd@TocItem@@QEAAXPEAU1@@Z 0000000180029520 f   EngineBase.obj
 0001:00028580       ?AddChild@TocItem@@QEAAXPEAU1@@Z 0000000180029580 f   EngineBase.obj
 0001:000285d0       ?DeleteJustSelf@TocItem@@QEAAXXZ 00000001800295d0 f   EngineBase.obj
 0001:00028640       ?GetPageDestination@TocItem@@QEBAPEAUIPageDestination@@XZ 0000000180029640 f   EngineBase.obj
 0001:00028660       ?ChildCount@TocItem@@QEAAHXZ 0000000180029660 f   EngineBase.obj
 0001:000286b0       ?ChildAt@TocItem@@QEAAPEAU1@H@Z 00000001800296b0 f   EngineBase.obj
 0001:00028780       ?IsExpanded@TocItem@@QEAA_NXZ 0000000180029780 f   EngineBase.obj
 0001:000287d0       ?PageNumbersMatch@TocItem@@QEBA_NXZ 00000001800297d0 f   EngineBase.obj
 0001:00028830       ??0TocTree@@QEAA@PEAUTocItem@@@Z 0000000180029830 f   EngineBase.obj
 0001:00028890       ??1TocTree@@UEAA@XZ        0000000180029890 f   EngineBase.obj
 0001:00028900       ?Root@TocTree@@UEAA_KXZ    0000000180029900 f   EngineBase.obj
 0001:00028920       ?Text@TocTree@@UEAAPEAD_K@Z 0000000180029920 f   EngineBase.obj
 0001:00028950       ?Parent@TocTree@@UEAA_K_K@Z 0000000180029950 f   EngineBase.obj
 0001:00028980       ?ChildCount@TocTree@@UEAAH_K@Z 0000000180029980 f   EngineBase.obj
 0001:000289b0       ?ChildAt@TocTree@@UEAA_K_KH@Z 00000001800299b0 f   EngineBase.obj
 0001:000289f0       ?IsExpanded@TocTree@@UEAA_N_K@Z 00000001800299f0 f   EngineBase.obj
 0001:00028a20       ?IsChecked@TocTree@@UEAA_N_K@Z 0000000180029a20 f   EngineBase.obj
 0001:00028a70       ?SetHandle@TocTree@@UEAAX_KPEAU_TREEITEM@@@Z 0000000180029a70 f   EngineBase.obj
 0001:00028ad0       ?GetHandle@TocTree@@UEAAPEAU_TREEITEM@@_K@Z 0000000180029ad0 f   EngineBase.obj
 0001:00028b30       ?VisitTocTree@@YA_NPEAUTocItem@@AEBU?$Func1@PEAUVisitTocTreeData@@@@@Z 0000000180029b30 f   EngineBase.obj
 0001:00028bf0       ?VisitTocTreeWithParent@@YA_NPEAUTocItem@@AEBU?$Func1@PEAUVisitTocTreeData@@@@@Z 0000000180029bf0 f   EngineBase.obj
 0001:00028c20       ?SetTocTreeParents@@YAXPEAUTocItem@@@Z 0000000180029c20 f   EngineBase.obj
 0001:00028c60       ??0RenderPageArgs@@QEAA@HMHPEAURectF@@W4RenderTarget@@PEAPEAVAbortCookie@@@Z 0000000180029c60 f   EngineBase.obj
 0001:00028d20       ?AddRef@EngineBase@@QEAAHXZ 0000000180029d20 f   EngineBase.obj
 0001:00028d50       ?Release@EngineBase@@QEAA_NXZ 0000000180029d50 f   EngineBase.obj
 0001:00028dd0       ?PageCount@EngineBase@@QEBAHXZ 0000000180029dd0 f   EngineBase.obj
 0001:00028e20       ?PageContentBox@EngineBase@@UEAA?AURectF@@HW4RenderTarget@@@Z 0000000180029e20 f   EngineBase.obj
 0001:00028e70       ?Transform@EngineBase@@QEAA?AUPointF@@U2@HMH_N@Z 0000000180029e70 f   EngineBase.obj
 0001:00028f40       ?IsImageCollection@EngineBase@@QEBA_NXZ 0000000180029f40 f   EngineBase.obj
 0001:00028f60       ?GetProperties@EngineBase@@UEAAXAEBUStrVec@@AEAU2@@Z 0000000180029f60 f   EngineBase.obj
 0001:00028f80       ?AllowsPrinting@EngineBase@@UEBA_NXZ 0000000180029f80 f   EngineBase.obj
 0001:00028fa0       ?AllowsCopyingText@EngineBase@@QEBA_NXZ 0000000180029fa0 f   EngineBase.obj
 0001:00028fc0       ?GetFileDPI@EngineBase@@QEBAMXZ 0000000180029fc0 f   EngineBase.obj
 0001:00028fe0       ?GetNamedDest@EngineBase@@UEAAPEAUIPageDestination@@PEBD@Z 0000000180029fe0 f   EngineBase.obj
 0001:00029000       ?HasToc@EngineBase@@QEAA_NXZ 000000018002a000 f   EngineBase.obj
 0001:00029050       ?GetToc@EngineBase@@UEAAPEAUTocTree@@XZ 000000018002a050 f   EngineBase.obj
 0001:00029060       ?HasPageLabels@EngineBase@@QEBA_NXZ 000000018002a060 f   EngineBase.obj
 0001:00029080       ?GetPageLabeTemp@EngineBase@@UEBAPEADH@Z 000000018002a080 f   EngineBase.obj
 0001:000290b0       ?GetPageByLabel@EngineBase@@UEBAHPEBD@Z 000000018002a0b0 f   EngineBase.obj
 0001:000290e0       ?IsPasswordProtected@EngineBase@@QEBA_NXZ 000000018002a0e0 f   EngineBase.obj
 0001:00029100       ?GetDecryptionKey@EngineBase@@QEBAPEADXZ 000000018002a100 f   EngineBase.obj
 0001:00029130       ?FilePath@EngineBase@@QEBAPEBDXZ 000000018002a130 f   EngineBase.obj
 0001:00029160       ?GetImageForPageElement@EngineBase@@UEAAPEAURenderedBitmap@@PEAUIPageElement@@@Z 000000018002a160 f   EngineBase.obj
 0001:00029180       ?HandleLink@EngineBase@@UEAA_NPEAUIPageDestination@@PEAUILinkHandler@@@Z 000000018002a180 f   EngineBase.obj
 0001:000291a0       ?SetFilePath@EngineBase@@QEAAXPEBD@Z 000000018002a1a0 f   EngineBase.obj
 0001:000291e0       ??1EngineBase@@MEAA@XZ     000000018002a1e0 f   EngineBase.obj
 0001:00029840       ??$MkFunc1Void@PEAUVisitTocTreeData@@@@YA?AU?$Func1@PEAUVisitTocTreeData@@@@P6AXPEAUVisitTocTreeData@@@Z@Z 000000018002a840 f i EngineBase.obj
 0001:000298a0       ??0?$Func1@PEAUVisitTocTreeData@@@@QEAA@XZ 000000018002a8a0 f i EngineBase.obj
 0001:000298d0       ??0IPageDestination@@QEAA@XZ 000000018002a8d0 f i EngineBase.obj
 0001:00029950       ??0PageDestination@@QEAA@XZ 000000018002a950 f i EngineBase.obj
 0001:000299b0       ??0PageDestinationURL@@QEAA@PEBD@Z 000000018002a9b0 f i EngineBase.obj
 0001:00029a70       ??0RectF@@QEAA@XZ          000000018002aa70 f i EngineBase.obj
 0001:00029ac0       ??0SizeF@@QEAA@XZ          000000018002aac0 f i EngineBase.obj
 0001:00029af0       ??0TreeModel@@QEAA@XZ      000000018002aaf0 f i EngineBase.obj
 0001:00029b10       ??0VisitTocTreeData@@QEAA@XZ 000000018002ab10 f i EngineBase.obj
 0001:00029b50       ??1IPageDestination@@UEAA@XZ 000000018002ab50 f i EngineBase.obj
 0001:00029b70       ??1PageDestinationURL@@UEAA@XZ 000000018002ab70 f i EngineBase.obj
 0001:00029bc0       ??1TreeModel@@UEAA@XZ      000000018002abc0 f i EngineBase.obj
 0001:00029bd0       ??_EEngineBase@@MEAAPEAXI@Z 000000018002abd0 f i EngineBase.obj
 0001:00029bd0       ??_GEngineBase@@MEAAPEAXI@Z 000000018002abd0 f i EngineBase.obj
 0001:00029c20       ??_EIPageDestination@@UEAAPEAXI@Z 000000018002ac20 f i EngineBase.obj
 0001:00029c20       ??_GIPageDestination@@UEAAPEAXI@Z 000000018002ac20 f i EngineBase.obj
 0001:00029c70       ??_EPageDestination@@UEAAPEAXI@Z 000000018002ac70 f i EngineBase.obj
 0001:00029c70       ??_GPageDestination@@UEAAPEAXI@Z 000000018002ac70 f i EngineBase.obj
 0001:00029cc0       ??_EPageDestinationURL@@UEAAPEAXI@Z 000000018002acc0 f i EngineBase.obj
 0001:00029cc0       ??_GPageDestinationURL@@UEAAPEAXI@Z 000000018002acc0 f i EngineBase.obj
 0001:00029d10       ??_GTocItem@@QEAAPEAXI@Z   000000018002ad10 f i EngineBase.obj
 0001:00029d60       ??_ETocTree@@UEAAPEAXI@Z   000000018002ad60 f i EngineBase.obj
 0001:00029d60       ??_GTocTree@@UEAAPEAXI@Z   000000018002ad60 f i EngineBase.obj
 0001:00029db0       ??_ETreeModel@@UEAAPEAXI@Z 000000018002adb0 f i EngineBase.obj
 0001:00029db0       ??_GTreeModel@@UEAAPEAXI@Z 000000018002adb0 f i EngineBase.obj
 0001:00029e00       ?Call@?$Func1@PEAUVisitTocTreeData@@@@QEBAXPEAUVisitTocTreeData@@@Z 000000018002ae00 f i EngineBase.obj
 0001:00029e90       ?CrashMe@@YAXXZ            000000018002ae90 f i EngineBase.obj
 0001:00029eb0       ?GetName2@IPageDestination@@UEAAPEADXZ 000000018002aeb0 f i EngineBase.obj
 0001:00029ec0       ?GetRect2@IPageDestination@@UEAA?AURectF@@XZ 000000018002aec0 f i EngineBase.obj
 0001:00029f00       ?GetValue2@IPageDestination@@UEAAPEADXZ 000000018002af00 f i EngineBase.obj
 0001:00029f10       ?GetValue2@PageDestinationURL@@UEAAPEADXZ 000000018002af10 f i EngineBase.obj
 0001:00029f30       ?GetZoom2@IPageDestination@@UEAAMXZ 000000018002af30 f i EngineBase.obj
 0001:0002a120       ?CleanupEngineDjVu@@YAXXZ  000000018002b120 f   EngineDjVu.obj
 0001:0002a1b0       ?IsEngineDjVuSupportedFileType@@YA_NPEBD@Z 000000018002b1b0 f   EngineDjVu.obj
 0001:0002a1f0       ?CreateEngineDjVuFromFile@@YAPEAVEngineBase@@PEBD@Z 000000018002b1f0 f   EngineDjVu.obj
 0001:0002a270       ?CreateEngineDjVuFromStream@@YAPEAVEngineBase@@PEAUIStream@@@Z 000000018002b270 f   EngineDjVu.obj
 0001:0002a720       ??0EngineDjVu@@QEAA@XZ     000000018002b720 f   EngineDjVu.obj
 0001:0002a810       ??1EngineDjVu@@UEAA@XZ     000000018002b810 f   EngineDjVu.obj
 0001:0002aa10       ?Clone@EngineDjVu@@UEAAPEAVEngineBase@@XZ 000000018002ba10 f   EngineDjVu.obj
 0001:0002aa70       ?PageMediabox@EngineDjVu@@UEAA?AURectF@@H@Z 000000018002ba70 f   EngineDjVu.obj
 0001:0002ab10       ?PageContentBox@EngineDjVu@@UEAA?AURectF@@HW4RenderTarget@@@Z 000000018002bb10 f   EngineDjVu.obj
 0001:0002b0f0       ?RenderPage@EngineDjVu@@UEAAPEAURenderedBitmap@@AEAURenderPageArgs@@@Z 000000018002c0f0 f   EngineDjVu.obj
 0001:0002b850       ?TransformPoint@EngineDjVu@@QEAA?AUPointF@@U2@HMH_N@Z 000000018002c850 f   EngineDjVu.obj
 0001:0002bab0       ?Transform@EngineDjVu@@UEAA?AURectF@@AEBU2@HMH_N@Z 000000018002cab0 f   EngineDjVu.obj
 0001:0002bba0       ?GetFileData@EngineDjVu@@UEAA?AUByteSlice@@XZ 000000018002cba0 f   EngineDjVu.obj
 0001:0002bbf0       ?SaveFileAs@EngineDjVu@@UEAA_NPEBD@Z 000000018002cbf0 f   EngineDjVu.obj
 0001:0002bcc0       ?ExtractPageText@EngineDjVu@@UEAA?AUPageText@@H@Z 000000018002ccc0 f   EngineDjVu.obj
 0001:0002c250       ?HasClipOptimizations@EngineDjVu@@UEAA_NH@Z 000000018002d250 f   EngineDjVu.obj
 0001:0002c270       ?GetPropertyTemp@EngineDjVu@@UEAAPEADPEBD@Z 000000018002d270 f   EngineDjVu.obj
 0001:0002c290       ?BenchLoadPage@EngineDjVu@@UEAA_NH@Z 000000018002d290 f   EngineDjVu.obj
 0001:0002c2b0       ?GetElements@EngineDjVu@@UEAA?AV?$Vec@PEAUIPageElement@@@@H@Z 000000018002d2b0 f   EngineDjVu.obj
 0001:0002ca80       ?GetElementAtPos@EngineDjVu@@UEAAPEAUIPageElement@@HUPointF@@@Z 000000018002da80 f   EngineDjVu.obj
 0001:0002cb80       ?HandleLink@EngineDjVu@@UEAA_NPEAUIPageDestination@@PEAUILinkHandler@@@Z 000000018002db80 f   EngineDjVu.obj
 0001:0002cd40       ?GetNamedDest@EngineDjVu@@UEAAPEAUIPageDestination@@PEBD@Z 000000018002dd40 f   EngineDjVu.obj
 0001:0002cdc0       ?GetToc@EngineDjVu@@UEAAPEAUTocTree@@XZ 000000018002ddc0 f   EngineDjVu.obj
 0001:0002cf50       ?GetPageLabeTemp@EngineDjVu@@UEBAPEADH@Z 000000018002df50 f   EngineDjVu.obj
 0001:0002d020       ?GetPageByLabel@EngineDjVu@@UEBAHPEBD@Z 000000018002e020 f   EngineDjVu.obj
 0001:0002d0f0       ?Load@EngineDjVu@@QEAA_NPEBD@Z 000000018002e0f0 f   EngineDjVu.obj
 0001:0002d140       ?Load@EngineDjVu@@QEAA_NPEAUIStream@@@Z 000000018002e140 f   EngineDjVu.obj
 0001:0002d180       ?CreateRenderedBitmap@EngineDjVu@@IEBAPEAURenderedBitmap@@PEBDUSize@@_N@Z 000000018002e180 f   EngineDjVu.obj
 0001:0002d430       ?ExtractPageText@EngineDjVu@@IEAA_NPEAUminiexp_s@@AEAUWStr@str@@AEAV?$Vec@URect@@@@@Z 000000018002e430 f   EngineDjVu.obj
 0001:0002d8a0       ?ResolveNamedDestTemp@EngineDjVu@@IEAAPEADPEBD@Z 000000018002e8a0 f   EngineDjVu.obj
 0001:0002d970       ?BuildTocTree@EngineDjVu@@IEAAPEAUTocItem@@PEAU2@PEAUminiexp_s@@AEAH@Z 000000018002e970 f   EngineDjVu.obj
 0001:0002dbc0       ?FinishLoading@EngineDjVu@@IEAA_NXZ 000000018002ebc0 f   EngineDjVu.obj
 0001:0002e0e0       ?LoadMediaboxes@EngineDjVu@@IEAA_NXZ 000000018002f0e0 f   EngineDjVu.obj
 0001:0002fb30       ??$AllocArrayTemp@D@@YAPEAD_K@Z 0000000180030b30 f i EngineDjVu.obj
 0001:0002fb60       ??$DeleteVecMembers@PEAUDjVuPageInfo@@@@YAXAEAV?$Vec@PEAUDjVuPageInfo@@@@@Z 0000000180030b60 f i EngineDjVu.obj
 0001:0002fc30       ??$SafeEngineRelease@VEngineDjVu@@@@YAXPEAPEAVEngineDjVu@@@Z 0000000180030c30 f i EngineDjVu.obj
 0001:0002fc80       ??$min@M@std@@YAAEBMAEBM0@Z 0000000180030c80 f i EngineDjVu.obj
 0001:0002fce0       ??$swap@M$0A@@std@@YAXAEAM0@Z 0000000180030ce0 f i EngineDjVu.obj
 0001:0002fd40       ??0?$Vec@PEAUDjVuPageInfo@@@@QEAA@_KPEAUAllocator@@@Z 0000000180030d40 f i EngineDjVu.obj
 0001:0002fe00       ??0?$Vec@PEAUIPageElement@@@@QEAA@AEBV0@@Z 0000000180030e00 f i EngineDjVu.obj
 0001:0002ff00       ??0?$Vec@PEAUIPageElement@@@@QEAA@_KPEAUAllocator@@@Z 0000000180030f00 f i EngineDjVu.obj
 0001:0002ffc0       ??0?$Vec@URect@@@@QEAA@_KPEAUAllocator@@@Z 0000000180030fc0 f i EngineDjVu.obj
 0001:000300b0       ??0?$Vec@Uddjvu_fileinfo_s@@@@QEAA@_KPEAUAllocator@@@Z 00000001800310b0 f i EngineDjVu.obj
 0001:00030170       ??0AtomicRefCount@@QEAA@XZ 0000000180031170 f i EngineDjVu.obj
 0001:00030190       ??0AutoCloseHandle@@QEAA@PEAX@Z 0000000180031190 f i EngineDjVu.obj
 0001:000301c0       ??0DjVuContext@@QEAA@XZ    00000001800311c0 f i EngineDjVu.obj
 0001:00030270       ??0DjVuPageInfo@@QEAA@XZ   0000000180031270 f i EngineDjVu.obj
 0001:000302e0       ??0EngineBase@@QEAA@XZ     00000001800312e0 f i EngineDjVu.obj
 0001:000303e0       ??0IPageElement@@QEAA@XZ   00000001800313e0 f i EngineDjVu.obj
 0001:00030460       ??0PageDestinationDjVu@@QEAA@PEBD0@Z 0000000180031460 f i EngineDjVu.obj
 0001:00030530       ??0PageElementDestination@@QEAA@PEAUIPageDestination@@@Z 0000000180031530 f i EngineDjVu.obj
 0001:000305a0       ??0PageLayout@@QEAA@XZ     00000001800315a0 f i EngineDjVu.obj
 0001:000305e0       ??0PageText@@QEAA@XZ       00000001800315e0 f i EngineDjVu.obj
 0001:00030620       ??0Rect@@QEAA@XZ           0000000180031620 f i EngineDjVu.obj
 0001:00030670       ??0TocItem@@QEAA@XZ        0000000180031670 f i EngineDjVu.obj
 0001:00030770       ??1?$Vec@PEAUDjVuPageInfo@@@@QEAA@XZ 0000000180031770 f i EngineDjVu.obj
 0001:00030790       ??1?$Vec@PEAUIPageElement@@@@QEAA@XZ 0000000180031790 f i EngineDjVu.obj
 0001:000307b0       ??1?$Vec@URect@@@@QEAA@XZ  00000001800317b0 f i EngineDjVu.obj
 0001:000307d0       ??1?$Vec@Uddjvu_fileinfo_s@@@@QEAA@XZ 00000001800317d0 f i EngineDjVu.obj
 0001:000307f0       ??1AutoCloseHandle@@QEAA@XZ 00000001800317f0 f i EngineDjVu.obj
 0001:00030830       ??1DjVuContext@@QEAA@XZ    0000000180031830 f i EngineDjVu.obj
 0001:000308b0       ??1DjVuPageInfo@@QEAA@XZ   00000001800318b0 f i EngineDjVu.obj
 0001:000308e0       ??1IPageElement@@UEAA@XZ   00000001800318e0 f i EngineDjVu.obj
 0001:000308f0       ??1PageDestinationDjVu@@UEAA@XZ 00000001800318f0 f i EngineDjVu.obj
 0001:00030950       ??1PageElementDestination@@UEAA@XZ 0000000180031950 f i EngineDjVu.obj
 0001:000309e0       ??A?$Vec@PEAUDjVuPageInfo@@@@QEBAAEAPEAUDjVuPageInfo@@H@Z 00000001800319e0 f i EngineDjVu.obj
 0001:00030a80       ??A?$Vec@Uddjvu_fileinfo_s@@@@QEBAAEAUddjvu_fileinfo_s@@_K@Z 0000000180031a80 f i EngineDjVu.obj
 0001:00030af0       ??BAutoCloseHandle@@QEBAPEAXXZ 0000000180031af0 f i EngineDjVu.obj
 0001:00030b10       ??_GDjVuContext@@QEAAPEAXI@Z 0000000180031b10 f i EngineDjVu.obj
 0001:00030b60       ??_GDjVuPageInfo@@QEAAPEAXI@Z 0000000180031b60 f i EngineDjVu.obj
 0001:00030bb0       ??_EEngineDjVu@@UEAAPEAXI@Z 0000000180031bb0 f i EngineDjVu.obj
 0001:00030bb0       ??_GEngineDjVu@@UEAAPEAXI@Z 0000000180031bb0 f i EngineDjVu.obj
 0001:00030c00       ??_EIPageElement@@UEAAPEAXI@Z 0000000180031c00 f i EngineDjVu.obj
 0001:00030c00       ??_GIPageElement@@UEAAPEAXI@Z 0000000180031c00 f i EngineDjVu.obj
 0001:00030c50       ??_EPageDestinationDjVu@@UEAAPEAXI@Z 0000000180031c50 f i EngineDjVu.obj
 0001:00030c50       ??_GPageDestinationDjVu@@UEAAPEAXI@Z 0000000180031c50 f i EngineDjVu.obj
 0001:00030ca0       ??_EPageElementDestination@@UEAAPEAXI@Z 0000000180031ca0 f i EngineDjVu.obj
 0001:00030ca0       ??_GPageElementDestination@@UEAAPEAXI@Z 0000000180031ca0 f i EngineDjVu.obj
 0001:00030cf0       ?AddRef@DjVuContext@@QEAAHXZ 0000000180031cf0 f i EngineDjVu.obj
 0001:00030d60       ?Append@?$Vec@PEAUDjVuPageInfo@@@@QEAA_NAEBQEAUDjVuPageInfo@@@Z 0000000180031d60 f i EngineDjVu.obj
 0001:00030da0       ?Append@?$Vec@PEAUIPageElement@@@@QEAA_NAEBQEAUIPageElement@@@Z 0000000180031da0 f i EngineDjVu.obj
 0001:00030de0       ?Append@?$Vec@URect@@@@QEAA_NAEBURect@@@Z 0000000180031de0 f i EngineDjVu.obj
 0001:00030e20       ?Append@?$Vec@Uddjvu_fileinfo_s@@@@QEAA_NAEBUddjvu_fileinfo_s@@@Z 0000000180031e20 f i EngineDjVu.obj
 0001:00030e60       ?AppendBlanks@?$Vec@URect@@@@QEAAPEAURect@@_K@Z 0000000180031e60 f i EngineDjVu.obj
 0001:00030ea0       ?AsLink@IPageElement@@UEAAPEAUIPageDestination@@XZ 0000000180031ea0 f i EngineDjVu.obj
 0001:00030eb0       ?AsLink@PageElementDestination@@UEAAPEAUIPageDestination@@XZ 0000000180031eb0 f i EngineDjVu.obj
 0001:00030ed0       ?Clear@?$Vec@PEAUDjVuPageInfo@@@@QEAAXXZ 0000000180031ed0 f i EngineDjVu.obj
 0001:00030f20       ?EnsureCap@?$Vec@PEAUDjVuPageInfo@@@@IEAA_N_K@Z 0000000180031f20 f i EngineDjVu.obj
 0001:00030f70       ?EnsureCap@?$Vec@PEAUIPageElement@@@@IEAA_N_K@Z 0000000180031f70 f i EngineDjVu.obj
 0001:00030fc0       ?EnsureCap@?$Vec@URect@@@@IEAA_N_K@Z 0000000180031fc0 f i EngineDjVu.obj
 0001:00031010       ?EnsureCap@?$Vec@Uddjvu_fileinfo_s@@@@IEAA_N_K@Z 0000000180032010 f i EngineDjVu.obj
 0001:00031060       ?EnsureCapSlow@?$Vec@PEAUDjVuPageInfo@@@@IEAA_N_K@Z 0000000180032060 f i EngineDjVu.obj
 0001:00031270       ?EnsureCapSlow@?$Vec@PEAUIPageElement@@@@IEAA_N_K@Z 0000000180032270 f i EngineDjVu.obj
 0001:00031480       ?EnsureCapSlow@?$Vec@URect@@@@IEAA_N_K@Z 0000000180032480 f i EngineDjVu.obj
 0001:00031680       ?EnsureCapSlow@?$Vec@Uddjvu_fileinfo_s@@@@IEAA_N_K@Z 0000000180032680 f i EngineDjVu.obj
 0001:00031880       ?FreeEls@?$Vec@PEAUDjVuPageInfo@@@@IEAAXXZ 0000000180032880 f i EngineDjVu.obj
 0001:000318e0       ?FreeEls@?$Vec@PEAUIPageElement@@@@IEAAXXZ 00000001800328e0 f i EngineDjVu.obj
 0001:00031940       ?FreeEls@?$Vec@URect@@@@IEAAXXZ 0000000180032940 f i EngineDjVu.obj
 0001:000319a0       ?FreeEls@?$Vec@Uddjvu_fileinfo_s@@@@IEAAXXZ 00000001800329a0 f i EngineDjVu.obj
 0001:00031a00       ?GetKind@IPageElement@@QEAAPEBDXZ 0000000180032a00 f i EngineDjVu.obj
 0001:00031a20       ?GetKind@KindBase@@QEBAPEBDXZ 0000000180032a20 f i EngineDjVu.obj
 0001:00031a40       ?GetRect@IPageElement@@QEAA?AURectF@@XZ 0000000180032a40 f i EngineDjVu.obj
 0001:00031a80       ?GetValue2@PageDestinationDjVu@@UEAAPEADXZ 0000000180032a80 f i EngineDjVu.obj
 0001:00031b00       ?GetValue@IPageElement@@UEAAPEADXZ 0000000180032b00 f i EngineDjVu.obj
 0001:00031b10       ?GetValue@PageElementDestination@@UEAAPEADXZ 0000000180032b10 f i EngineDjVu.obj
 0001:00031b60       ?InsertAt@?$Vec@PEAUDjVuPageInfo@@@@QEAA_N_KAEBQEAUDjVuPageInfo@@@Z 0000000180032b60 f i EngineDjVu.obj
 0001:00031bd0       ?InsertAt@?$Vec@PEAUIPageElement@@@@QEAA_N_KAEBQEAUIPageElement@@@Z 0000000180032bd0 f i EngineDjVu.obj
 0001:00031c40       ?InsertAt@?$Vec@URect@@@@QEAA_N_KAEBURect@@@Z 0000000180032c40 f i EngineDjVu.obj
 0001:00031cc0       ?InsertAt@?$Vec@Uddjvu_fileinfo_s@@@@QEAA_N_KAEBUddjvu_fileinfo_s@@@Z 0000000180032cc0 f i EngineDjVu.obj
 0001:00031d40       ?IsValid@AutoCloseHandle@@QEBA_NXZ 0000000180032d40 f i EngineDjVu.obj
 0001:00031d90       ?Last@?$Vec@URect@@@@QEBAAEAURect@@XZ 0000000180032d90 f i EngineDjVu.obj
 0001:00031e00       ?MakeSpaceAt@?$Vec@PEAUDjVuPageInfo@@@@IEAAPEAPEAUDjVuPageInfo@@_K0@Z 0000000180032e00 f i EngineDjVu.obj
 0001:00031f40       ?MakeSpaceAt@?$Vec@PEAUIPageElement@@@@IEAAPEAPEAUIPageElement@@_K0@Z 0000000180032f40 f i EngineDjVu.obj
 0001:00032080       ?MakeSpaceAt@?$Vec@URect@@@@IEAAPEAURect@@_K0@Z 0000000180033080 f i EngineDjVu.obj
 0001:000321c0       ?MakeSpaceAt@?$Vec@Uddjvu_fileinfo_s@@@@IEAAPEAUddjvu_fileinfo_s@@_K0@Z 00000001800331c0 f i EngineDjVu.obj
 0001:00032300       ?OpenFile@DjVuContext@@QEAAPEAUddjvu_document_s@@PEBD@Z 0000000180033300 f i EngineDjVu.obj
 0001:00032370       ?OpenStream@DjVuContext@@QEAAPEAUddjvu_document_s@@PEAUIStream@@@Z 0000000180033370 f i EngineDjVu.obj
 0001:000324c0       ?Release@DjVuContext@@QEAAHXZ 00000001800334c0 f i EngineDjVu.obj
 0001:00032560       ?RemoveAt@?$Vec@URect@@@@QEAAX_K0@Z 0000000180033560 f i EngineDjVu.obj
 0001:00032670       ?RemoveLast@?$Vec@URect@@@@QEAAXXZ 0000000180033670 f i EngineDjVu.obj
 0001:000326c0       ?Reset@?$Vec@PEAUDjVuPageInfo@@@@QEAAXXZ 00000001800336c0 f i EngineDjVu.obj
 0001:00032740       ?Reset@?$Vec@PEAUIPageElement@@@@QEAAXXZ 0000000180033740 f i EngineDjVu.obj
 0001:000327c0       ?Reset@?$Vec@URect@@@@QEAAXXZ 00000001800337c0 f i EngineDjVu.obj
 0001:00032840       ?Reset@?$Vec@Uddjvu_fileinfo_s@@@@QEAAXXZ 0000000180033840 f i EngineDjVu.obj
 0001:000328c0       ?Size@?$Vec@PEAUIPageElement@@@@QEBAHXZ 00000001800338c0 f i EngineDjVu.obj
 0001:000328e0       ?SpinMessageLoop@DjVuContext@@QEBAX_N@Z 00000001800338e0 f i EngineDjVu.obj
 0001:000329b0       ?StealData@?$Vec@URect@@@@QEAAPEAURect@@XZ 00000001800339b0 f i EngineDjVu.obj
 0001:00032a60       ?at@?$Vec@PEAUIPageElement@@@@QEBAAEAPEAUIPageElement@@H@Z 0000000180033a60 f i EngineDjVu.obj
 0001:00032b00       ?at@?$Vec@URect@@@@QEBAAEAURect@@_K@Z 0000000180033b00 f i EngineDjVu.obj
 0001:00032b70       ?at@?$Vec@Uddjvu_fileinfo_s@@@@QEBAAEAUddjvu_fileinfo_s@@_K@Z 0000000180033b70 f i EngineDjVu.obj
 0001:00032be0       ?begin@?$Vec@PEAUDjVuPageInfo@@@@QEAAPEAPEAUDjVuPageInfo@@XZ 0000000180033be0 f i EngineDjVu.obj
 0001:00032c00       ?end@?$Vec@PEAUDjVuPageInfo@@@@QEAAPEAPEAUDjVuPageInfo@@XZ 0000000180033c00 f i EngineDjVu.obj
 0001:00032c30       ?size@?$Vec@URect@@@@QEBA_KXZ 0000000180033c30 f i EngineDjVu.obj
 0001:00032c50       ?size@?$Vec@Uddjvu_fileinfo_s@@@@QEBA_KXZ 0000000180033c50 f i EngineDjVu.obj
 0001:00032ca0       ?CreateEngineEpubFromFile@@YAPEAVEngineBase@@PEBD@Z 0000000180033ca0 f   EngineEbook.obj
 0001:00032cc0       ?CreateEngineEpubFromStream@@YAPEAVEngineBase@@PEAUIStream@@@Z 0000000180033cc0 f   EngineEbook.obj
 0001:00032ce0       ?CreateEngineFb2FromFile@@YAPEAVEngineBase@@PEBD@Z 0000000180033ce0 f   EngineEbook.obj
 0001:00032d00       ?CreateEngineFb2FromStream@@YAPEAVEngineBase@@PEAUIStream@@@Z 0000000180033d00 f   EngineEbook.obj
 0001:00032d20       ?CreateEngineMobiFromFile@@YAPEAVEngineBase@@PEBD@Z 0000000180033d20 f   EngineEbook.obj
 0001:00032d40       ?CreateEngineMobiFromStream@@YAPEAVEngineBase@@PEAUIStream@@@Z 0000000180033d40 f   EngineEbook.obj
 0001:00032d60       ?CreateEnginePdbFromFile@@YAPEAVEngineBase@@PEBD@Z 0000000180033d60 f   EngineEbook.obj
 0001:00032d80       ?CreateEngineChmFromFile@@YAPEAVEngineBase@@PEBD@Z 0000000180033d80 f   EngineEbook.obj
 0001:00032da0       ?CreateEngineHtmlFromFile@@YAPEAVEngineBase@@PEBD@Z 0000000180033da0 f   EngineEbook.obj
 0001:00032dc0       ?CreateEngineTxtFromFile@@YAPEAVEngineBase@@PEBD@Z 0000000180033dc0 f   EngineEbook.obj
 0001:00032de0       ?SetDefaultEbookFont@@YAXPEBDM@Z 0000000180033de0 f   EngineEbook.obj
 0001:00032e50       ?EngineEbookCleanup@@YAXXZ 0000000180033e50 f   EngineEbook.obj
 0001:00032f20       ??0EngineEbook@@QEAA@XZ    0000000180033f20 f   EngineEbook.obj
 0001:000330f0       ??1EngineEbook@@UEAA@XZ    00000001800340f0 f   EngineEbook.obj
 0001:00033250       ?PageMediabox@EngineEbook@@UEAA?AURectF@@H@Z 0000000180034250 f   EngineEbook.obj
 0001:00033290       ?PageContentBox@EngineEbook@@UEAA?AURectF@@HW4RenderTarget@@@Z 0000000180034290 f   EngineEbook.obj
 0001:00033320       ?RenderPage@EngineEbook@@UEAAPEAURenderedBitmap@@AEAURenderPageArgs@@@Z 0000000180034320 f   EngineEbook.obj
 0001:00033980       ?Transform@EngineEbook@@UEAA?AURectF@@AEBU2@HMH_N@Z 0000000180034980 f   EngineEbook.obj
 0001:00033ae0       ?GetFileData@EngineEbook@@UEAA?AUByteSlice@@XZ 0000000180034ae0 f   EngineEbook.obj
 0001:00033b50       ?SaveFileAs@EngineEbook@@UEAA_NPEBD@Z 0000000180034b50 f   EngineEbook.obj
 0001:00033bc0       ?ExtractPageText@EngineEbook@@UEAA?AUPageText@@H@Z 0000000180034bc0 f   EngineEbook.obj
 0001:00034590       ?HasClipOptimizations@EngineEbook@@UEAA_NH@Z 0000000180035590 f   EngineEbook.obj
 0001:000345b0       ?GetElements@EngineEbook@@UEAA?AV?$Vec@PEAUIPageElement@@@@H@Z 00000001800355b0 f   EngineEbook.obj
 0001:00034810       ?GetElementAtPos@EngineEbook@@UEAAPEAUIPageElement@@HUPointF@@@Z 0000000180035810 f   EngineEbook.obj
 0001:00034930       ?GetNamedDest@EngineEbook@@UEAAPEAUIPageDestination@@PEBD@Z 0000000180035930 f   EngineEbook.obj
 0001:00034cb0       ?GetImageForPageElement@EngineEbook@@UEAAPEAURenderedBitmap@@PEAUIPageElement@@@Z 0000000180035cb0 f   EngineEbook.obj
 0001:00034d90       ?BenchLoadPage@EngineEbook@@UEAA_NH@Z 0000000180035d90 f   EngineEbook.obj
 0001:00034db0       ?GetTransform@EngineEbook@@IEAAXAEAVMatrix@Gdiplus@@MH@Z 0000000180035db0 f   EngineEbook.obj
 0001:00034e20       ?ExtractPageAnchors@EngineEbook@@IEAA_NXZ 0000000180035e20 f   EngineEbook.obj
 0001:00035010       ?ExtractFontListTemp@EngineEbook@@IEAAPEADXZ 0000000180036010 f   EngineEbook.obj
 0001:00035320       ?CreatePageLink@EngineEbook@@MEAAPEAUIPageElement@@PEAUDrawInstr@@URect@@H@Z 0000000180036320 f   EngineEbook.obj
 0001:00035500       ?GetHtmlPage@EngineEbook@@IEAAPEAV?$Vec@UDrawInstr@@@@H@Z 0000000180036500 f   EngineEbook.obj
 0001:00035590       ?GetHtmlPage2@EngineEbook@@IEAAPEAUHtmlPage@@H@Z 0000000180036590 f   EngineEbook.obj
 0001:00035bd0       ?Visit@EbookTocBuilder@@UEAAXPEBD0H@Z 0000000180036bd0 f   EngineEbook.obj
 0001:00035dd0       ??0EngineEpub@@QEAA@XZ     0000000180036dd0 f   EngineEbook.obj
 0001:00035e60       ??1EngineEpub@@UEAA@XZ     0000000180036e60 f   EngineEbook.obj
 0001:00035f40       ?Clone@EngineEpub@@UEAAPEAVEngineBase@@XZ 0000000180036f40 f   EngineEbook.obj
 0001:00035fa0       ?GetFileData@EngineEpub@@UEAA?AUByteSlice@@XZ 0000000180036fa0 f   EngineEbook.obj
 0001:00035ff0       ?SaveFileAs@EngineEpub@@UEAA_NPEBD@Z 0000000180036ff0 f   EngineEbook.obj
 0001:000360c0       ?GetToc@EngineEpub@@UEAAPEAUTocTree@@XZ 00000001800370c0 f   EngineEbook.obj
 0001:00036230       ?CreateFromFile@EngineEpub@@SAPEAVEngineBase@@PEBD@Z 0000000180037230 f   EngineEbook.obj
 0001:000362b0       ?CreateFromStream@EngineEpub@@SAPEAVEngineBase@@PEAUIStream@@@Z 00000001800372b0 f   EngineEbook.obj
 0001:00036330       ?Load@EngineEpub@@IEAA_NPEBD@Z 0000000180037330 f   EngineEbook.obj
 0001:00036400       ?Load@EngineEpub@@IEAA_NPEAUIStream@@@Z 0000000180037400 f   EngineEbook.obj
 0001:00036460       ?FinishLoading@EngineEpub@@IEAA_NXZ 0000000180037460 f   EngineEbook.obj
 0001:000366c0       ?GetToc@EngineFb2@@UEAAPEAUTocTree@@XZ 00000001800376c0 f   EngineEbook.obj
 0001:00036830       ?CreateFromFile@EngineFb2@@SAPEAVEngineBase@@PEBD@Z 0000000180037830 f   EngineEbook.obj
 0001:000368b0       ?CreateFromStream@EngineFb2@@SAPEAVEngineBase@@PEAUIStream@@@Z 00000001800378b0 f   EngineEbook.obj
 0001:00036930       ?Load@EngineFb2@@IEAA_NPEBD@Z 0000000180037930 f   EngineEbook.obj
 0001:00036980       ?Load@EngineFb2@@IEAA_NPEAUIStream@@@Z 0000000180037980 f   EngineEbook.obj
 0001:000369c0       ?FinishLoading@EngineFb2@@IEAA_NXZ 00000001800379c0 f   EngineEbook.obj
 0001:00036c00       ?GetNamedDest@EngineMobi@@UEAAPEAUIPageDestination@@PEBD@Z 0000000180037c00 f   EngineEbook.obj
 0001:00036f20       ?GetToc@EngineMobi@@UEAAPEAUTocTree@@XZ 0000000180037f20 f   EngineEbook.obj
 0001:00037090       ?CreateFromFile@EngineMobi@@SAPEAVEngineBase@@PEBD@Z 0000000180038090 f   EngineEbook.obj
 0001:00037110       ?CreateFromStream@EngineMobi@@SAPEAVEngineBase@@PEAUIStream@@@Z 0000000180038110 f   EngineEbook.obj
 0001:00037190       ?Load@EngineMobi@@IEAA_NPEBD@Z 0000000180038190 f   EngineEbook.obj
 0001:000371e0       ?Load@EngineMobi@@IEAA_NPEAUIStream@@@Z 00000001800381e0 f   EngineEbook.obj
 0001:00037220       ?FinishLoading@EngineMobi@@IEAA_NXZ 0000000180038220 f   EngineEbook.obj
 0001:00037440       ?GetToc@EnginePdb@@UEAAPEAUTocTree@@XZ 0000000180038440 f   EngineEbook.obj
 0001:000375b0       ?CreateFromFile@EnginePdb@@SAPEAVEngineBase@@PEBD@Z 00000001800385b0 f   EngineEbook.obj
 0001:00037630       ?Load@EnginePdb@@IEAA_NPEBD@Z 0000000180038630 f   EngineEbook.obj
 0001:00037860       ?HandleTagImg@ChmFormatter@@MEAAXPEAUHtmlToken@@@Z 0000000180038860 f   EngineEbook.obj
 0001:00037a00       ?HandleTagPagebreak@ChmFormatter@@MEAAXPEAUHtmlToken@@@Z 0000000180038a00 f   EngineEbook.obj
 0001:00037c00       ?HandleTagLink@ChmFormatter@@MEAAXPEAUHtmlToken@@@Z 0000000180038c00 f   EngineEbook.obj
 0001:00037db0       ?GetNamedDest@EngineChm@@UEAAPEAUIPageDestination@@PEBD@Z 0000000180038db0 f   EngineEbook.obj
 0001:00037e60       ?GetToc@EngineChm@@UEAAPEAUTocTree@@XZ 0000000180038e60 f   EngineEbook.obj
 0001:00038040       ?CreateFromFile@EngineChm@@SAPEAVEngineBase@@PEBD@Z 0000000180039040 f   EngineEbook.obj
 0001:000380c0       ?Load@EngineChm@@IEAA_NPEBD@Z 00000001800390c0 f   EngineEbook.obj
 0001:00038390       ?CreatePageLink@EngineChm@@MEAAPEAUIPageElement@@PEAUDrawInstr@@URect@@H@Z 0000000180039390 f   EngineEbook.obj
 0001:00038880       ?CreateFromFile@EngineHtml@@SAPEAVEngineBase@@PEBD@Z 0000000180039880 f   EngineEbook.obj
 0001:00038900       ?Load@EngineHtml@@IEAA_NPEBD@Z 0000000180039900 f   EngineEbook.obj
 0001:00038b40       ?CreatePageLink@EngineHtml@@MEAAPEAUIPageElement@@PEAUDrawInstr@@URect@@H@Z 0000000180039b40 f   EngineEbook.obj
 0001:00038d40       ?GetToc@EngineTxt@@UEAAPEAUTocTree@@XZ 0000000180039d40 f   EngineEbook.obj
 0001:00038e90       ?CreateFromFile@EngineTxt@@SAPEAVEngineBase@@PEBD@Z 0000000180039e90 f   EngineEbook.obj
 0001:00038f10       ?Load@EngineTxt@@IEAA_NPEBD@Z 0000000180039f10 f   EngineEbook.obj
 0001:0003abb0       ??$?HV<lambda_1>@?1??Visit@ChmHtmlCollector@@UEAAXPEBD0H@Z@@ExitScopeHelp@@QEAA?AU?$ExitScope@V<lambda_1>@?1??Visit@ChmHtmlCollector@@UEAAXPEBD0H@Z@@@V<lambda_1>@?1??Visit@ChmHtmlCollector@@UEAAXPEBD0H@Z@@Z 000000018003bbb0 f i EngineEbook.obj
 0001:0003abf0       ??$DeleteVecMembers@PEAUHtmlPage@@@@YAXAEAV?$Vec@PEAUHtmlPage@@@@@Z 000000018003bbf0 f i EngineEbook.obj
 0001:0003acc0       ??$DeleteVecMembers@PEAUIPageElement@@@@YAXAEAV?$Vec@PEAUIPageElement@@@@@Z 000000018003bcc0 f i EngineEbook.obj
 0001:0003ada0       ??$SafeEngineRelease@VEngineChm@@@@YAXPEAPEAVEngineChm@@@Z 000000018003bda0 f i EngineEbook.obj
 0001:0003adf0       ??$SafeEngineRelease@VEngineEpub@@@@YAXPEAPEAVEngineEpub@@@Z 000000018003bdf0 f i EngineEbook.obj
 0001:0003ae40       ??$SafeEngineRelease@VEngineFb2@@@@YAXPEAPEAVEngineFb2@@@Z 000000018003be40 f i EngineEbook.obj
 0001:0003ae90       ??$SafeEngineRelease@VEngineHtml@@@@YAXPEAPEAVEngineHtml@@@Z 000000018003be90 f i EngineEbook.obj
 0001:0003aee0       ??$SafeEngineRelease@VEngineMobi@@@@YAXPEAPEAVEngineMobi@@@Z 000000018003bee0 f i EngineEbook.obj
 0001:0003af30       ??$SafeEngineRelease@VEnginePdb@@@@YAXPEAPEAVEnginePdb@@@Z 000000018003bf30 f i EngineEbook.obj
 0001:0003af80       ??$SafeEngineRelease@VEngineTxt@@@@YAXPEAPEAVEngineTxt@@@Z 000000018003bf80 f i EngineEbook.obj
 0001:0003afd0       ??$min@_K@std@@YAAEB_KAEB_K0@Z 000000018003bfd0 f i EngineEbook.obj
 0001:0003b030       ??0?$ExitScope@V<lambda_1>@?1??Visit@ChmHtmlCollector@@UEAAXPEBD0H@Z@@@QEAA@V<lambda_1>@?1??Visit@ChmHtmlCollector@@UEAAXPEBD0H@Z@@Z 000000018003c030 f i EngineEbook.obj
 0001:0003b050       ??0?$ScopedComPtr@UIStream@@@@QEAA@PEAUIStream@@@Z 000000018003c050 f i EngineEbook.obj
 0001:0003b080       ??0?$Vec@PEAUCachedFont@mui@@@@QEAA@_KPEAUAllocator@@@Z 000000018003c080 f i EngineEbook.obj
 0001:0003b140       ??0?$Vec@PEAUDrawInstr@@@@QEAA@_KPEAUAllocator@@@Z 000000018003c140 f i EngineEbook.obj
 0001:0003b200       ??0?$Vec@UPageAnchor@@@@QEAA@_KPEAUAllocator@@@Z 000000018003c200 f i EngineEbook.obj
 0001:0003b2f0       ??0AbortCookie@@QEAA@XZ    000000018003c2f0 f i EngineEbook.obj
 0001:0003b310       ??0Brush@Gdiplus@@IEAA@PEAVGpBrush@1@W4Status@1@@Z 000000018003c310 f i EngineEbook.obj
 0001:0003b370       ??0Brush@Gdiplus@@IEAA@XZ  000000018003c370 f i EngineEbook.obj
 0001:0003b3b0       ??0ChmDataCache@@QEAA@PEAUChmFile@@PEAD@Z 000000018003c3b0 f i EngineEbook.obj
 0001:0003b430       ??0ChmFormatter@@QEAA@PEAUHtmlFormatterArgs@@PEAVChmDataCache@@@Z 000000018003c430 f i EngineEbook.obj
 0001:0003b4b0       ??0ChmHtmlCollector@@QEAA@PEAUChmFile@@@Z 000000018003c4b0 f i EngineEbook.obj
 0001:0003b540       ??0Color@Gdiplus@@QEAA@EEE@Z 000000018003c540 f i EngineEbook.obj
 0001:0003b590       ??0Color@Gdiplus@@QEAA@K@Z 000000018003c590 f i EngineEbook.obj
 0001:0003b5b0       ??0EbookAbortCookie@@QEAA@XZ 000000018003c5b0 f i EngineEbook.obj
 0001:0003b600       ??0EbookTocBuilder@@QEAA@PEAVEngineBase@@@Z 000000018003c600 f i EngineEbook.obj
 0001:0003b690       ??0EbookTocVisitor@@QEAA@XZ 000000018003c690 f i EngineEbook.obj
 0001:0003b6b0       ??0EngineChm@@QEAA@XZ      000000018003c6b0 f i EngineEbook.obj
 0001:0003b7f0       ??0EngineFb2@@QEAA@XZ      000000018003c7f0 f i EngineEbook.obj
 0001:0003b890       ??0EngineHtml@@QEAA@XZ     000000018003c890 f i EngineEbook.obj
 0001:0003b9a0       ??0EngineMobi@@QEAA@XZ     000000018003c9a0 f i EngineEbook.obj
 0001:0003ba40       ??0EnginePdb@@QEAA@XZ      000000018003ca40 f i EngineEbook.obj
 0001:0003bae0       ??0EngineTxt@@QEAA@XZ      000000018003cae0 f i EngineEbook.obj
 0001:0003bc10       ??0EpubFormatter@@QEAA@PEAUHtmlFormatterArgs@@PEAVEpubDoc@@@Z 000000018003cc10 f i EngineEbook.obj
 0001:0003bca0       ??0FontFamily@Gdiplus@@QEAA@XZ 000000018003cca0 f i EngineEbook.obj
 0001:0003bcd0       ??0Graphics@Gdiplus@@QEAA@PEAUHDC__@@@Z 000000018003ccd0 f i EngineEbook.obj
 0001:0003bd30       ??0HtmlFileFormatter@@QEAA@PEAUHtmlFormatterArgs@@PEAVHtmlDoc@@@Z 000000018003cd30 f i EngineEbook.obj
 0001:0003bd90       ??0HtmlFormatterArgs@@QEAA@XZ 000000018003cd90 f i EngineEbook.obj
 0001:0003be40       ??0Matrix@Gdiplus@@QEAA@XZ 000000018003ce40 f i EngineEbook.obj
 0001:0003be90       ??0PageAnchor@@QEAA@PEAUDrawInstr@@H@Z 000000018003ce90 f i EngineEbook.obj
 0001:0003bed0       ??0PageElementImage@@QEAA@XZ 000000018003ced0 f i EngineEbook.obj
 0001:0003bf30       ??0PageLayout@@QEAA@W4Type@0@@Z 000000018003cf30 f i EngineEbook.obj
 0001:0003bf80       ??0PointF@Gdiplus@@QEAA@AEBV01@@Z 000000018003cf80 f i EngineEbook.obj
 0001:0003bfd0       ??0PointF@Gdiplus@@QEAA@MM@Z 000000018003cfd0 f i EngineEbook.obj
 0001:0003c020       ??0SolidBrush@Gdiplus@@QEAA@AEBVColor@1@@Z 000000018003d020 f i EngineEbook.obj
 0001:0003c0b0       ??0TxtFormatter@@QEAA@PEAUHtmlFormatterArgs@@@Z 000000018003d0b0 f i EngineEbook.obj
 0001:0003c100       ??1?$ExitScope@V<lambda_1>@?1??Visit@ChmHtmlCollector@@UEAAXPEBD0H@Z@@@QEAA@XZ 000000018003d100 f i EngineEbook.obj
 0001:0003c130       ??1?$ScopedComPtr@UIStream@@@@QEAA@XZ 000000018003d130 f i EngineEbook.obj
 0001:0003c170       ??1?$Vec@PEAUCachedFont@mui@@@@QEAA@XZ 000000018003d170 f i EngineEbook.obj
 0001:0003c190       ??1?$Vec@PEAUDrawInstr@@@@QEAA@XZ 000000018003d190 f i EngineEbook.obj
 0001:0003c1b0       ??1?$Vec@PEAUHtmlPage@@@@QEAA@XZ 000000018003d1b0 f i EngineEbook.obj
 0001:0003c1d0       ??1?$Vec@UDrawInstr@@@@QEAA@XZ 000000018003d1d0 f i EngineEbook.obj
 0001:0003c1f0       ??1?$Vec@UPageAnchor@@@@QEAA@XZ 000000018003d1f0 f i EngineEbook.obj
 0001:0003c210       ??1AbortCookie@@UEAA@XZ    000000018003d210 f i EngineEbook.obj
 0001:0003c220       ??1Brush@Gdiplus@@UEAA@XZ  000000018003d220 f i EngineEbook.obj
 0001:0003c260       ??1ChmDataCache@@QEAA@XZ   000000018003d260 f i EngineEbook.obj
 0001:0003c340       ??1ChmFormatter@@UEAA@XZ   000000018003d340 f i EngineEbook.obj
 0001:0003c380       ??1ChmHtmlCollector@@UEAA@XZ 000000018003d380 f i EngineEbook.obj
 0001:0003c3d0       ??1EbookAbortCookie@@UEAA@XZ 000000018003d3d0 f i EngineEbook.obj
 0001:0003c3f0       ??1EbookTocBuilder@@UEAA@XZ 000000018003d3f0 f i EngineEbook.obj
 0001:0003c410       ??1EbookTocVisitor@@UEAA@XZ 000000018003d410 f i EngineEbook.obj
 0001:0003c420       ??1EngineChm@@UEAA@XZ      000000018003d420 f i EngineEbook.obj
 0001:0003c540       ??1EngineFb2@@UEAA@XZ      000000018003d540 f i EngineEbook.obj
 0001:0003c610       ??1EngineHtml@@UEAA@XZ     000000018003d610 f i EngineEbook.obj
 0001:0003c690       ??1EngineMobi@@UEAA@XZ     000000018003d690 f i EngineEbook.obj
 0001:0003c760       ??1EnginePdb@@UEAA@XZ      000000018003d760 f i EngineEbook.obj
 0001:0003c830       ??1EngineTxt@@UEAA@XZ      000000018003d830 f i EngineEbook.obj
 0001:0003c900       ??1EpubFormatter@@UEAA@XZ  000000018003d900 f i EngineEbook.obj
 0001:0003c940       ??1FontFamily@Gdiplus@@QEAA@XZ 000000018003d940 f i EngineEbook.obj
 0001:0003c970       ??1Graphics@Gdiplus@@QEAA@XZ 000000018003d970 f i EngineEbook.obj
 0001:0003c9a0       ??1HtmlFileFormatter@@UEAA@XZ 000000018003d9a0 f i EngineEbook.obj
 0001:0003c9c0       ??1HtmlFormatterArgs@@QEAA@XZ 000000018003d9c0 f i EngineEbook.obj
 0001:0003c9f0       ??1HtmlPage@@QEAA@XZ       000000018003d9f0 f i EngineEbook.obj
 0001:0003ca30       ??1Matrix@Gdiplus@@QEAA@XZ 000000018003da30 f i EngineEbook.obj
 0001:0003ca60       ??1PageElementImage@@UEAA@XZ 000000018003da60 f i EngineEbook.obj
 0001:0003ca80       ??1SolidBrush@Gdiplus@@UEAA@XZ 000000018003da80 f i EngineEbook.obj
 0001:0003caa0       ??1TxtFormatter@@UEAA@XZ   000000018003daa0 f i EngineEbook.obj
 0001:0003cac0       ??2GdiplusBase@Gdiplus@@SAPEAX_K@Z 000000018003dac0 f i EngineEbook.obj
 0001:0003cae0       ??3GdiplusBase@Gdiplus@@SAXPEAX@Z 000000018003dae0 f i EngineEbook.obj
 0001:0003cb00       ??B?$ScopedComPtr@UIStream@@@@QEBAPEAUIStream@@XZ 000000018003db00 f i EngineEbook.obj
 0001:0003cb20       ??R<lambda_1>@?1??Visit@ChmHtmlCollector@@UEAAXPEBD0H@Z@QEBA@XZ 000000018003db20 f i EngineEbook.obj
 0001:0003cb40       ??_FPageAnchor@@QEAAXXZ    000000018003db40 f i EngineEbook.obj
 0001:0003cb70       ??_G?$Vec@PEAUHtmlPage@@@@QEAAPEAXI@Z 000000018003db70 f i EngineEbook.obj
 0001:0003cbc0       ??_EAbortCookie@@UEAAPEAXI@Z 000000018003dbc0 f i EngineEbook.obj
 0001:0003cbc0       ??_GAbortCookie@@UEAAPEAXI@Z 000000018003dbc0 f i EngineEbook.obj
 0001:0003cc10       ??_EBrush@Gdiplus@@UEAAPEAXI@Z 000000018003dc10 f i EngineEbook.obj
 0001:0003cc10       ??_GBrush@Gdiplus@@UEAAPEAXI@Z 000000018003dc10 f i EngineEbook.obj
 0001:0003cc80       ??_GChmDataCache@@QEAAPEAXI@Z 000000018003dc80 f i EngineEbook.obj
 0001:0003ccd0       ??_EChmFormatter@@UEAAPEAXI@Z 000000018003dcd0 f i EngineEbook.obj
 0001:0003ccd0       ??_GChmFormatter@@UEAAPEAXI@Z 000000018003dcd0 f i EngineEbook.obj
 0001:0003cd20       ??_EChmHtmlCollector@@UEAAPEAXI@Z 000000018003dd20 f i EngineEbook.obj
 0001:0003cd20       ??_GChmHtmlCollector@@UEAAPEAXI@Z 000000018003dd20 f i EngineEbook.obj
 0001:0003cd70       ??_EEbookAbortCookie@@UEAAPEAXI@Z 000000018003dd70 f i EngineEbook.obj
 0001:0003cd70       ??_GEbookAbortCookie@@UEAAPEAXI@Z 000000018003dd70 f i EngineEbook.obj
 0001:0003cdc0       ??_EEbookTocBuilder@@UEAAPEAXI@Z 000000018003ddc0 f i EngineEbook.obj
 0001:0003cdc0       ??_GEbookTocBuilder@@UEAAPEAXI@Z 000000018003ddc0 f i EngineEbook.obj
 0001:0003ce10       ??_EEbookTocVisitor@@UEAAPEAXI@Z 000000018003de10 f i EngineEbook.obj
 0001:0003ce10       ??_GEbookTocVisitor@@UEAAPEAXI@Z 000000018003de10 f i EngineEbook.obj
 0001:0003ce60       ??_EEngineChm@@UEAAPEAXI@Z 000000018003de60 f i EngineEbook.obj
 0001:0003ce60       ??_GEngineChm@@UEAAPEAXI@Z 000000018003de60 f i EngineEbook.obj
 0001:0003ceb0       ??_EEngineEbook@@UEAAPEAXI@Z 000000018003deb0 f i EngineEbook.obj
 0001:0003ceb0       ??_GEngineEbook@@UEAAPEAXI@Z 000000018003deb0 f i EngineEbook.obj
 0001:0003cf00       ??_EEngineEpub@@UEAAPEAXI@Z 000000018003df00 f i EngineEbook.obj
 0001:0003cf00       ??_GEngineEpub@@UEAAPEAXI@Z 000000018003df00 f i EngineEbook.obj
 0001:0003cf50       ??_EEngineFb2@@UEAAPEAXI@Z 000000018003df50 f i EngineEbook.obj
 0001:0003cf50       ??_GEngineFb2@@UEAAPEAXI@Z 000000018003df50 f i EngineEbook.obj
 0001:0003cfa0       ??_EEngineHtml@@UEAAPEAXI@Z 000000018003dfa0 f i EngineEbook.obj
 0001:0003cfa0       ??_GEngineHtml@@UEAAPEAXI@Z 000000018003dfa0 f i EngineEbook.obj
 0001:0003cff0       ??_EEngineMobi@@UEAAPEAXI@Z 000000018003dff0 f i EngineEbook.obj
 0001:0003cff0       ??_GEngineMobi@@UEAAPEAXI@Z 000000018003dff0 f i EngineEbook.obj
 0001:0003d040       ??_EEnginePdb@@UEAAPEAXI@Z 000000018003e040 f i EngineEbook.obj
 0001:0003d040       ??_GEnginePdb@@UEAAPEAXI@Z 000000018003e040 f i EngineEbook.obj
 0001:0003d090       ??_EEngineTxt@@UEAAPEAXI@Z 000000018003e090 f i EngineEbook.obj
 0001:0003d090       ??_GEngineTxt@@UEAAPEAXI@Z 000000018003e090 f i EngineEbook.obj
 0001:0003d0e0       ??_EEpubFormatter@@UEAAPEAXI@Z 000000018003e0e0 f i EngineEbook.obj
 0001:0003d0e0       ??_GEpubFormatter@@UEAAPEAXI@Z 000000018003e0e0 f i EngineEbook.obj
 0001:0003d130       ??_EHtmlFileFormatter@@UEAAPEAXI@Z 000000018003e130 f i EngineEbook.obj
 0001:0003d130       ??_GHtmlFileFormatter@@UEAAPEAXI@Z 000000018003e130 f i EngineEbook.obj
 0001:0003d180       ??_GHtmlPage@@QEAAPEAXI@Z  000000018003e180 f i EngineEbook.obj
 0001:0003d1d0       ??_EPageElementImage@@UEAAPEAXI@Z 000000018003e1d0 f i EngineEbook.obj
 0001:0003d1d0       ??_GPageElementImage@@UEAAPEAXI@Z 000000018003e1d0 f i EngineEbook.obj
 0001:0003d220       ??_ESolidBrush@Gdiplus@@UEAAPEAXI@Z 000000018003e220 f i EngineEbook.obj
 0001:0003d220       ??_GSolidBrush@Gdiplus@@UEAAPEAXI@Z 000000018003e220 f i EngineEbook.obj
 0001:0003d290       ??_ETxtFormatter@@UEAAPEAXI@Z 000000018003e290 f i EngineEbook.obj
 0001:0003d290       ??_GTxtFormatter@@UEAAPEAXI@Z 000000018003e290 f i EngineEbook.obj
 0001:0003d2e0       ?Abort@EbookAbortCookie@@UEAAXXZ 000000018003e2e0 f i EngineEbook.obj
 0001:0003d300       ?Append@?$Vec@PEAUCachedFont@mui@@@@QEAA_NAEBQEAUCachedFont@mui@@@Z 000000018003e300 f i EngineEbook.obj
 0001:0003d340       ?Append@?$Vec@PEAUDrawInstr@@@@QEAA_NAEBQEAUDrawInstr@@@Z 000000018003e340 f i EngineEbook.obj
 0001:0003d380       ?Append@?$Vec@UPageAnchor@@@@QEAA_NAEBUPageAnchor@@@Z 000000018003e380 f i EngineEbook.obj
 0001:0003d3c0       ?Clear@?$Vec@PEAUHtmlPage@@@@QEAAXXZ 000000018003e3c0 f i EngineEbook.obj
 0001:0003d410       ?Clear@?$Vec@PEAUIPageElement@@@@QEAAXXZ 000000018003e410 f i EngineEbook.obj
 0001:0003d460       ?Clone@Brush@Gdiplus@@UEBAPEAV12@XZ 000000018003e460 f i EngineEbook.obj
 0001:0003d520       ?Clone@EngineChm@@UEAAPEAVEngineBase@@XZ 000000018003e520 f i EngineEbook.obj
 0001:0003d560       ?Clone@EngineFb2@@UEAAPEAVEngineBase@@XZ 000000018003e560 f i EngineEbook.obj
 0001:0003d5a0       ?Clone@EngineHtml@@UEAAPEAVEngineBase@@XZ 000000018003e5a0 f i EngineEbook.obj
 0001:0003d5e0       ?Clone@EngineMobi@@UEAAPEAVEngineBase@@XZ 000000018003e5e0 f i EngineEbook.obj
 0001:0003d620       ?Clone@EnginePdb@@UEAAPEAVEngineBase@@XZ 000000018003e620 f i EngineEbook.obj
 0001:0003d660       ?Clone@EngineTxt@@UEAAPEAVEngineBase@@XZ 000000018003e660 f i EngineEbook.obj
 0001:0003d6a0       ?Contains@?$Vec@PEAUCachedFont@mui@@@@QEBA_NAEBQEAUCachedFont@mui@@@Z 000000018003e6a0 f i EngineEbook.obj
 0001:0003d700       ?EnsureCap@?$Vec@PEAUCachedFont@mui@@@@IEAA_N_K@Z 000000018003e700 f i EngineEbook.obj
 0001:0003d750       ?EnsureCap@?$Vec@PEAUDrawInstr@@@@IEAA_N_K@Z 000000018003e750 f i EngineEbook.obj
 0001:0003d7a0       ?EnsureCap@?$Vec@UPageAnchor@@@@IEAA_N_K@Z 000000018003e7a0 f i EngineEbook.obj
 0001:0003d7f0       ?EnsureCapSlow@?$Vec@PEAUCachedFont@mui@@@@IEAA_N_K@Z 000000018003e7f0 f i EngineEbook.obj
 0001:0003da00       ?EnsureCapSlow@?$Vec@PEAUDrawInstr@@@@IEAA_N_K@Z 000000018003ea00 f i EngineEbook.obj
 0001:0003dc10       ?EnsureCapSlow@?$Vec@UPageAnchor@@@@IEAA_N_K@Z 000000018003ec10 f i EngineEbook.obj
 0001:0003de10       ?FillRectangle@Graphics@Gdiplus@@QEAA?AW4Status@2@PEBVBrush@2@AEBVRect@2@@Z 000000018003ee10 f i EngineEbook.obj
 0001:0003de80       ?FillRectangle@Graphics@Gdiplus@@QEAA?AW4Status@2@PEBVBrush@2@HHHH@Z 000000018003ee80 f i EngineEbook.obj
 0001:0003def0       ?Find@?$Vec@PEAUCachedFont@mui@@@@QEBAHAEBQEAUCachedFont@mui@@_K@Z 000000018003eef0 f i EngineEbook.obj
 0001:0003df70       ?FreeEls@?$Vec@PEAUCachedFont@mui@@@@IEAAXXZ 000000018003ef70 f i EngineEbook.obj
 0001:0003dfd0       ?FreeEls@?$Vec@PEAUDrawInstr@@@@IEAAXXZ 000000018003efd0 f i EngineEbook.obj
 0001:0003e030       ?FreeEls@?$Vec@PEAUHtmlPage@@@@IEAAXXZ 000000018003f030 f i EngineEbook.obj
 0001:0003e090       ?FreeEls@?$Vec@UDrawInstr@@@@IEAAXXZ 000000018003f090 f i EngineEbook.obj
 0001:0003e0f0       ?FreeEls@?$Vec@UPageAnchor@@@@IEAAXXZ 000000018003f0f0 f i EngineEbook.obj
 0001:0003e150       ?FromHtmlUtf8Temp@strconv@@YAPEADPEBD_K@Z 000000018003f150 f i EngineEbook.obj
 0001:0003e1a0       ?GetData@EbookAbortCookie@@UEAAPEAXXZ 000000018003f1a0 f i EngineEbook.obj
 0001:0003e1b0       ?GetFamily@Font@Gdiplus@@QEBA?AW4Status@2@PEAVFontFamily@2@@Z 000000018003f1b0 f i EngineEbook.obj
 0001:0003e230       ?GetFamilyName@FontFamily@Gdiplus@@QEBA?AW4Status@2@PEA_WG@Z 000000018003f230 f i EngineEbook.obj
 0001:0003e280       ?GetFileData@ChmDataCache@@QEAA?AUByteSlice@@PEBD0@Z 000000018003f280 f i EngineEbook.obj
 0001:0003e320       ?GetHBITMAP@Bitmap@Gdiplus@@QEAA?AW4Status@2@AEBVColor@2@PEAPEAUHBITMAP__@@@Z 000000018003f320 f i EngineEbook.obj
 0001:0003e390       ?GetHeight@Image@Gdiplus@@QEAAIXZ 000000018003f390 f i EngineEbook.obj
 0001:0003e3e0       ?GetHtml@ChmHtmlCollector@@QEAAPEADXZ 000000018003f3e0 f i EngineEbook.obj
 0001:0003e6a0       ?GetHtmlData@ChmDataCache@@QEAA?AUByteSlice@@XZ 000000018003f6a0 f i EngineEbook.obj
 0001:0003e6e0       ?GetImage@DrawInstr@@QEAA?AUByteSlice@@XZ 000000018003f6e0 f i EngineEbook.obj
 0001:0003e760       ?GetImageData@ChmDataCache@@QEAAPEAUByteSlice@@PEBD0@Z 000000018003f760 f i EngineEbook.obj
 0001:0003e9d0       ?GetPropertyTemp@EngineChm@@UEAAPEADPEBD@Z 000000018003f9d0 f i EngineEbook.obj
 0001:0003ea40       ?GetPropertyTemp@EngineEpub@@UEAAPEADPEBD@Z 000000018003fa40 f i EngineEbook.obj
 0001:0003eab0       ?GetPropertyTemp@EngineFb2@@UEAAPEADPEBD@Z 000000018003fab0 f i EngineEbook.obj
 0001:0003eb20       ?GetPropertyTemp@EngineHtml@@UEAAPEADPEBD@Z 000000018003fb20 f i EngineEbook.obj
 0001:0003eb90       ?GetPropertyTemp@EngineMobi@@UEAAPEADPEBD@Z 000000018003fb90 f i EngineEbook.obj
 0001:0003ec00       ?GetPropertyTemp@EnginePdb@@UEAAPEADPEBD@Z 000000018003fc00 f i EngineEbook.obj
 0001:0003ec70       ?GetPropertyTemp@EngineTxt@@UEAAPEADPEBD@Z 000000018003fc70 f i EngineEbook.obj
 0001:0003ece0       ?GetRoot@EbookTocBuilder@@QEAAPEAUTocItem@@XZ 000000018003fce0 f i EngineEbook.obj
 0001:0003ed00       ?GetValue@Color@Gdiplus@@QEBAKXZ 000000018003fd00 f i EngineEbook.obj
 0001:0003ed10       ?GetWidth@Image@Gdiplus@@QEAAIXZ 000000018003fd10 f i EngineEbook.obj
 0001:0003ed60       ?HandleLink@EngineEbook@@UEAA_NPEAUIPageDestination@@PEAUILinkHandler@@@Z 000000018003fd60 f i EngineEbook.obj
 0001:0003ee00       ?HandleTagImg@HtmlFormatter@@MEAAXPEAUHtmlToken@@@Z 000000018003fe00 f i EngineEbook.obj
 0001:0003ee10       ?HandleTagPagebreak@TxtFormatter@@MEAAXPEAUHtmlToken@@@Z 000000018003fe10 f i EngineEbook.obj
 0001:0003ee40       ?Inflate@Rect@Gdiplus@@QEAAXHH@Z 000000018003fe40 f i EngineEbook.obj
 0001:0003eec0       ?InsertAt@?$Vec@PEAUCachedFont@mui@@@@QEAA_N_KAEBQEAUCachedFont@mui@@@Z 000000018003fec0 f i EngineEbook.obj
 0001:0003ef30       ?InsertAt@?$Vec@PEAUDrawInstr@@@@QEAA_N_KAEBQEAUDrawInstr@@@Z 000000018003ff30 f i EngineEbook.obj
 0001:0003efa0       ?InsertAt@?$Vec@UPageAnchor@@@@QEAA_N_KAEBUPageAnchor@@@Z 000000018003ffa0 f i EngineEbook.obj
 0001:0003f020       ?Invert@Matrix@Gdiplus@@QEAA?AW4Status@2@XZ 0000000180040020 f i EngineEbook.obj
 0001:0003f050       ?MakeARGB@Color@Gdiplus@@SAKEEEE@Z 0000000180040050 f i EngineEbook.obj
 0001:0003f0a0       ?MakeSpaceAt@?$Vec@PEAUCachedFont@mui@@@@IEAAPEAPEAUCachedFont@mui@@_K0@Z 00000001800400a0 f i EngineEbook.obj
 0001:0003f1e0       ?MakeSpaceAt@?$Vec@PEAUDrawInstr@@@@IEAAPEAPEAUDrawInstr@@_K0@Z 00000001800401e0 f i EngineEbook.obj
 0001:0003f320       ?MakeSpaceAt@?$Vec@UPageAnchor@@@@IEAAPEAUPageAnchor@@_K0@Z 0000000180040320 f i EngineEbook.obj
 0001:0003f460       ?Reset@?$Vec@PEAUCachedFont@mui@@@@QEAAXXZ 0000000180040460 f i EngineEbook.obj
 0001:0003f4e0       ?Reset@?$Vec@PEAUDrawInstr@@@@QEAAXXZ 00000001800404e0 f i EngineEbook.obj
 0001:0003f560       ?Reset@?$Vec@UPageAnchor@@@@QEAAXXZ 0000000180040560 f i EngineEbook.obj
 0001:0003f5e0       ?Reset@AutoFree@@QEAAXXZ   00000001800405e0 f i EngineEbook.obj
 0001:0003f610       ?SetFontName@HtmlFormatterArgs@@QEAAXPEB_W@Z 0000000180040610 f i EngineEbook.obj
 0001:0003f650       ?SetIsIndex@EbookTocBuilder@@QEAAX_N@Z 0000000180040650 f i EngineEbook.obj
 0001:0003f670       ?SetNativeBrush@Brush@Gdiplus@@IEAAXPEAVGpBrush@2@@Z 0000000180040670 f i EngineEbook.obj
 0001:0003f690       ?SetNativeGraphics@Graphics@Gdiplus@@IEAAXPEAVGpGraphics@2@@Z 0000000180040690 f i EngineEbook.obj
 0001:0003f6b0       ?SetNativeMatrix@Matrix@Gdiplus@@IEAAXPEAV12@@Z 00000001800406b0 f i EngineEbook.obj
 0001:0003f6d0       ?SetStatus@Brush@Gdiplus@@IEBA?AW4Status@2@W432@@Z 00000001800406d0 f i EngineEbook.obj
 0001:0003f710       ?SetStatus@Font@Gdiplus@@IEBA?AW4Status@2@W432@@Z 0000000180040710 f i EngineEbook.obj
 0001:0003f750       ?SetStatus@FontFamily@Gdiplus@@IEBA?AW4Status@2@W432@@Z 0000000180040750 f i EngineEbook.obj
 0001:0003f790       ?SetStatus@Graphics@Gdiplus@@IEBA?AW4Status@2@W432@@Z 0000000180040790 f i EngineEbook.obj
 0001:0003f7d0       ?SetStatus@Image@Gdiplus@@IEBA?AW4Status@2@W432@@Z 00000001800407d0 f i EngineEbook.obj
 0001:0003f810       ?SetStatus@Matrix@Gdiplus@@IEBA?AW4Status@2@W432@@Z 0000000180040810 f i EngineEbook.obj
 0001:0003f850       ?SetTransform@Graphics@Gdiplus@@QEAA?AW4Status@2@PEBVMatrix@2@@Z 0000000180040850 f i EngineEbook.obj
 0001:0003f8a0       ?TransformPoints@Matrix@Gdiplus@@QEBA?AW4Status@2@PEAVPointF@2@H@Z 00000001800408a0 f i EngineEbook.obj
 0001:0003f8f0       ?Translate@Matrix@Gdiplus@@QEAA?AW4Status@2@MMW4MatrixOrder@2@@Z 00000001800408f0 f i EngineEbook.obj
 0001:0003f950       ?Visit@ChmHtmlCollector@@UEAAXPEBD0H@Z 0000000180040950 f i EngineEbook.obj
 0001:0003fc00       ?at@?$Vec@PEAUDrawInstr@@@@QEBAAEAPEAUDrawInstr@@H@Z 0000000180040c00 f i EngineEbook.obj
 0001:0003fca0       ?at@?$Vec@PEAUDrawInstr@@@@QEBAAEAPEAUDrawInstr@@_K@Z 0000000180040ca0 f i EngineEbook.obj
 0001:0003fd10       ?at@?$Vec@PEAUHtmlPage@@@@QEBAAEAPEAUHtmlPage@@H@Z 0000000180040d10 f i EngineEbook.obj
 0001:0003fdb0       ?at@?$Vec@UDrawInstr@@@@QEBAAEAUDrawInstr@@H@Z 0000000180040db0 f i EngineEbook.obj
 0001:0003fe50       ?at@?$Vec@UPageAnchor@@@@QEBAAEAUPageAnchor@@_K@Z 0000000180040e50 f i EngineEbook.obj
 0001:0003fec0       ?begin@?$Vec@PEAUHtmlPage@@@@QEAAPEAPEAUHtmlPage@@XZ 0000000180040ec0 f i EngineEbook.obj
 0001:0003fee0       ?begin@?$Vec@PEAUIPageElement@@@@QEAAPEAPEAUIPageElement@@XZ 0000000180040ee0 f i EngineEbook.obj
 0001:0003ff00       ?begin@?$Vec@UDrawInstr@@@@QEAAPEAUDrawInstr@@XZ 0000000180040f00 f i EngineEbook.obj
 0001:0003ff20       ?end@?$Vec@PEAUHtmlPage@@@@QEAAPEAPEAUHtmlPage@@XZ 0000000180040f20 f i EngineEbook.obj
 0001:0003ff50       ?end@?$Vec@PEAUIPageElement@@@@QEAAPEAPEAUIPageElement@@XZ 0000000180040f50 f i EngineEbook.obj
 0001:0003ff80       ?end@?$Vec@UDrawInstr@@@@QEAAPEAUDrawInstr@@XZ 0000000180040f80 f i EngineEbook.obj
 0001:0003ffa0       ?size@?$Vec@PEAUDrawInstr@@@@QEBA_KXZ 0000000180040fa0 f i EngineEbook.obj
 0001:0003ffc0       ?size@?$Vec@PEAUHtmlPage@@@@QEBA_KXZ 0000000180040fc0 f i EngineEbook.obj
 0001:0003ffe0       ?size@?$Vec@UPageAnchor@@@@QEBA_KXZ 0000000180040fe0 f i EngineEbook.obj
 0001:00040000       ?IsEngineImageSupportedFileType@@YA_NPEBD@Z 0000000180041000 f   EngineImages.obj
 0001:00040040       ?CreateEngineImageFromFile@@YAPEAVEngineBase@@PEBD@Z 0000000180041040 f   EngineImages.obj
 0001:00040070       ?CreateEngineImageFromStream@@YAPEAVEngineBase@@PEAUIStream@@@Z 0000000180041070 f   EngineImages.obj
 0001:000400a0       ?IsEngineImageDirSupportedFile@@YA_NPEBD_N@Z 00000001800410a0 f   EngineImages.obj
 0001:000400d0       ?CreateEngineImageDirFromFile@@YAPEAVEngineBase@@PEBD@Z 00000001800410d0 f   EngineImages.obj
 0001:000400f0       ?IsEngineCbxSupportedFileType@@YA_NPEBD@Z 00000001800410f0 f   EngineImages.obj
 0001:00040130       ?CreateEngineCbxFromFile@@YAPEAVEngineBase@@PEBD@Z 0000000180041130 f   EngineImages.obj
 0001:00040150       ?CreateEngineCbxFromStream@@YAPEAVEngineBase@@PEAUIStream@@@Z 0000000180041150 f   EngineImages.obj
 0001:00040170       ??0EngineImages@@QEAA@XZ   0000000180041170 f   EngineImages.obj
 0001:00040250       ??1EngineImages@@UEAA@XZ   0000000180041250 f   EngineImages.obj
 0001:00040370       ?PageMediabox@EngineImages@@UEAA?AURectF@@H@Z 0000000180041370 f   EngineImages.obj
 0001:00040490       ?RenderPage@EngineImages@@UEAAPEAURenderedBitmap@@AEAURenderPageArgs@@@Z 0000000180041490 f   EngineImages.obj
 0001:00040b10       ?Transform@EngineImages@@UEAA?AURectF@@AEBU2@HMH_N@Z 0000000180041b10 f   EngineImages.obj
 0001:00040c70       ?GetFileData@EngineImages@@UEAA?AUByteSlice@@XZ 0000000180041c70 f   EngineImages.obj
 0001:00040cd0       ?SaveFileAs@EngineImages@@UEAA_NPEBD@Z 0000000180041cd0 f   EngineImages.obj
 0001:00040d70       ?GetElements@EngineImages@@UEAA?AV?$Vec@PEAUIPageElement@@@@H@Z 0000000180041d70 f   EngineImages.obj
 0001:00040eb0       ?GetElementAtPos@EngineImages@@UEAAPEAUIPageElement@@HUPointF@@@Z 0000000180041eb0 f   EngineImages.obj
 0001:00040fb0       ?GetImageForPageElement@EngineImages@@UEAAPEAURenderedBitmap@@PEAUIPageElement@@@Z 0000000180041fb0 f   EngineImages.obj
 0001:00041110       ?GetTransform@EngineImages@@QEAAXAEAVMatrix@Gdiplus@@HMH@Z 0000000180042110 f   EngineImages.obj
 0001:000411b0       ?GetPage@EngineImages@@QEAAPEAUImagePage@@H_N@Z 00000001800421b0 f   EngineImages.obj
 0001:00041500       ?DropPage@EngineImages@@QEAAXPEAUImagePage@@_N@Z 0000000180042500 f   EngineImages.obj
 0001:00041630       ?PageContentBox@EngineImages@@UEAA?AURectF@@HW4RenderTarget@@@Z 0000000180042630 f   EngineImages.obj
 0001:00042110       ??0EngineImage@@QEAA@XZ    0000000180043110 f   EngineImages.obj
 0001:00042180       ??1EngineImage@@UEAA@XZ    0000000180043180 f   EngineImages.obj
 0001:00042200       ?Clone@EngineImage@@UEAAPEAVEngineBase@@XZ 0000000180043200 f   EngineImages.obj
 0001:000423d0       ?GetPropertyTemp@EngineImage@@UEAAPEADPEBD@Z 00000001800433d0 f   EngineImages.obj
 0001:00042530       ?CreateFromFile@EngineImage@@SAPEAVEngineBase@@PEBD@Z 0000000180043530 f   EngineImages.obj
 0001:000425c0       ?CreateFromStream@EngineImage@@SAPEAVEngineBase@@PEAUIStream@@@Z 00000001800435c0 f   EngineImages.obj
 0001:00042640       ?LoadSingleFile@EngineImage@@QEAA_NPEBD@Z 0000000180043640 f   EngineImages.obj
 0001:000427b0       ?LoadFromStream@EngineImage@@QEAA_NPEAUIStream@@@Z 00000001800437b0 f   EngineImages.obj
 0001:00042900       ?FinishLoading@EngineImage@@QEAA_NXZ 0000000180043900 f   EngineImages.obj
 0001:00042c30       ?LoadBitmapForPage@EngineImage@@UEAAPEAVBitmap@Gdiplus@@HAEA_N@Z 0000000180043c30 f   EngineImages.obj
 0001:00042e10       ?LoadMediabox@EngineImage@@UEAA?AURectF@@H@Z 0000000180043e10 f   EngineImages.obj
 0001:00043460       ?SaveFileAs@EngineImageDir@@UEAA_NPEBD@Z 0000000180044460 f   EngineImages.obj
 0001:00043580       ?GetPageLabeTemp@EngineImageDir@@UEBAPEADH@Z 0000000180044580 f   EngineImages.obj
 0001:00043660       ?GetPageByLabel@EngineImageDir@@UEBAHPEBD@Z 0000000180044660 f   EngineImages.obj
 0001:00043770       ?GetToc@EngineImageDir@@UEAAPEAUTocTree@@XZ 0000000180044770 f   EngineImages.obj
 0001:00043940       ?CreateFromFile@EngineImageDir@@SAPEAVEngineBase@@PEBD@Z 0000000180044940 f   EngineImages.obj
 0001:000439f0       ?LoadBitmapForPage@EngineImageDir@@UEAAPEAVBitmap@Gdiplus@@HAEA_N@Z 00000001800449f0 f   EngineImages.obj
 0001:00043a80       ?LoadMediabox@EngineImageDir@@UEAA?AURectF@@H@Z 0000000180044a80 f   EngineImages.obj
 0001:00043e50       ?Visit@ComicInfoParser@@UEAA_NPEBD0W4Type@json@@@Z 0000000180044e50 f   EngineImages.obj
 0001:000443b0       ?Parse@ComicInfoParser@@QEAAXAEBUByteSlice@@@Z 00000001800453b0 f   EngineImages.obj
 0001:00044780       ??0EngineCbx@@QEAA@PEAVMultiFormatArchive@@@Z 0000000180045780 f   EngineImages.obj
 0001:00044830       ??1EngineCbx@@UEAA@XZ      0000000180045830 f   EngineImages.obj
 0001:00044910       ?Clone@EngineCbx@@UEAAPEAVEngineBase@@XZ 0000000180045910 f   EngineImages.obj
 0001:000449f0       ?GetPropertyTemp@EngineCbx@@UEAAPEADPEBD@Z 00000001800459f0 f   EngineImages.obj
 0001:00044b50       ?GetToc@EngineCbx@@UEAAPEAUTocTree@@XZ 0000000180045b50 f   EngineImages.obj
 0001:00044b70       ?CreateFromFile@EngineCbx@@SAPEAVEngineBase@@PEBD@Z 0000000180045b70 f   EngineImages.obj
 0001:00044ce0       ?CreateFromStream@EngineCbx@@SAPEAVEngineBase@@PEAUIStream@@@Z 0000000180045ce0 f   EngineImages.obj
 0001:00044f30       ?LoadBitmapForPage@EngineCbx@@MEAAPEAVBitmap@Gdiplus@@HAEA_N@Z 0000000180045f30 f   EngineImages.obj
 0001:00045040       ?LoadMediabox@EngineCbx@@MEAA?AURectF@@H@Z 0000000180046040 f   EngineImages.obj
 0001:00045220       ?LoadFromFile@EngineCbx@@IEAA_NPEBD@Z 0000000180046220 f   EngineImages.obj
 0001:00045260       ?LoadFromStream@EngineCbx@@IEAA_NPEAUIStream@@@Z 0000000180046260 f   EngineImages.obj
 0001:000452d0       ?FinishLoading@EngineCbx@@IEAA_NXZ 00000001800462d0 f   EngineImages.obj
 0001:000459b0       ?GetImageData@EngineCbx@@IEAA?AUByteSlice@@H@Z 00000001800469b0 f   EngineImages.obj
 0001:00047470       ??$?0AEAPEAPEAUFileInfo@MultiFormatArchive@@AEAPEAPEAU01@$0A@@?$pair@PEAPEAUFileInfo@MultiFormatArchive@@PEAPEAU12@@std@@QEAA@AEAPEAPEAUFileInfo@MultiFormatArchive@@0@Z 0000000180048470 f i EngineImages.obj
 0001:00047600       ??$DeleteVecMembers@PEAUImagePageInfo@@@@YAXAEAV?$Vec@PEAUImagePageInfo@@@@@Z 0000000180048600 f i EngineImages.obj
 0001:000476d0       ??$SafeEngineRelease@VEngineCbx@@@@YAXPEAPEAVEngineCbx@@@Z 00000001800486d0 f i EngineImages.obj
 0001:00047720       ??$SafeEngineRelease@VEngineImage@@@@YAXPEAPEAVEngineImage@@@Z 0000000180048720 f i EngineImages.obj
 0001:00047770       ??$SafeEngineRelease@VEngineImageDir@@@@YAXPEAPEAVEngineImageDir@@@Z 0000000180048770 f i EngineImages.obj
 0001:000477c0       ??$_Adl_verify_range@PEAPEAUFileInfo@MultiFormatArchive@@PEAPEAU12@@std@@YAXAEBQEAPEAUFileInfo@MultiFormatArchive@@0@Z 00000001800487c0 f i EngineImages.obj
 0001:000477d0       ??$_Copy_backward_memmove@PEAPEAUFileInfo@MultiFormatArchive@@PEAPEAU12@@std@@YAPEAPEAUFileInfo@MultiFormatArchive@@PEAPEAU12@00@Z 00000001800487d0 f i EngineImages.obj
 0001:000478a0       ??$_Get_unwrapped@AEBQEAPEAUFileInfo@MultiFormatArchive@@@std@@YA?A_TAEBQEAPEAUFileInfo@MultiFormatArchive@@@Z 00000001800488a0 f i EngineImages.obj
 0001:000478c0       ??$_Guess_median_unchecked@PEAPEAUFileInfo@MultiFormatArchive@@P6A_NPEAU12@0@Z@std@@YAXPEAPEAUFileInfo@MultiFormatArchive@@00P6A_NPEAU12@1@Z@Z 00000001800488c0 f i EngineImages.obj
 0001:00047a70       ??$_Insertion_sort_unchecked@PEAPEAUFileInfo@MultiFormatArchive@@P6A_NPEAU12@0@Z@std@@YAPEAPEAUFileInfo@MultiFormatArchive@@QEAPEAU12@0P6A_NPEAU12@1@Z@Z 0000000180048a70 f i EngineImages.obj
 0001:00047bf0       ??$_Make_heap_unchecked@PEAPEAUFileInfo@MultiFormatArchive@@P6A_NPEAU12@0@Z@std@@YAXPEAPEAUFileInfo@MultiFormatArchive@@0P6A_NPEAU12@1@Z@Z 0000000180048bf0 f i EngineImages.obj
 0001:00047ca0       ??$_Med3_unchecked@PEAPEAUFileInfo@MultiFormatArchive@@P6A_NPEAU12@0@Z@std@@YAXPEAPEAUFileInfo@MultiFormatArchive@@00P6A_NPEAU12@1@Z@Z 0000000180048ca0 f i EngineImages.obj
 0001:00047d90       ??$_Move_backward_unchecked@PEAPEAUFileInfo@MultiFormatArchive@@PEAPEAU12@@std@@YAPEAPEAUFileInfo@MultiFormatArchive@@PEAPEAU12@00@Z 0000000180048d90 f i EngineImages.obj
 0001:00047e30       ??$_Next_iter@PEAPEAUFileInfo@MultiFormatArchive@@@std@@YAPEAPEAUFileInfo@MultiFormatArchive@@PEAPEAU12@@Z 0000000180048e30 f i EngineImages.obj
 0001:00047e50       ??$_Partition_by_median_guess_unchecked@PEAPEAUFileInfo@MultiFormatArchive@@P6A_NPEAU12@0@Z@std@@YA?AU?$pair@PEAPEAUFileInfo@MultiFormatArchive@@PEAPEAU12@@0@PEAPEAUFileInfo@MultiFormatArchive@@0P6A_NPEAU23@1@Z@Z 0000000180048e50 f i EngineImages.obj
 0001:00048410       ??$_Pass_fn@P6A_NPEAUFileInfo@MultiFormatArchive@@0@Z@std@@YA?A_PAEAP6A_NPEAUFileInfo@MultiFormatArchive@@0@Z@Z 0000000180049410 f i EngineImages.obj
 0001:00048430       ??$_Pop_heap_hole_by_index@PEAPEAUFileInfo@MultiFormatArchive@@PEAU12@P6A_NPEAU12@0@Z@std@@YAXPEAPEAUFileInfo@MultiFormatArchive@@_J1$$QEAPEAU12@P6A_NPEAU12@3@Z@Z 0000000180049430 f i EngineImages.obj
 0001:000485c0       ??$_Pop_heap_hole_unchecked@PEAPEAUFileInfo@MultiFormatArchive@@PEAU12@P6A_NPEAU12@0@Z@std@@YAXPEAPEAUFileInfo@MultiFormatArchive@@00$$QEAPEAU12@P6A_NPEAU12@2@Z@Z 00000001800495c0 f i EngineImages.obj
 0001:00048640       ??$_Pop_heap_unchecked@PEAPEAUFileInfo@MultiFormatArchive@@P6A_NPEAU12@0@Z@std@@YAXPEAPEAUFileInfo@MultiFormatArchive@@0P6A_NPEAU12@1@Z@Z 0000000180049640 f i EngineImages.obj
 0001:000486d0       ??$_Prev_iter@PEAPEAUFileInfo@MultiFormatArchive@@@std@@YAPEAPEAUFileInfo@MultiFormatArchive@@PEAPEAU12@@Z 00000001800496d0 f i EngineImages.obj
 0001:000486f0       ??$_Push_heap_by_index@PEAPEAUFileInfo@MultiFormatArchive@@PEAU12@P6A_NPEAU12@0@Z@std@@YAXPEAPEAUFileInfo@MultiFormatArchive@@_J1$$QEAPEAU12@P6A_NPEAU12@3@Z@Z 00000001800496f0 f i EngineImages.obj
 0001:000487e0       ??$_Sort_heap_unchecked@PEAPEAUFileInfo@MultiFormatArchive@@P6A_NPEAU12@0@Z@std@@YAXPEAPEAUFileInfo@MultiFormatArchive@@0P6A_NPEAU12@1@Z@Z 00000001800497e0 f i EngineImages.obj
 0001:00048850       ??$_Sort_unchecked@PEAPEAUFileInfo@MultiFormatArchive@@P6A_NPEAU12@0@Z@std@@YAXPEAPEAUFileInfo@MultiFormatArchive@@0_JP6A_NPEAU12@2@Z@Z 0000000180049850 f i EngineImages.obj
 0001:000489d0       ??$_To_address@PEAPEAUFileInfo@MultiFormatArchive@@@std@@YA?A_PAEBQEAPEAUFileInfo@MultiFormatArchive@@@Z 00000001800499d0 f i EngineImages.obj
 0001:00048a00       ??$max@H@std@@YAAEBHAEBH0@Z 0000000180049a00 f i EngineImages.obj
 0001:00048a60       ??$sort@PEAPEAUFileInfo@MultiFormatArchive@@P6A_NPEAU12@0@Z@std@@YAXQEAPEAUFileInfo@MultiFormatArchive@@0P6A_NPEAU12@1@Z@Z 0000000180049a60 f i EngineImages.obj
 0001:00048b00       ??$swap@PEAUFileInfo@MultiFormatArchive@@$0A@@std@@YAXAEAPEAUFileInfo@MultiFormatArchive@@0@Z 0000000180049b00 f i EngineImages.obj
 0001:00048b50       ??$to_address@PEAUFileInfo@MultiFormatArchive@@@std@@YAPEAPEAUFileInfo@MultiFormatArchive@@QEAPEAU12@@Z 0000000180049b50 f i EngineImages.obj
 0001:00048b60       ??0?$ScopedComPtr@UIStream@@@@QEAA@XZ 0000000180049b60 f i EngineImages.obj
 0001:00048b80       ??0?$Vec@PEAUFileInfo@MultiFormatArchive@@@@QEAA@_KPEAUAllocator@@@Z 0000000180049b80 f i EngineImages.obj
 0001:00048c40       ??0?$Vec@PEAUImagePage@@@@QEAA@_KPEAUAllocator@@@Z 0000000180049c40 f i EngineImages.obj
 0001:00048d00       ??0?$Vec@PEAUImagePageInfo@@@@QEAA@_KPEAUAllocator@@@Z 0000000180049d00 f i EngineImages.obj
 0001:00048dc0       ??0Bitmap@Gdiplus@@IEAA@PEAVGpBitmap@1@@Z 0000000180049dc0 f i EngineImages.obj
 0001:00048e20       ??0Color@Gdiplus@@QEAA@XZ  0000000180049e20 f i EngineImages.obj
 0001:00048e40       ??0ComicInfoParser@@QEAA@XZ 0000000180049e40 f i EngineImages.obj
 0001:00048f10       ??0EngineImageDir@@QEAA@XZ 0000000180049f10 f i EngineImages.obj
 0001:00048fd0       ??0Image@Gdiplus@@IEAA@PEAVGpImage@1@W4Status@1@@Z 0000000180049fd0 f i EngineImages.obj
 0001:00049030       ??0Image@Gdiplus@@IEAA@XZ  000000018004a030 f i EngineImages.obj
 0001:00049050       ??0ImageAttributes@Gdiplus@@QEAA@XZ 000000018004a050 f i EngineImages.obj
 0001:000490a0       ??0ImagePage@@QEAA@HPEAVBitmap@Gdiplus@@@Z 000000018004a0a0 f i EngineImages.obj
 0001:00049110       ??0ImagePageInfo@@QEAA@XZ  000000018004a110 f i EngineImages.obj
 0001:00049190       ??0Rect@Gdiplus@@QEAA@HHHH@Z 000000018004a190 f i EngineImages.obj
 0001:000491f0       ??0ValueVisitor@json@@QEAA@XZ 000000018004a1f0 f i EngineImages.obj
 0001:00049210       ??1?$Vec@PEAUFileInfo@MultiFormatArchive@@@@QEAA@XZ 000000018004a210 f i EngineImages.obj
 0001:00049230       ??1?$Vec@PEAUImagePage@@@@QEAA@XZ 000000018004a230 f i EngineImages.obj
 0001:00049250       ??1?$Vec@PEAUImagePageInfo@@@@QEAA@XZ 000000018004a250 f i EngineImages.obj
 0001:00049270       ??1Bitmap@Gdiplus@@UEAA@XZ 000000018004a270 f i EngineImages.obj
 0001:00049290       ??1ComicInfoParser@@UEAA@XZ 000000018004a290 f i EngineImages.obj
 0001:00049350       ??1EngineImageDir@@UEAA@XZ 000000018004a350 f i EngineImages.obj
 0001:00049400       ??1Image@Gdiplus@@UEAA@XZ  000000018004a400 f i EngineImages.obj
 0001:00049440       ??1ImageAttributes@Gdiplus@@QEAA@XZ 000000018004a440 f i EngineImages.obj
 0001:00049470       ??1ImagePageInfo@@QEAA@XZ  000000018004a470 f i EngineImages.obj
 0001:000494a0       ??1ValueVisitor@json@@UEAA@XZ 000000018004a4a0 f i EngineImages.obj
 0001:000494b0       ??4?$ScopedComPtr@UIStream@@@@QEAAAEAV0@PEAUIStream@@@Z 000000018004a4b0 f i EngineImages.obj
 0001:00049510       ??4?$Vec@PEAUFileInfo@MultiFormatArchive@@@@QEAAAEAV0@AEBV0@@Z 000000018004a510 f i EngineImages.obj
 0001:00049630       ??A?$Vec@PEAUFileInfo@MultiFormatArchive@@@@QEBAAEAPEAUFileInfo@MultiFormatArchive@@H@Z 000000018004a630 f i EngineImages.obj
 0001:000496d0       ??A?$Vec@PEAUFileInfo@MultiFormatArchive@@@@QEBAAEAPEAUFileInfo@MultiFormatArchive@@_K@Z 000000018004a6d0 f i EngineImages.obj
 0001:00049740       ??A?$Vec@PEAUIPageElement@@@@QEBAAEAPEAUIPageElement@@H@Z 000000018004a740 f i EngineImages.obj
 0001:000497e0       ??A?$Vec@PEAUImagePageInfo@@@@QEBAAEAPEAUImagePageInfo@@H@Z 000000018004a7e0 f i EngineImages.obj
 0001:00049880       ??C?$ScopedComPtr@UIStream@@@@QEBAPEAUIStream@@XZ 000000018004a880 f i EngineImages.obj
 0001:000498a0       ??I?$ScopedComPtr@UIStream@@@@QEAAPEAPEAUIStream@@XZ 000000018004a8a0 f i EngineImages.obj
 0001:000498b0       ??_EBitmap@Gdiplus@@UEAAPEAXI@Z 000000018004a8b0 f i EngineImages.obj
 0001:000498b0       ??_GBitmap@Gdiplus@@UEAAPEAXI@Z 000000018004a8b0 f i EngineImages.obj
 0001:00049920       ??_EComicInfoParser@@UEAAPEAXI@Z 000000018004a920 f i EngineImages.obj
 0001:00049920       ??_GComicInfoParser@@UEAAPEAXI@Z 000000018004a920 f i EngineImages.obj
 0001:00049970       ??_EEngineCbx@@UEAAPEAXI@Z 000000018004a970 f i EngineImages.obj
 0001:00049970       ??_GEngineCbx@@UEAAPEAXI@Z 000000018004a970 f i EngineImages.obj
 0001:000499c0       ??_EEngineImage@@UEAAPEAXI@Z 000000018004a9c0 f i EngineImages.obj
 0001:000499c0       ??_GEngineImage@@UEAAPEAXI@Z 000000018004a9c0 f i EngineImages.obj
 0001:00049a10       ??_EEngineImageDir@@UEAAPEAXI@Z 000000018004aa10 f i EngineImages.obj
 0001:00049a10       ??_GEngineImageDir@@UEAAPEAXI@Z 000000018004aa10 f i EngineImages.obj
 0001:00049a60       ??_EEngineImages@@UEAAPEAXI@Z 000000018004aa60 f i EngineImages.obj
 0001:00049a60       ??_GEngineImages@@UEAAPEAXI@Z 000000018004aa60 f i EngineImages.obj
 0001:00049ab0       ??_EImage@Gdiplus@@UEAAPEAXI@Z 000000018004aab0 f i EngineImages.obj
 0001:00049ab0       ??_GImage@Gdiplus@@UEAAPEAXI@Z 000000018004aab0 f i EngineImages.obj
 0001:00049b20       ??_GImagePageInfo@@QEAAPEAXI@Z 000000018004ab20 f i EngineImages.obj
 0001:00049b70       ??_EValueVisitor@json@@UEAAPEAXI@Z 000000018004ab70 f i EngineImages.obj
 0001:00049b70       ??_GValueVisitor@json@@UEAAPEAXI@Z 000000018004ab70 f i EngineImages.obj
 0001:00049bc0       ?Append@?$Vec@PEAUFileInfo@MultiFormatArchive@@@@QEAA_NAEBQEAUFileInfo@MultiFormatArchive@@@Z 000000018004abc0 f i EngineImages.obj
 0001:00049c00       ?Append@?$Vec@PEAUImagePageInfo@@@@QEAA_NAEBQEAUImagePageInfo@@@Z 000000018004ac00 f i EngineImages.obj
 0001:00049c40       ?BenchLoadPage@EngineImages@@UEAA_NH@Z 000000018004ac40 f i EngineImages.obj
 0001:00049cc0       ?Clear@?$Vec@PEAUImagePageInfo@@@@QEAAXXZ 000000018004acc0 f i EngineImages.obj
 0001:00049d10       ?Clone@Bitmap@Gdiplus@@QEAAPEAV12@HHHHH@Z 000000018004ad10 f i EngineImages.obj
 0001:00049e20       ?Clone@EngineImageDir@@UEAAPEAVEngineBase@@XZ 000000018004ae20 f i EngineImages.obj
 0001:00049e60       ?Clone@Image@Gdiplus@@UEAAPEAV12@XZ 000000018004ae60 f i EngineImages.obj
 0001:00049f00       ?DrawImage@Graphics@Gdiplus@@QEAA?AW4Status@2@PEAVImage@2@AEBVRect@2@HHHHW4Unit@2@PEBVImageAttributes@2@P6AHPEAX@Z4@Z 000000018004af00 f i EngineImages.obj
 0001:0004a0c0       ?EnsureCap@?$Vec@PEAUFileInfo@MultiFormatArchive@@@@IEAA_N_K@Z 000000018004b0c0 f i EngineImages.obj
 0001:0004a110       ?EnsureCap@?$Vec@PEAUImagePage@@@@IEAA_N_K@Z 000000018004b110 f i EngineImages.obj
 0001:0004a160       ?EnsureCap@?$Vec@PEAUImagePageInfo@@@@IEAA_N_K@Z 000000018004b160 f i EngineImages.obj
 0001:0004a1b0       ?EnsureCapSlow@?$Vec@PEAUFileInfo@MultiFormatArchive@@@@IEAA_N_K@Z 000000018004b1b0 f i EngineImages.obj
 0001:0004a3c0       ?EnsureCapSlow@?$Vec@PEAUImagePage@@@@IEAA_N_K@Z 000000018004b3c0 f i EngineImages.obj
 0001:0004a5d0       ?EnsureCapSlow@?$Vec@PEAUImagePageInfo@@@@IEAA_N_K@Z 000000018004b5d0 f i EngineImages.obj
 0001:0004a7e0       ?ExtractPageText@EngineImages@@UEAA?AUPageText@@H@Z 000000018004b7e0 f i EngineImages.obj
 0001:0004a830       ?Find@?$Vec@PEAUImagePage@@@@QEBAHAEBQEAUImagePage@@_K@Z 000000018004b830 f i EngineImages.obj
 0001:0004a8b0       ?FreeEls@?$Vec@PEAUFileInfo@MultiFormatArchive@@@@IEAAXXZ 000000018004b8b0 f i EngineImages.obj
 0001:0004a910       ?FreeEls@?$Vec@PEAUImagePage@@@@IEAAXXZ 000000018004b910 f i EngineImages.obj
 0001:0004a970       ?FreeEls@?$Vec@PEAUImagePageInfo@@@@IEAAXXZ 000000018004b970 f i EngineImages.obj
 0001:0004a9d0       ?Get@?$ScopedComPtr@UIStream@@@@QEBAPEAUIStream@@XZ 000000018004b9d0 f i EngineImages.obj
 0001:0004a9f0       ?GetFileData@EngineImageDir@@UEAA?AUByteSlice@@XZ 000000018004b9f0 f i EngineImages.obj
 0001:0004aa30       ?GetFrameCount@Image@Gdiplus@@QEAAIPEBU_GUID@@@Z 000000018004ba30 f i EngineImages.obj
 0001:0004aa90       ?GetHorizontalResolution@Image@Gdiplus@@QEAAMXZ 000000018004ba90 f i EngineImages.obj
 0001:0004aae0       ?GetLastStatus@Image@Gdiplus@@QEBA?AW4Status@2@XZ 000000018004bae0 f i EngineImages.obj
 0001:0004ab20       ?GetPixelFormat@Image@Gdiplus@@QEAAHXZ 000000018004bb20 f i EngineImages.obj
 0001:0004ab60       ?GetPropertyItem@Image@Gdiplus@@QEAA?AW4Status@2@KIPEAVPropertyItem@2@@Z 000000018004bb60 f i EngineImages.obj
 0001:0004abc0       ?GetPropertyItemSize@Image@Gdiplus@@QEAAIK@Z 000000018004bbc0 f i EngineImages.obj
 0001:0004ac20       ?GetPropertyTemp@EngineImageDir@@UEAAPEADPEBD@Z 000000018004bc20 f i EngineImages.obj
 0001:0004ac30       ?HasClipOptimizations@EngineImages@@UEAA_NH@Z 000000018004bc30 f i EngineImages.obj
 0001:0004ac40       ?InsertAt@?$Vec@PEAUFileInfo@MultiFormatArchive@@@@QEAA_N_KAEBQEAUFileInfo@MultiFormatArchive@@@Z 000000018004bc40 f i EngineImages.obj
 0001:0004acb0       ?InsertAt@?$Vec@PEAUImagePage@@@@QEAA_N_KAEBQEAUImagePage@@@Z 000000018004bcb0 f i EngineImages.obj
 0001:0004ad20       ?InsertAt@?$Vec@PEAUImagePageInfo@@@@QEAA_N_KAEBQEAUImagePageInfo@@@Z 000000018004bd20 f i EngineImages.obj
 0001:0004ad90       ?Last@?$Vec@PEAUImagePage@@@@QEBAAEAPEAUImagePage@@XZ 000000018004bd90 f i EngineImages.obj
 0001:0004ae00       ?LockBits@Bitmap@Gdiplus@@QEAA?AW4Status@2@PEBVRect@2@IHPEAVBitmapData@2@@Z 000000018004be00 f i EngineImages.obj
 0001:0004ae70       ?MakeSpaceAt@?$Vec@PEAUFileInfo@MultiFormatArchive@@@@IEAAPEAPEAUFileInfo@MultiFormatArchive@@_K0@Z 000000018004be70 f i EngineImages.obj
 0001:0004afb0       ?MakeSpaceAt@?$Vec@PEAUImagePage@@@@IEAAPEAPEAUImagePage@@_K0@Z 000000018004bfb0 f i EngineImages.obj
 0001:0004b0f0       ?MakeSpaceAt@?$Vec@PEAUImagePageInfo@@@@IEAAPEAPEAUImagePageInfo@@_K0@Z 000000018004c0f0 f i EngineImages.obj
 0001:0004b230       ?Remove@?$Vec@PEAUImagePage@@@@QEAAHAEBQEAUImagePage@@@Z 000000018004c230 f i EngineImages.obj
 0001:0004b2a0       ?RemoveAt@?$Vec@PEAUImagePage@@@@QEAAX_K0@Z 000000018004c2a0 f i EngineImages.obj
 0001:0004b3c0       ?Reset@?$Vec@PEAUFileInfo@MultiFormatArchive@@@@QEAAXXZ 000000018004c3c0 f i EngineImages.obj
 0001:0004b440       ?Reset@?$Vec@PEAUImagePage@@@@QEAAXXZ 000000018004c440 f i EngineImages.obj
 0001:0004b4c0       ?Reset@?$Vec@PEAUImagePageInfo@@@@QEAAXXZ 000000018004c4c0 f i EngineImages.obj
 0001:0004b540       ?SelectActiveFrame@Image@Gdiplus@@QEAA?AW4Status@2@PEBU_GUID@@I@Z 000000018004c540 f i EngineImages.obj
 0001:0004b590       ?SetCompositingQuality@Graphics@Gdiplus@@QEAA?AW4Status@2@W4CompositingQuality@2@@Z 000000018004c590 f i EngineImages.obj
 0001:0004b5d0       ?SetInterpolationMode@Graphics@Gdiplus@@QEAA?AW4Status@2@W4InterpolationMode@2@@Z 000000018004c5d0 f i EngineImages.obj
 0001:0004b610       ?SetNativeImage@Image@Gdiplus@@IEAAXPEAVGpImage@2@@Z 000000018004c610 f i EngineImages.obj
 0001:0004b630       ?SetPageUnit@Graphics@Gdiplus@@QEAA?AW4Status@2@W4Unit@2@@Z 000000018004c630 f i EngineImages.obj
 0001:0004b670       ?SetSmoothingMode@Graphics@Gdiplus@@QEAA?AW4Status@2@W4SmoothingMode@2@@Z 000000018004c670 f i EngineImages.obj
 0001:0004b6b0       ?SetStatus@ImageAttributes@Gdiplus@@IEBA?AW4Status@2@W432@@Z 000000018004c6b0 f i EngineImages.obj
 0001:0004b6f0       ?SetWrapMode@ImageAttributes@Gdiplus@@QEAA?AW4Status@2@W4WrapMode@2@AEBVColor@2@H@Z 000000018004c6f0 f i EngineImages.obj
 0001:0004b760       ?Size@?$Vec@PEAUFileInfo@MultiFormatArchive@@@@QEBAHXZ 000000018004c760 f i EngineImages.obj
 0001:0004b780       ?Size@?$Vec@PEAUImagePageInfo@@@@QEBAHXZ 000000018004c780 f i EngineImages.obj
 0001:0004b7a0       ?TimeGet@@YA?AT_LARGE_INTEGER@@XZ 000000018004c7a0 f i EngineImages.obj
 0001:0004b7c0       ?TimeSinceInMs@@YANT_LARGE_INTEGER@@@Z 000000018004c7c0 f i EngineImages.obj
 0001:0004b830       ?UnlockBits@Bitmap@Gdiplus@@QEAA?AW4Status@2@PEAVBitmapData@2@@Z 000000018004c830 f i EngineImages.obj
 0001:0004b870       ?at@?$Vec@PEAUImagePage@@@@QEBAAEAPEAUImagePage@@H@Z 000000018004c870 f i EngineImages.obj
 0001:0004b910       ?at@?$Vec@PEAUImagePage@@@@QEBAAEAPEAUImagePage@@_K@Z 000000018004c910 f i EngineImages.obj
 0001:0004b980       ?begin@?$Vec@PEAUFileInfo@MultiFormatArchive@@@@QEAAPEAPEAUFileInfo@MultiFormatArchive@@XZ 000000018004c980 f i EngineImages.obj
 0001:0004b9a0       ?begin@?$Vec@PEAUImagePageInfo@@@@QEAAPEAPEAUImagePageInfo@@XZ 000000018004c9a0 f i EngineImages.obj
 0001:0004b9c0       ?end@?$Vec@PEAUFileInfo@MultiFormatArchive@@@@QEAAPEAPEAUFileInfo@MultiFormatArchive@@XZ 000000018004c9c0 f i EngineImages.obj
 0001:0004b9f0       ?end@?$Vec@PEAUImagePageInfo@@@@QEAAPEAPEAUImagePageInfo@@XZ 000000018004c9f0 f i EngineImages.obj
 0001:0004ba20       ?is_constant_evaluated@std@@YA_NXZ 000000018004ca20 f i EngineImages.obj
 0001:0004ba30       ?size@?$Vec@PEAUIPageElement@@@@QEBA_KXZ 000000018004ca30 f i EngineImages.obj
 0001:0004ba50       ?size@?$Vec@PEAUImagePage@@@@QEBA_KXZ 000000018004ca50 f i EngineImages.obj
 0001:0004ba70       ?size@?$Vec@PEAUImagePageInfo@@@@QEBA_KXZ 000000018004ca70 f i EngineImages.obj
 0001:0004bb60       ??0EngineMupdf@@QEAA@XZ    000000018004cb60 f   EngineMupdf.obj
 0001:0004bd90       ??1EngineMupdf@@UEAA@XZ    000000018004cd90 f   EngineMupdf.obj
 0001:0004c0b0       ?Clone@EngineMupdf@@UEAAPEAVEngineBase@@XZ 000000018004d0b0 f   EngineMupdf.obj
 0001:0004c3d0       ?PageMediabox@EngineMupdf@@UEAA?AURectF@@H@Z 000000018004d3d0 f   EngineMupdf.obj
 0001:0004c440       ?PageContentBox@EngineMupdf@@UEAA?AURectF@@HW4RenderTarget@@@Z 000000018004d440 f   EngineMupdf.obj
 0001:0004c800       ?RenderPage@EngineMupdf@@UEAAPEAURenderedBitmap@@AEAURenderPageArgs@@@Z 000000018004d800 f   EngineMupdf.obj
 0001:0004d050       ?Transform@EngineMupdf@@UEAA?AURectF@@AEBU2@HMH_N@Z 000000018004e050 f   EngineMupdf.obj
 0001:0004d2e0       ?GetFileData@EngineMupdf@@UEAA?AUByteSlice@@XZ 000000018004e2e0 f   EngineMupdf.obj
 0001:0004d4c0       ?SaveFileAs@EngineMupdf@@UEAA_NPEBD@Z 000000018004e4c0 f   EngineMupdf.obj
 0001:0004d570       ?ExtractPageText@EngineMupdf@@UEAA?AUPageText@@H@Z 000000018004e570 f   EngineMupdf.obj
 0001:0004d760       ?HasClipOptimizations@EngineMupdf@@UEAA_NH@Z 000000018004e760 f   EngineMupdf.obj
 0001:0004d930       ?GetPropertyTemp@EngineMupdf@@UEAAPEADPEBD@Z 000000018004e930 f   EngineMupdf.obj
 0001:0004e080       ?BenchLoadPage@EngineMupdf@@UEAA_NH@Z 000000018004f080 f   EngineMupdf.obj
 0001:0004e0d0       ?GetElements@EngineMupdf@@UEAA?AV?$Vec@PEAUIPageElement@@@@H@Z 000000018004f0d0 f   EngineMupdf.obj
 0001:0004e150       ?GetElementAtPos@EngineMupdf@@UEAAPEAUIPageElement@@HUPointF@@@Z 000000018004f150 f   EngineMupdf.obj
 0001:0004e190       ?HandleLink@EngineMupdf@@UEAA_NPEAUIPageDestination@@PEAUILinkHandler@@@Z 000000018004f190 f   EngineMupdf.obj
 0001:0004e210       ?GetImageForPageElement@EngineMupdf@@UEAAPEAURenderedBitmap@@PEAUIPageElement@@@Z 000000018004f210 f   EngineMupdf.obj
 0001:0004e2d0       ?GetNamedDest@EngineMupdf@@UEAAPEAUIPageDestination@@PEBD@Z 000000018004f2d0 f   EngineMupdf.obj
 0001:0004e430       ?GetToc@EngineMupdf@@UEAAPEAUTocTree@@XZ 000000018004f430 f   EngineMupdf.obj
 0001:0004e660       ?GetPageLabeTemp@EngineMupdf@@UEBAPEADH@Z 000000018004f660 f   EngineMupdf.obj
 0001:0004e6e0       ?GetPageByLabel@EngineMupdf@@UEBAHPEBD@Z 000000018004f6e0 f   EngineMupdf.obj
 0001:0004e790       ?Ctx@EngineMupdf@@QEBAPEAUfz_context@@XZ 000000018004f790 f   EngineMupdf.obj
 0001:0004e7b0       ?Load@EngineMupdf@@QEAA_NPEBDPEAUPasswordUI@@@Z 000000018004f7b0 f   EngineMupdf.obj
 0001:0004eef0       ?Load@EngineMupdf@@QEAA_NPEAUIStream@@PEBDPEAUPasswordUI@@@Z 000000018004fef0 f   EngineMupdf.obj
 0001:0004f030       ?LoadFromStream@EngineMupdf@@QEAA_NPEAUfz_stream@@PEBDPEAUPasswordUI@@@Z 0000000180050030 f   EngineMupdf.obj
 0001:0004f730       ?FinishLoading@EngineMupdf@@QEAA_NXZ 0000000180050730 f   EngineMupdf.obj
 0001:000502f0       ?GetPageImage@EngineMupdf@@QEAAPEAURenderedBitmap@@HURectF@@H@Z 00000001800512f0 f   EngineMupdf.obj
 0001:00050630       ?GetFzPageInfoCanFail@EngineMupdf@@QEAAPEAUFzPageInfo@@H@Z 0000000180051630 f   EngineMupdf.obj
 0001:000506c0       ?GetFzPageInfoFast@EngineMupdf@@QEAAPEAUFzPageInfo@@H@Z 00000001800516c0 f   EngineMupdf.obj
 0001:000507a0       ?GetFzPageInfo@EngineMupdf@@QEAAPEAUFzPageInfo@@H_NPEAUfz_cookie@@@Z 00000001800517a0 f   EngineMupdf.obj
 0001:00050ce0       ?viewctm@EngineMupdf@@QEAA?AUfz_matrix@@HMH@Z 0000000180051ce0 f   EngineMupdf.obj
 0001:00050df0       ?viewctm@EngineMupdf@@QEBA?AUfz_matrix@@PEAUfz_page@@MH@Z 0000000180051df0 f   EngineMupdf.obj
 0001:00050ff0       ?BuildTocTree@EngineMupdf@@QEAAPEAUTocItem@@PEAU2@PEAUfz_outline@@AEAH_N@Z 0000000180051ff0 f   EngineMupdf.obj
 0001:000512f0       ?ExtractFontListTemp@EngineMupdf@@QEAAPEADXZ 00000001800522f0 f   EngineMupdf.obj
 0001:00051d40       ?LoadStreamFromPDFFile@EngineMupdf@@QEAA?AUByteSlice@@PEBD@Z 0000000180052d40 f   EngineMupdf.obj
 0001:00051fa0       ?AsEngineMupdf@@YAPEAVEngineMupdf@@PEAVEngineBase@@@Z 0000000180052fa0 f   EngineMupdf.obj
 0001:00051ff0       ?ToFzRect@@YA?AUfz_rect@@URectF@@@Z 0000000180052ff0 f   EngineMupdf.obj
 0001:00052070       ?ToRectF@@YA?AURectF@@Ufz_rect@@@Z 0000000180053070 f   EngineMupdf.obj
 0001:000520d0       ?NewRenderedFzPixmap@@YAPEAURenderedBitmap@@PEAUfz_context@@PEAUfz_pixmap@@@Z 00000001800530d0 f   EngineMupdf.obj
 0001:00052510       ?MarkNotificationAsModified@@YAXPEAVEngineMupdf@@PEAUAnnotation@@W4AnnotationChange@@@Z 0000000180053510 f   EngineMupdf.obj
 0001:00052800       ?MakeAnnotationWrapper@@YAPEAUAnnotation@@PEAVEngineMupdf@@PEAUpdf_annot@@H@Z 0000000180053800 f   EngineMupdf.obj
 0001:00052a90       ?InitializeEngineMupdf@@YAXXZ 0000000180053a90 f   EngineMupdf.obj
 0001:00052b20       ?IsEngineMupdfSupportedFileType@@YA_NPEBD@Z 0000000180053b20 f   EngineMupdf.obj
 0001:00052be0       ?CreateEngineMupdfFromFile@@YAPEAVEngineBase@@PEBD0HPEAUPasswordUI@@@Z 0000000180053be0 f   EngineMupdf.obj
 0001:00052f90       ?CreateEngineMupdfFromStream@@YAPEAVEngineBase@@PEAUIStream@@PEBDPEAUPasswordUI@@@Z 0000000180053f90 f   EngineMupdf.obj
 0001:00053020       ?CreateEngineMupdfFromData@@YAPEAVEngineBase@@AEBUByteSlice@@PEBDPEAUPasswordUI@@@Z 0000000180054020 f   EngineMupdf.obj
 0001:000530c0       ?LoadEmbeddedPDFFile@@YA?AUByteSlice@@PEBD@Z 00000001800540c0 f   EngineMupdf.obj
 0001:00053140       ?ParseEmbeddedStreamNumber@@YAPEBDPEBDPEAH@Z 0000000180054140 f   EngineMupdf.obj
 0001:00053200       ?EngineMupdfGetAnnotations@@YAXPEAVEngineBase@@AEAV?$Vec@PEAUAnnotation@@@@@Z 0000000180054200 f   EngineMupdf.obj
 0001:000532d0       ?EngineMupdfHasUnsavedAnnotations@@YA_NPEAVEngineBase@@@Z 00000001800542d0 f   EngineMupdf.obj
 0001:00053320       ?EngineMupdfSupportsAnnotations@@YA_NPEAVEngineBase@@@Z 0000000180054320 f   EngineMupdf.obj
 0001:00053370       ?EngineMupdfSaveUpdated@@YA_NPEAVEngineBase@@PEBDAEBU?$Func1@PEBD@@@Z 0000000180054370 f   EngineMupdf.obj
 0001:00053620       ?EngineMupdfGetAnnotationAtPos@@YAPEAUAnnotation@@PEAVEngineBase@@HUPointF@@PEAU1@@Z 0000000180054620 f   EngineMupdf.obj
 0001:00053940       ?EngineMupdfLoadAttachment@@YA?AUByteSlice@@PEAVEngineBase@@H@Z 0000000180054940 f   EngineMupdf.obj
 0001:00053ab0       ?GetValue2@PageDestinationMupdf@@UEAAPEADXZ 0000000180054ab0 f   EngineMupdf.obj
 0001:00053b40       ?GetName2@PageDestinationMupdf@@UEAAPEADXZ 0000000180054b40 f   EngineMupdf.obj
 0001:000542c0       ?FzCreateViewCtm@@YA?AUfz_matrix@@Ufz_rect@@MH@Z 00000001800552c0 f   EngineMupdf.obj
 0001:00054ac0       next_istream               0000000180055ac0 f   EngineMupdf.obj
 0001:00054be0       seek_istream               0000000180055be0 f   EngineMupdf.obj
 0001:00054ce0       drop_istream               0000000180055ce0 f   EngineMupdf.obj
 0001:00058370       ?PdfCopyStrDict@@YAPEAUpdf_obj@@PEAUfz_context@@PEAUpdf_document@@PEAU1@@Z 0000000180059370 f   EngineMupdf.obj
 0001:000588a0       ?CmpPageLabelInfo@@YAHPEBX0@Z 00000001800598a0 f   EngineMupdf.obj
 0001:00058ac0       ?BuildPageLabelRec@@YAXPEAUfz_context@@PEAUpdf_obj@@HAEAV?$Vec@UPageLabelInfo@@@@@Z 0000000180059ac0 f   EngineMupdf.obj
 0001:00059400       ?GetOrClonePerThreadContext@@YAPEAUfz_context@@PEAVEngineMupdf@@PEAU1@@Z 000000018005a400 f   EngineMupdf.obj
 0001:00059530       ?ReleasePerThreadContext@@YAXPEAVEngineMupdf@@@Z 000000018005a530 f   EngineMupdf.obj
 0001:0005a8e0       ?fz_new_stext_page_from_page2@@YAPEAUfz_stext_page@@PEAUfz_context@@PEAUfz_page@@PEBUfz_stext_options@@PEAUfz_cookie@@@Z 000000018005b8e0 f   EngineMupdf.obj
 0001:0005aad0       ?HandleLinkMupdf@@YAXPEAVEngineMupdf@@PEAUIPageDestination@@PEAUILinkHandler@@@Z 000000018005bad0 f   EngineMupdf.obj
 0001:0005b290       ?ValidateAnnotationsInSync@@YAXPEAVEngineMupdf@@PEAUFzPageInfo@@@Z 000000018005c290 f   EngineMupdf.obj
 0001:0005f0f0       ??$DeleteVecMembers@PEAUFitzPageImageInfo@@@@YAXAEAV?$Vec@PEAUFitzPageImageInfo@@@@@Z 00000001800600f0 f i EngineMupdf.obj
 0001:0005f1c0       ??$DeleteVecMembers@PEAUFzPageInfo@@@@YAXAEAV?$Vec@PEAUFzPageInfo@@@@@Z 00000001800601c0 f i EngineMupdf.obj
 0001:0005f290       ??$DeleteVecMembers@PEAUPageElementDestination@@@@YAXAEAV?$Vec@PEAUPageElementDestination@@@@@Z 0000000180060290 f i EngineMupdf.obj
 0001:0005f370       ??$SafeEngineRelease@VEngineMupdf@@@@YAXPEAPEAVEngineMupdf@@@Z 0000000180060370 f i EngineMupdf.obj
 0001:0005f3c0       ??$isnan@M@@YA_NM@Z        00000001800603c0 f i EngineMupdf.obj
 0001:0005f410       ??$swap@PEAUIPageElement@@$0A@@std@@YAXAEAPEAUIPageElement@@0@Z 0000000180060410 f i EngineMupdf.obj
 0001:0005f460       ??0?$ScopedMem@UtagBITMAPINFO@@@@QEAA@PEAUtagBITMAPINFO@@@Z 0000000180060460 f i EngineMupdf.obj
 0001:0005f490       ??0?$Vec@PEAUAnnotation@@@@QEAA@_KPEAUAllocator@@@Z 0000000180060490 f i EngineMupdf.obj
 0001:0005f550       ??0?$Vec@PEAUFileInfo@MultiFormatArchive@@@@QEAA@AEBV0@@Z 0000000180060550 f i EngineMupdf.obj
 0001:0005f650       ??0?$Vec@PEAUFitzPageImageInfo@@@@QEAA@_KPEAUAllocator@@@Z 0000000180060650 f i EngineMupdf.obj
 0001:0005f710       ??0?$Vec@PEAUFzPageInfo@@@@QEAA@_KPEAUAllocator@@@Z 0000000180060710 f i EngineMupdf.obj
 0001:0005f7d0       ??0?$Vec@PEAUPageElementDestination@@@@QEAA@_KPEAUAllocator@@@Z 00000001800607d0 f i EngineMupdf.obj
 0001:0005f890       ??0?$Vec@PEAUpdf_obj@@@@QEAA@_KPEAUAllocator@@@Z 0000000180060890 f i EngineMupdf.obj
 0001:0005f950       ??0?$Vec@UContextThreadID@@@@QEAA@_KPEAUAllocator@@@Z 0000000180060950 f i EngineMupdf.obj
 0001:0005fa40       ??0?$Vec@UPageLabelInfo@@@@QEAA@_KPEAUAllocator@@@Z 0000000180060a40 f i EngineMupdf.obj
 0001:0005fb30       ??0?$Vec@Ufz_rect@@@@QEAA@_KPEAUAllocator@@@Z 0000000180060b30 f i EngineMupdf.obj
 0001:0005fbf0       ??0Annotation@@QEAA@XZ     0000000180060bf0 f i EngineMupdf.obj
 0001:0005fc80       ??0ContextThreadID@@QEAA@XZ 0000000180060c80 f i EngineMupdf.obj
 0001:0005fcc0       ??0FitzAbortCookie@@QEAA@XZ 0000000180060cc0 f i EngineMupdf.obj
 0001:0005fd20       ??0FzPageInfo@@QEAA@XZ     0000000180060d20 f i EngineMupdf.obj
 0001:0005feb0       ??0LinkRectList@@QEAA@XZ   0000000180060eb0 f i EngineMupdf.obj
 0001:0005ff00       ??0PageDestinationFile@@QEAA@PEBD0@Z 0000000180060f00 f i EngineMupdf.obj
 0001:0005fff0       ??0PageDestinationMupdf@@QEAA@PEAUfz_link@@PEAUfz_outline@@@Z 0000000180060ff0 f i EngineMupdf.obj
 0001:000600b0       ??0PageElementComment@@QEAA@PEBD@Z 00000001800610b0 f i EngineMupdf.obj
 0001:00060140       ??0PageLabelInfo@@QEAA@XZ  0000000180061140 f i EngineMupdf.obj
 0001:00060190       ??0PasswordCloner@@QEAA@PEAE@Z 0000000180061190 f i EngineMupdf.obj
 0001:000601f0       ??0PasswordUI@@QEAA@XZ     00000001800611f0 f i EngineMupdf.obj
 0001:00060210       ??1?$ScopedMem@UtagBITMAPINFO@@@@QEAA@XZ 0000000180061210 f i EngineMupdf.obj
 0001:00060240       ??1?$Vec@PEAUAnnotation@@@@QEAA@XZ 0000000180061240 f i EngineMupdf.obj
 0001:00060260       ??1?$Vec@PEAUFitzPageImageInfo@@@@QEAA@XZ 0000000180061260 f i EngineMupdf.obj
 0001:00060280       ??1?$Vec@PEAUFzPageInfo@@@@QEAA@XZ 0000000180061280 f i EngineMupdf.obj
 0001:000602a0       ??1?$Vec@PEAUPageElementDestination@@@@QEAA@XZ 00000001800612a0 f i EngineMupdf.obj
 0001:000602c0       ??1?$Vec@PEAUpdf_obj@@@@QEAA@XZ 00000001800612c0 f i EngineMupdf.obj
 0001:000602e0       ??1?$Vec@UPageLabelInfo@@@@QEAA@XZ 00000001800612e0 f i EngineMupdf.obj
 0001:00060300       ??1?$Vec@Ufz_rect@@@@QEAA@XZ 0000000180061300 f i EngineMupdf.obj
 0001:00060320       ??1FitzAbortCookie@@UEAA@XZ 0000000180061320 f i EngineMupdf.obj
 0001:00060340       ??1FitzPageImageInfo@@QEAA@XZ 0000000180061340 f i EngineMupdf.obj
 0001:000603b0       ??1FzPageInfo@@QEAA@XZ     00000001800613b0 f i EngineMupdf.obj
 0001:00060450       ??1LinkRectList@@QEAA@XZ   0000000180061450 f i EngineMupdf.obj
 0001:00060490       ??1PageDestinationFile@@UEAA@XZ 0000000180061490 f i EngineMupdf.obj
 0001:000604f0       ??1PageDestinationMupdf@@UEAA@XZ 00000001800614f0 f i EngineMupdf.obj
 0001:00060550       ??1PageElementComment@@UEAA@XZ 0000000180061550 f i EngineMupdf.obj
 0001:000605a0       ??1PasswordCloner@@UEAA@XZ 00000001800615a0 f i EngineMupdf.obj
 0001:000605c0       ??1PasswordUI@@UEAA@XZ     00000001800615c0 f i EngineMupdf.obj
 0001:000605d0       ??A?$Vec@PEAUAnnotation@@@@QEBAAEAPEAUAnnotation@@H@Z 00000001800615d0 f i EngineMupdf.obj
 0001:00060670       ??A?$Vec@PEAUFzPageInfo@@@@QEBAAEAPEAUFzPageInfo@@H@Z 0000000180061670 f i EngineMupdf.obj
 0001:00060710       ??B?$AutoDelete@VMultiFormatArchive@@@@QEBAPEAVMultiFormatArchive@@XZ 0000000180061710 f i EngineMupdf.obj
 0001:00060730       ??B?$ScopedMem@UtagBITMAPINFO@@@@QEBAPEAUtagBITMAPINFO@@XZ 0000000180061730 f i EngineMupdf.obj
 0001:00060750       ??C?$AutoDelete@VMultiFormatArchive@@@@QEBAPEAVMultiFormatArchive@@XZ 0000000180061750 f i EngineMupdf.obj
 0001:00060770       ??_EEngineMupdf@@UEAAPEAXI@Z 0000000180061770 f i EngineMupdf.obj
 0001:00060770       ??_GEngineMupdf@@UEAAPEAXI@Z 0000000180061770 f i EngineMupdf.obj
 0001:000607c0       ??_EFitzAbortCookie@@UEAAPEAXI@Z 00000001800617c0 f i EngineMupdf.obj
 0001:000607c0       ??_GFitzAbortCookie@@UEAAPEAXI@Z 00000001800617c0 f i EngineMupdf.obj
 0001:00060810       ??_GFitzPageImageInfo@@QEAAPEAXI@Z 0000000180061810 f i EngineMupdf.obj
 0001:00060860       ??_GFzPageInfo@@QEAAPEAXI@Z 0000000180061860 f i EngineMupdf.obj
 0001:000608b0       ??_GLinkRectList@@QEAAPEAXI@Z 00000001800618b0 f i EngineMupdf.obj
 0001:00060900       ??_EPageDestinationFile@@UEAAPEAXI@Z 0000000180061900 f i EngineMupdf.obj
 0001:00060900       ??_GPageDestinationFile@@UEAAPEAXI@Z 0000000180061900 f i EngineMupdf.obj
 0001:00060950       ??_EPageDestinationMupdf@@UEAAPEAXI@Z 0000000180061950 f i EngineMupdf.obj
 0001:00060950       ??_GPageDestinationMupdf@@UEAAPEAXI@Z 0000000180061950 f i EngineMupdf.obj
 0001:000609a0       ??_EPageElementComment@@UEAAPEAXI@Z 00000001800619a0 f i EngineMupdf.obj
 0001:000609a0       ??_GPageElementComment@@UEAAPEAXI@Z 00000001800619a0 f i EngineMupdf.obj
 0001:000609f0       ??_EPasswordCloner@@UEAAPEAXI@Z 00000001800619f0 f i EngineMupdf.obj
 0001:000609f0       ??_GPasswordCloner@@UEAAPEAXI@Z 00000001800619f0 f i EngineMupdf.obj
 0001:00060a40       ??_EPasswordUI@@UEAAPEAXI@Z 0000000180061a40 f i EngineMupdf.obj
 0001:00060a40       ??_GPasswordUI@@UEAAPEAXI@Z 0000000180061a40 f i EngineMupdf.obj
 0001:00060a90       ??_GStrVec@@QEAAPEAXI@Z    0000000180061a90 f i EngineMupdf.obj
 0001:00060ae0       ?Abort@FitzAbortCookie@@UEAAXXZ 0000000180061ae0 f i EngineMupdf.obj
 0001:00060b00       ?Append@?$Vec@PEAUAnnotation@@@@QEAA_NAEBQEAUAnnotation@@@Z 0000000180061b00 f i EngineMupdf.obj
 0001:00060b40       ?Append@?$Vec@PEAUAnnotation@@@@QEAA_NAEBV1@@Z 0000000180061b40 f i EngineMupdf.obj
 0001:00060ba0       ?Append@?$Vec@PEAUAnnotation@@@@QEAA_NPEBQEAUAnnotation@@_K@Z 0000000180061ba0 f i EngineMupdf.obj
 0001:00060c30       ?Append@?$Vec@PEAUFitzPageImageInfo@@@@QEAA_NAEBQEAUFitzPageImageInfo@@@Z 0000000180061c30 f i EngineMupdf.obj
 0001:00060c70       ?Append@?$Vec@PEAUFzPageInfo@@@@QEAA_NAEBQEAUFzPageInfo@@@Z 0000000180061c70 f i EngineMupdf.obj
 0001:00060cb0       ?Append@?$Vec@PEAUPageElementDestination@@@@QEAA_NAEBQEAUPageElementDestination@@@Z 0000000180061cb0 f i EngineMupdf.obj
 0001:00060cf0       ?Append@?$Vec@PEAUpdf_obj@@@@QEAA_NAEBQEAUpdf_obj@@@Z 0000000180061cf0 f i EngineMupdf.obj
 0001:00060d30       ?Append@?$Vec@UContextThreadID@@@@QEAA_NAEBUContextThreadID@@@Z 0000000180061d30 f i EngineMupdf.obj
 0001:00060d70       ?Append@?$Vec@UPageLabelInfo@@@@QEAA_NAEBUPageLabelInfo@@@Z 0000000180061d70 f i EngineMupdf.obj
 0001:00060db0       ?Append@?$Vec@Ufz_rect@@@@QEAA_NAEBUfz_rect@@@Z 0000000180061db0 f i EngineMupdf.obj
 0001:00060df0       ?Call@?$Func1@PEBD@@QEBAXPEBD@Z 0000000180061df0 f i EngineMupdf.obj
 0001:00060e80       ?Clear@?$Vec@PEAUAnnotation@@@@QEAAXXZ 0000000180061e80 f i EngineMupdf.obj
 0001:00060ed0       ?Clear@?$Vec@PEAUFitzPageImageInfo@@@@QEAAXXZ 0000000180061ed0 f i EngineMupdf.obj
 0001:00060f20       ?Clear@?$Vec@PEAUFzPageInfo@@@@QEAAXXZ 0000000180061f20 f i EngineMupdf.obj
 0001:00060f70       ?Clear@?$Vec@PEAUPageElementDestination@@@@QEAAXXZ 0000000180061f70 f i EngineMupdf.obj
 0001:00060fc0       ?Clone@ByteSlice@@QEBA?AU1@XZ 0000000180061fc0 f i EngineMupdf.obj
 0001:00061070       ?Contains@?$Vec@PEAUpdf_obj@@@@QEBA_NAEBQEAUpdf_obj@@@Z 0000000180062070 f i EngineMupdf.obj
 0001:000610d0       ?EnsureCap@?$Vec@PEAUAnnotation@@@@IEAA_N_K@Z 00000001800620d0 f i EngineMupdf.obj
 0001:00061120       ?EnsureCap@?$Vec@PEAUFitzPageImageInfo@@@@IEAA_N_K@Z 0000000180062120 f i EngineMupdf.obj
 0001:00061170       ?EnsureCap@?$Vec@PEAUFzPageInfo@@@@IEAA_N_K@Z 0000000180062170 f i EngineMupdf.obj
 0001:000611c0       ?EnsureCap@?$Vec@PEAUPageElementDestination@@@@IEAA_N_K@Z 00000001800621c0 f i EngineMupdf.obj
 0001:00061210       ?EnsureCap@?$Vec@PEAUpdf_obj@@@@IEAA_N_K@Z 0000000180062210 f i EngineMupdf.obj
 0001:00061260       ?EnsureCap@?$Vec@UContextThreadID@@@@IEAA_N_K@Z 0000000180062260 f i EngineMupdf.obj
 0001:000612b0       ?EnsureCap@?$Vec@UPageLabelInfo@@@@IEAA_N_K@Z 00000001800622b0 f i EngineMupdf.obj
 0001:00061300       ?EnsureCap@?$Vec@Ufz_rect@@@@IEAA_N_K@Z 0000000180062300 f i EngineMupdf.obj
 0001:00061350       ?EnsureCapSlow@?$Vec@PEAUAnnotation@@@@IEAA_N_K@Z 0000000180062350 f i EngineMupdf.obj
 0001:00061560       ?EnsureCapSlow@?$Vec@PEAUFitzPageImageInfo@@@@IEAA_N_K@Z 0000000180062560 f i EngineMupdf.obj
 0001:00061770       ?EnsureCapSlow@?$Vec@PEAUFzPageInfo@@@@IEAA_N_K@Z 0000000180062770 f i EngineMupdf.obj
 0001:00061980       ?EnsureCapSlow@?$Vec@PEAUPageElementDestination@@@@IEAA_N_K@Z 0000000180062980 f i EngineMupdf.obj
 0001:00061b90       ?EnsureCapSlow@?$Vec@PEAUpdf_obj@@@@IEAA_N_K@Z 0000000180062b90 f i EngineMupdf.obj
 0001:00061da0       ?EnsureCapSlow@?$Vec@UContextThreadID@@@@IEAA_N_K@Z 0000000180062da0 f i EngineMupdf.obj
 0001:00061fa0       ?EnsureCapSlow@?$Vec@UPageLabelInfo@@@@IEAA_N_K@Z 0000000180062fa0 f i EngineMupdf.obj
 0001:000621a0       ?EnsureCapSlow@?$Vec@Ufz_rect@@@@IEAA_N_K@Z 00000001800631a0 f i EngineMupdf.obj
 0001:000623a0       ?Find@?$Vec@PEAUAnnotation@@@@QEBAHAEBQEAUAnnotation@@_K@Z 00000001800633a0 f i EngineMupdf.obj
 0001:00062420       ?Find@?$Vec@PEAUpdf_obj@@@@QEBAHAEBQEAUpdf_obj@@_K@Z 0000000180063420 f i EngineMupdf.obj
 0001:000624a0       ?FreeEls@?$Vec@PEAUAnnotation@@@@IEAAXXZ 00000001800634a0 f i EngineMupdf.obj
 0001:00062500       ?FreeEls@?$Vec@PEAUFitzPageImageInfo@@@@IEAAXXZ 0000000180063500 f i EngineMupdf.obj
 0001:00062560       ?FreeEls@?$Vec@PEAUFzPageInfo@@@@IEAAXXZ 0000000180063560 f i EngineMupdf.obj
 0001:000625c0       ?FreeEls@?$Vec@PEAUPageElementDestination@@@@IEAAXXZ 00000001800635c0 f i EngineMupdf.obj
 0001:00062620       ?FreeEls@?$Vec@PEAUpdf_obj@@@@IEAAXXZ 0000000180063620 f i EngineMupdf.obj
 0001:00062680       ?FreeEls@?$Vec@UContextThreadID@@@@IEAAXXZ 0000000180063680 f i EngineMupdf.obj
 0001:000626e0       ?FreeEls@?$Vec@UPageLabelInfo@@@@IEAAXXZ 00000001800636e0 f i EngineMupdf.obj
 0001:00062740       ?FreeEls@?$Vec@Ufz_rect@@@@IEAAXXZ 0000000180063740 f i EngineMupdf.obj
 0001:000627a0       ?Get@?$ScopedMem@UtagBITMAPINFO@@@@QEBAPEAUtagBITMAPINFO@@XZ 00000001800637a0 f i EngineMupdf.obj
 0001:000627c0       ?GetData@FitzAbortCookie@@UEAAPEAXXZ 00000001800637c0 f i EngineMupdf.obj
 0001:000627e0       ?GetName2@PageDestinationFile@@UEAAPEADXZ 00000001800637e0 f i EngineMupdf.obj
 0001:00062800       ?GetPassword@PasswordCloner@@UEAAPEADPEBDPEAEQEAEPEA_N@Z 0000000180063800 f i EngineMupdf.obj
 0001:00062850       ?GetValue2@PageDestinationFile@@UEAAPEADXZ 0000000180063850 f i EngineMupdf.obj
 0001:00062870       ?GetValue@PageElementComment@@UEAAPEADXZ 0000000180063870 f i EngineMupdf.obj
 0001:00062890       ?InsertAt@?$Vec@PEAUAnnotation@@@@QEAA_N_KAEBQEAUAnnotation@@@Z 0000000180063890 f i EngineMupdf.obj
 0001:00062900       ?InsertAt@?$Vec@PEAUFitzPageImageInfo@@@@QEAA_N_KAEBQEAUFitzPageImageInfo@@@Z 0000000180063900 f i EngineMupdf.obj
 0001:00062970       ?InsertAt@?$Vec@PEAUFzPageInfo@@@@QEAA_N_KAEBQEAUFzPageInfo@@@Z 0000000180063970 f i EngineMupdf.obj
 0001:000629e0       ?InsertAt@?$Vec@PEAUPageElementDestination@@@@QEAA_N_KAEBQEAUPageElementDestination@@@Z 00000001800639e0 f i EngineMupdf.obj
 0001:00062a50       ?InsertAt@?$Vec@PEAUpdf_obj@@@@QEAA_N_KAEBQEAUpdf_obj@@@Z 0000000180063a50 f i EngineMupdf.obj
 0001:00062ac0       ?InsertAt@?$Vec@UContextThreadID@@@@QEAA_N_KAEBUContextThreadID@@@Z 0000000180063ac0 f i EngineMupdf.obj
 0001:00062b40       ?InsertAt@?$Vec@UPageLabelInfo@@@@QEAA_N_KAEBUPageLabelInfo@@@Z 0000000180063b40 f i EngineMupdf.obj
 0001:00062bc0       ?InsertAt@?$Vec@Ufz_rect@@@@QEAA_N_KAEBUfz_rect@@@Z 0000000180063bc0 f i EngineMupdf.obj
 0001:00062c40       ?IsEmailDomainChar@@YA_N_W@Z 0000000180063c40 f i EngineMupdf.obj
 0001:00062c90       ?IsEmailUsernameChar@@YA_N_W@Z 0000000180063c90 f i EngineMupdf.obj
 0001:00062d00       ?IsValid@?$Func1@PEBD@@QEBA_NXZ 0000000180063d00 f i EngineMupdf.obj
 0001:00062d40       ?LendData@?$Vec@PEAUAnnotation@@@@QEBAPEAPEAUAnnotation@@XZ 0000000180063d40 f i EngineMupdf.obj
 0001:00062d60       ?MakeSpaceAt@?$Vec@PEAUAnnotation@@@@IEAAPEAPEAUAnnotation@@_K0@Z 0000000180063d60 f i EngineMupdf.obj
 0001:00062ea0       ?MakeSpaceAt@?$Vec@PEAUFitzPageImageInfo@@@@IEAAPEAPEAUFitzPageImageInfo@@_K0@Z 0000000180063ea0 f i EngineMupdf.obj
 0001:00062fe0       ?MakeSpaceAt@?$Vec@PEAUFzPageInfo@@@@IEAAPEAPEAUFzPageInfo@@_K0@Z 0000000180063fe0 f i EngineMupdf.obj
 0001:00063120       ?MakeSpaceAt@?$Vec@PEAUPageElementDestination@@@@IEAAPEAPEAUPageElementDestination@@_K0@Z 0000000180064120 f i EngineMupdf.obj
 0001:00063260       ?MakeSpaceAt@?$Vec@PEAUpdf_obj@@@@IEAAPEAPEAUpdf_obj@@_K0@Z 0000000180064260 f i EngineMupdf.obj
 0001:000633a0       ?MakeSpaceAt@?$Vec@UContextThreadID@@@@IEAAPEAUContextThreadID@@_K0@Z 00000001800643a0 f i EngineMupdf.obj
 0001:000634e0       ?MakeSpaceAt@?$Vec@UPageLabelInfo@@@@IEAAPEAUPageLabelInfo@@_K0@Z 00000001800644e0 f i EngineMupdf.obj
 0001:00063620       ?MakeSpaceAt@?$Vec@Ufz_rect@@@@IEAAPEAUfz_rect@@_K0@Z 0000000180064620 f i EngineMupdf.obj
 0001:00063760       ?Remove@?$Vec@PEAUAnnotation@@@@QEAAHAEBQEAUAnnotation@@@Z 0000000180064760 f i EngineMupdf.obj
 0001:000637d0       ?RemoveAt@?$Vec@PEAUAnnotation@@@@QEAAX_K0@Z 00000001800647d0 f i EngineMupdf.obj
 0001:000638f0       ?RemoveAtFast@?$Vec@PEAUAnnotation@@@@QEAAX_K@Z 00000001800648f0 f i EngineMupdf.obj
 0001:00063a00       ?RemoveAtFast@?$Vec@PEAUIPageElement@@@@QEAAX_K@Z 0000000180064a00 f i EngineMupdf.obj
 0001:00063b10       ?RemoveAtFast@?$Vec@UContextThreadID@@@@QEAAX_K@Z 0000000180064b10 f i EngineMupdf.obj
 0001:00063c10       ?Reset@?$Vec@PEAUAnnotation@@@@QEAAXXZ 0000000180064c10 f i EngineMupdf.obj
 0001:00063c90       ?Reset@?$Vec@PEAUFitzPageImageInfo@@@@QEAAXXZ 0000000180064c90 f i EngineMupdf.obj
 0001:00063d10       ?Reset@?$Vec@PEAUFzPageInfo@@@@QEAAXXZ 0000000180064d10 f i EngineMupdf.obj
 0001:00063d90       ?Reset@?$Vec@PEAUPageElementDestination@@@@QEAAXXZ 0000000180064d90 f i EngineMupdf.obj
 0001:00063e10       ?Reset@?$Vec@PEAUpdf_obj@@@@QEAAXXZ 0000000180064e10 f i EngineMupdf.obj
 0001:00063e90       ?Reset@?$Vec@UContextThreadID@@@@QEAAXXZ 0000000180064e90 f i EngineMupdf.obj
 0001:00063f10       ?Reset@?$Vec@UPageLabelInfo@@@@QEAAXXZ 0000000180064f10 f i EngineMupdf.obj
 0001:00063f90       ?Reset@?$Vec@Ufz_rect@@@@QEAAXXZ 0000000180064f90 f i EngineMupdf.obj
 0001:00064010       ?Reverse@?$Vec@PEAUIPageElement@@@@QEAAXXZ 0000000180065010 f i EngineMupdf.obj
 0001:000640b0       ?Size@?$Vec@PEAUAnnotation@@@@QEBAHXZ 00000001800650b0 f i EngineMupdf.obj
 0001:000640d0       ?Size@?$Vec@PEAUFitzPageImageInfo@@@@QEBAHXZ 00000001800650d0 f i EngineMupdf.obj
 0001:000640f0       ?Size@?$Vec@UContextThreadID@@@@QEBAHXZ 00000001800650f0 f i EngineMupdf.obj
 0001:00064110       ?Size@?$Vec@Ufz_rect@@@@QEBAHXZ 0000000180065110 f i EngineMupdf.obj
 0001:00064130       ?Size@ByteSlice@@QEBAHXZ   0000000180065130 f i EngineMupdf.obj
 0001:00064150       ?Sort@?$Vec@UPageLabelInfo@@@@QEAAXP6AHPEBX0@Z@Z 0000000180065150 f i EngineMupdf.obj
 0001:000641a0       ?at@?$Vec@PEAUFitzPageImageInfo@@@@QEBAAEAPEAUFitzPageImageInfo@@H@Z 00000001800651a0 f i EngineMupdf.obj
 0001:00064240       ?at@?$Vec@PEAUFzPageInfo@@@@QEBAAEAPEAUFzPageInfo@@H@Z 0000000180065240 f i EngineMupdf.obj
 0001:000642e0       ?at@?$Vec@PEAUpdf_obj@@@@QEBAAEAPEAUpdf_obj@@_K@Z 00000001800652e0 f i EngineMupdf.obj
 0001:00064350       ?at@?$Vec@UContextThreadID@@@@QEBAAEAUContextThreadID@@H@Z 0000000180065350 f i EngineMupdf.obj
 0001:000643f0       ?at@?$Vec@UPageLabelInfo@@@@QEBAAEAUPageLabelInfo@@H@Z 00000001800653f0 f i EngineMupdf.obj
 0001:00064490       ?at@?$Vec@UPageLabelInfo@@@@QEBAAEAUPageLabelInfo@@_K@Z 0000000180065490 f i EngineMupdf.obj
 0001:00064500       ?at@?$Vec@Ufz_rect@@@@QEBAAEAUfz_rect@@H@Z 0000000180065500 f i EngineMupdf.obj
 0001:000645a0       ?begin@?$Vec@PEAUAnnotation@@@@QEAAPEAPEAUAnnotation@@XZ 00000001800655a0 f i EngineMupdf.obj
 0001:000645c0       ?begin@?$Vec@PEAUFitzPageImageInfo@@@@QEAAPEAPEAUFitzPageImageInfo@@XZ 00000001800655c0 f i EngineMupdf.obj
 0001:000645e0       ?begin@?$Vec@PEAUFzPageInfo@@@@QEAAPEAPEAUFzPageInfo@@XZ 00000001800655e0 f i EngineMupdf.obj
 0001:00064600       ?begin@?$Vec@PEAUPageElementDestination@@@@QEAAPEAPEAUPageElementDestination@@XZ 0000000180065600 f i EngineMupdf.obj
 0001:00064620       ?begin@?$Vec@PEAUpdf_obj@@@@QEAAPEAPEAUpdf_obj@@XZ 0000000180065620 f i EngineMupdf.obj
 0001:00064640       ?begin@?$Vec@UContextThreadID@@@@QEAAPEAUContextThreadID@@XZ 0000000180065640 f i EngineMupdf.obj
 0001:00064660       ?end@?$Vec@PEAUAnnotation@@@@QEAAPEAPEAUAnnotation@@XZ 0000000180065660 f i EngineMupdf.obj
 0001:00064690       ?end@?$Vec@PEAUFitzPageImageInfo@@@@QEAAPEAPEAUFitzPageImageInfo@@XZ 0000000180065690 f i EngineMupdf.obj
 0001:000646c0       ?end@?$Vec@PEAUFzPageInfo@@@@QEAAPEAPEAUFzPageInfo@@XZ 00000001800656c0 f i EngineMupdf.obj
 0001:000646f0       ?end@?$Vec@PEAUPageElementDestination@@@@QEAAPEAPEAUPageElementDestination@@XZ 00000001800656f0 f i EngineMupdf.obj
 0001:00064720       ?end@?$Vec@PEAUpdf_obj@@@@QEAAPEAPEAUpdf_obj@@XZ 0000000180065720 f i EngineMupdf.obj
 0001:00064750       ?end@?$Vec@UContextThreadID@@@@QEAAPEAUContextThreadID@@XZ 0000000180065750 f i EngineMupdf.obj
 0001:00064770       ?fpclassify@@YAHM@Z        0000000180065770 f i EngineMupdf.obj
 0001:00064790       ?isOfKindHelper@@YA_NPEBD0@Z 0000000180065790 f i EngineMupdf.obj
 0001:000647d0       ?size@?$Vec@PEAUAnnotation@@@@QEBA_KXZ 00000001800657d0 f i EngineMupdf.obj
 0001:000647f0       ?size@?$Vec@PEAUpdf_obj@@@@QEBA_KXZ 00000001800657f0 f i EngineMupdf.obj
 0001:00064810       ?size@?$Vec@UPageLabelInfo@@@@QEBA_KXZ 0000000180065810 f i EngineMupdf.obj
 0001:00064830       ?fz_new_context_windows@@YAPEAUfz_context@@_K@Z 0000000180065830 f   FzImgReader.obj
 0001:00064930       ?fz_drop_context_windows@@YAXPEAUfz_context@@@Z 0000000180065930 f   FzImgReader.obj
 0001:000649f0       ?FzImageFromData@@YAPEAVBitmap@Gdiplus@@AEBUByteSlice@@@Z 00000001800659f0 f   FzImgReader.obj
 0001:00064ae0       ?BitmapFromData@@YAPEAVBitmap@Gdiplus@@AEBUByteSlice@@@Z 0000000180065ae0 f   FzImgReader.obj
 0001:00064b20       ?LoadRenderedBitmap@@YAPEAURenderedBitmap@@PEBD@Z 0000000180065b20 f   FzImgReader.obj
 0001:00065d60       ??$swap@E$0A@@std@@YAXAEAE0@Z 0000000180066d60 f i FzImgReader.obj
 0001:00065db0       ??0Bitmap@Gdiplus@@QEAA@HHH@Z 0000000180066db0 f i FzImgReader.obj
 0001:00065e60       ??0MupdfContext@@QEAA@XZ   0000000180066e60 f i FzImgReader.obj
 0001:00065ea0       ?SetResolution@Bitmap@Gdiplus@@QEAA?AW4Status@2@MM@Z 0000000180066ea0 f i FzImgReader.obj
 0001:00065ef0       ?Str@DrawInstr@@SA?AU1@PEBD_KURectF@@_N@Z 0000000180066ef0 f   HtmlFormatter.obj
 0001:00065fa0       ?Image@DrawInstr@@SA?AU1@AEBUByteSlice@@URectF@@@Z 0000000180066fa0 f   HtmlFormatter.obj
 0001:00066050       ?SetFont@DrawInstr@@SA?AU1@PEAUCachedFont@mui@@@Z 0000000180067050 f   HtmlFormatter.obj
 0001:000660d0       ?FixedSpace@DrawInstr@@SA?AU1@M@Z 00000001800670d0 f   HtmlFormatter.obj
 0001:00066150       ?LinkStart@DrawInstr@@SA?AU1@PEBD_K@Z 0000000180067150 f   HtmlFormatter.obj
 0001:000661e0       ?Anchor@DrawInstr@@SA?AU1@PEBD_KURectF@@@Z 00000001800671e0 f   HtmlFormatter.obj
 0001:00066290       ?Merge@StyleRule@@QEAAXAEAU1@@Z 0000000180067290 f   HtmlFormatter.obj
 0001:000662f0       ?Parse@StyleRule@@SA?AU1@PEAVCssPullParser@@@Z 00000001800672f0 f   HtmlFormatter.obj
 0001:000663b0       ?Parse@StyleRule@@SA?AU1@PEBD_K@Z 00000001800673b0 f   HtmlFormatter.obj
 0001:00066420       ?HandleTagBr@HtmlFormatter@@IEAAXXZ 0000000180067420 f   HtmlFormatter.obj
 0001:00066470       ?HandleTagP@HtmlFormatter@@IEAAXPEAUHtmlToken@@_N@Z 0000000180067470 f   HtmlFormatter.obj
 0001:000665c0       ?HandleTagFont@HtmlFormatter@@IEAAXPEAUHtmlToken@@@Z 00000001800675c0 f   HtmlFormatter.obj
 0001:000667b0       ?HandleTagA@HtmlFormatter@@IEAA_NPEAUHtmlToken@@PEBD1@Z 00000001800677b0 f   HtmlFormatter.obj
 0001:00066970       ?HandleTagHx@HtmlFormatter@@IEAAXPEAUHtmlToken@@@Z 0000000180067970 f   HtmlFormatter.obj
 0001:00066b10       ?HandleTagList@HtmlFormatter@@IEAAXPEAUHtmlToken@@@Z 0000000180067b10 f   HtmlFormatter.obj
 0001:00066bb0       ?HandleTagPre@HtmlFormatter@@IEAAXPEAUHtmlToken@@@Z 0000000180067bb0 f   HtmlFormatter.obj
 0001:00066c60       ?HandleTagStyle@HtmlFormatter@@IEAAXPEAUHtmlToken@@@Z 0000000180067c60 f   HtmlFormatter.obj
 0001:00066dd0       ?HandleAnchorAttr@HtmlFormatter@@IEAAXPEAUHtmlToken@@_N@Z 0000000180067dd0 f   HtmlFormatter.obj
 0001:00066f10       ?HandleDirAttr@HtmlFormatter@@IEAAXPEAUHtmlToken@@@Z 0000000180067f10 f   HtmlFormatter.obj
 0001:00066fb0       ?AutoCloseTags@HtmlFormatter@@IEAAX_K@Z 0000000180067fb0 f   HtmlFormatter.obj
 0001:00067090       ?UpdateTagNesting@HtmlFormatter@@IEAAXPEAUHtmlToken@@@Z 0000000180068090 f   HtmlFormatter.obj
 0001:000673e0       ?HandleHtmlTag@HtmlFormatter@@MEAAXPEAUHtmlToken@@@Z 00000001800683e0 f   HtmlFormatter.obj
 0001:000678d0       ?HandleText@HtmlFormatter@@IEAAXPEAUHtmlToken@@@Z 00000001800688d0 f   HtmlFormatter.obj
 0001:00067940       ?HandleText@HtmlFormatter@@IEAAXPEBD_K@Z 0000000180068940 f   HtmlFormatter.obj
 0001:00067b70       ?CurrLineDx@HtmlFormatter@@IEAAMXZ 0000000180068b70 f   HtmlFormatter.obj
 0001:00067c90       ?CurrLineDy@HtmlFormatter@@IEAAMXZ 0000000180068c90 f   HtmlFormatter.obj
 0001:00067d50       ?NewLineX@HtmlFormatter@@IEBAMXZ 0000000180068d50 f   HtmlFormatter.obj
 0001:00067dd0       ?LayoutLeftStartingAt@HtmlFormatter@@IEAAXM@Z 0000000180068dd0 f   HtmlFormatter.obj
 0001:00067f50       ?JustifyLineBoth@HtmlFormatter@@IEAAXXZ 0000000180068f50 f   HtmlFormatter.obj
 0001:000681f0       ?JustifyCurrLine@HtmlFormatter@@IEAAXW4AlignAttr@@@Z 00000001800691f0 f   HtmlFormatter.obj
 0001:000683b0       ?FlushCurrLine@HtmlFormatter@@IEAA_N_N@Z 00000001800693b0 f   HtmlFormatter.obj
 0001:000688c0       ?UpdateLinkBboxes@HtmlFormatter@@IEAAXPEAUHtmlPage@@@Z 00000001800698c0 f   HtmlFormatter.obj
 0001:000689c0       ?EmitImage@HtmlFormatter@@IEAA_NPEBUByteSlice@@@Z 00000001800699c0 f   HtmlFormatter.obj
 0001:00068de0       ?EmitHr@HtmlFormatter@@IEAAXXZ 0000000180069de0 f   HtmlFormatter.obj
 0001:00068ed0       ?EmitTextRun@HtmlFormatter@@IEAAXPEBD0@Z 0000000180069ed0 f   HtmlFormatter.obj
 0001:000695f0       ?EmitElasticSpace@HtmlFormatter@@IEAAXXZ 000000018006a5f0 f   HtmlFormatter.obj
 0001:00069730       ?EmitParagraph@HtmlFormatter@@IEAAXM@Z 000000018006a730 f   HtmlFormatter.obj
 0001:00069840       ?EmitEmptyLine@HtmlFormatter@@IEAAXM@Z 000000018006a840 f   HtmlFormatter.obj
 0001:00069990       ?EmitNewPage@HtmlFormatter@@IEAAXXZ 000000018006a990 f   HtmlFormatter.obj
 0001:00069a80       ?ForceNewPage@HtmlFormatter@@IEAAXXZ 000000018006aa80 f   HtmlFormatter.obj
 0001:00069b20       ?EnsureDx@HtmlFormatter@@IEAA_NM@Z 000000018006ab20 f   HtmlFormatter.obj
 0001:00069ba0       ?SetFont@HtmlFormatter@@IEAAXPEB_WW4FontStyle@Gdiplus@@M@Z 000000018006aba0 f   HtmlFormatter.obj
 0001:00069ca0       ?SetFontBasedOn@HtmlFormatter@@IEAAXPEAUCachedFont@mui@@W4FontStyle@Gdiplus@@M@Z 000000018006aca0 f   HtmlFormatter.obj
 0001:00069d10       ?ChangeFontStyle@HtmlFormatter@@IEAAXW4FontStyle@Gdiplus@@_N@Z 000000018006ad10 f   HtmlFormatter.obj
 0001:00069dc0       ?SetAlignment@HtmlFormatter@@IEAAXW4AlignAttr@@@Z 000000018006adc0 f   HtmlFormatter.obj
 0001:00069e30       ?RevertStyleChange@HtmlFormatter@@IEAAXXZ 000000018006ae30 f   HtmlFormatter.obj
 0001:00069ec0       ?ParseStyleSheet@HtmlFormatter@@IEAAXPEBD_K@Z 000000018006aec0 f   HtmlFormatter.obj
 0001:0006a020       ?FindStyleRule@HtmlFormatter@@IEAAPEAUStyleRule@@W4HtmlTag@@PEBD_K@Z 000000018006b020 f   HtmlFormatter.obj
 0001:0006a0f0       ?ComputeStyleRule@HtmlFormatter@@IEAA?AUStyleRule@@PEAUHtmlToken@@@Z 000000018006b0f0 f   HtmlFormatter.obj
 0001:0006a2f0       ?AppendInstr@HtmlFormatter@@IEAAXAEBUDrawInstr@@@Z 000000018006b2f0 f   HtmlFormatter.obj
 0001:0006a3a0       ?IsCurrLineEmpty@HtmlFormatter@@IEAA_NXZ 000000018006b3a0 f   HtmlFormatter.obj
 0001:0006a430       ?IgnoreText@HtmlFormatter@@MEAA_NXZ 000000018006b430 f   HtmlFormatter.obj
 0001:0006a4d0       ?DumpLineDebugInfo@HtmlFormatter@@IEAAXXZ 000000018006b4d0 f   HtmlFormatter.obj
 0001:0006a4e0       ??0HtmlFormatter@@QEAA@PEAUHtmlFormatterArgs@@@Z 000000018006b4e0 f   HtmlFormatter.obj
 0001:0006aae0       ??1HtmlFormatter@@UEAA@XZ  000000018006bae0 f   HtmlFormatter.obj
 0001:0006ac40       ?Next@HtmlFormatter@@QEAAPEAUHtmlPage@@_N@Z 000000018006bc40 f   HtmlFormatter.obj
 0001:0006af90       ?FormatAllPages@HtmlFormatter@@QEAAPEAV?$Vec@PEAUHtmlPage@@@@_N@Z 000000018006bf90 f   HtmlFormatter.obj
 0001:0006b040       ?DrawHtmlPage@@YAXPEAVGraphics@Gdiplus@@PEAVITextRender@mui@@PEAV?$Vec@UDrawInstr@@@@MM_NVColor@2@PEA_N@Z 000000018006c040 f   HtmlFormatter.obj
 0001:0006b920       ?GetTextRenderMethod@@YA?AW4TextRenderMethod@mui@@XZ 000000018006c920 f   HtmlFormatter.obj
 0001:0006b930       ?SetTextRenderMethod@@YAXW4TextRenderMethod@mui@@@Z 000000018006c930 f   HtmlFormatter.obj
 0001:0006b950       ?CreateFormatterDefaultArgs@@YAPEAUHtmlFormatterArgs@@HHPEAUAllocator@@@Z 000000018006c950 f   HtmlFormatter.obj
 0001:0006ba20       ?ValidReparseIdx@@YA_N_JPEAVHtmlPullParser@@@Z 000000018006ca20 f   HtmlFormatter.obj
 0001:0006bb70       ?ValidStyleForChangeFontStyle@@YA_NW4FontStyle@Gdiplus@@@Z 000000018006cb70 f   HtmlFormatter.obj
 0001:0006db90       ??0?$Vec@PEAUHtmlPage@@@@QEAA@_KPEAUAllocator@@@Z 000000018006eb90 f i HtmlFormatter.obj
 0001:0006dc50       ??0?$Vec@UDrawInstr@@@@QEAA@_KPEAUAllocator@@@Z 000000018006ec50 f i HtmlFormatter.obj
 0001:0006dd40       ??0?$Vec@UDrawStyle@@@@QEAA@_KPEAUAllocator@@@Z 000000018006ed40 f i HtmlFormatter.obj
 0001:0006de30       ??0?$Vec@UStyleRule@@@@QEAA@_KPEAUAllocator@@@Z 000000018006ee30 f i HtmlFormatter.obj
 0001:0006df20       ??0?$Vec@W4HtmlTag@@@@QEAA@_KPEAUAllocator@@@Z 000000018006ef20 f i HtmlFormatter.obj
 0001:0006dfe0       ??0CssPullParser@@QEAA@PEBD_K@Z 000000018006efe0 f i HtmlFormatter.obj
 0001:0006e130       ??0DrawInstr@@QEAA@W4DrawInstrType@@URectF@@@Z 000000018006f130 f i HtmlFormatter.obj
 0001:0006e1a0       ??0DrawInstr@@QEAA@XZ      000000018006f1a0 f i HtmlFormatter.obj
 0001:0006e220       ??0DrawStyle@@QEAA@XZ      000000018006f220 f i HtmlFormatter.obj
 0001:0006e260       ??0HtmlPage@@QEAA@H@Z      000000018006f260 f i HtmlFormatter.obj
 0001:0006e2f0       ??0Pen@Gdiplus@@QEAA@AEBVColor@1@M@Z 000000018006f2f0 f i HtmlFormatter.obj
 0001:0006e380       ??0StyleRule@@QEAA@XZ      000000018006f380 f i HtmlFormatter.obj
 0001:0006e3e0       ??1?$Vec@UDrawStyle@@@@QEAA@XZ 000000018006f3e0 f i HtmlFormatter.obj
 0001:0006e400       ??1?$Vec@UStyleRule@@@@QEAA@XZ 000000018006f400 f i HtmlFormatter.obj
 0001:0006e420       ??1?$Vec@W4HtmlTag@@@@QEAA@XZ 000000018006f420 f i HtmlFormatter.obj
 0001:0006e440       ??1Pen@Gdiplus@@QEAA@XZ    000000018006f440 f i HtmlFormatter.obj
 0001:0006e470       ??_EHtmlFormatter@@UEAAPEAXI@Z 000000018006f470 f i HtmlFormatter.obj
 0001:0006e470       ??_GHtmlFormatter@@UEAAPEAXI@Z 000000018006f470 f i HtmlFormatter.obj
 0001:0006e4c0       ?Append@?$Vec@PEAUHtmlPage@@@@QEAA_NAEBQEAUHtmlPage@@@Z 000000018006f4c0 f i HtmlFormatter.obj
 0001:0006e500       ?Append@?$Vec@UDrawInstr@@@@QEAA_NPEBUDrawInstr@@_K@Z 000000018006f500 f i HtmlFormatter.obj
 0001:0006e580       ?Append@?$Vec@UDrawStyle@@@@QEAA_NAEBUDrawStyle@@@Z 000000018006f580 f i HtmlFormatter.obj
 0001:0006e5c0       ?Append@?$Vec@UStyleRule@@@@QEAA_NAEBUStyleRule@@@Z 000000018006f5c0 f i HtmlFormatter.obj
 0001:0006e600       ?Append@?$Vec@W4HtmlTag@@@@QEAA_NAEBW4HtmlTag@@@Z 000000018006f600 f i HtmlFormatter.obj
 0001:0006e640       ?DrawImage@Graphics@Gdiplus@@QEAA?AW4Status@2@PEAVImage@2@AEBVRectF@2@MMMMW4Unit@2@PEBVImageAttributes@2@P6AHPEAX@Z4@Z 000000018006f640 f i HtmlFormatter.obj
 0001:0006e840       ?DrawLine@Graphics@Gdiplus@@QEAA?AW4Status@2@PEBVPen@2@AEBVPointF@2@1@Z 000000018006f840 f i HtmlFormatter.obj
 0001:0006e8c0       ?DrawLine@Graphics@Gdiplus@@QEAA?AW4Status@2@PEBVPen@2@MMMM@Z 000000018006f8c0 f i HtmlFormatter.obj
 0001:0006e940       ?DrawRectangle@Graphics@Gdiplus@@QEAA?AW4Status@2@PEBVPen@2@AEBVRectF@2@@Z 000000018006f940 f i HtmlFormatter.obj
 0001:0006e9b0       ?DrawRectangle@Graphics@Gdiplus@@QEAA?AW4Status@2@PEBVPen@2@MMMM@Z 000000018006f9b0 f i HtmlFormatter.obj
 0001:0006ea30       ?EnsureCap@?$Vec@PEAUHtmlPage@@@@IEAA_N_K@Z 000000018006fa30 f i HtmlFormatter.obj
 0001:0006ea80       ?EnsureCap@?$Vec@UDrawStyle@@@@IEAA_N_K@Z 000000018006fa80 f i HtmlFormatter.obj
 0001:0006ead0       ?EnsureCap@?$Vec@UStyleRule@@@@IEAA_N_K@Z 000000018006fad0 f i HtmlFormatter.obj
 0001:0006eb20       ?EnsureCap@?$Vec@W4HtmlTag@@@@IEAA_N_K@Z 000000018006fb20 f i HtmlFormatter.obj
 0001:0006eb70       ?EnsureCapSlow@?$Vec@PEAUHtmlPage@@@@IEAA_N_K@Z 000000018006fb70 f i HtmlFormatter.obj
 0001:0006ed80       ?EnsureCapSlow@?$Vec@UDrawStyle@@@@IEAA_N_K@Z 000000018006fd80 f i HtmlFormatter.obj
 0001:0006ef80       ?EnsureCapSlow@?$Vec@UStyleRule@@@@IEAA_N_K@Z 000000018006ff80 f i HtmlFormatter.obj
 0001:0006f180       ?EnsureCapSlow@?$Vec@W4HtmlTag@@@@IEAA_N_K@Z 0000000180070180 f i HtmlFormatter.obj
 0001:0006f390       ?FreeEls@?$Vec@UDrawStyle@@@@IEAAXXZ 0000000180070390 f i HtmlFormatter.obj
 0001:0006f3f0       ?FreeEls@?$Vec@W4HtmlTag@@@@IEAAXXZ 00000001800703f0 f i HtmlFormatter.obj
 0001:0006f450       ?GetFontName@HtmlFormatterArgs@@QEBAPEB_WXZ 0000000180070450 f i HtmlFormatter.obj
 0001:0006f480       ?GetName@CachedFont@mui@@QEBAPEB_WXZ 0000000180070480 f i HtmlFormatter.obj
 0001:0006f4a0       ?GetStyle@CachedFont@mui@@QEBA?AW4FontStyle@Gdiplus@@XZ 00000001800704a0 f i HtmlFormatter.obj
 0001:0006f4c0       ?InsertAt@?$Vec@PEAUHtmlPage@@@@QEAA_N_KAEBQEAUHtmlPage@@@Z 00000001800704c0 f i HtmlFormatter.obj
 0001:0006f530       ?InsertAt@?$Vec@UDrawStyle@@@@QEAA_N_KAEBUDrawStyle@@@Z 0000000180070530 f i HtmlFormatter.obj
 0001:0006f5b0       ?InsertAt@?$Vec@UStyleRule@@@@QEAA_N_KAEBUStyleRule@@@Z 00000001800705b0 f i HtmlFormatter.obj
 0001:0006f630       ?InsertAt@?$Vec@W4HtmlTag@@@@QEAA_N_KAEBW4HtmlTag@@@Z 0000000180070630 f i HtmlFormatter.obj
 0001:0006f6a0       ?IsTagH@@YA_NW4HtmlTag@@@Z 00000001800706a0 f i HtmlFormatter.obj
 0001:0006f710       ?Len@HtmlPullParser@@QEBA_KXZ 0000000180070710 f i HtmlFormatter.obj
 0001:0006f730       ?LendData@?$Vec@UDrawInstr@@@@QEBAPEAUDrawInstr@@XZ 0000000180070730 f i HtmlFormatter.obj
 0001:0006f750       ?MakeSpaceAt@?$Vec@PEAUHtmlPage@@@@IEAAPEAPEAUHtmlPage@@_K0@Z 0000000180070750 f i HtmlFormatter.obj
 0001:0006f890       ?MakeSpaceAt@?$Vec@UDrawStyle@@@@IEAAPEAUDrawStyle@@_K0@Z 0000000180070890 f i HtmlFormatter.obj
 0001:0006f9d0       ?MakeSpaceAt@?$Vec@UStyleRule@@@@IEAAPEAUStyleRule@@_K0@Z 00000001800709d0 f i HtmlFormatter.obj
 0001:0006fb10       ?MakeSpaceAt@?$Vec@W4HtmlTag@@@@IEAAPEAW4HtmlTag@@_K0@Z 0000000180070b10 f i HtmlFormatter.obj
 0001:0006fc50       ?Pop@?$Vec@UDrawStyle@@@@QEAA?AUDrawStyle@@XZ 0000000180070c50 f i HtmlFormatter.obj
 0001:0006fd00       ?Pop@?$Vec@W4HtmlTag@@@@QEAA?AW4HtmlTag@@XZ 0000000180070d00 f i HtmlFormatter.obj
 0001:0006fda0       ?PopAt@?$Vec@PEAUHtmlPage@@@@QEAAPEAUHtmlPage@@_K@Z 0000000180070da0 f i HtmlFormatter.obj
 0001:0006fe30       ?RemoveAt@?$Vec@PEAUHtmlPage@@@@QEAAX_K0@Z 0000000180070e30 f i HtmlFormatter.obj
 0001:0006ff50       ?RemoveAt@?$Vec@UDrawInstr@@@@QEAAX_K0@Z 0000000180070f50 f i HtmlFormatter.obj
 0001:00070060       ?RemoveAtFast@?$Vec@UDrawStyle@@@@QEAAX_K@Z 0000000180071060 f i HtmlFormatter.obj
 0001:00070160       ?RemoveAtFast@?$Vec@W4HtmlTag@@@@QEAAX_K@Z 0000000180071160 f i HtmlFormatter.obj
 0001:00070270       ?Reset@?$Vec@PEAUHtmlPage@@@@QEAAXXZ 0000000180071270 f i HtmlFormatter.obj
 0001:000702f0       ?Reset@?$Vec@UDrawInstr@@@@QEAAXXZ 00000001800712f0 f i HtmlFormatter.obj
 0001:00070370       ?Reset@?$Vec@UDrawStyle@@@@QEAAXXZ 0000000180071370 f i HtmlFormatter.obj
 0001:000703f0       ?Reset@?$Vec@W4HtmlTag@@@@QEAAXXZ 00000001800713f0 f i HtmlFormatter.obj
 0001:00070470       ?SetCurrPosOff@HtmlPullParser@@QEAAX_J@Z 0000000180071470 f i HtmlFormatter.obj
 0001:000704a0       ?Start@HtmlPullParser@@QEBAPEBDXZ 00000001800714a0 f i HtmlFormatter.obj
 0001:000704c0       ?at@?$Vec@PEAUHtmlPage@@@@QEBAAEAPEAUHtmlPage@@_K@Z 00000001800714c0 f i HtmlFormatter.obj
 0001:00070530       ?at@?$Vec@UStyleRule@@@@QEBAAEAUStyleRule@@_K@Z 0000000180071530 f i HtmlFormatter.obj
 0001:000705a0       ?begin@?$Vec@W4HtmlTag@@@@QEAAPEAW4HtmlTag@@XZ 00000001800715a0 f i HtmlFormatter.obj
 0001:000705c0       ?end@?$Vec@W4HtmlTag@@@@QEAAPEAW4HtmlTag@@XZ 00000001800715c0 f i HtmlFormatter.obj
 0001:000705f0       ?size@?$Vec@UDrawStyle@@@@QEBA_KXZ 00000001800715f0 f i HtmlFormatter.obj
 0001:00070610       ?size@?$Vec@UStyleRule@@@@QEBA_KXZ 0000000180071610 f i HtmlFormatter.obj
 0001:00070630       ??0MobiDoc@@QEAA@PEBD@Z    0000000180071630 f   MobiDoc.obj
 0001:00070760       ?ParseHeader@MobiDoc@@QEAA_NXZ 0000000180071760 f   MobiDoc.obj
 0001:00070f30       ?LoadDocRecordIntoBuffer@MobiDoc@@QEAA_N_KAEAUStr@str@@@Z 0000000180071f30 f   MobiDoc.obj
 0001:00071120       ?LoadImages@MobiDoc@@QEAAXXZ 0000000180072120 f   MobiDoc.obj
 0001:000711b0       ?LoadImageW@MobiDoc@@QEAA_N_K@Z 00000001800721b0 f   MobiDoc.obj
 0001:00071280       ?LoadForPdbReader@MobiDoc@@QEAA_NPEAVPdbReader@@@Z 0000000180072280 f   MobiDoc.obj
 0001:000714f0       ?DecodeExthHeader@MobiDoc@@QEAA_NPEBE_K@Z 00000001800724f0 f   MobiDoc.obj
 0001:000717e0       ??1MobiDoc@@QEAA@XZ        00000001800727e0 f   MobiDoc.obj
 0001:000718d0       ?GetHtmlData@MobiDoc@@QEBA?AUByteSlice@@XZ 00000001800728d0 f   MobiDoc.obj
 0001:00071940       ?GetCoverImage@MobiDoc@@QEAAPEAUByteSlice@@XZ 0000000180072940 f   MobiDoc.obj
 0001:000719e0       ?GetImage@MobiDoc@@QEBAPEAUByteSlice@@_K@Z 00000001800729e0 f   MobiDoc.obj
 0001:00071a60       ?GetPropertyTemp@MobiDoc@@QEAAPEADPEBD@Z 0000000180072a60 f   MobiDoc.obj
 0001:00071ac0       ?HasToc@MobiDoc@@QEAA_NXZ  0000000180072ac0 f   MobiDoc.obj
 0001:00071d40       ?ParseToc@MobiDoc@@QEAA_NPEAVEbookTocVisitor@@@Z 0000000180072d40 f   MobiDoc.obj
 0001:00072160       ?IsSupportedFileType@MobiDoc@@SA_NPEBD@Z 0000000180073160 f   MobiDoc.obj
 0001:000721a0       ?CreateFromFile@MobiDoc@@SAPEAU1@PEBD@Z 00000001800731a0 f   MobiDoc.obj
 0001:00072260       ?CreateFromStream@MobiDoc@@SAPEAU1@PEAUIStream@@@Z 0000000180073260 f   MobiDoc.obj
 0001:00072610       ??0HuffDicDecompressor@@QEAA@XZ 0000000180073610 f   MobiDoc.obj
 0001:000726d0       ?SetHuffData@HuffDicDecompressor@@QEAA_NPEAE_K@Z 00000001800736d0 f   MobiDoc.obj
 0001:000728b0       ?AddCdicData@HuffDicDecompressor@@QEAA_NPEAEI@Z 00000001800738b0 f   MobiDoc.obj
 0001:00072a90       ?Decompress@HuffDicDecompressor@@QEAA_NPEAE_KAEAUStr@str@@@Z 0000000180073a90 f   MobiDoc.obj
 0001:00072d50       ?DecodeOne@HuffDicDecompressor@@QEAA_NIAEAUStr@str@@@Z 0000000180073d50 f   MobiDoc.obj
 0001:00074370       ??$AllocArray@UByteSlice@@@@YAPEAUByteSlice@@_K@Z 0000000180075370 f i MobiDoc.obj
 0001:000743a0       ??$min@I@std@@YAAEBIAEBI0@Z 00000001800753a0 f i MobiDoc.obj
 0001:00074400       ??0?$Vec@I@@QEAA@_KPEAUAllocator@@@Z 0000000180075400 f i MobiDoc.obj
 0001:000744c0       ??0PalmDocHeader@@QEAA@XZ  00000001800754c0 f i MobiDoc.obj
 0001:00074530       ??1?$Vec@I@@QEAA@XZ        0000000180075530 f i MobiDoc.obj
 0001:00074550       ??1HuffDicDecompressor@@QEAA@XZ 0000000180075550 f i MobiDoc.obj
 0001:00074580       ??_GHuffDicDecompressor@@QEAAPEAXI@Z 0000000180075580 f i MobiDoc.obj
 0001:000745d0       ??_GPdbReader@@QEAAPEAXI@Z 00000001800755d0 f i MobiDoc.obj
 0001:00074620       ??_GStr@str@@QEAAPEAXI@Z   0000000180075620 f i MobiDoc.obj
 0001:00074670       ?Append@?$Vec@I@@QEAA_NAEBI@Z 0000000180075670 f i MobiDoc.obj
 0001:000746b0       ?Contains@?$Vec@I@@QEBA_NAEBI@Z 00000001800756b0 f i MobiDoc.obj
 0001:00074710       ?EnsureCap@?$Vec@I@@IEAA_N_K@Z 0000000180075710 f i MobiDoc.obj
 0001:00074760       ?EnsureCapSlow@?$Vec@I@@IEAA_N_K@Z 0000000180075760 f i MobiDoc.obj
 0001:00074970       ?Find@?$Vec@I@@QEBAHAEBI_K@Z 0000000180075970 f i MobiDoc.obj
 0001:000749f0       ?FreeEls@?$Vec@I@@IEAAXXZ  00000001800759f0 f i MobiDoc.obj
 0001:00074a50       ?InsertAt@?$Vec@I@@QEAA_N_KAEBI@Z 0000000180075a50 f i MobiDoc.obj
 0001:00074ac0       ?MakeSpaceAt@?$Vec@I@@IEAAPEAI_K0@Z 0000000180075ac0 f i MobiDoc.obj
 0001:00074c00       ?Offset@ByteOrderDecoder@@QEBA_KXZ 0000000180075c00 f i MobiDoc.obj
 0001:00074c30       ?Pop@?$Vec@I@@QEAAIXZ      0000000180075c30 f i MobiDoc.obj
 0001:00074cd0       ?RemoveAtFast@?$Vec@I@@QEAAX_K@Z 0000000180075cd0 f i MobiDoc.obj
 0001:00074de0       ?Reset@?$Vec@I@@QEAAXXZ    0000000180075de0 f i MobiDoc.obj
 0001:00074e60       ?at@?$Vec@I@@QEBAAEAI_K@Z  0000000180075e60 f i MobiDoc.obj
 0001:00074ed0       ?ParseHeader@PdbReader@@AEAA_NXZ 0000000180075ed0 f   PalmDbReader.obj
 0001:00075150       ??1PdbReader@@QEAA@XZ      0000000180076150 f   PalmDbReader.obj
 0001:00075190       ?Parse@PdbReader@@QEAA_NAEBUByteSlice@@@Z 0000000180076190 f   PalmDbReader.obj
 0001:000751e0       ?GetDbType@PdbReader@@QEAAPEBDXZ 00000001800761e0 f   PalmDbReader.obj
 0001:00075200       ?GetRecordCount@PdbReader@@QEAA_KXZ 0000000180076200 f   PalmDbReader.obj
 0001:00075230       ?GetRecord@PdbReader@@QEAA?AUByteSlice@@_K@Z 0000000180076230 f   PalmDbReader.obj
 0001:00075390       ?CreateFromData@PdbReader@@SAPEAV1@AEBUByteSlice@@@Z 0000000180076390 f   PalmDbReader.obj
 0001:00075460       ?CreateFromFile@PdbReader@@SAPEAV1@PEBD@Z 0000000180076460 f   PalmDbReader.obj
 0001:00075490       ?CreateFromStream@PdbReader@@SAPEAV1@PEAUIStream@@@Z 0000000180076490 f   PalmDbReader.obj
 0001:000754c0       ?GetPdbDocType@@YA?AW4PdbDocType@@PEBD@Z 00000001800764c0 f   PalmDbReader.obj
 0001:000758b0       ??0?$Vec@UPdbRecordHeader@@@@QEAA@_KPEAUAllocator@@@Z 00000001800768b0 f i PalmDbReader.obj
 0001:000759a0       ??0PdbHeader@@QEAA@XZ      00000001800769a0 f i PalmDbReader.obj
 0001:00075a90       ??0PdbReader@@QEAA@XZ      0000000180076a90 f i PalmDbReader.obj
 0001:00075b10       ??0PdbRecordHeader@@QEAA@XZ 0000000180076b10 f i PalmDbReader.obj
 0001:00075b60       ??1?$Vec@UPdbRecordHeader@@@@QEAA@XZ 0000000180076b60 f i PalmDbReader.obj
 0001:00075b80       ??A?$Vec@UPdbRecordHeader@@@@QEBAAEAUPdbRecordHeader@@H@Z 0000000180076b80 f i PalmDbReader.obj
 0001:00075c20       ??A?$Vec@UPdbRecordHeader@@@@QEBAAEAUPdbRecordHeader@@_K@Z 0000000180076c20 f i PalmDbReader.obj
 0001:00075c90       ?Append@?$Vec@UPdbRecordHeader@@@@QEAA_NAEBUPdbRecordHeader@@@Z 0000000180076c90 f i PalmDbReader.obj
 0001:00075cd0       ?EnsureCap@?$Vec@UPdbRecordHeader@@@@IEAA_N_K@Z 0000000180076cd0 f i PalmDbReader.obj
 0001:00075d20       ?EnsureCapSlow@?$Vec@UPdbRecordHeader@@@@IEAA_N_K@Z 0000000180076d20 f i PalmDbReader.obj
 0001:00075f30       ?FreeEls@?$Vec@UPdbRecordHeader@@@@IEAAXXZ 0000000180076f30 f i PalmDbReader.obj
 0001:00075f90       ?InsertAt@?$Vec@UPdbRecordHeader@@@@QEAA_N_KAEBUPdbRecordHeader@@@Z 0000000180076f90 f i PalmDbReader.obj
 0001:00076000       ?IsOk@ByteOrderDecoder@@QEBA_NXZ 0000000180077000 f i PalmDbReader.obj
 0001:00076020       ?MakeSpaceAt@?$Vec@UPdbRecordHeader@@@@IEAAPEAUPdbRecordHeader@@_K0@Z 0000000180077020 f i PalmDbReader.obj
 0001:00076160       ?Reset@?$Vec@UPdbRecordHeader@@@@QEAAXXZ 0000000180077160 f i PalmDbReader.obj
 0001:000761e0       ?size@?$Vec@UPdbRecordHeader@@@@QEBA_KXZ 00000001800771e0 f i PalmDbReader.obj
 0001:00076200       ??0PdfCreator@@QEAA@XZ     0000000180077200 f   PdfCreator.obj
 0001:000762e0       ??1PdfCreator@@QEAA@XZ     00000001800772e0 f   PdfCreator.obj
 0001:00076330       ?AddPageFromFzImage@PdfCreator@@QEBA_NPEAUfz_image@@M@Z 0000000180077330 f   PdfCreator.obj
 0001:00076790       ?AddPageFromGdiplusBitmap@PdfCreator@@QEAA_NPEAVBitmap@Gdiplus@@M@Z 0000000180077790 f   PdfCreator.obj
 0001:00076870       ?AddPageFromImageData@PdfCreator@@QEBA_NAEBUByteSlice@@M@Z 0000000180077870 f   PdfCreator.obj
 0001:00076a00       ?SetProperty@PdfCreator@@QEBA_NPEBD0@Z 0000000180077a00 f   PdfCreator.obj
 0001:00076bd0       ?CopyProperties@PdfCreator@@QEBA_NPEAVEngineBase@@@Z 0000000180077bd0 f   PdfCreator.obj
 0001:00076c80       ?SaveToFile@PdfCreator@@QEBA_NPEBD@Z 0000000180077c80 f   PdfCreator.obj
 0001:00076df0       ?SetProducerName@PdfCreator@@SAXPEBD@Z 0000000180077df0 f   PdfCreator.obj
 0001:00076e40       ?RenderToFile@PdfCreator@@SA_NPEBDPEAVEngineBase@@H@Z 0000000180077e40 f   PdfCreator.obj
 0001:00077510       ?add_image_res@@YAPEAUpdf_obj@@PEAUfz_context@@PEAUpdf_document@@PEAU1@PEADPEAUfz_image@@@Z 0000000180078510 f   PdfCreator.obj
 0001:00077bf0       ??_GPdfCreator@@QEAAPEAXI@Z 0000000180078bf0 f i PdfCreator.obj
 0001:00077c40       ?InstallPreviewDll@@YA_NPEBD_N@Z 0000000180078c40 f   RegistryPreview.obj
 0001:00078020       ?UninstallPreviewDll@@YA_NXZ 0000000180079020 f   RegistryPreview.obj
 0001:00078260       ?DisablePreviewInstallExts@@YAXPEBD@Z 0000000180079260 f   RegistryPreview.obj
 0001:000783b0       ?IsPreviewInstalled@@YA_NXZ 00000001800793b0 f   RegistryPreview.obj
 0001:00078680       ?GetAppIconID@@YAHXZ       0000000180079680 f   SumatraConfig.obj
 0001:00078690       ?GetHFont@CachedFont@mui@@QEAAPEAUHFONT__@@XZ 0000000180079690 f   Mui.obj
 0001:000787a0       ?SameAs@CachedFont@mui@@QEBA_NPEB_WMW4FontStyle@Gdiplus@@@Z 00000001800797a0 f   Mui.obj
 0001:00078800       ?Initialize@mui@@YAXXZ     0000000180079800 f   Mui.obj
 0001:00078870       ?Destroy@mui@@YAXXZ        0000000180079870 f   Mui.obj
 0001:00078970       ?InitGraphicsMode@mui@@YAXPEAVGraphics@Gdiplus@@@Z 0000000180079970 f   Mui.obj
 0001:000789d0       ?GetCachedFont@mui@@YAPEAUCachedFont@1@PEB_WMW4FontStyle@Gdiplus@@@Z 00000001800799d0 f   Mui.obj
 0001:00078cf0       ?AllocGraphicsForMeasureText@mui@@YAPEAVGraphics@Gdiplus@@XZ 0000000180079cf0 f   Mui.obj
 0001:00078f20       ?FreeGraphicsForMeasureText@mui@@YAXPEAVGraphics@Gdiplus@@@Z 0000000180079f20 f   Mui.obj
 0001:000790a0       ?Create@GraphicsCacheEntry@mui@@QEAA_NXZ 000000018007a0a0 f   Mui.obj
 0001:000791d0       ?Free@GraphicsCacheEntry@mui@@QEBAXXZ 000000018007a1d0 f   Mui.obj
 0001:00079580       ??$ListInsertFront@VFontListItem@mui@@@@YAXPEAPEAVFontListItem@mui@@PEAV01@@Z 000000018007a580 f i Mui.obj
 0001:000795c0       ??0?$Vec@UGraphicsCacheEntry@mui@@@@QEAA@_KPEAUAllocator@@@Z 000000018007a5c0 f i Mui.obj
 0001:00079680       ??0Bitmap@Gdiplus@@QEAA@HHHHPEAE@Z 000000018007a680 f i Mui.obj
 0001:00079730       ??0Font@Gdiplus@@QEAA@PEB_WMHW4Unit@1@PEBVFontCollection@1@@Z 000000018007a730 f i Mui.obj
 0001:000798e0       ??0FontFamily@Gdiplus@@QEAA@PEB_WPEBVFontCollection@1@@Z 000000018007a8e0 f i Mui.obj
 0001:00079970       ??0FontListItem@mui@@QEAA@PEB_WMW4FontStyle@Gdiplus@@PEAVFont@3@PEAUHFONT__@@@Z 000000018007a970 f i Mui.obj
 0001:00079a20       ??0Graphics@Gdiplus@@QEAA@PEAVImage@1@@Z 000000018007aa20 f i Mui.obj
 0001:00079a90       ??0ScopedMuiCritSec@mui@@QEAA@XZ 000000018007aa90 f i Mui.obj
 0001:00079ab0       ??1?$Vec@UGraphicsCacheEntry@mui@@@@QEAA@XZ 000000018007aab0 f i Mui.obj
 0001:00079ad0       ??1Font@Gdiplus@@QEAA@XZ   000000018007aad0 f i Mui.obj
 0001:00079b00       ??1FontListItem@mui@@QEAA@XZ 000000018007ab00 f i Mui.obj
 0001:00079bc0       ??1ScopedMuiCritSec@mui@@QEAA@XZ 000000018007abc0 f i Mui.obj
 0001:00079be0       ??_G?$Vec@UGraphicsCacheEntry@mui@@@@QEAAPEAXI@Z 000000018007abe0 f i Mui.obj
 0001:00079c30       ??_GFont@Gdiplus@@QEAAPEAXI@Z 000000018007ac30 f i Mui.obj
 0001:00079ca0       ??_GFontListItem@mui@@QEAAPEAXI@Z 000000018007aca0 f i Mui.obj
 0001:00079cf0       ??_GGraphics@Gdiplus@@QEAAPEAXI@Z 000000018007acf0 f i Mui.obj
 0001:00079d60       ?Append@?$Vec@UGraphicsCacheEntry@mui@@@@QEAA_NAEBUGraphicsCacheEntry@mui@@@Z 000000018007ad60 f i Mui.obj
 0001:00079da0       ?EnsureCap@?$Vec@UGraphicsCacheEntry@mui@@@@IEAA_N_K@Z 000000018007ada0 f i Mui.obj
 0001:00079df0       ?EnsureCapSlow@?$Vec@UGraphicsCacheEntry@mui@@@@IEAA_N_K@Z 000000018007adf0 f i Mui.obj
 0001:0007a000       ?FreeEls@?$Vec@UGraphicsCacheEntry@mui@@@@IEAAXXZ 000000018007b000 f i Mui.obj
 0001:0007a060       ?GenericSansSerif@FontFamily@Gdiplus@@SAPEBV12@XZ 000000018007b060 f i Mui.obj
 0001:0007a0d0       ?GetLastStatus@Font@Gdiplus@@QEBA?AW4Status@2@XZ 000000018007b0d0 f i Mui.obj
 0001:0007a0f0       ?GetLastStatus@FontFamily@Gdiplus@@QEBA?AW4Status@2@XZ 000000018007b0f0 f i Mui.obj
 0001:0007a130       ?GetLogFontW@Font@Gdiplus@@QEBA?AW4Status@2@PEBVGraphics@2@PEAUtagLOGFONTW@@@Z 000000018007b130 f i Mui.obj
 0001:0007a1b0       ?InsertAt@?$Vec@UGraphicsCacheEntry@mui@@@@QEAA_N_KAEBUGraphicsCacheEntry@mui@@@Z 000000018007b1b0 f i Mui.obj
 0001:0007a230       ?MakeSpaceAt@?$Vec@UGraphicsCacheEntry@mui@@@@IEAAPEAUGraphicsCacheEntry@mui@@_K0@Z 000000018007b230 f i Mui.obj
 0001:0007a380       ?RemoveAt@?$Vec@UGraphicsCacheEntry@mui@@@@QEAAX_K0@Z 000000018007b380 f i Mui.obj
 0001:0007a4a0       ?Reset@?$Vec@UGraphicsCacheEntry@mui@@@@QEAAXXZ 000000018007b4a0 f i Mui.obj
 0001:0007a520       ?SetTextRenderingHint@Graphics@Gdiplus@@QEAA?AW4Status@2@W4TextRenderingHint@2@@Z 000000018007b520 f i Mui.obj
 0001:0007a560       ?at@?$Vec@UGraphicsCacheEntry@mui@@@@QEBAAEAUGraphicsCacheEntry@mui@@H@Z 000000018007b560 f i Mui.obj
 0001:0007a600       ?at@?$Vec@UGraphicsCacheEntry@mui@@@@QEBAAEAUGraphicsCacheEntry@mui@@_K@Z 000000018007b600 f i Mui.obj
 0001:0007a670       ?begin@?$Vec@UGraphicsCacheEntry@mui@@@@QEAAPEAUGraphicsCacheEntry@mui@@XZ 000000018007b670 f i Mui.obj
 0001:0007a690       ?end@?$Vec@UGraphicsCacheEntry@mui@@@@QEAAPEAUGraphicsCacheEntry@mui@@XZ 000000018007b690 f i Mui.obj
 0001:0007a6c0       ?size@?$Vec@UGraphicsCacheEntry@mui@@@@QEBA_KXZ 000000018007b6c0 f i Mui.obj
 0001:0007a6e0       ?FreeMemBmp@TextRenderGdi@mui@@AEAAXXZ 000000018007b6e0 f   TextRender.obj
 0001:0007a710       ?CreateClearBmpOfSize@TextRenderGdi@mui@@AEAAXHH@Z 000000018007b710 f   TextRender.obj
 0001:0007a940       ?RestoreMemHdcPrevFont@TextRenderGdi@mui@@AEAAXXZ 000000018007b940 f   TextRender.obj
 0001:0007a990       ?RestoreHdcForTextMeasurePrevFont@TextRenderGdi@mui@@AEAAXXZ 000000018007b990 f   TextRender.obj
 0001:0007a9e0       ?RestoreMemHdcPrevBitmap@TextRenderGdi@mui@@AEAAXXZ 000000018007b9e0 f   TextRender.obj
 0001:0007aa30       ?CreateHdcForTextMeasure@TextRenderGdi@mui@@QEAAXXZ 000000018007ba30 f   TextRender.obj
 0001:0007aac0       ?Create@TextRenderGdi@mui@@SAPEAV12@PEAVGraphics@Gdiplus@@@Z 000000018007bac0 f   TextRender.obj
 0001:0007ab80       ?SetFont@TextRenderGdi@mui@@UEAAXPEAUCachedFont@2@@Z 000000018007bb80 f   TextRender.obj
 0001:0007ac20       ?SetTextColor@TextRenderGdi@mui@@UEAAXVColor@Gdiplus@@@Z 000000018007bc20 f   TextRender.obj
 0001:0007acb0       ?SetTextBgColor@TextRenderGdi@mui@@UEAAXVColor@Gdiplus@@@Z 000000018007bcb0 f   TextRender.obj
 0001:0007ad40       ?GetCurrFontLineSpacing@TextRenderGdi@mui@@UEAAMXZ 000000018007bd40 f   TextRender.obj
 0001:0007ad80       ?Measure@TextRenderGdi@mui@@UEAA?AURectF@@PEBD_K@Z 000000018007bd80 f   TextRender.obj
 0001:0007ae00       ?Measure@TextRenderGdi@mui@@UEAA?AURectF@@PEB_W_K@Z 000000018007be00 f   TextRender.obj
 0001:0007ae70       ?Lock@TextRenderGdi@mui@@UEAAXXZ 000000018007be70 f   TextRender.obj
 0001:0007afe0       ?Unlock@TextRenderGdi@mui@@UEAAXXZ 000000018007bfe0 f   TextRender.obj
 0001:0007b050       ?Draw@TextRenderGdi@mui@@UEAAXPEBD_KURectF@@_N@Z 000000018007c050 f   TextRender.obj
 0001:0007b100       ?Draw@TextRenderGdi@mui@@UEAAXPEB_W_KURectF@@_N@Z 000000018007c100 f   TextRender.obj
 0001:0007b1d0       ?DrawTransparent@TextRenderGdi@mui@@QEAAXPEBD_KURectF@@_N@Z 000000018007c1d0 f   TextRender.obj
 0001:0007b260       ?DrawTransparent@TextRenderGdi@mui@@QEAAXPEB_W_KURectF@@_N@Z 000000018007c260 f   TextRender.obj
 0001:0007b490       ??1TextRenderGdi@mui@@UEAA@XZ 000000018007c490 f   TextRender.obj
 0001:0007b530       ?Create@TextRenderGdiplus@mui@@SAPEAV12@PEAVGraphics@Gdiplus@@P6A?AURectF@@0PEAVFont@4@PEB_WH@Z@Z 000000018007c530 f   TextRender.obj
 0001:0007b620       ?SetFont@TextRenderGdiplus@mui@@UEAAXPEAUCachedFont@2@@Z 000000018007c620 f   TextRender.obj
 0001:0007b680       ?SetTextColor@TextRenderGdiplus@mui@@UEAAXVColor@Gdiplus@@@Z 000000018007c680 f   TextRender.obj
 0001:0007b760       ?GetCurrFontLineSpacing@TextRenderGdiplus@mui@@UEAAMXZ 000000018007c760 f   TextRender.obj
 0001:0007b7a0       ?Measure@TextRenderGdiplus@mui@@UEAA?AURectF@@PEBD_K@Z 000000018007c7a0 f   TextRender.obj
 0001:0007b860       ?Measure@TextRenderGdiplus@mui@@UEAA?AURectF@@PEB_W_K@Z 000000018007c860 f   TextRender.obj
 0001:0007b8f0       ?Draw@TextRenderGdiplus@mui@@UEAAXPEBD_KURectF@@_N@Z 000000018007c8f0 f   TextRender.obj
 0001:0007b9a0       ?Draw@TextRenderGdiplus@mui@@UEAAXPEB_W_KURectF@@_N@Z 000000018007c9a0 f   TextRender.obj
 0001:0007bb00       ??1TextRenderGdiplus@mui@@UEAA@XZ 000000018007cb00 f   TextRender.obj
 0001:0007bb80       ?Create@TextRenderHdc@mui@@SAPEAV12@PEAVGraphics@Gdiplus@@HH@Z 000000018007cb80 f   TextRender.obj
 0001:0007bde0       ?SetFont@TextRenderHdc@mui@@UEAAXPEAUCachedFont@2@@Z 000000018007cde0 f   TextRender.obj
 0001:0007be80       ?SetTextColor@TextRenderHdc@mui@@UEAAXVColor@Gdiplus@@@Z 000000018007ce80 f   TextRender.obj
 0001:0007bf30       ?SetTextBgColor@TextRenderHdc@mui@@UEAAXVColor@Gdiplus@@@Z 000000018007cf30 f   TextRender.obj
 0001:0007bfe0       ?GetCurrFontLineSpacing@TextRenderHdc@mui@@UEAAMXZ 000000018007cfe0 f   TextRender.obj
 0001:0007c020       ?Measure@TextRenderHdc@mui@@UEAA?AURectF@@PEBD_K@Z 000000018007d020 f   TextRender.obj
 0001:0007c0f0       ?Measure@TextRenderHdc@mui@@UEAA?AURectF@@PEB_W_K@Z 000000018007d0f0 f   TextRender.obj
 0001:0007c190       ?Lock@TextRenderHdc@mui@@UEAAXXZ 000000018007d190 f   TextRender.obj
 0001:0007c1e0       ?Unlock@TextRenderHdc@mui@@UEAAXXZ 000000018007d1e0 f   TextRender.obj
 0001:0007c280       ?Draw@TextRenderHdc@mui@@UEAAXPEBD_KURectF@@_N@Z 000000018007d280 f   TextRender.obj
 0001:0007c330       ?Draw@TextRenderHdc@mui@@UEAAXPEB_W_KURectF@@_N@Z 000000018007d330 f   TextRender.obj
 0001:0007c3f0       ??1TextRenderHdc@mui@@UEAA@XZ 000000018007d3f0 f   TextRender.obj
 0001:0007c440       ?CreateTextRender@mui@@YAPEAVITextRender@1@W4TextRenderMethod@1@PEAVGraphics@Gdiplus@@HH@Z 000000018007d440 f   TextRender.obj
 0001:0007c520       ?StringLenForWidth@mui@@YA_KPEAVITextRender@1@PEB_W_KM@Z 000000018007d520 f   TextRender.obj
 0001:0007c760       ?GetSpaceDx@mui@@YAMPEAVITextRender@1@@Z 000000018007d760 f   TextRender.obj
 0001:0007d090       ??0Bitmap@Gdiplus@@QEAA@PEBUtagBITMAPINFO@@PEAX@Z 000000018007e090 f i TextRender.obj
 0001:0007d120       ??0Color@Gdiplus@@QEAA@EEEE@Z 000000018007e120 f i TextRender.obj
 0001:0007d180       ??0ITextRender@mui@@QEAA@XZ 000000018007e180 f i TextRender.obj
 0001:0007d1b0       ??0Region@Gdiplus@@QEAA@XZ 000000018007e1b0 f i TextRender.obj
 0001:0007d200       ??0StringFormat@Gdiplus@@QEAA@HG@Z 000000018007e200 f i TextRender.obj
 0001:0007d260       ??0TextRenderGdi@mui@@AEAA@XZ 000000018007e260 f i TextRender.obj
 0001:0007d390       ??0TextRenderGdiplus@mui@@AEAA@XZ 000000018007e390 f i TextRender.obj
 0001:0007d420       ??0TextRenderHdc@mui@@AEAA@XZ 000000018007e420 f i TextRender.obj
 0001:0007d4f0       ??1ITextRender@mui@@UEAA@XZ 000000018007e4f0 f i TextRender.obj
 0001:0007d500       ??1Region@Gdiplus@@QEAA@XZ 000000018007e500 f i TextRender.obj
 0001:0007d530       ??1StringFormat@Gdiplus@@QEAA@XZ 000000018007e530 f i TextRender.obj
 0001:0007d560       ??_EITextRender@mui@@UEAAPEAXI@Z 000000018007e560 f i TextRender.obj
 0001:0007d560       ??_GITextRender@mui@@UEAAPEAXI@Z 000000018007e560 f i TextRender.obj
 0001:0007d5b0       ??_ETextRenderGdi@mui@@UEAAPEAXI@Z 000000018007e5b0 f i TextRender.obj
 0001:0007d5b0       ??_GTextRenderGdi@mui@@UEAAPEAXI@Z 000000018007e5b0 f i TextRender.obj
 0001:0007d600       ??_ETextRenderGdiplus@mui@@UEAAPEAXI@Z 000000018007e600 f i TextRender.obj
 0001:0007d600       ??_GTextRenderGdiplus@mui@@UEAAPEAXI@Z 000000018007e600 f i TextRender.obj
 0001:0007d650       ??_ETextRenderHdc@mui@@UEAAPEAXI@Z 000000018007e650 f i TextRender.obj
 0001:0007d650       ??_GTextRenderHdc@mui@@UEAAPEAXI@Z 000000018007e650 f i TextRender.obj
 0001:0007d6a0       ?DrawImage@Graphics@Gdiplus@@QEAA?AW4Status@2@PEAVImage@2@HH@Z 000000018007e6a0 f i TextRender.obj
 0001:0007d730       ?DrawString@Graphics@Gdiplus@@QEAA?AW4Status@2@PEB_WHPEBVFont@2@AEBVPointF@2@PEBVStringFormat@2@PEBVBrush@2@@Z 000000018007e730 f i TextRender.obj
 0001:0007d890       ?FromBITMAPINFO@Bitmap@Gdiplus@@SAPEAV12@PEBUtagBITMAPINFO@@PEAX@Z 000000018007e890 f i TextRender.obj
 0001:0007d900       ?GetBlue@Color@Gdiplus@@QEBAEXZ 000000018007e900 f i TextRender.obj
 0001:0007d920       ?GetClip@Graphics@Gdiplus@@QEBA?AW4Status@2@PEAVRegion@2@@Z 000000018007e920 f i TextRender.obj
 0001:0007d970       ?GetGreen@Color@Gdiplus@@QEBAEXZ 000000018007e970 f i TextRender.obj
 0001:0007d990       ?GetHDC@Graphics@Gdiplus@@QEAAPEAUHDC__@@XZ 000000018007e990 f i TextRender.obj
 0001:0007d9e0       ?GetHRGN@Region@Gdiplus@@QEBAPEAUHRGN__@@PEBVGraphics@2@@Z 000000018007e9e0 f i TextRender.obj
 0001:0007da30       ?GetHeight@Font@Gdiplus@@QEBAMPEBVGraphics@2@@Z 000000018007ea30 f i TextRender.obj
 0001:0007dab0       ?GetRed@Color@Gdiplus@@QEBAEXZ 000000018007eab0 f i TextRender.obj
 0001:0007dad0       ?Lock@TextRenderGdiplus@mui@@UEAAXXZ 000000018007ead0 f i TextRender.obj
 0001:0007dae0       ?ReleaseHDC@Graphics@Gdiplus@@QEAAXPEAUHDC__@@@Z 000000018007eae0 f i TextRender.obj
 0001:0007db20       ?SetFormatFlags@StringFormat@Gdiplus@@QEAA?AW4Status@2@H@Z 000000018007eb20 f i TextRender.obj
 0001:0007db60       ?SetNativeRegion@Region@Gdiplus@@IEAAXPEAVGpRegion@2@@Z 000000018007eb60 f i TextRender.obj
 0001:0007db80       ?SetStatus@Region@Gdiplus@@IEBA?AW4Status@2@W432@@Z 000000018007eb80 f i TextRender.obj
 0001:0007dbc0       ?SetStatus@StringFormat@Gdiplus@@IEBA?AW4Status@2@W432@@Z 000000018007ebc0 f i TextRender.obj
 0001:0007dbf0       ?SetTextBgColor@TextRenderGdiplus@mui@@UEAAXVColor@Gdiplus@@@Z 000000018007ebf0 f i TextRender.obj
 0001:0007dc00       ?ToCOLORREF@Color@Gdiplus@@QEBAKXZ 000000018007ec00 f i TextRender.obj
 0001:0007dc70       ?Unlock@TextRenderGdiplus@mui@@UEAAXXZ 000000018007ec70 f i TextRender.obj
 0001:0007dc80       ?GetThumbnail@PreviewBase@@UEAAJIPEAPEAUHBITMAP__@@PEAW4WTS_ALPHATYPE@@@Z 000000018007ec80 f   PdfPreview.obj
 0001:0007e190       ?DoPreview@PreviewBase@@UEAAJXZ 000000018007f190 f   PdfPreview.obj
 0001:0007e470       ?LoadEngine@PdfPreview@@MEAAPEAVEngineBase@@PEAUIStream@@@Z 000000018007f470 f   PdfPreview.obj
 0001:0007e4b0       ?LoadEngine@DjVuPreview@@MEAAPEAVEngineBase@@PEAUIStream@@@Z 000000018007f4b0 f   PdfPreview.obj
 0001:0007e4f0       ??0EpubPreview@@QEAA@PEAJ@Z 000000018007f4f0 f   PdfPreview.obj
 0001:0007e5d0       ??1EpubPreview@@UEAA@XZ    000000018007f5d0 f   PdfPreview.obj
 0001:0007e650       ?LoadEngine@EpubPreview@@MEAAPEAVEngineBase@@PEAUIStream@@@Z 000000018007f650 f   PdfPreview.obj
 0001:0007e690       ??0Fb2Preview@@QEAA@PEAJ@Z 000000018007f690 f   PdfPreview.obj
 0001:0007e760       ??1Fb2Preview@@UEAA@XZ     000000018007f760 f   PdfPreview.obj
 0001:0007e7e0       ?LoadEngine@Fb2Preview@@MEAAPEAVEngineBase@@PEAUIStream@@@Z 000000018007f7e0 f   PdfPreview.obj
 0001:0007e820       ??0MobiPreview@@QEAA@PEAJ@Z 000000018007f820 f   PdfPreview.obj
 0001:0007e8f0       ??1MobiPreview@@UEAA@XZ    000000018007f8f0 f   PdfPreview.obj
 0001:0007e970       ?LoadEngine@MobiPreview@@MEAAPEAVEngineBase@@PEAUIStream@@@Z 000000018007f970 f   PdfPreview.obj
 0001:0007e9b0       ?LoadEngine@CbxPreview@@MEAAPEAVEngineBase@@PEAUIStream@@@Z 000000018007f9b0 f   PdfPreview.obj
 0001:0007e9f0       ?LoadEngine@TgaPreview@@MEAAPEAVEngineBase@@PEAUIStream@@@Z 000000018007f9f0 f   PdfPreview.obj
 0001:0007ea30       ?GetEBookUI@@YAPEAUEBookUI@@XZ 000000018007fa30 f   PdfPreview.obj
 0001:0007f730       ??$QueryInterface@UIPreviewHandlerFrame@@@IUnknown@@QEAAJPEAPEAUIPreviewHandlerFrame@@@Z 0000000180080730 f i PdfPreview.obj
 0001:0007f780       ??$QueryInterface@UIUnknown@@@IUnknown@@QEAAJPEAPEAU0@@Z 0000000180080780 f i PdfPreview.obj
 0001:0007f7d0       ??0?$ScopedComPtr@UIUnknown@@@@QEAA@XZ 00000001800807d0 f i PdfPreview.obj
 0001:0007f7f0       ??0?$ScopedComQIPtr@UIPreviewHandlerFrame@@@@QEAA@PEAUIUnknown@@@Z 00000001800807f0 f i PdfPreview.obj
 0001:0007f850       ??0GdiplusStartupInput@Gdiplus@@QEAA@P6AXW4DebugEventLevel@1@PEAD@ZHH@Z 0000000180080850 f i PdfPreview.obj
 0001:0007f8b0       ??0IInitializeWithStream@@QEAA@XZ 00000001800808b0 f i PdfPreview.obj
 0001:0007f8e0       ??0IObjectWithSite@@QEAA@XZ 00000001800808e0 f i PdfPreview.obj
 0001:0007f910       ??0IOleWindow@@QEAA@XZ     0000000180080910 f i PdfPreview.obj
 0001:0007f940       ??0IPreviewHandler@@QEAA@XZ 0000000180080940 f i PdfPreview.obj
 0001:0007f970       ??0IThumbnailProvider@@QEAA@XZ 0000000180080970 f i PdfPreview.obj
 0001:0007f9a0       ??0IUnknown@@QEAA@XZ       00000001800809a0 f i PdfPreview.obj
 0001:0007f9b0       ??0PageRenderer@@QEAA@PEAVEngineBase@@PEAUHWND__@@@Z 00000001800809b0 f i PdfPreview.obj
 0001:0007faf0       ??0PreviewBase@@QEAA@PEAJPEBD@Z 0000000180080af0 f i PdfPreview.obj
 0001:0007fcb0       ??0ScopedCom@@QEAA@XZ      0000000180080cb0 f i PdfPreview.obj
 0001:0007fce0       ??0ScopedGdiPlus@@QEAA@_N@Z 0000000180080ce0 f i PdfPreview.obj
 0001:0007fe00       ??0Size@@QEAA@XZ           0000000180080e00 f i PdfPreview.obj
 0001:0007fe30       ??1?$ScopedComPtr@UIUnknown@@@@QEAA@XZ 0000000180080e30 f i PdfPreview.obj
 0001:0007fe70       ??1?$ScopedComQIPtr@UIPreviewHandlerFrame@@@@QEAA@XZ 0000000180080e70 f i PdfPreview.obj
 0001:0007feb0       ??1PageRenderer@@QEAA@XZ   0000000180080eb0 f i PdfPreview.obj
 0001:0007ff60       ??1PreviewBase@@UEAA@XZ    0000000180080f60 f i PdfPreview.obj
 0001:00080070       ??1ScopedCom@@QEAA@XZ      0000000180081070 f i PdfPreview.obj
 0001:00080090       ??1ScopedGdiPlus@@QEAA@XZ  0000000180081090 f i PdfPreview.obj
 0001:000800f0       ??4?$ScopedComPtr@UIUnknown@@@@QEAAAEAV0@PEAUIUnknown@@@Z 00000001800810f0 f i PdfPreview.obj
 0001:00080150       ??B?$ScopedComPtr@UIUnknown@@@@QEBAPEAUIUnknown@@XZ 0000000180081150 f i PdfPreview.obj
 0001:00080170       ??B?$ScopedComQIPtr@UIPreviewHandlerFrame@@@@QEBAPEAUIPreviewHandlerFrame@@XZ 0000000180081170 f i PdfPreview.obj
 0001:00080190       ??C?$ScopedComPtr@UIUnknown@@@@QEBAPEAUIUnknown@@XZ 0000000180081190 f i PdfPreview.obj
 0001:000801b0       ??C?$ScopedComQIPtr@UIPreviewHandlerFrame@@@@QEBAPEAUIPreviewHandlerFrame@@XZ 00000001800811b0 f i PdfPreview.obj
 0001:000801d0       ??I?$ScopedComPtr@UIUnknown@@@@QEAAPEAPEAUIUnknown@@XZ 00000001800811d0 f i PdfPreview.obj
 0001:000801e0       ??_EEpubPreview@@UEAAPEAXI@Z 00000001800811e0 f i PdfPreview.obj
 0001:000801e0       ??_GEpubPreview@@UEAAPEAXI@Z 00000001800811e0 f i PdfPreview.obj
 0001:00080230       ??_EFb2Preview@@UEAAPEAXI@Z 0000000180081230 f i PdfPreview.obj
 0001:00080230       ??_GFb2Preview@@UEAAPEAXI@Z 0000000180081230 f i PdfPreview.obj
 0001:00080280       ??_EMobiPreview@@UEAAPEAXI@Z 0000000180081280 f i PdfPreview.obj
 0001:00080280       ??_GMobiPreview@@UEAAPEAXI@Z 0000000180081280 f i PdfPreview.obj
 0001:000802d0       ??_GPageRenderer@@QEAAPEAXI@Z 00000001800812d0 f i PdfPreview.obj
 0001:00080320       ??_EPreviewBase@@UEAAPEAXI@Z 0000000180081320 f i PdfPreview.obj
 0001:00080320       ??_GPreviewBase@@UEAAPEAXI@Z 0000000180081320 f i PdfPreview.obj
 0001:00080370       ??_GScopedGdiPlus@@QEAAPEAXI@Z 0000000180081370 f i PdfPreview.obj
 0001:000803c0       ?AddRef@PreviewBase@@UEAAKXZ 00000001800813c0 f i PdfPreview.obj
 0001:000803e4       ?AddRef@PreviewBase@@W7EAAKXZ 00000001800813e4 f i PdfPreview.obj
 0001:000803f0       ?AddRef@PreviewBase@@WBA@EAAKXZ 00000001800813f0 f i PdfPreview.obj
 0001:000803fc       ?AddRef@PreviewBase@@WBI@EAAKXZ 00000001800813fc f i PdfPreview.obj
 0001:00080408       ?AddRef@PreviewBase@@WCA@EAAKXZ 0000000180081408 f i PdfPreview.obj
 0001:00080420       ?ContextSensitiveHelp@PreviewBase@@UEAAJH@Z 0000000180081420 f i PdfPreview.obj
 0001:00080440       ?GetEngine@PreviewBase@@QEAAPEAVEngineBase@@XZ 0000000180081440 f i PdfPreview.obj
 0001:000804f0       ?GetPageRect@PageRenderer@@QEAA?AURectF@@H@Z 00000001800814f0 f i PdfPreview.obj
 0001:00080690       ?GetSite@PreviewBase@@UEAAJAEBU_GUID@@PEAPEAX@Z 0000000180081690 f i PdfPreview.obj
 0001:00080740       ?GetWindow@PreviewBase@@UEAAJPEAPEAUHWND__@@@Z 0000000180081740 f i PdfPreview.obj
 0001:00080790       ?Initialize@PreviewBase@@UEAAJPEAUIStream@@K@Z 0000000180081790 f i PdfPreview.obj
 0001:00080830       ?QueryFocus@PreviewBase@@UEAAJPEAPEAUHWND__@@@Z 0000000180081830 f i PdfPreview.obj
 0001:00080890       ?QueryInterface@PreviewBase@@UEAAJAEBU_GUID@@PEAPEAX@Z 0000000180081890 f i PdfPreview.obj
 0001:000808d0       ?QueryInterface@PreviewBase@@W7EAAJAEBU_GUID@@PEAPEAX@Z 00000001800818d0 f i PdfPreview.obj
 0001:000808dc       ?QueryInterface@PreviewBase@@WBA@EAAJAEBU_GUID@@PEAPEAX@Z 00000001800818dc f i PdfPreview.obj
 0001:000808e8       ?QueryInterface@PreviewBase@@WBI@EAAJAEBU_GUID@@PEAPEAX@Z 00000001800818e8 f i PdfPreview.obj
 0001:000808f4       ?QueryInterface@PreviewBase@@WCA@EAAJAEBU_GUID@@PEAPEAX@Z 00000001800818f4 f i PdfPreview.obj
 0001:00080900       ?Release@PreviewBase@@UEAAKXZ 0000000180081900 f i PdfPreview.obj
 0001:00080994       ?Release@PreviewBase@@W7EAAKXZ 0000000180081994 f i PdfPreview.obj
 0001:000809a0       ?Release@PreviewBase@@WBA@EAAKXZ 00000001800819a0 f i PdfPreview.obj
 0001:000809ac       ?Release@PreviewBase@@WBI@EAAKXZ 00000001800819ac f i PdfPreview.obj
 0001:000809b8       ?Release@PreviewBase@@WCA@EAAKXZ 00000001800819b8 f i PdfPreview.obj
 0001:000809d0       ?Render@PageRenderer@@QEAAXPEAUHDC__@@URect@@HM@Z 00000001800819d0 f i PdfPreview.obj
 0001:00080ca0       ?RenderThread@PageRenderer@@KAKPEAX@Z 0000000180081ca0 f i PdfPreview.obj
 0001:00080ff0       ?SetFocus@PreviewBase@@UEAAJXZ 0000000180081ff0 f i PdfPreview.obj
 0001:00081030       ?SetRect@PreviewBase@@UEAAJPEBUtagRECT@@@Z 0000000180082030 f i PdfPreview.obj
 0001:00081190       ?SetSite@PreviewBase@@UEAAJPEAUIUnknown@@@Z 0000000180082190 f i PdfPreview.obj
 0001:00081200       ?SetWindow@PreviewBase@@UEAAJPEAUHWND__@@PEBUtagRECT@@@Z 0000000180082200 f i PdfPreview.obj
 0001:00081280       ?TranslateAcceleratorW@PreviewBase@@UEAAJPEAUtagMSG@@@Z 0000000180082280 f i PdfPreview.obj
 0001:00081370       ?Unload@PreviewBase@@UEAAJXZ 0000000180082370 f i PdfPreview.obj
 0001:000813f0       HRESULT_FROM_WIN32         00000001800823f0 f i PdfPreview.obj
 0001:00081440       DllGetClassObject          0000000180082440 f   PdfPreviewDll.obj
 0001:00081530       DllCanUnloadNow            0000000180082530 f   PdfPreviewDll.obj
 0001:00081560       DllInstall                 0000000180082560 f   PdfPreviewDll.obj
 0001:00081610       DllMain                    0000000180082610 f   PdfPreviewDll.obj
 0001:00081690       DllRegisterServer          0000000180082690 f   PdfPreviewDll.obj
 0001:00081710       DllUnregisterServer        0000000180082710 f   PdfPreviewDll.obj
 0001:00081820       ??0?$ScopedComPtr@UIInitializeWithStream@@@@QEAA@XZ 0000000180082820 f i PdfPreviewDll.obj
 0001:00081840       ??0?$ScopedComPtr@VPreviewClassFactory@@@@QEAA@PEAVPreviewClassFactory@@@Z 0000000180082840 f i PdfPreviewDll.obj
 0001:00081870       ??0CbxPreview@@QEAA@PEAJ@Z 0000000180082870 f i PdfPreviewDll.obj
 0001:00081960       ??0DjVuPreview@@QEAA@PEAJ@Z 0000000180082960 f i PdfPreviewDll.obj
 0001:00081a50       ??0IClassFactory@@QEAA@XZ  0000000180082a50 f i PdfPreviewDll.obj
 0001:00081a80       ??0PdfPreview@@QEAA@PEAJ@Z 0000000180082a80 f i PdfPreviewDll.obj
 0001:00081b20       ??0PreviewClassFactory@@QEAA@AEBU_GUID@@@Z 0000000180082b20 f i PdfPreviewDll.obj
 0001:00081ba0       ??0TgaPreview@@QEAA@PEAJ@Z 0000000180082ba0 f i PdfPreviewDll.obj
 0001:00081c90       ??1?$ScopedComPtr@UIInitializeWithStream@@@@QEAA@XZ 0000000180082c90 f i PdfPreviewDll.obj
 0001:00081cd0       ??1?$ScopedComPtr@VPreviewClassFactory@@@@QEAA@XZ 0000000180082cd0 f i PdfPreviewDll.obj
 0001:00081d10       ??1CbxPreview@@UEAA@XZ     0000000180082d10 f i PdfPreviewDll.obj
 0001:00081d30       ??1DjVuPreview@@UEAA@XZ    0000000180082d30 f i PdfPreviewDll.obj
 0001:00081d50       ??1PdfPreview@@UEAA@XZ     0000000180082d50 f i PdfPreviewDll.obj
 0001:00081d70       ??1PreviewClassFactory@@QEAA@XZ 0000000180082d70 f i PdfPreviewDll.obj
 0001:00081da0       ??1TgaPreview@@UEAA@XZ     0000000180082da0 f i PdfPreviewDll.obj
 0001:00081dc0       ??4?$ScopedComPtr@UIInitializeWithStream@@@@QEAAAEAV0@PEAUIInitializeWithStream@@@Z 0000000180082dc0 f i PdfPreviewDll.obj
 0001:00081e20       ??B?$ScopedComPtr@UIInitializeWithStream@@@@QEBAPEAUIInitializeWithStream@@XZ 0000000180082e20 f i PdfPreviewDll.obj
 0001:00081e40       ??B?$ScopedComPtr@VPreviewClassFactory@@@@QEBAPEAVPreviewClassFactory@@XZ 0000000180082e40 f i PdfPreviewDll.obj
 0001:00081e60       ??C?$ScopedComPtr@UIInitializeWithStream@@@@QEBAPEAUIInitializeWithStream@@XZ 0000000180082e60 f i PdfPreviewDll.obj
 0001:00081e80       ??C?$ScopedComPtr@VPreviewClassFactory@@@@QEBAPEAVPreviewClassFactory@@XZ 0000000180082e80 f i PdfPreviewDll.obj
 0001:00081ea0       ??_ECbxPreview@@UEAAPEAXI@Z 0000000180082ea0 f i PdfPreviewDll.obj
 0001:00081ea0       ??_GCbxPreview@@UEAAPEAXI@Z 0000000180082ea0 f i PdfPreviewDll.obj
 0001:00081ef0       ??_EDjVuPreview@@UEAAPEAXI@Z 0000000180082ef0 f i PdfPreviewDll.obj
 0001:00081ef0       ??_GDjVuPreview@@UEAAPEAXI@Z 0000000180082ef0 f i PdfPreviewDll.obj
 0001:00081f40       ??_EPdfPreview@@UEAAPEAXI@Z 0000000180082f40 f i PdfPreviewDll.obj
 0001:00081f40       ??_GPdfPreview@@UEAAPEAXI@Z 0000000180082f40 f i PdfPreviewDll.obj
 0001:00081f90       ??_GPreviewClassFactory@@QEAAPEAXI@Z 0000000180082f90 f i PdfPreviewDll.obj
 0001:00081fe0       ??_ETgaPreview@@UEAAPEAXI@Z 0000000180082fe0 f i PdfPreviewDll.obj
 0001:00081fe0       ??_GTgaPreview@@UEAAPEAXI@Z 0000000180082fe0 f i PdfPreviewDll.obj
 0001:00082030       ?AddRef@PreviewClassFactory@@UEAAKXZ 0000000180083030 f i PdfPreviewDll.obj
 0001:00082060       ?CreateInstance@PreviewClassFactory@@UEAAJPEAUIUnknown@@AEBU_GUID@@PEAPEAX@Z 0000000180083060 f i PdfPreviewDll.obj
 0001:000828a0       ?LockServer@PreviewClassFactory@@UEAAJH@Z 00000001800838a0 f i PdfPreviewDll.obj
 0001:000828e0       ?QueryInterface@PreviewClassFactory@@UEAAJAEBU_GUID@@PEAPEAX@Z 00000001800838e0 f i PdfPreviewDll.obj
 0001:00082940       ?Release@PreviewClassFactory@@UEAAKXZ 0000000180083940 f i PdfPreviewDll.obj
 0001:000829c0       IsEqualGUID                00000001800839c0 f i PdfPreviewDll.obj
 0001:00082c00       ?log@@YAXPEBD_N@Z          0000000180083c00 f   Log.obj
 0001:00082f60       ?loga@@YAXPEBD@Z           0000000180083f60 f   Log.obj
 0001:00082f90       ?logf@@YAXPEBDZZ           0000000180083f90 f   Log.obj
 0001:00083020       ?logfa@@YAXPEBDZZ          0000000180084020 f   Log.obj
 0001:00083090       ?StartLogToFile@@YAXPEBD_N@Z 0000000180084090 f   Log.obj
 0001:00083100       ?WriteCurrentLogToFile@@YA_NPEBD@Z 0000000180084100 f   Log.obj
 0001:000831a0       ?DestroyLogging@@YAXXZ     00000001800841a0 f   Log.obj
 0001:000834c0       ??0Allocator@@QEAA@XZ      00000001800844c0 f i Log.obj
 0001:000834e0       ??0HeapAllocator@@QEAA@_K@Z 00000001800844e0 f i Log.obj
 0001:00083540       ??0Mutex@@QEAA@XZ          0000000180084540 f i Log.obj
 0001:00083570       ??1Allocator@@UEAA@XZ      0000000180084570 f i Log.obj
 0001:00083580       ??1HeapAllocator@@UEAA@XZ  0000000180084580 f i Log.obj
 0001:000835d0       ??1Mutex@@QEAA@XZ          00000001800845d0 f i Log.obj
 0001:00083600       ??_EAllocator@@UEAAPEAXI@Z 0000000180084600 f i Log.obj
 0001:00083600       ??_GAllocator@@UEAAPEAXI@Z 0000000180084600 f i Log.obj
 0001:00083650       ??_EHeapAllocator@@UEAAPEAXI@Z 0000000180084650 f i Log.obj
 0001:00083650       ??_GHeapAllocator@@UEAAPEAXI@Z 0000000180084650 f i Log.obj
 0001:000836a0       ?Alloc@HeapAllocator@@UEAAPEAX_K@Z 00000001800846a0 f i Log.obj
 0001:000836e0       ?Free@HeapAllocator@@UEAAXPEBX@Z 00000001800846e0 f i Log.obj
 0001:00083720       ?Lock@Mutex@@QEAAXXZ       0000000180084720 f i Log.obj
 0001:00083750       ?Realloc@HeapAllocator@@UEAAPEAXPEAX_K@Z 0000000180084750 f i Log.obj
 0001:00083790       ?Unlock@Mutex@@QEAAXXZ     0000000180084790 f i Log.obj
 0001:000837b4       GdipAlloc                  00000001800847b4 f   gdiplus:gdiplus.dll
 0001:000837ba       GdipFree                   00000001800847ba f   gdiplus:gdiplus.dll
 0001:000837c0       GdipCreateMatrix           00000001800847c0 f   gdiplus:gdiplus.dll
 0001:000837c6       GdipDeleteMatrix           00000001800847c6 f   gdiplus:gdiplus.dll
 0001:000837cc       GdipTranslateMatrix        00000001800847cc f   gdiplus:gdiplus.dll
 0001:000837d2       GdipInvertMatrix           00000001800847d2 f   gdiplus:gdiplus.dll
 0001:000837d8       GdipTransformMatrixPoints  00000001800847d8 f   gdiplus:gdiplus.dll
 0001:000837de       GdipCloneBrush             00000001800847de f   gdiplus:gdiplus.dll
 0001:000837e4       GdipDeleteBrush            00000001800847e4 f   gdiplus:gdiplus.dll
 0001:000837ea       GdipCreateSolidFill        00000001800847ea f   gdiplus:gdiplus.dll
 0001:000837f0       GdipGetImageWidth          00000001800847f0 f   gdiplus:gdiplus.dll
 0001:000837f6       GdipGetImageHeight         00000001800847f6 f   gdiplus:gdiplus.dll
 0001:000837fc       GdipCreateHBITMAPFromBitmap 00000001800847fc f   gdiplus:gdiplus.dll
 0001:00083802       GdipCreateFromHDC          0000000180084802 f   gdiplus:gdiplus.dll
 0001:00083808       GdipDeleteGraphics         0000000180084808 f   gdiplus:gdiplus.dll
 0001:0008380e       GdipSetWorldTransform      000000018008480e f   gdiplus:gdiplus.dll
 0001:00083814       GdipFillRectangleI         0000000180084814 f   gdiplus:gdiplus.dll
 0001:0008381a       GdipDeleteFontFamily       000000018008481a f   gdiplus:gdiplus.dll
 0001:00083820       GdipGetFamilyName          0000000180084820 f   gdiplus:gdiplus.dll
 0001:00083826       GdipGetFamily              0000000180084826 f   gdiplus:gdiplus.dll
 0001:0008382c       GdipCloneImage             000000018008482c f   gdiplus:gdiplus.dll
 0001:00083832       GdipDisposeImage           0000000180084832 f   gdiplus:gdiplus.dll
 0001:00083838       GdipGetImageHorizontalResolution 0000000180084838 f   gdiplus:gdiplus.dll
 0001:0008383e       GdipGetImagePixelFormat    000000018008483e f   gdiplus:gdiplus.dll
 0001:00083844       GdipImageGetFrameCount     0000000180084844 f   gdiplus:gdiplus.dll
 0001:0008384a       GdipImageSelectActiveFrame 000000018008484a f   gdiplus:gdiplus.dll
 0001:00083850       GdipGetPropertyItemSize    0000000180084850 f   gdiplus:gdiplus.dll
 0001:00083856       GdipGetPropertyItem        0000000180084856 f   gdiplus:gdiplus.dll
 0001:0008385c       GdipCloneBitmapAreaI       000000018008485c f   gdiplus:gdiplus.dll
 0001:00083862       GdipBitmapLockBits         0000000180084862 f   gdiplus:gdiplus.dll
 0001:00083868       GdipBitmapUnlockBits       0000000180084868 f   gdiplus:gdiplus.dll
 0001:0008386e       GdipCreateImageAttributes  000000018008486e f   gdiplus:gdiplus.dll
 0001:00083874       GdipDisposeImageAttributes 0000000180084874 f   gdiplus:gdiplus.dll
 0001:0008387a       GdipSetImageAttributesWrapMode 000000018008487a f   gdiplus:gdiplus.dll
 0001:00083880       GdipSetCompositingQuality  0000000180084880 f   gdiplus:gdiplus.dll
 0001:00083886       GdipSetSmoothingMode       0000000180084886 f   gdiplus:gdiplus.dll
 0001:0008388c       GdipSetInterpolationMode   000000018008488c f   gdiplus:gdiplus.dll
 0001:00083892       GdipSetPageUnit            0000000180084892 f   gdiplus:gdiplus.dll
 0001:00083898       GdipDrawImageRectRectI     0000000180084898 f   gdiplus:gdiplus.dll
 0001:0008389e       GdipCreateBitmapFromScan0  000000018008489e f   gdiplus:gdiplus.dll
 0001:000838a4       GdipBitmapSetResolution    00000001800848a4 f   gdiplus:gdiplus.dll
 0001:000838aa       GdipCreatePen1             00000001800848aa f   gdiplus:gdiplus.dll
 0001:000838b0       GdipDeletePen              00000001800848b0 f   gdiplus:gdiplus.dll
 0001:000838b6       GdipDrawLine               00000001800848b6 f   gdiplus:gdiplus.dll
 0001:000838bc       GdipDrawRectangle          00000001800848bc f   gdiplus:gdiplus.dll
 0001:000838c2       GdipDrawImageRectRect      00000001800848c2 f   gdiplus:gdiplus.dll
 0001:000838c8       GdipGetImageGraphicsContext 00000001800848c8 f   gdiplus:gdiplus.dll
 0001:000838ce       GdipSetTextRenderingHint   00000001800848ce f   gdiplus:gdiplus.dll
 0001:000838d4       GdipCreateFontFamilyFromName 00000001800848d4 f   gdiplus:gdiplus.dll
 0001:000838da       GdipGetGenericFontFamilySansSerif 00000001800848da f   gdiplus:gdiplus.dll
 0001:000838e0       GdipCreateFont             00000001800848e0 f   gdiplus:gdiplus.dll
 0001:000838e6       GdipDeleteFont             00000001800848e6 f   gdiplus:gdiplus.dll
 0001:000838ec       GdipGetLogFontW            00000001800848ec f   gdiplus:gdiplus.dll
 0001:000838f2       GdipCreateRegion           00000001800848f2 f   gdiplus:gdiplus.dll
 0001:000838f8       GdipDeleteRegion           00000001800848f8 f   gdiplus:gdiplus.dll
 0001:000838fe       GdipGetRegionHRgn          00000001800848fe f   gdiplus:gdiplus.dll
 0001:00083904       GdipCreateBitmapFromGdiDib 0000000180084904 f   gdiplus:gdiplus.dll
 0001:0008390a       GdipGetDC                  000000018008490a f   gdiplus:gdiplus.dll
 0001:00083910       GdipReleaseDC              0000000180084910 f   gdiplus:gdiplus.dll
 0001:00083916       GdipDrawImageI             0000000180084916 f   gdiplus:gdiplus.dll
 0001:0008391c       GdipGetClip                000000018008491c f   gdiplus:gdiplus.dll
 0001:00083922       GdipGetFontHeight          0000000180084922 f   gdiplus:gdiplus.dll
 0001:00083928       GdipDrawString             0000000180084928 f   gdiplus:gdiplus.dll
 0001:0008392e       GdipCreateStringFormat     000000018008492e f   gdiplus:gdiplus.dll
 0001:00083934       GdipDeleteStringFormat     0000000180084934 f   gdiplus:gdiplus.dll
 0001:0008393a       GdipSetStringFormatFlags   000000018008493a f   gdiplus:gdiplus.dll
 0001:00083940       GdiplusStartup             0000000180084940 f   gdiplus:gdiplus.dll
 0001:00083946       GdiplusShutdown            0000000180084946 f   gdiplus:gdiplus.dll
 0001:0008394c       AlphaBlend                 000000018008494c f   msimg32:MSIMG32.dll
 0001:00083952       QISearch                   0000000180084952 f   shlwapi:SHLWAPI.dll
 0001:00083958       GetACP                     0000000180084958 f   kernel32:KERNEL32.dll
 0001:0008395e       IsDebuggerPresent          000000018008495e f   kernel32:KERNEL32.dll
 0001:00083964       DebugBreak                 0000000180084964 f   kernel32:KERNEL32.dll
 0001:0008396a       InitializeCriticalSection  000000018008496a f   kernel32:KERNEL32.dll
 0001:00083970       EnterCriticalSection       0000000180084970 f   kernel32:KERNEL32.dll
 0001:00083976       LeaveCriticalSection       0000000180084976 f   kernel32:KERNEL32.dll
 0001:0008397c       DeleteCriticalSection      000000018008497c f   kernel32:KERNEL32.dll
 0001:00083982       ReadFile                   0000000180084982 f   kernel32:KERNEL32.dll
 0001:00083988       SetFilePointer             0000000180084988 f   kernel32:KERNEL32.dll
 0001:0008398e       CloseHandle                000000018008498e f   kernel32:KERNEL32.dll
 0001:00083994       CreateFileMappingW         0000000180084994 f   kernel32:KERNEL32.dll
 0001:0008399a       QueryPerformanceCounter    000000018008499a f   kernel32:KERNEL32.dll
 0001:000839a0       QueryPerformanceFrequency  00000001800849a0 f   kernel32:KERNEL32.dll
 0001:000839a6       TryEnterCriticalSection    00000001800849a6 f   kernel32:KERNEL32.dll
 0001:000839ac       GetCurrentThreadId         00000001800849ac f   kernel32:KERNEL32.dll
 0001:000839b2       MultiByteToWideChar        00000001800849b2 f   kernel32:KERNEL32.dll
 0001:000839b8       GetLastError               00000001800849b8 f   kernel32:KERNEL32.dll
 0001:000839be       WaitForSingleObject        00000001800849be f   kernel32:KERNEL32.dll
 0001:000839c4       CreateThread               00000001800849c4 f   kernel32:KERNEL32.dll
 0001:000839ca       CreateFileW                00000001800849ca f   kernel32:KERNEL32.dll
 0001:000839d0       WriteFile                  00000001800849d0 f   kernel32:KERNEL32.dll
 0001:000839d6       OutputDebugStringA         00000001800849d6 f   kernel32:KERNEL32.dll
 0001:000839dc       SetNamedPipeHandleState    00000001800849dc f   kernel32:KERNEL32.dll
 0001:000839e2       HeapCreate                 00000001800849e2 f   kernel32:KERNEL32.dll
 0001:000839e8       HeapDestroy                00000001800849e8 f   kernel32:KERNEL32.dll
 0001:000839ee       HeapAlloc                  00000001800849ee f   kernel32:KERNEL32.dll
 0001:000839f4       HeapReAlloc                00000001800849f4 f   kernel32:KERNEL32.dll
 0001:000839fa       HeapFree                   00000001800849fa f   kernel32:KERNEL32.dll
 0001:00083a00       GetDC                      0000000180084a00 f   user32:USER32.dll
 0001:00083a06       ReleaseDC                  0000000180084a06 f   user32:USER32.dll
 0001:00083a0c       PostMessageW               0000000180084a0c f   user32:USER32.dll
 0001:00083a12       DefWindowProcW             0000000180084a12 f   user32:USER32.dll
 0001:00083a18       RegisterClassExW           0000000180084a18 f   user32:USER32.dll
 0001:00083a1e       CreateWindowExW            0000000180084a1e f   user32:USER32.dll
 0001:00083a24       DestroyWindow              0000000180084a24 f   user32:USER32.dll
 0001:00083a2a       ShowWindow                 0000000180084a2a f   user32:USER32.dll
 0001:00083a30       SetWindowPos               0000000180084a30 f   user32:USER32.dll
 0001:00083a36       SetFocus                   0000000180084a36 f   user32:USER32.dll
 0001:00083a3c       GetFocus                   0000000180084a3c f   user32:USER32.dll
 0001:00083a42       UpdateWindow               0000000180084a42 f   user32:USER32.dll
 0001:00083a48       BeginPaint                 0000000180084a48 f   user32:USER32.dll
 0001:00083a4e       EndPaint                   0000000180084a4e f   user32:USER32.dll
 0001:00083a54       InvalidateRect             0000000180084a54 f   user32:USER32.dll
 0001:00083a5a       GetScrollPos               0000000180084a5a f   user32:USER32.dll
 0001:00083a60       FillRect                   0000000180084a60 f   user32:USER32.dll
 0001:00083a66       GetWindowLongPtrW          0000000180084a66 f   user32:USER32.dll
 0001:00083a6c       SetWindowLongPtrW          0000000180084a6c f   user32:USER32.dll
 0001:00083a72       LoadCursorW                0000000180084a72 f   user32:USER32.dll
 0001:00083a78       SetScrollInfo              0000000180084a78 f   user32:USER32.dll
 0001:00083a7e       GetScrollInfo              0000000180084a7e f   user32:USER32.dll
 0001:00083a84       CreateDIBSection           0000000180084a84 f   gdi32:GDI32.dll
 0001:00083a8a       CreateCompatibleDC         0000000180084a8a f   gdi32:GDI32.dll
 0001:00083a90       DeleteDC                   0000000180084a90 f   gdi32:GDI32.dll
 0001:00083a96       DeleteObject               0000000180084a96 f   gdi32:GDI32.dll
 0001:00083a9c       SelectObject               0000000180084a9c f   gdi32:GDI32.dll
 0001:00083aa2       GetDIBits                  0000000180084aa2 f   gdi32:GDI32.dll
 0001:00083aa8       CreateFontIndirectW        0000000180084aa8 f   gdi32:GDI32.dll
 0001:00083aae       GetTextExtentPoint32W      0000000180084aae f   gdi32:GDI32.dll
 0001:00083ab4       SelectClipRgn              0000000180084ab4 f   gdi32:GDI32.dll
 0001:00083aba       SetBkColor                 0000000180084aba f   gdi32:GDI32.dll
 0001:00083ac0       SetBkMode                  0000000180084ac0 f   gdi32:GDI32.dll
 0001:00083ac6       SetTextColor               0000000180084ac6 f   gdi32:GDI32.dll
 0001:00083acc       ExtTextOutW                0000000180084acc f   gdi32:GDI32.dll
 0001:00083ad2       CreateSolidBrush           0000000180084ad2 f   gdi32:GDI32.dll
 0001:00083ad8       GetStockObject             0000000180084ad8 f   gdi32:GDI32.dll
 0001:00083ade       CoUninitialize             0000000180084ade f   ole32:ole32.dll
 0001:00083ae4       CoInitialize               0000000180084ae4 f   ole32:ole32.dll
 0001:00083af0       ?BreakIfUnderDebugger@@YAXXZ 0000000180084af0 f   utils:BaseUtil.obj
 0001:00083b10       ?AllocZero@@YAPEAX_K0@Z    0000000180084b10 f   utils:BaseUtil.obj
 0001:00083b40       ?limitValue@@YAHHHH@Z      0000000180084b40 f   utils:BaseUtil.obj
 0001:00083bd0       ?limitValue@@YAKKKK@Z      0000000180084bd0 f   utils:BaseUtil.obj
 0001:00083c60       ?limitValue@@YAMMMM@Z      0000000180084c60 f   utils:BaseUtil.obj
 0001:00083d00       ?memdup@@YAPEAXPEBX_K1@Z   0000000180084d00 f   utils:BaseUtil.obj
 0001:00083d70       ?memeq@@YA_NPEBX0_K@Z      0000000180084d70 f   utils:BaseUtil.obj
 0001:00083dc0       ?RoundToPowerOf2@@YA_K_K@Z 0000000180084dc0 f   utils:BaseUtil.obj
 0001:00083e10       ?MurmurHash2@@YAIPEBX_K@Z  0000000180084e10 f   utils:BaseUtil.obj
 0001:00083f80       ?MurmurHashWStrI@@YAIPEB_W@Z 0000000180084f80 f   utils:BaseUtil.obj
 0001:000840a0       ?MurmurHashStrI@@YAIPEBD@Z 00000001800850a0 f   utils:BaseUtil.obj
 0001:00084170       ?RoundUp@@YA_K_K0@Z        0000000180085170 f   utils:BaseUtil.obj
 0001:000841a0       ?RoundUp@@YAHHH@Z          00000001800851a0 f   utils:BaseUtil.obj
 0001:000841e0       ?RoundUp@@YAPEADPEADH@Z    00000001800851e0 f   utils:BaseUtil.obj
 0001:00084240       ?Alloc@Allocator@@SAPEAXPEAU1@_K@Z 0000000180085240 f   utils:BaseUtil.obj
 0001:00084290       ?AllocZero@Allocator@@SAPEAXPEAU1@_K@Z 0000000180085290 f   utils:BaseUtil.obj
 0001:000842e0       ?Free@Allocator@@SAXPEAU1@PEAX@Z 00000001800852e0 f   utils:BaseUtil.obj
 0001:00084340       ?Realloc@Allocator@@SAPEAXPEAU1@PEAX_K@Z 0000000180085340 f   utils:BaseUtil.obj
 0001:000843a0       ?MemDup@Allocator@@SAPEAXPEAU1@PEBX_K2@Z 00000001800853a0 f   utils:BaseUtil.obj
 0001:00084420       ??0PoolAllocator@@QEAA@XZ  0000000180085420 f   utils:BaseUtil.obj
 0001:000844a0       ??1PoolAllocator@@UEAA@XZ  00000001800854a0 f   utils:BaseUtil.obj
 0001:000844f0       ?Realloc@PoolAllocator@@UEAAPEAXPEAX_K@Z 00000001800854f0 f   utils:BaseUtil.obj
 0001:00084520       ?Free@PoolAllocator@@UEAAXPEBX@Z 0000000180085520 f   utils:BaseUtil.obj
 0001:00084540       ?Alloc@PoolAllocator@@UEAAPEAX_K@Z 0000000180085540 f   utils:BaseUtil.obj
 0001:000849a0       ?FreeAll@PoolAllocator@@QEAAXXZ 00000001800859a0 f   utils:BaseUtil.obj
 0001:00084a40       ?Reset@PoolAllocator@@QEAAX_N@Z 0000000180085a40 f   utils:BaseUtil.obj
 0001:00084b30       ?At@PoolAllocator@@QEAAPEAXH@Z 0000000180085b30 f   utils:BaseUtil.obj
 0001:00084d20       ?Set@AtomicInt@@QEAAHH@Z   0000000180085d20 f   utils:BaseUtil.obj
 0001:00084d50       ?Inc@AtomicInt@@QEAAHXZ    0000000180085d50 f   utils:BaseUtil.obj
 0001:00084d70       ?Dec@AtomicInt@@QEAAHXZ    0000000180085d70 f   utils:BaseUtil.obj
 0001:00084d90       ?Add@AtomicInt@@QEAAHH@Z   0000000180085d90 f   utils:BaseUtil.obj
 0001:00084dc0       ?Sub@AtomicInt@@QEAAHH@Z   0000000180085dc0 f   utils:BaseUtil.obj
 0001:00084df0       ?Get@AtomicInt@@QEBAHXZ    0000000180085df0 f   utils:BaseUtil.obj
 0001:00084e20       ?MkFunc0Void@@YA?AUFunc0@@P6AXXZ@Z 0000000180085e20 f   utils:BaseUtil.obj
 0001:00084e80       ?Get@AtomicBool@@QEBA_NXZ  0000000180085e80 f   utils:BaseUtil.obj
 0001:00084ed0       ?Set@AtomicBool@@QEAA_N_N@Z 0000000180085ed0 f   utils:BaseUtil.obj
 0001:00084f30       ?Add@AtomicRefCount@@QEAAHXZ 0000000180085f30 f   utils:BaseUtil.obj
 0001:00084f50       ?Dec@AtomicRefCount@@QEAAHXZ 0000000180085f50 f   utils:BaseUtil.obj
 0001:00085820       ??$swap@H$0A@@std@@YAXAEAH0@Z 0000000180086820 f i utils:BaseUtil.obj
 0001:00085870       ??$swap@K$0A@@std@@YAXAEAK0@Z 0000000180086870 f i utils:BaseUtil.obj
 0001:000858c0       ??0Func0@@QEAA@XZ          00000001800868c0 f i utils:BaseUtil.obj
 0001:000858f0       ??_EPoolAllocator@@UEAAPEAXI@Z 00000001800868f0 f i utils:BaseUtil.obj
 0001:000858f0       ??_GPoolAllocator@@UEAAPEAXI@Z 00000001800868f0 f i utils:BaseUtil.obj
 0001:00085940       _InlineInterlockedAdd      0000000180086940 f i utils:BaseUtil.obj
 0001:00085970       ?isLegalUTF8Sequence@@YA_NPEBE0@Z 0000000180086970 f   utils:StrUtil.obj
 0001:000859c0       ?isLegalUTF8String@@YA_NPEAPEBEPEBE@Z 00000001800869c0 f   utils:StrUtil.obj
 0001:00085a60       ?utf8StrLen@@YAHPEBE@Z     0000000180086a60 f   utils:StrUtil.obj
 0001:00085ae0       ?utf8RuneLen@@YAHPEBE@Z    0000000180086ae0 f   utils:StrUtil.obj
 0001:00085b10       ??0StrSpan@@QEAA@PEBD@Z    0000000180086b10 f   utils:StrUtil.obj
 0001:00085b60       ??0StrSpan@@QEAA@PEBDH@Z   0000000180086b60 f   utils:StrUtil.obj
 0001:00085bd0       ?IsEqual@@YA_NAEBUByteSlice@@0@Z 0000000180086bd0 f   utils:StrUtil.obj
 0001:00085c90       ?Len@str@@YA_KPEB_W@Z      0000000180086c90 f   utils:StrUtil.obj
 0001:00085cd0       ?Len@str@@YA_KPEBD@Z       0000000180086cd0 f   utils:StrUtil.obj
 0001:00085d10       ?Leni@str@@YAHPEB_W@Z      0000000180086d10 f   utils:StrUtil.obj
 0001:00085d50       ?Leni@str@@YAHPEBD@Z       0000000180086d50 f   utils:StrUtil.obj
 0001:00085d90       ?Free@str@@YAXPEBD@Z       0000000180086d90 f   utils:StrUtil.obj
 0001:00085db0       ?Free@str@@YAXPEBE@Z       0000000180086db0 f   utils:StrUtil.obj
 0001:00085dd0       ?Free@str@@YAXAEBUStrSpan@@@Z 0000000180086dd0 f   utils:StrUtil.obj
 0001:00085e00       ?Free@str@@YAXPEB_W@Z      0000000180086e00 f   utils:StrUtil.obj
 0001:00085e20       ?FreePtr@str@@YAXPEAPEBD@Z 0000000180086e20 f   utils:StrUtil.obj
 0001:00085e50       ?FreePtr@str@@YAXPEAPEAD@Z 0000000180086e50 f   utils:StrUtil.obj
 0001:00085e80       ?FreePtr@str@@YAXPEAPEB_W@Z 0000000180086e80 f   utils:StrUtil.obj
 0001:00085eb0       ?FreePtr@str@@YAXPEAPEA_W@Z 0000000180086eb0 f   utils:StrUtil.obj
 0001:00085ee0       ?Dup@str@@YAPEADPEAUAllocator@@PEBD_K@Z 0000000180086ee0 f   utils:StrUtil.obj
 0001:00085f40       ?Dup@str@@YAPEADPEBD_K@Z   0000000180086f40 f   utils:StrUtil.obj
 0001:00085f70       ?Dup@str@@YAPEADAEBUByteSlice@@@Z 0000000180086f70 f   utils:StrUtil.obj
 0001:00085fc0       ?ReplacePtr@str@@YAXPEAPEBDPEBD@Z 0000000180086fc0 f   utils:StrUtil.obj
 0001:00086010       ?ReplacePtr@str@@YAXPEAPEADPEBD@Z 0000000180087010 f   utils:StrUtil.obj
 0001:00086040       ?ReplaceWithCopy@str@@YAXPEAPEBDPEBD@Z 0000000180087040 f   utils:StrUtil.obj
 0001:00086090       ?ReplaceWithCopy@str@@YAXPEAPEBDAEBUByteSlice@@@Z 0000000180087090 f   utils:StrUtil.obj
 0001:00086100       ?ReplaceWithCopy@str@@YAXPEAPEADPEBD@Z 0000000180087100 f   utils:StrUtil.obj
 0001:00086150       ?Join@str@@YAPEADPEAUAllocator@@PEBD11@Z 0000000180087150 f   utils:StrUtil.obj
 0001:00086270       ?Join@str@@YAPEADPEAUAllocator@@PEBD1111@Z 0000000180087270 f   utils:StrUtil.obj
 0001:00086420       ?Join@str@@YAPEADPEBD00@Z  0000000180087420 f   utils:StrUtil.obj
 0001:00086460       ?Eq@str@@YA_NPEBD0@Z       0000000180087460 f   utils:StrUtil.obj
 0001:000864d0       ?Eq@str@@YA_NAEBUByteSlice@@0@Z 00000001800874d0 f   utils:StrUtil.obj
 0001:00086570       ?EqI@str@@YA_NPEBD0@Z      0000000180087570 f   utils:StrUtil.obj
 0001:000865e0       ?EqIS@str@@YA_NPEBD0@Z     00000001800875e0 f   utils:StrUtil.obj
 0001:00086720       ?EqN@str@@YA_NPEBD0_K@Z    0000000180087720 f   utils:StrUtil.obj
 0001:000867a0       ?EqNI@str@@YA_NPEBD0_K@Z   00000001800877a0 f   utils:StrUtil.obj
 0001:00086820       ?IsEmpty@str@@YA_NPEBD@Z   0000000180087820 f   utils:StrUtil.obj
 0001:00086860       ?StartsWith@str@@YA_NPEBD0@Z 0000000180087860 f   utils:StrUtil.obj
 0001:000868a0       ?StartsWith@str@@YA_NPEBEPEBD@Z 00000001800878a0 f   utils:StrUtil.obj
 0001:000868d0       ?StartsWithI@str@@YA_NPEBD0@Z 00000001800878d0 f   utils:StrUtil.obj
 0001:00086950       ?EndsWith@str@@YA_NPEBD0@Z 0000000180087950 f   utils:StrUtil.obj
 0001:000869d0       ?EndsWithI@str@@YA_NPEBD0@Z 00000001800879d0 f   utils:StrUtil.obj
 0001:00086a50       ?EqNIx@str@@YA_NPEBD_K0@Z  0000000180087a50 f   utils:StrUtil.obj
 0001:00086ab0       ?ToLowerInPlace@str@@YAPEADPEAD@Z 0000000180087ab0 f   utils:StrUtil.obj
 0001:00086b10       ?ToLower@str@@YAPEADPEBD@Z 0000000180087b10 f   utils:StrUtil.obj
 0001:00086b50       ?ToUpperInPlace@str@@YAPEADPEAD@Z 0000000180087b50 f   utils:StrUtil.obj
 0001:00086bb0       ?Utf8Encode@str@@YAXAEAPEADH@Z 0000000180087bb0 f   utils:StrUtil.obj
 0001:00086d60       ?IsDigit@str@@YA_ND@Z      0000000180087d60 f   utils:StrUtil.obj
 0001:00086da0       ?IsWs@str@@YA_ND@Z         0000000180087da0 f   utils:StrUtil.obj
 0001:00086de0       ?IsAlNum@str@@YA_ND@Z      0000000180087de0 f   utils:StrUtil.obj
 0001:00086e40       ?FindChar@str@@YAPEBDPEBDD@Z 0000000180087e40 f   utils:StrUtil.obj
 0001:00086e70       ?FindChar@str@@YAPEADPEADD@Z 0000000180087e70 f   utils:StrUtil.obj
 0001:00086ea0       ?FindCharLast@str@@YAPEBDPEBDD@Z 0000000180087ea0 f   utils:StrUtil.obj
 0001:00086ed0       ?FindCharLast@str@@YAPEADPEADD@Z 0000000180087ed0 f   utils:StrUtil.obj
 0001:00086f00       ?Find@str@@YAPEBDPEBD0@Z   0000000180087f00 f   utils:StrUtil.obj
 0001:00086f30       ?FindI@str@@YAPEBDPEBD0@Z  0000000180087f30 f   utils:StrUtil.obj
 0001:00086fe0       ?BufFind@str@@YAHPEBDH0@Z  0000000180087fe0 f   utils:StrUtil.obj
 0001:000870a0       ?Contains@str@@YA_NPEBD0@Z 00000001800880a0 f   utils:StrUtil.obj
 0001:00087100       ?ContainsI@str@@YA_NPEBD0@Z 0000000180088100 f   utils:StrUtil.obj
 0001:00087160       ?BufFmtV@str@@YA_NPEAD_KPEBD0@Z 0000000180088160 f   utils:StrUtil.obj
 0001:000871e0       ?BufFmt@str@@YA_NPEAD_KPEBDZZ 00000001800881e0 f   utils:StrUtil.obj
 0001:00087240       ?FmtVWithAllocator@str@@YAPEADPEAUAllocator@@PEBDPEAD@Z 0000000180088240 f   utils:StrUtil.obj
 0001:000873b0       ?FmtV@str@@YAPEADPEBDPEAD@Z 00000001800883b0 f   utils:StrUtil.obj
 0001:000873e0       ?Format@str@@YAPEADPEBDZZ  00000001800883e0 f   utils:StrUtil.obj
 0001:00087430       ?TrimWSInPlace@str@@YA_KPEADW4TrimOpt@1@@Z 0000000180088430 f   utils:StrUtil.obj
 0001:00087570       ?TrimWsEnd@str@@YAXPEADAEAPEAD@Z 0000000180088570 f   utils:StrUtil.obj
 0001:000875e0       ?TransCharsInPlace@str@@YA_KPEADPEBD1@Z 00000001800885e0 f   utils:StrUtil.obj
 0001:00087680       ?NormalizeWSInPlace@str@@YA_KPEAD@Z 0000000180088680 f   utils:StrUtil.obj
 0001:00087770       ?NormalizeNewlinesInPlace@str@@YA_KPEAD0@Z 0000000180088770 f   utils:StrUtil.obj
 0001:000878d0       ?NormalizeNewlinesInPlace@str@@YA_KPEAD@Z 00000001800888d0 f   utils:StrUtil.obj
 0001:00087910       ?RemoveCharsInPlace@str@@YA_KPEADPEBD@Z 0000000180088910 f   utils:StrUtil.obj
 0001:000879c0       ?BufSet@str@@YAHPEADHPEBD@Z 00000001800889c0 f   utils:StrUtil.obj
 0001:00087ab0       ?BufAppend@str@@YAHPEADHPEBD@Z 0000000180088ab0 f   utils:StrUtil.obj
 0001:00087bb0       ?MemToHex@str@@YAPEADPEBE_K@Z 0000000180088bb0 f   utils:StrUtil.obj
 0001:00087c60       ?HexToMem@str@@YA_NPEBDPEAE_K@Z 0000000180088c60 f   utils:StrUtil.obj
 0001:00087d00       ?Parse@str@@YAPEBDPEBD0ZZ  0000000180088d00 f   utils:StrUtil.obj
 0001:00087d70       ?Parse@str@@YAPEBDPEBD_K0ZZ 0000000180088d70 f   utils:StrUtil.obj
 0001:00087ec0       ?CmpNatural@str@@YAHPEBD0@Z 0000000180088ec0 f   utils:StrUtil.obj
 0001:00088200       ?FormatFloatWithThousandSepTemp@str@@YAPEADNK@Z 0000000180089200 f   utils:StrUtil.obj
 0001:00088520       ?FormatNumWithThousandSepTemp@str@@YAPEAD_JK@Z 0000000180089520 f   utils:StrUtil.obj
 0001:00088740       ?FormatSizeShortTemp@str@@YAPEAD_JQEAPEBD@Z 0000000180089740 f   utils:StrUtil.obj
 0001:00088920       ?FormatFileSizeTemp@str@@YAPEAD_J@Z 0000000180089920 f   utils:StrUtil.obj
 0001:00088ae0       ?FormatRomanNumeralTemp@str@@YAPEADH@Z 0000000180089ae0 f   utils:StrUtil.obj
 0001:00088bf0       ?IsEmptyOrWhiteSpace@str@@YA_NPEBD@Z 0000000180089bf0 f   utils:StrUtil.obj
 0001:00088c60       ?Skip@str@@YA_NAEAPEBDPEBD@Z 0000000180089c60 f   utils:StrUtil.obj
 0001:00088cc0       ?SkipChar@str@@YAPEBDPEBDD@Z 0000000180089cc0 f   utils:StrUtil.obj
 0001:00088d10       ?Dup@str@@YAPEA_WPEAUAllocator@@PEB_W_K@Z 0000000180089d10 f   utils:StrUtil.obj
 0001:00088d70       ?Dup@str@@YAPEA_WPEB_W_K@Z 0000000180089d70 f   utils:StrUtil.obj
 0001:00088da0       ?Join@str@@YAPEA_WPEB_W00@Z 0000000180089da0 f   utils:StrUtil.obj
 0001:00088de0       ?Join@str@@YAPEA_WPEAUAllocator@@PEB_W11@Z 0000000180089de0 f   utils:StrUtil.obj
 0001:00088f00       ?Eq@str@@YA_NPEB_W0@Z      0000000180089f00 f   utils:StrUtil.obj
 0001:00088f70       ?EqI@str@@YA_NPEB_W0@Z     0000000180089f70 f   utils:StrUtil.obj
 0001:00088fe0       ?EqN@str@@YA_NPEB_W0_K@Z   0000000180089fe0 f   utils:StrUtil.obj
 0001:00089060       ?IsEmpty@str@@YA_NPEB_W@Z  000000018008a060 f   utils:StrUtil.obj
 0001:000890a0       ?StartsWith@str@@YA_NPEB_W0@Z 000000018008a0a0 f   utils:StrUtil.obj
 0001:000890e0       ?StartsWithI@str@@YA_NPEB_W0@Z 000000018008a0e0 f   utils:StrUtil.obj
 0001:00089160       ?EndsWith@str@@YA_NPEB_W0@Z 000000018008a160 f   utils:StrUtil.obj
 0001:000891f0       ?EndsWithI@str@@YA_NPEB_W0@Z 000000018008a1f0 f   utils:StrUtil.obj
 0001:00089280       ?ToLower@str@@YAPEA_WPEB_W@Z 000000018008a280 f   utils:StrUtil.obj
 0001:000892c0       ?ToLowerInPlace@str@@YAPEA_WPEA_W@Z 000000018008a2c0 f   utils:StrUtil.obj
 0001:00089320       ?Parse@str@@YAPEB_WPEB_W0ZZ 000000018008a320 f   utils:StrUtil.obj
 0001:000899b0       ?BufSet@str@@YAHPEA_WHPEB_W@Z 000000018008a9b0 f   utils:StrUtil.obj
 0001:00089a80       ?BufSet@str@@YAHPEA_WHPEBD@Z 000000018008aa80 f   utils:StrUtil.obj
 0001:00089ac0       ?NormalizeWSInPlace@str@@YA_KPEA_W@Z 000000018008aac0 f   utils:StrUtil.obj
 0001:00089bd0       ?RemoveCharsInPlace@str@@YA_KPEA_WPEB_W@Z 000000018008abd0 f   utils:StrUtil.obj
 0001:00089c80       ?FindChar@str@@YAPEB_WPEB_W_W@Z 000000018008ac80 f   utils:StrUtil.obj
 0001:00089cb0       ?FindChar@str@@YAPEA_WPEA_W_W@Z 000000018008acb0 f   utils:StrUtil.obj
 0001:00089ce0       ?Find@str@@YAPEB_WPEB_W0@Z 000000018008ace0 f   utils:StrUtil.obj
 0001:00089d10       ?IsWs@str@@YA_N_W@Z        000000018008ad10 f   utils:StrUtil.obj
 0001:00089d50       ?IsDigit@str@@YA_N_W@Z     000000018008ad50 f   utils:StrUtil.obj
 0001:00089d90       ?IsNonCharacter@str@@YA_N_W@Z 000000018008ad90 f   utils:StrUtil.obj
 0001:00089df0       ?TransCharsInPlace@str@@YA_KPEA_WPEB_W1@Z 000000018008adf0 f   utils:StrUtil.obj
 0001:00089ea0       ?Replace@str@@YAPEA_WPEB_W00@Z 000000018008aea0 f   utils:StrUtil.obj
 0001:0008a010       ?ToWCHAR@str@@YAPEA_WPEBD@Z 000000018008b010 f   utils:StrUtil.obj
 0001:0008a040       ?DecodeInPlace@url@@YAXPEAD@Z 000000018008b040 f   utils:StrUtil.obj
 0001:0008a0f0       ?IsAbsolute@url@@YA_NPEBD@Z 000000018008b0f0 f   utils:StrUtil.obj
 0001:0008a160       ?GetFullPathTemp@url@@YAPEADPEBD@Z 000000018008b160 f   utils:StrUtil.obj
 0001:0008a1c0       ?GetFileNameTemp@url@@YAPEADPEBD@Z 000000018008b1c0 f   utils:StrUtil.obj
 0001:0008a2a0       ?Next@seqstrings@@YAXAEAPEBD@Z 000000018008b2a0 f   utils:StrUtil.obj
 0001:0008a2d0       ?Next@seqstrings@@YAXAEAPEBDPEAH@Z 000000018008b2d0 f   utils:StrUtil.obj
 0001:0008a3a0       ?StrToIdx@seqstrings@@YAHPEBD0@Z 000000018008b3a0 f   utils:StrUtil.obj
 0001:0008a420       ?StrToIdxIS@seqstrings@@YAHPEBD0@Z 000000018008b420 f   utils:StrUtil.obj
 0001:0008a4b0       ?IdxToStr@seqstrings@@YAPEBDPEBDH@Z 000000018008b4b0 f   utils:StrUtil.obj
 0001:0008a530       ??0Str@str@@QEAA@_KPEAUAllocator@@@Z 000000018008b530 f   utils:StrUtil.obj
 0001:0008a5c0       ??0Str@str@@QEAA@AEBU01@@Z 000000018008b5c0 f   utils:StrUtil.obj
 0001:0008a690       ??4Str@str@@QEAAAEAU01@AEBU01@@Z 000000018008b690 f   utils:StrUtil.obj
 0001:0008a730       ??0Str@str@@QEAA@PEBD@Z    000000018008b730 f   utils:StrUtil.obj
 0001:0008a7b0       ??1Str@str@@QEAA@XZ        000000018008b7b0 f   utils:StrUtil.obj
 0001:0008a7d0       ?Reset@Str@str@@QEAAXXZ    000000018008b7d0 f   utils:StrUtil.obj
 0001:0008a860       ?at@Str@str@@QEBAAEAD_K@Z  000000018008b860 f   utils:StrUtil.obj
 0001:0008a8c0       ?at@Str@str@@QEBAAEADH@Z   000000018008b8c0 f   utils:StrUtil.obj
 0001:0008a910       ??AStr@str@@QEBAAEADJ@Z    000000018008b910 f   utils:StrUtil.obj
 0001:0008a960       ??AStr@str@@QEBAAEADH@Z    000000018008b960 f   utils:StrUtil.obj
 0001:0008a9b0       ?at@Str@str@@QEBAAEADI@Z   000000018008b9b0 f   utils:StrUtil.obj
 0001:0008a9e0       ??AStr@str@@QEBAAEADI@Z    000000018008b9e0 f   utils:StrUtil.obj
 0001:0008aa10       ?size@Str@str@@QEBA_KXZ    000000018008ba10 f   utils:StrUtil.obj
 0001:0008aa30       ?Size@Str@str@@QEBAHXZ     000000018008ba30 f   utils:StrUtil.obj
 0001:0008aa50       ?InsertAt@Str@str@@QEAA_N_KD@Z 000000018008ba50 f   utils:StrUtil.obj
 0001:0008aab0       ?AppendChar@Str@str@@QEAA_ND@Z 000000018008bab0 f   utils:StrUtil.obj
 0001:0008aaf0       ?Append@Str@str@@QEAA_NPEBD_K@Z 000000018008baf0 f   utils:StrUtil.obj
 0001:0008ab80       ?Append@Str@str@@QEAA_NAEBUStrSpan@@@Z 000000018008bb80 f   utils:StrUtil.obj
 0001:0008abd0       ?Append@Str@str@@QEAA_NAEBU12@@Z 000000018008bbd0 f   utils:StrUtil.obj
 0001:0008ac20       ?RemoveAt@Str@str@@QEAAD_K0@Z 000000018008bc20 f   utils:StrUtil.obj
 0001:0008ad10       ?RemoveLast@Str@str@@QEAADXZ 000000018008bd10 f   utils:StrUtil.obj
 0001:0008ad60       ?Last@Str@str@@QEBAAEADXZ  000000018008bd60 f   utils:StrUtil.obj
 0001:0008adc0       ?StealData@Str@str@@QEAAPEADPEAUAllocator@@@Z 000000018008bdc0 f   utils:StrUtil.obj
 0001:0008ae60       ?LendData@Str@str@@QEBAPEADXZ 000000018008be60 f   utils:StrUtil.obj
 0001:0008ae80       ?Contains@Str@str@@QEAA_NPEBD_K@Z 000000018008be80 f   utils:StrUtil.obj
 0001:0008af80       ?IsEmpty@Str@str@@QEBA_NXZ 000000018008bf80 f   utils:StrUtil.obj
 0001:0008afc0       ?AsByteSlice@Str@str@@QEBA?AUByteSlice@@XZ 000000018008bfc0 f   utils:StrUtil.obj
 0001:0008b010       ?StealAsByteSlice@Str@str@@QEAA?AUByteSlice@@XZ 000000018008c010 f   utils:StrUtil.obj
 0001:0008b070       ?Append@Str@str@@QEAA_NPEBE_K@Z 000000018008c070 f   utils:StrUtil.obj
 0001:0008b0b0       ?AppendSlice@Str@str@@QEAA_NAEBUByteSlice@@@Z 000000018008c0b0 f   utils:StrUtil.obj
 0001:0008b110       ?AppendFmt@Str@str@@QEAAXPEBDZZ 000000018008c110 f   utils:StrUtil.obj
 0001:0008b190       ?Set@Str@str@@QEAAXPEBD@Z  000000018008c190 f   utils:StrUtil.obj
 0001:0008b1d0       ?Get@Str@str@@QEBAPEADXZ   000000018008c1d0 f   utils:StrUtil.obj
 0001:0008b1f0       ?CStr@Str@str@@QEBAPEADXZ  000000018008c1f0 f   utils:StrUtil.obj
 0001:0008b210       ?LastChar@Str@str@@QEBADXZ 000000018008c210 f   utils:StrUtil.obj
 0001:0008b250       ??0WStr@str@@QEAA@_KPEAUAllocator@@@Z 000000018008c250 f   utils:StrUtil.obj
 0001:0008b2d0       ??0WStr@str@@QEAA@AEBU01@@Z 000000018008c2d0 f   utils:StrUtil.obj
 0001:0008b390       ??0WStr@str@@QEAA@PEB_W@Z  000000018008c390 f   utils:StrUtil.obj
 0001:0008b400       ??4WStr@str@@QEAAAEAU01@AEBU01@@Z 000000018008c400 f   utils:StrUtil.obj
 0001:0008b4a0       ??1WStr@str@@QEAA@XZ       000000018008c4a0 f   utils:StrUtil.obj
 0001:0008b4c0       ?Reset@WStr@str@@QEAAXXZ   000000018008c4c0 f   utils:StrUtil.obj
 0001:0008b550       ?at@WStr@str@@QEBAAEA_W_K@Z 000000018008c550 f   utils:StrUtil.obj
 0001:0008b5b0       ?at@WStr@str@@QEBAAEA_WH@Z 000000018008c5b0 f   utils:StrUtil.obj
 0001:0008b600       ??AWStr@str@@QEBAAEA_W_K@Z 000000018008c600 f   utils:StrUtil.obj
 0001:0008b630       ??AWStr@str@@QEBAAEA_WJ@Z  000000018008c630 f   utils:StrUtil.obj
 0001:0008b680       ??AWStr@str@@QEBAAEA_WK@Z  000000018008c680 f   utils:StrUtil.obj
 0001:0008b6b0       ??AWStr@str@@QEBAAEA_WH@Z  000000018008c6b0 f   utils:StrUtil.obj
 0001:0008b700       ?at@WStr@str@@QEBAAEA_WI@Z 000000018008c700 f   utils:StrUtil.obj
 0001:0008b730       ??AWStr@str@@QEBAAEA_WI@Z  000000018008c730 f   utils:StrUtil.obj
 0001:0008b760       ?size@WStr@str@@QEBA_KXZ   000000018008c760 f   utils:StrUtil.obj
 0001:0008b780       ?isize@WStr@str@@QEBAHXZ   000000018008c780 f   utils:StrUtil.obj
 0001:0008b7a0       ?InsertAt@WStr@str@@QEAA_N_KAEB_W@Z 000000018008c7a0 f   utils:StrUtil.obj
 0001:0008b800       ?AppendChar@WStr@str@@QEAA_N_W@Z 000000018008c800 f   utils:StrUtil.obj
 0001:0008b840       ?Append@WStr@str@@QEAA_NPEB_W_K@Z 000000018008c840 f   utils:StrUtil.obj
 0001:0008b8d0       ?RemoveAt@WStr@str@@QEAA_W_K0@Z 000000018008c8d0 f   utils:StrUtil.obj
 0001:0008b9d0       ?RemoveLast@WStr@str@@QEAA_WXZ 000000018008c9d0 f   utils:StrUtil.obj
 0001:0008ba20       ?Last@WStr@str@@QEBAAEA_WXZ 000000018008ca20 f   utils:StrUtil.obj
 0001:0008ba80       ?StealData@WStr@str@@QEAAPEA_WXZ 000000018008ca80 f   utils:StrUtil.obj
 0001:0008bb10       ?LendData@WStr@str@@QEBAPEA_WXZ 000000018008cb10 f   utils:StrUtil.obj
 0001:0008bb30       ?Find@WStr@str@@QEBAHAEB_W_K@Z 000000018008cb30 f   utils:StrUtil.obj
 0001:0008bba0       ?Contains@WStr@str@@QEBA_NAEB_W@Z 000000018008cba0 f   utils:StrUtil.obj
 0001:0008bbf0       ?Remove@WStr@str@@QEAAHAEB_W@Z 000000018008cbf0 f   utils:StrUtil.obj
 0001:0008bc50       ?IsEmpty@WStr@str@@QEBA_NXZ 000000018008cc50 f   utils:StrUtil.obj
 0001:0008bc90       ?Set@WStr@str@@QEAAXPEB_W@Z 000000018008cc90 f   utils:StrUtil.obj
 0001:0008bcd0       ?Get@WStr@str@@QEBAPEA_WXZ 000000018008ccd0 f   utils:StrUtil.obj
 0001:0008bcf0       ?LastChar@WStr@str@@QEBA_WXZ 000000018008ccf0 f   utils:StrUtil.obj
 0001:0008bd30       ?Replace@str@@YA_NAEAUWStr@1@PEB_W1@Z 000000018008cd30 f   utils:StrUtil.obj
 0001:0008bdc0       ?ParseInt@@YAHPEBD@Z       000000018008cdc0 f   utils:StrUtil.obj
 0001:0008beb0       ?IsValidProgramVersion@@YA_NPEBD@Z 000000018008ceb0 f   utils:StrUtil.obj
 0001:0008bf80       ?CompareProgramVersion@@YAHPEBD0@Z 000000018008cf80 f   utils:StrUtil.obj
 0001:0008c210       ?IsEqual@@YA_NAEBUStrSpan@@0@Z 000000018008d210 f   utils:StrUtil.obj
 0001:0008f5c0       ??$AllocArray@D@@YAPEAD_K@Z 00000001800905c0 f i utils:StrUtil.obj
 0001:0008f5f0       ??$AllocArray@D@Allocator@@SAPEADPEAU0@_K@Z 00000001800905f0 f i utils:StrUtil.obj
 0001:0008f630       ??$max@I@std@@YAAEBIAEBI0@Z 0000000180090630 f i utils:StrUtil.obj
 0001:0008f690       ??$min@H@std@@YAAEBHAEBH0@Z 0000000180090690 f i utils:StrUtil.obj
 0001:0008f6f0       ??0?$Span@D@@QEAA@XZ       00000001800906f0 f i utils:StrUtil.obj
 0001:0008f720       ??0Arg@fmt@@QEAA@PEBD@Z    0000000180090720 f i utils:StrUtil.obj
 0001:0008f780       ??0Arg@fmt@@QEAA@_J@Z      0000000180090780 f i utils:StrUtil.obj
 0001:0008f7e0       ?CStr@StrSpan@@QEBAPEADXZ  00000001800907e0 f i utils:StrUtil.obj
 0001:0008f800       ?Len@StrSpan@@QEBAHXZ      0000000180090800 f i utils:StrUtil.obj
 0001:0008f820       ?strchr@@YAPEADQEADH@Z     0000000180090820 f i utils:StrUtil.obj
 0001:0008f850       ?strrchr@@YAPEADQEADH@Z    0000000180090850 f i utils:StrUtil.obj
 0001:0008f880       ?wcschr@@YAPEA_WPEA_W_W@Z  0000000180090880 f i utils:StrUtil.obj
 0001:0008f8b0       __local_stdio_scanf_options 00000001800908b0 f i utils:StrUtil.obj
 0001:0008f8c0       _vsscanf_s_l               00000001800908c0 f i utils:StrUtil.obj
 0001:0008f930       sscanf_s                   0000000180090930 f i utils:StrUtil.obj
 0001:0008f990       vsnprintf                  0000000180090990 f i utils:StrUtil.obj
 0001:0008fa30       vsscanf_s                  0000000180090a30 f i utils:StrUtil.obj
 0001:0008fa70       ?GetTempAllocator@@YAPEAUAllocator@@XZ 0000000180090a70 f   utils:TempAllocator.obj
 0001:0008fb60       ?DestroyTempAllocator@@YAXXZ 0000000180090b60 f   utils:TempAllocator.obj
 0001:0008fbf0       ?ResetTempAllocator@@YAXXZ 0000000180090bf0 f   utils:TempAllocator.obj
 0001:0008fc50       ?DupTemp@str@@YAPEADPEBD_K@Z 0000000180090c50 f   utils:TempAllocator.obj
 0001:0008fc80       ?DupTemp@str@@YAPEA_WPEB_W_K@Z 0000000180090c80 f   utils:TempAllocator.obj
 0001:0008fcb0       ?JoinTemp@str@@YAPEADPEBD00@Z 0000000180090cb0 f   utils:TempAllocator.obj
 0001:0008fcf0       ?JoinTemp@str@@YAPEADPEBD000@Z 0000000180090cf0 f   utils:TempAllocator.obj
 0001:0008fd50       ?JoinTemp@str@@YAPEADPEBD0000@Z 0000000180090d50 f   utils:TempAllocator.obj
 0001:0008fdb0       ?JoinTemp@str@@YAPEA_WPEB_W00@Z 0000000180090db0 f   utils:TempAllocator.obj
 0001:0008fdf0       ?ReplaceTemp@str@@YAPEADPEBD00@Z 0000000180090df0 f   utils:TempAllocator.obj
 0001:00090070       ?ReplaceNoCaseTemp@str@@YAPEADPEBD00@Z 0000000180091070 f   utils:TempAllocator.obj
 0001:00090120       ?FormatTemp@str@@YAPEADPEBDZZ 0000000180091120 f   utils:TempAllocator.obj
 0001:00090190       ?ToUtf8Temp@@YAPEADPEB_W_K@Z 0000000180091190 f   utils:TempAllocator.obj
 0001:00090200       ?ToWStrTemp@@YAPEA_WPEBD_K@Z 0000000180091200 f   utils:TempAllocator.obj
 0001:00090270       ?ToWStrTemp@@YAPEA_WAEBUStr@str@@@Z 0000000180091270 f   utils:TempAllocator.obj
 0001:000904e0       ?StrLess@@YA_NPEBD0@Z      00000001800914e0 f   utils:StrVec.obj
 0001:00090570       ?StrLessNoCase@@YA_NPEBD0@Z 0000000180091570 f   utils:StrVec.obj
 0001:00090600       ?StrLessNatural@@YA_NPEBD0@Z 0000000180091600 f   utils:StrVec.obj
 0001:00090650       ?ToByteSlice@@YA?AUByteSlice@@PEBD@Z 0000000180091650 f   utils:StrVec.obj
 0001:000906a0       ??0StrVec@@QEAA@H@Z        00000001800916a0 f   utils:StrVec.obj
 0001:00090720       ??0StrVec@@QEAA@AEBU0@@Z   0000000180091720 f   utils:StrVec.obj
 0001:000907a0       ??4StrVec@@QEAAAEAU0@AEBU0@@Z 00000001800917a0 f   utils:StrVec.obj
 0001:00090800       ??1StrVec@@QEAA@XZ         0000000180091800 f   utils:StrVec.obj
 0001:00090830       ?Reset@StrVec@@QEAAXPEAUStrVecPage@@@Z 0000000180091830 f   utils:StrVec.obj
 0001:000908c0       ?Size@StrVec@@QEBAHXZ      00000001800918c0 f   utils:StrVec.obj
 0001:000908e0       ?IsEmpty@StrVec@@QEBA_NXZ  00000001800918e0 f   utils:StrVec.obj
 0001:00090920       ?At@StrVec@@QEBAPEADH@Z    0000000180091920 f   utils:StrVec.obj
 0001:000909c0       ?AtSpan@StrVec@@QEBA?AUStrSpan@@H@Z 00000001800919c0 f   utils:StrVec.obj
 0001:00090a70       ?AtDataRaw@StrVec@@QEBAPEAXH@Z 0000000180091a70 f   utils:StrVec.obj
 0001:00090b40       ??AStrVec@@QEBAPEADH@Z     0000000180091b40 f   utils:StrVec.obj
 0001:00090b90       ?Append@StrVec@@QEAAPEADPEBDH@Z 0000000180091b90 f   utils:StrVec.obj
 0001:00090c90       ?SetAt@StrVec@@QEAAPEADHPEBDH@Z 0000000180091c90 f   utils:StrVec.obj
 0001:00090e10       ?InsertAt@StrVec@@QEAAPEADHPEBDH@Z 0000000180091e10 f   utils:StrVec.obj
 0001:00090ff0       ?RemoveAt@StrVec@@QEAAPEADH@Z 0000000180091ff0 f   utils:StrVec.obj
 0001:00091090       ?RemoveAtFast@StrVec@@QEAAPEADH@Z 0000000180092090 f   utils:StrVec.obj
 0001:00091130       ?Remove@StrVec@@QEAA_NPEBD@Z 0000000180092130 f   utils:StrVec.obj
 0001:00091190       ?Find@StrVec@@QEBAHAEBUStrSpan@@H@Z 0000000180092190 f   utils:StrVec.obj
 0001:000912b0       ?FindI@StrVec@@QEBAHAEBUStrSpan@@H@Z 00000001800922b0 f   utils:StrVec.obj
 0001:000913d0       ?Contains@StrVec@@QEBA_NPEBDH@Z 00000001800923d0 f   utils:StrVec.obj
 0001:00091440       ??0iterator@StrVec@@QEAA@PEBU1@H@Z 0000000180092440 f   utils:StrVec.obj
 0001:000914f0       ??Diterator@StrVec@@QEBAPEADXZ 00000001800924f0 f   utils:StrVec.obj
 0001:00091560       ?Span@iterator@StrVec@@QEBA?AUStrSpan@@XZ 0000000180092560 f   utils:StrVec.obj
 0001:000915e0       ??Eiterator@StrVec@@QEAAAEAU01@XZ 00000001800925e0 f   utils:StrVec.obj
 0001:00091610       ??Eiterator@StrVec@@QEAA?AU01@H@Z 0000000180092610 f   utils:StrVec.obj
 0001:00091660       ??Hiterator@StrVec@@QEAAAEAU01@H@Z 0000000180092660 f   utils:StrVec.obj
 0001:00091690       ??8@YA_NAEBUiterator@StrVec@@0@Z 0000000180092690 f   utils:StrVec.obj
 0001:000916f0       ??9@YA_NAEBUiterator@StrVec@@0@Z 00000001800926f0 f   utils:StrVec.obj
 0001:00091750       ?begin@StrVec@@QEBA?AUiterator@1@XZ 0000000180092750 f   utils:StrVec.obj
 0001:00091780       ?end@StrVec@@QEBA?AUiterator@1@XZ 0000000180092780 f   utils:StrVec.obj
 0001:000917c0       ?AppendIfNotExists@@YAHPEAUStrVec@@PEBDH@Z 00000001800927c0 f   utils:StrVec.obj
 0001:00091840       ?Sort@@YAXPEAUStrVec@@P6A_NPEBD1@Z@Z 0000000180092840 f   utils:StrVec.obj
 0001:000918a0       ?SortIndex@@YAXPEAUStrVec@@P6A_NPEBD1@Z@Z 00000001800928a0 f   utils:StrVec.obj
 0001:00091970       ?SortNoCase@@YAXPEAUStrVec@@@Z 0000000180092970 f   utils:StrVec.obj
 0001:000919a0       ?SortNatural@@YAXPEAUStrVec@@@Z 00000001800929a0 f   utils:StrVec.obj
 0001:000919d0       ?Split@@YAHPEAUStrVec@@PEBD1_NH@Z 00000001800929d0 f   utils:StrVec.obj
 0001:00091b60       ?Join@@YAPEADPEAUStrVec@@PEBD@Z 0000000180092b60 f   utils:StrVec.obj
 0001:00091c00       ?JoinTemp@@YAPEADPEAUStrVec@@PEBD@Z 0000000180092c00 f   utils:StrVec.obj
 0001:00091ca0       ?StrVecPageNext@@YAPEAUStrVecPage@@PEAU1@@Z 0000000180092ca0 f   utils:StrVec.obj
 0001:00091cc0       ?StrVecPageSize@@YAHPEAUStrVecPage@@@Z 0000000180092cc0 f   utils:StrVec.obj
 0001:00091ce0       ?At@StrVecPage@@QEBAPEADH@Z 0000000180092ce0 f   utils:StrVec.obj
 0001:00091d20       ?AtSpan@StrVecPage@@QEBA?AUStrSpan@@H@Z 0000000180092d20 f   utils:StrVec.obj
 0001:00091d80       ?AtDataRaw@StrVecPage@@QEBAPEAXH@Z 0000000180092d80 f   utils:StrVec.obj
 0001:00091dc0       ?RemoveAt@StrVecPage@@QEAAPEADH@Z 0000000180092dc0 f   utils:StrVec.obj
 0001:00091ec0       ?RemoveAtFast@StrVecPage@@QEAAPEADH@Z 0000000180092ec0 f   utils:StrVec.obj
 0001:00091fb0       ?AtHelper@StrVecPage@@QEBAPEADHPEAH@Z 0000000180092fb0 f   utils:StrVec.obj
 0001:00092090       ?BytesLeft@StrVecPage@@QEAAHXZ 0000000180093090 f   utils:StrVec.obj
 0001:00092130       ?Append@StrVecPage@@QEAAPEADPEBDH@Z 0000000180093130 f   utils:StrVec.obj
 0001:00092170       ?Append@StrVecPage@@QEAAPEADAEBUStrSpan@@@Z 0000000180093170 f   utils:StrVec.obj
 0001:000921d0       ?SetAt@StrVecPage@@QEAAPEADHPEBDH@Z 00000001800931d0 f   utils:StrVec.obj
 0001:00092340       ?InsertAt@StrVecPage@@QEAAPEADHPEBDH@Z 0000000180093340 f   utils:StrVec.obj
 0001:00093f70       ??$<move>@AEAU?$pair@PEAUStrVecPage@@H@std@@@@YA$$QEAU?$pair@PEAUStrVecPage@@H@std@@AEAU01@@Z 0000000180094f70 f i utils:StrVec.obj
 0001:00093f80       ??$?0AEAPEAHAEAPEAH$0A@@?$pair@PEAHPEAH@std@@QEAA@AEAPEAH0@Z 0000000180094f80 f i utils:StrVec.obj
 0001:00093fd0       ??$?0AEAPEAUStrVecPage@@AEAH$0A@@?$pair@PEAUStrVecPage@@H@std@@QEAA@AEAPEAUStrVecPage@@AEAH@Z 0000000180094fd0 f i utils:StrVec.obj
 0001:00094020       ??$?0AEAPEAUStrVecPage@@H$0A@@?$pair@PEAUStrVecPage@@H@std@@QEAA@AEAPEAUStrVecPage@@$$QEAH@Z 0000000180095020 f i utils:StrVec.obj
 0001:00094070       ??$?0AEAPEA_KAEAPEA_K$0A@@?$pair@PEA_KPEA_K@std@@QEAA@AEAPEA_K0@Z 0000000180095070 f i utils:StrVec.obj
 0001:00094160       ??$AllocArray@H@@YAPEAH_K@Z 0000000180095160 f i utils:StrVec.obj
 0001:00094190       ??$_Adl_verify_range@PEAHPEAH@std@@YAXAEBQEAH0@Z 0000000180095190 f i utils:StrVec.obj
 0001:000941a0       ??$_Adl_verify_range@PEA_KPEA_K@std@@YAXAEBQEA_K0@Z 00000001800951a0 f i utils:StrVec.obj
 0001:000941b0       ??$_Copy_backward_memmove@PEAHPEAH@std@@YAPEAHPEAH00@Z 00000001800951b0 f i utils:StrVec.obj
 0001:00094280       ??$_Copy_backward_memmove@PEA_KPEA_K@std@@YAPEA_KPEA_K00@Z 0000000180095280 f i utils:StrVec.obj
 0001:00094350       ??$_Get_unwrapped@AEBQEAH@std@@YA?A_TAEBQEAH@Z 0000000180095350 f i utils:StrVec.obj
 0001:00094370       ??$_Get_unwrapped@AEBQEA_K@std@@YA?A_TAEBQEA_K@Z 0000000180095370 f i utils:StrVec.obj
 0001:00094cc0       ??$_Move_backward_unchecked@PEAHPEAH@std@@YAPEAHPEAH00@Z 0000000180095cc0 f i utils:StrVec.obj
 0001:00094d60       ??$_Move_backward_unchecked@PEA_KPEA_K@std@@YAPEA_KPEA_K00@Z 0000000180095d60 f i utils:StrVec.obj
 0001:00094e00       ??$_Next_iter@PEAH@std@@YAPEAHPEAH@Z 0000000180095e00 f i utils:StrVec.obj
 0001:00094e20       ??$_Next_iter@PEA_K@std@@YAPEA_KPEA_K@Z 0000000180095e20 f i utils:StrVec.obj
 0001:00095ea0       ??$_Prev_iter@PEAH@std@@YAPEAHPEAH@Z 0000000180096ea0 f i utils:StrVec.obj
 0001:00095ec0       ??$_Prev_iter@PEA_K@std@@YAPEA_KPEA_K@Z 0000000180096ec0 f i utils:StrVec.obj
 0001:00096480       ??$_To_address@PEAH@std@@YA?A_PAEBQEAH@Z 0000000180097480 f i utils:StrVec.obj
 0001:000964b0       ??$_To_address@PEA_K@std@@YA?A_PAEBQEA_K@Z 00000001800974b0 f i utils:StrVec.obj
 0001:000964e0       ??$get@$00PEAUStrVecPage@@H@std@@YA$$QEAH$$QEAU?$pair@PEAUStrVecPage@@H@0@@Z 00000001800974e0 f i utils:StrVec.obj
 0001:00096500       ??$get@$0A@PEAUStrVecPage@@H@std@@YA$$QEAPEAUStrVecPage@@$$QEAU?$pair@PEAUStrVecPage@@H@0@@Z 0000000180097500 f i utils:StrVec.obj
 0001:00096650       ??$swap@_K$0A@@std@@YAXAEA_K0@Z 0000000180097650 f i utils:StrVec.obj
 0001:000966a0       ??$to_address@H@std@@YAPEAHQEAH@Z 00000001800976a0 f i utils:StrVec.obj
 0001:000966b0       ??$to_address@_K@std@@YAPEA_KQEA_K@Z 00000001800976b0 f i utils:StrVec.obj
 0001:000966c0       ??0StrSpan@@QEAA@XZ        00000001800976c0 f i utils:StrVec.obj
 0001:000966f0       ?Size@?$Span@D@@QEBAHXZ    00000001800976f0 f i utils:StrVec.obj
 0001:00096710       ?Utf8ToWStr@strconv@@YAPEA_WPEBD_KPEAUAllocator@@@Z 0000000180097710 f   utils:StrconvUtil.obj
 0001:00096820       ?WStrToUtf8@strconv@@YAPEADPEB_W_KPEAUAllocator@@@Z 0000000180097820 f   utils:StrconvUtil.obj
 0001:00096860       ?WStrToCodePage@strconv@@YAPEADIPEB_W_KPEAUAllocator@@@Z 0000000180097860 f   utils:StrconvUtil.obj
 0001:00096a00       ?ToMultiByteTemp@strconv@@YAPEADPEBDII@Z 0000000180097a00 f   utils:StrconvUtil.obj
 0001:00096b00       ?StrCPToWStr@strconv@@YAPEA_WPEBDIH@Z 0000000180097b00 f   utils:StrconvUtil.obj
 0001:00096be0       ?StrCPToWStrTemp@strconv@@YAPEA_WPEBDIH@Z 0000000180097be0 f   utils:StrconvUtil.obj
 0001:00096cc0       ?StrToUtf8Temp@strconv@@YAPEADPEBDI@Z 0000000180097cc0 f   utils:StrconvUtil.obj
 0001:00096cf0       ?UnknownToUtf8Temp@strconv@@YAPEADPEBD@Z 0000000180097cf0 f   utils:StrconvUtil.obj
 0001:00096f20       ?WStrToAnsi@strconv@@YAPEADPEB_W@Z 0000000180097f20 f   utils:StrconvUtil.obj
 0001:00096f50       ?Utf8ToAnsi@strconv@@YAPEADPEBD@Z 0000000180097f50 f   utils:StrconvUtil.obj
 0001:00096f90       ?AnsiToWStrTemp@strconv@@YAPEA_WPEBD_K@Z 0000000180097f90 f   utils:StrconvUtil.obj
 0001:00096fc0       ?AnsiToUtf8@strconv@@YAPEADPEBD_K@Z 0000000180097fc0 f   utils:StrconvUtil.obj
 0001:00097010       ?ToUtf8@@YAPEADPEB_W_K@Z   0000000180098010 f   utils:StrconvUtil.obj
 0001:00097040       ?ToWStr@@YAPEA_WPEBD_K@Z   0000000180098040 f   utils:StrconvUtil.obj
 0001:000972c0       ??$AllocArray@_W@@YAPEA_W_K@Z 00000001800982c0 f i utils:StrconvUtil.obj
 0001:000972f0       ??$AllocArray@_W@Allocator@@SAPEA_WPEAU0@_K@Z 00000001800982f0 f i utils:StrconvUtil.obj
 0001:00097330       ??$AllocArrayTemp@_W@@YAPEA_W_K@Z 0000000180098330 f i utils:StrconvUtil.obj
 0001:00097370       ?Unpack@ByteReader@@QEBA_NPEAX_KPEBD1_N@Z 0000000180098370 f   utils:ByteReader.obj
 0001:00097680       ??0ByteReader@@QEAA@AEBUByteSlice@@@Z 0000000180098680 f   utils:ByteReader.obj
 0001:000976e0       ??0ByteReader@@QEAA@PEBD_K@Z 00000001800986e0 f   utils:ByteReader.obj
 0001:00097720       ??0ByteReader@@QEAA@PEBE_K@Z 0000000180098720 f   utils:ByteReader.obj
 0001:00097760       ?Byte@ByteReader@@QEBAE_K@Z 0000000180098760 f   utils:ByteReader.obj
 0001:000977a0       ?WordLE@ByteReader@@QEBAG_K@Z 00000001800987a0 f   utils:ByteReader.obj
 0001:00097800       ?WordBE@ByteReader@@QEBAG_K@Z 0000000180098800 f   utils:ByteReader.obj
 0001:00097860       ?Word@ByteReader@@QEBAG_K_N@Z 0000000180098860 f   utils:ByteReader.obj
 0001:000978c0       ?DWordLE@ByteReader@@QEBAI_K@Z 00000001800988c0 f   utils:ByteReader.obj
 0001:00097940       ?DWordBE@ByteReader@@QEBAI_K@Z 0000000180098940 f   utils:ByteReader.obj
 0001:000979c0       ?DWord@ByteReader@@QEBAI_K_N@Z 00000001800989c0 f   utils:ByteReader.obj
 0001:00097a20       ?QWordLE@ByteReader@@QEBA_K_K@Z 0000000180098a20 f   utils:ByteReader.obj
 0001:00097a90       ?QWordBE@ByteReader@@QEBA_K_K@Z 0000000180098a90 f   utils:ByteReader.obj
 0001:00097b00       ?QWord@ByteReader@@QEBA_K_K_N@Z 0000000180098b00 f   utils:ByteReader.obj
 0001:00097b60       ?Find@ByteReader@@QEBAPEBE_KE@Z 0000000180098b60 f   utils:ByteReader.obj
 0001:00097bd0       ?UnpackLE@ByteReader@@QEBA_NPEAX_KPEBD1@Z 0000000180098bd0 f   utils:ByteReader.obj
 0001:00097c20       ?UnpackBE@ByteReader@@QEBA_NPEAX_KPEBD1@Z 0000000180098c20 f   utils:ByteReader.obj
 0001:00097c70       ?Unpack@ByteReader@@QEBA_NPEAX_KPEBD_N1@Z 0000000180098c70 f   utils:ByteReader.obj
 0001:00097f10       ?IsSep@path@@YA_ND@Z       0000000180098f10 f   utils:FileUtil.obj
 0001:00097f50       ?GetExtTemp@path@@YAPEADPEBD@Z 0000000180098f50 f   utils:FileUtil.obj
 0001:00097fa0       ?GetBaseNameTemp@path@@YAPEADPEBD@Z 0000000180098fa0 f   utils:FileUtil.obj
 0001:00098010       ?GetPathNoExtTemp@path@@YAPEADPEBD@Z 0000000180099010 f   utils:FileUtil.obj
 0001:00098080       ?GetDirTemp@path@@YAPEADPEBD@Z 0000000180099080 f   utils:FileUtil.obj
 0001:00098180       ?GetDirTemp@path@@YAPEA_WPEB_W@Z 0000000180099180 f   utils:FileUtil.obj
 0001:00098290       ?Join@path@@YAPEADPEAUAllocator@@PEBD1@Z 0000000180099290 f   utils:FileUtil.obj
 0001:00098320       ?Join@path@@YAPEADPEBD0@Z  0000000180099320 f   utils:FileUtil.obj
 0001:00098350       ?Join@path@@YAPEA_WPEB_W00@Z 0000000180099350 f   utils:FileUtil.obj
 0001:000983a0       ?JoinTemp@path@@YAPEADPEBD00@Z 00000001800993a0 f   utils:FileUtil.obj
 0001:00098470       ?JoinTemp@path@@YAPEA_WPEB_W00@Z 0000000180099470 f   utils:FileUtil.obj
 0001:00098540       ?IsDirectory@path@@YA_NPEBD@Z 0000000180099540 f   utils:FileUtil.obj
 0001:000985b0       ?NormalizeTemp@path@@YAPEADPEBD@Z 00000001800995b0 f   utils:FileUtil.obj
 0001:00098610       ?ShortPathTemp@path@@YAPEADPEBD@Z 0000000180099610 f   utils:FileUtil.obj
 0001:000986c0       ?IsSame@path@@YA_NPEBD0@Z  00000001800996c0 f   utils:FileUtil.obj
 0001:00098930       ?HasVariableDriveLetter@path@@YA_NPEBD@Z 0000000180099930 f   utils:FileUtil.obj
 0001:000989e0       ?IsOnFixedDrive@path@@YA_NPEBD@Z 00000001800999e0 f   utils:FileUtil.obj
 0001:00098aa0       ?IsAbsolute@path@@YA_NPEBD@Z 0000000180099aa0 f   utils:FileUtil.obj
 0001:00098af0       ?Match@path@@YA_NPEBD0@Z   0000000180099af0 f   utils:FileUtil.obj
 0001:00098b70       ?GetType@path@@YA?AW4Type@1@PEBD@Z 0000000180099b70 f   utils:FileUtil.obj
 0001:00098bf0       ?GetTempFilePathTemp@@YAPEADPEBD@Z 0000000180099bf0 f   utils:FileUtil.obj
 0001:00098cf0       ?GetPathInExeDirTemp@@YAPEADPEBD@Z 0000000180099cf0 f   utils:FileUtil.obj
 0001:00098d40       ?Exists@file@@YA_NPEBD@Z   0000000180099d40 f   utils:FileUtil.obj
 0001:00098dd0       ?OpenFILE@file@@YAPEAU_iobuf@@PEBD@Z 0000000180099dd0 f   utils:FileUtil.obj
 0001:00098e40       ?OpenReadOnly@file@@YAPEAXPEBD@Z 0000000180099e40 f   utils:FileUtil.obj
 0001:00098ea0       ?ReadFileWithAllocator@file@@YA?AUByteSlice@@PEBDPEAUAllocator@@@Z 0000000180099ea0 f   utils:FileUtil.obj
 0001:00099150       ?ReadFile@file@@YA?AUByteSlice@@PEBD@Z 000000018009a150 f   utils:FileUtil.obj
 0001:00099180       ?ReadN@file@@YAHPEBDPEAD_K@Z 000000018009a180 f   utils:FileUtil.obj
 0001:00099260       ?WriteFile@file@@YA_NPEBDAEBUByteSlice@@@Z 000000018009a260 f   utils:FileUtil.obj
 0001:000993d0       ?GetSize@file@@YA_JPEBD@Z  000000018009a3d0 f   utils:FileUtil.obj
 0001:000994d0       ?Delete@file@@YA_NPEBD@Z   000000018009a4d0 f   utils:FileUtil.obj
 0001:00099560       ?DeleteFileToTrash@file@@YA_NPEBD@Z 000000018009a560 f   utils:FileUtil.obj
 0001:00099650       ?GetModificationTime@file@@YA?AU_FILETIME@@PEBD@Z 000000018009a650 f   utils:FileUtil.obj
 0001:000996e0       ?SetModificationTime@file@@YA_NPEBDU_FILETIME@@@Z 000000018009a6e0 f   utils:FileUtil.obj
 0001:000997d0       ?GetAttributes@file@@YAKPEBD@Z 000000018009a7d0 f   utils:FileUtil.obj
 0001:00099810       ?SetAttributes@file@@YA_NPEBDK@Z 000000018009a810 f   utils:FileUtil.obj
 0001:00099870       ?StartsWithN@file@@YA_NPEBD0_K@Z 000000018009a870 f   utils:FileUtil.obj
 0001:000998e0       ?StartsWith@file@@YA_NPEBD0@Z 000000018009a8e0 f   utils:FileUtil.obj
 0001:00099920       ?GetZoneIdentifier@file@@YAHPEBD@Z 000000018009a920 f   utils:FileUtil.obj
 0001:00099990       ?SetZoneIdentifier@file@@YA_NPEBDH@Z 000000018009a990 f   utils:FileUtil.obj
 0001:00099a40       ?DeleteZoneIdentifier@file@@YA_NPEBD@Z 000000018009aa40 f   utils:FileUtil.obj
 0001:00099a80       ?Copy@file@@YA_NPEBD0_N@Z  000000018009aa80 f   utils:FileUtil.obj
 0001:00099b00       ?Exists@dir@@YA_NPEB_W@Z   000000018009ab00 f   utils:FileUtil.obj
 0001:00099b80       ?Exists@dir@@YA_NPEBD@Z    000000018009ab80 f   utils:FileUtil.obj
 0001:00099c20       ?Create@dir@@YA_NPEBD@Z    000000018009ac20 f   utils:FileUtil.obj
 0001:00099c90       ?CreateForFile@dir@@YA_NPEBD@Z 000000018009ac90 f   utils:FileUtil.obj
 0001:00099cc0       ?CreateAll@dir@@YA_NPEBD@Z 000000018009acc0 f   utils:FileUtil.obj
 0001:00099d20       ?RemoveAll@dir@@YA_NPEBD@Z 000000018009ad20 f   utils:FileUtil.obj
 0001:00099e10       ?FileTimeEq@@YA_NAEBU_FILETIME@@0@Z 000000018009ae10 f   utils:FileUtil.obj
 0001:0009aec0       ??$addOverflows@_K@@YA_N_K0@Z 000000018009bec0 f i utils:FileUtil.obj
 0001:0009af50       ?NameIs@HtmlElement@@QEBA_NPEBD@Z 000000018009bf50 f   utils:TrivialHtmlParser.obj
 0001:0009b000       ?NameIsNS@HtmlElement@@QEBA_NPEBD0@Z 000000018009c000 f   utils:TrivialHtmlParser.obj
 0001:0009b080       ?GetAttribute@HtmlElement@@QEBAPEA_WPEBD@Z 000000018009c080 f   utils:TrivialHtmlParser.obj
 0001:0009b100       ?GetAttributeTemp@HtmlElement@@QEBAPEADPEBD@Z 000000018009c100 f   utils:TrivialHtmlParser.obj
 0001:0009b180       ?GetChildByTag@HtmlElement@@QEBAPEAU1@W4HtmlTag@@H@Z 000000018009c180 f   utils:TrivialHtmlParser.obj
 0001:0009b1f0       ?AllocElement@HtmlParser@@AEAAPEAUHtmlElement@@W4HtmlTag@@PEADPEAU2@@Z 000000018009c1f0 f   utils:TrivialHtmlParser.obj
 0001:0009b2a0       ?AllocAttr@HtmlParser@@AEAAPEAUHtmlAttr@@PEADPEAU2@@Z 000000018009c2a0 f   utils:TrivialHtmlParser.obj
 0001:0009b320       ?CloseTag@HtmlParser@@AEAAXPEAUHtmlToken@@@Z 000000018009c320 f   utils:TrivialHtmlParser.obj
 0001:0009b410       ?StartTag@HtmlParser@@AEAAXPEAUHtmlToken@@@Z 000000018009c410 f   utils:TrivialHtmlParser.obj
 0001:0009b530       ?AppendAttr@HtmlParser@@AEAAXPEAD0@Z 000000018009c530 f   utils:TrivialHtmlParser.obj
 0001:0009b5a0       ?FindParent@HtmlParser@@AEAAPEAUHtmlElement@@PEAUHtmlToken@@@Z 000000018009c5a0 f   utils:TrivialHtmlParser.obj
 0001:0009b610       ?Reset@HtmlParser@@AEAAXXZ 000000018009c610 f   utils:TrivialHtmlParser.obj
 0001:0009b6c0       ??0HtmlParser@@QEAA@XZ     000000018009c6c0 f   utils:TrivialHtmlParser.obj
 0001:0009b760       ??1HtmlParser@@QEAA@XZ     000000018009c760 f   utils:TrivialHtmlParser.obj
 0001:0009b7a0       ?Parse@HtmlParser@@QEAAPEAUHtmlElement@@AEBUByteSlice@@I@Z 000000018009c7a0 f   utils:TrivialHtmlParser.obj
 0001:0009b810       ?ParseInPlace@HtmlParser@@QEAAPEAUHtmlElement@@AEBUByteSlice@@I@Z 000000018009c810 f   utils:TrivialHtmlParser.obj
 0001:0009bac0       ?ElementsCount@HtmlParser@@QEBA_KXZ 000000018009cac0 f   utils:TrivialHtmlParser.obj
 0001:0009bae0       ?TotalAttrCount@HtmlParser@@QEBA_KXZ 000000018009cae0 f   utils:TrivialHtmlParser.obj
 0001:0009bb00       ?FindElementByName@HtmlParser@@QEAAPEAUHtmlElement@@PEBDPEAU2@@Z 000000018009cb00 f   utils:TrivialHtmlParser.obj
 0001:0009bb40       ?FindElementByNameNS@HtmlParser@@QEAAPEAUHtmlElement@@PEBD0PEAU2@@Z 000000018009cb40 f   utils:TrivialHtmlParser.obj
 0001:0009bc70       ?DecodeHtmlEntitites@@YAPEA_WPEBDI@Z 000000018009cc70 f   utils:TrivialHtmlParser.obj
 0001:0009be90       ?DecodeHtmlEntititesTemp@@YAPEADPEBDI@Z 000000018009ce90 f   utils:TrivialHtmlParser.obj
 0001:0009c2f0       ??$AllocStruct@UHtmlAttr@@@PoolAllocator@@QEAAPEAUHtmlAttr@@XZ 000000018009d2f0 f i utils:TrivialHtmlParser.obj
 0001:0009c330       ??$AllocStruct@UHtmlElement@@@PoolAllocator@@QEAAPEAUHtmlElement@@XZ 000000018009d330 f i utils:TrivialHtmlParser.obj
 0001:0009c370       ?ParseError@HtmlParser@@AEAAPEAUHtmlElement@@W4HtmlParseError@@@Z 000000018009d370 f i utils:TrivialHtmlParser.obj
 0001:0009c3a0       ?FindEmbeddedPdfFileStreamNo@@YAPEBDPEBD@Z 000000018009d3a0 f   utils:GuessFileType.obj
 0001:0009c450       ?GuessFileTypeFromContent@@YAPEBDPEBD@Z 000000018009d450 f   utils:GuessFileType.obj
 0001:0009c640       ?GuessFileTypeFromContent@@YAPEBDAEBUByteSlice@@@Z 000000018009d640 f   utils:GuessFileType.obj
 0001:0009c800       ?GuessFileTypeFromName@@YAPEBDPEBD@Z 000000018009d800 f   utils:GuessFileType.obj
 0001:0009c880       ?GuessFileType@@YAPEBDPEBD_N@Z 000000018009d880 f   utils:GuessFileType.obj
 0001:0009c8e0       ?GfxFileExtFromData@@YAPEBDAEBUByteSlice@@@Z 000000018009d8e0 f   utils:GuessFileType.obj
 0001:0009c910       ?GfxFileExtFromKind@@YAPEBDPEBD@Z 000000018009d910 f   utils:GuessFileType.obj
 0001:0009c950       ?KindInArray@@YA_NPEAPEBDHPEBD@Z 000000018009d950 f   utils:GuessFileType.obj
 0001:0009d400       ?GetWinFileTime@FileInfo@MultiFormatArchive@@QEBA?AU_FILETIME@@XZ 000000018009e400 f   utils:Archive.obj
 0001:0009d450       ??0MultiFormatArchive@@QEAA@P6APEAUar_archive_s@@PEAUar_stream_s@@@ZW4Format@0@@Z 000000018009e450 f   utils:Archive.obj
 0001:0009d530       ??1MultiFormatArchive@@QEAA@XZ 000000018009e530 f   utils:Archive.obj
 0001:0009d5f0       ?Open@MultiFormatArchive@@QEAA_NPEAUar_stream_s@@PEBD@Z 000000018009e5f0 f   utils:Archive.obj
 0001:0009d920       ?GetFileInfos@MultiFormatArchive@@QEAAAEBV?$Vec@PEAUFileInfo@MultiFormatArchive@@@@XZ 000000018009e920 f   utils:Archive.obj
 0001:0009d940       ?GetFileId@MultiFormatArchive@@QEAA_KPEBD@Z 000000018009e940 f   utils:Archive.obj
 0001:0009d970       ?GetFileDataByName@MultiFormatArchive@@QEAA?AUByteSlice@@PEBD@Z 000000018009e970 f   utils:Archive.obj
 0001:0009d9d0       ?GetFileDataById@MultiFormatArchive@@QEAA?AUByteSlice@@_K@Z 000000018009e9d0 f   utils:Archive.obj
 0001:0009dc90       ?GetComment@MultiFormatArchive@@QEAAPEBDXZ 000000018009ec90 f   utils:Archive.obj
 0001:0009dd50       ?OpenUnrarFallback@MultiFormatArchive@@IEAA_NPEBD@Z 000000018009ed50 f   utils:Archive.obj
 0001:0009e0b0       ?GetFileDataByIdUnarrDll@MultiFormatArchive@@IEAA?AUByteSlice@@_K@Z 000000018009f0b0 f   utils:Archive.obj
 0001:0009e460       ?OpenZipArchive@@YAPEAVMultiFormatArchive@@PEBD_N@Z 000000018009f460 f   utils:Archive.obj
 0001:0009e4f0       ?Open7zArchive@@YAPEAVMultiFormatArchive@@PEBD@Z 000000018009f4f0 f   utils:Archive.obj
 0001:0009e560       ?OpenTarArchive@@YAPEAVMultiFormatArchive@@PEBD@Z 000000018009f560 f   utils:Archive.obj
 0001:0009e5d0       ?OpenRarArchive@@YAPEAVMultiFormatArchive@@PEBD@Z 000000018009f5d0 f   utils:Archive.obj
 0001:0009e640       ?OpenZipArchive@@YAPEAVMultiFormatArchive@@PEAUIStream@@_N@Z 000000018009f640 f   utils:Archive.obj
 0001:0009e6d0       ?Open7zArchive@@YAPEAVMultiFormatArchive@@PEAUIStream@@@Z 000000018009f6d0 f   utils:Archive.obj
 0001:0009e740       ?OpenTarArchive@@YAPEAVMultiFormatArchive@@PEAUIStream@@@Z 000000018009f740 f   utils:Archive.obj
 0001:0009e7b0       ?OpenRarArchive@@YAPEAVMultiFormatArchive@@PEAUIStream@@@Z 000000018009f7b0 f   utils:Archive.obj
 0001:0009e820       ?getFileIdByName@@YA_KAEAV?$Vec@PEAUFileInfo@MultiFormatArchive@@@@PEBD@Z 000000018009f820 f   utils:Archive.obj
 0001:0009f1f0       ??$AllocStruct@UFileInfo@MultiFormatArchive@@@PoolAllocator@@QEAAPEAUFileInfo@MultiFormatArchive@@XZ 00000001800a01f0 f i utils:Archive.obj
 0001:0009f230       ??0Data@@QEAA@XZ           00000001800a0230 f i utils:Archive.obj
 0001:0009f270       ?LoadedUsingUnrarDll@MultiFormatArchive@@IEBA_NXZ 00000001800a0270 f i utils:Archive.obj
 0001:0009f2b0       ?Set@ByteSlice@@QEAAXPEAD_K@Z 00000001800a02b0 f i utils:Archive.obj
 0001:0009f2f0       ?NameIs@AttrInfo@@QEBA_NPEBD@Z 00000001800a02f0 f   utils:HtmlPullParser.obj
 0001:0009f330       ?NameIsNS@AttrInfo@@QEBA_NPEBD0@Z 00000001800a0330 f   utils:HtmlPullParser.obj
 0001:0009f370       ?ValIs@AttrInfo@@QEBA_NPEBD@Z 00000001800a0370 f   utils:HtmlPullParser.obj
 0001:0009f3b0       ?GetReparsePoint@HtmlToken@@QEBAPEBDXZ 00000001800a03b0 f   utils:HtmlPullParser.obj
 0001:0009f460       ?SetTag@HtmlToken@@QEAAXW4TokenType@1@PEBD1@Z 00000001800a0460 f   utils:HtmlPullParser.obj
 0001:0009f520       ?SetError@HtmlToken@@QEAAXW4ParsingError@1@PEBD@Z 00000001800a0520 f   utils:HtmlPullParser.obj
 0001:0009f560       ?SetText@HtmlToken@@QEAAXPEBD0@Z 00000001800a0560 f   utils:HtmlPullParser.obj
 0001:0009f5b0       ?NameIs@HtmlToken@@QEBA_NPEBD@Z 00000001800a05b0 f   utils:HtmlPullParser.obj
 0001:0009f610       ?NameIsNS@HtmlToken@@QEBA_NPEBD0@Z 00000001800a0610 f   utils:HtmlPullParser.obj
 0001:0009f650       ?GetAttrByName@HtmlToken@@QEAAPEAUAttrInfo@@PEBD@Z 00000001800a0650 f   utils:HtmlPullParser.obj
 0001:0009f6c0       ?GetAttrByNameNS@HtmlToken@@QEAAPEAUAttrInfo@@PEBD0@Z 00000001800a06c0 f   utils:HtmlPullParser.obj
 0001:0009f740       ?NextAttr@HtmlToken@@IEAAPEAUAttrInfo@@XZ 00000001800a0740 f   utils:HtmlPullParser.obj
 0001:0009f9a0       ?Next@HtmlPullParser@@QEAAPEAUHtmlToken@@XZ 00000001800a09a0 f   utils:HtmlPullParser.obj
 0001:0009fe90       ?SkipWs@@YA_NAEAPEBDPEBD@Z 00000001800a0e90 f   utils:HtmlPullParser.obj
 0001:0009ff20       ?SkipNonWs@@YA_NAEAPEBDPEBD@Z 00000001800a0f20 f   utils:HtmlPullParser.obj
 0001:0009ffb0       ?SkipUntil@@YA_NAEAPEBDPEBDD@Z 00000001800a0fb0 f   utils:HtmlPullParser.obj
 0001:000a0030       ?SkipUntil@@YA_NAEAPEBDPEBD1@Z 00000001800a1030 f   utils:HtmlPullParser.obj
 0001:000a00c0       ?IsSpaceOnly@@YA_NPEBD0@Z  00000001800a10c0 f   utils:HtmlPullParser.obj
 0001:000a0110       ?HtmlEntityNameToRune@@YAHPEBD_K@Z 00000001800a1110 f   utils:HtmlPullParser.obj
 0001:000a0140       ?HtmlEntityNameToRune@@YAHPEB_W_K@Z 00000001800a1140 f   utils:HtmlPullParser.obj
 0001:000a0200       ?ResolveHtmlEntity@@YAPEBDPEBD_KAEAH@Z 00000001800a1200 f   utils:HtmlPullParser.obj
 0001:000a0350       ?ResolveHtmlEntities@@YAPEBDPEBD0PEAUAllocator@@@Z 00000001800a1350 f   utils:HtmlPullParser.obj
 0001:000a0510       ?ResolveHtmlEntities@@YAPEADPEBD_K@Z 00000001800a1510 f   utils:HtmlPullParser.obj
 0001:000a0570       ?ResolveHtmlEntitiesTemp@@YAPEADPEBD_K@Z 00000001800a1570 f   utils:HtmlPullParser.obj
 0001:000a0710       ?MemAppend@@YAXAEAPEADPEBD_K@Z 00000001800a1710 f   utils:HtmlPullParser.obj
 0001:000a0e90       ?ToBool@@YA_NH@Z           00000001800a1e90 f   utils:WinUtil.obj
 0001:000a0ec0       ?NextSubclassId@@YA_KXZ    00000001800a1ec0 f   utils:WinUtil.obj
 0001:000a0ef0       ?ClientRECT@@YA?AUtagRECT@@PEAUHWND__@@@Z 00000001800a1ef0 f   utils:WinUtil.obj
 0001:000a0f20       ?ClientRect@@YA?AURect@@PEAUHWND__@@@Z 00000001800a1f20 f   utils:WinUtil.obj
 0001:000a0fb0       ?WindowRect@@YA?AURect@@PEAUHWND__@@@Z 00000001800a1fb0 f   utils:WinUtil.obj
 0001:000a1040       ?MapRectToWindow@@YA?AURect@@U1@PEAUHWND__@@1@Z 00000001800a2040 f   utils:WinUtil.obj
 0001:000a10e0       ?EditSelectAll@@YAXPEAUHWND__@@@Z 00000001800a20e0 f   utils:WinUtil.obj
 0001:000a1110       ?EditIdealDy@@YAHPEAUHWND__@@_NH@Z 00000001800a2110 f   utils:WinUtil.obj
 0001:000a1240       ?EditImplementCtrlBack@@YAXPEAUHWND__@@@Z 00000001800a2240 f   utils:WinUtil.obj
 0001:000a13e0       ?ListBox_AppendString_NoSort@@YAXPEAUHWND__@@PEB_W@Z 00000001800a23e0 f   utils:WinUtil.obj
 0001:000a1420       ?ListBoxGetTopIndex@@YAHPEAUHWND__@@@Z 00000001800a2420 f   utils:WinUtil.obj
 0001:000a1460       ?ListBoxSetTopIndex@@YA_NPEAUHWND__@@H@Z 00000001800a2460 f   utils:WinUtil.obj
 0001:000a14c0       ?IsValidHandle@@YA_NPEAX@Z 00000001800a24c0 f   utils:WinUtil.obj
 0001:000a1500       ?SafeCloseHandle@@YA_NPEAPEAX@Z 00000001800a2500 f   utils:WinUtil.obj
 0001:000a1570       ?FillWndClassEx@@YAXAEAUtagWNDCLASSEXW@@PEB_WP6A_JPEAUHWND__@@I_K_J@Z@Z 00000001800a2570 f   utils:WinUtil.obj
 0001:000a1600       ?MoveWindow@@YAXPEAUHWND__@@URect@@@Z 00000001800a2600 f   utils:WinUtil.obj
 0001:000a1660       ?MoveWindow@@YAXPEAUHWND__@@PEAUtagRECT@@@Z 00000001800a2660 f   utils:WinUtil.obj
 0001:000a16e0       ?IsOs64@@YA_NXZ            00000001800a26e0 f   utils:WinUtil.obj
 0001:000a1720       ?IsProcess64@@YA_NXZ       00000001800a2720 f   utils:WinUtil.obj
 0001:000a1730       ?IsProcess32@@YA_NXZ       00000001800a2730 f   utils:WinUtil.obj
 0001:000a1740       ?IsArmBuild@@YA_NXZ        00000001800a2740 f   utils:WinUtil.obj
 0001:000a1750       ?IsRunningInWow64@@YA_NXZ  00000001800a2750 f   utils:WinUtil.obj
 0001:000a17d0       ?IsProcessAndOsArchSame@@YA_NXZ 00000001800a27d0 f   utils:WinUtil.obj
 0001:000a1820       ?GetOsVersion@@YA_NAEAU_OSVERSIONINFOEXW@@@Z 00000001800a2820 f   utils:WinUtil.obj
 0001:000a1880       ?OsNameFromVerTemp@@YAPEADAEBU_OSVERSIONINFOEXW@@@Z 00000001800a2880 f   utils:WinUtil.obj
 0001:000a1a40       ?GetWindowsVerTemp@@YAPEADXZ 00000001800a2a40 f   utils:WinUtil.obj
 0001:000a1ad0       ?GetEnvVariableTemp@@YAPEADPEBD@Z 00000001800a2ad0 f   utils:WinUtil.obj
 0001:000a1bf0       ?GetLastErrorStrTemp@@YAPEADK@Z 00000001800a2bf0 f   utils:WinUtil.obj
 0001:000a1d90       ?LogLastError@@YAXK@Z      00000001800a2d90 f   utils:WinUtil.obj
 0001:000a1df0       ?DbgOutLastError@@YAXK@Z   00000001800a2df0 f   utils:WinUtil.obj
 0001:000a1e20       ?RegKeyNameTemp@@YAPEBDPEAUHKEY__@@@Z 00000001800a2e20 f   utils:WinUtil.obj
 0001:000a1e70       ?RegKeyNameWTemp@@YAPEBDPEAUHKEY__@@@Z 00000001800a2e70 f   utils:WinUtil.obj
 0001:000a1eb0       ?RegKeyExists@@YA_NPEAUHKEY__@@PEBD@Z 00000001800a2eb0 f   utils:WinUtil.obj
 0001:000a1f30       ?ReadRegStrTemp@@YAPEADPEAUHKEY__@@PEBD1@Z 00000001800a2f30 f   utils:WinUtil.obj
 0001:000a20d0       ?LoggedReadRegStrTemp@@YAPEADPEAUHKEY__@@PEBD1@Z 00000001800a30d0 f   utils:WinUtil.obj
 0001:000a2140       ?ReadRegStr2Temp@@YAPEADPEBD0@Z 00000001800a3140 f   utils:WinUtil.obj
 0001:000a21a0       ?LoggedReadRegStr2Temp@@YAPEADPEBD0@Z 00000001800a31a0 f   utils:WinUtil.obj
 0001:000a2200       ?WriteRegStr@@YA_NPEAUHKEY__@@PEBD11@Z 00000001800a3200 f   utils:WinUtil.obj
 0001:000a22d0       ?LoggedWriteRegStr@@YA_NPEAUHKEY__@@PEBD11@Z 00000001800a32d0 f   utils:WinUtil.obj
 0001:000a2400       ?ReadRegDWORD@@YA_NPEAUHKEY__@@PEBD1AEAK@Z 00000001800a3400 f   utils:WinUtil.obj
 0001:000a24b0       ?WriteRegDWORD@@YA_NPEAUHKEY__@@PEBD1K@Z 00000001800a34b0 f   utils:WinUtil.obj
 0001:000a2550       ?LoggedWriteRegDWORD@@YA_NPEAUHKEY__@@PEBD1K@Z 00000001800a3550 f   utils:WinUtil.obj
 0001:000a2680       ?LoggedWriteRegNone@@YA_NPEAUHKEY__@@PEBD1@Z 00000001800a3680 f   utils:WinUtil.obj
 0001:000a2740       ?CreateRegKey@@YA_NPEAUHKEY__@@PEBD@Z 00000001800a3740 f   utils:WinUtil.obj
 0001:000a27e0       ?DeleteRegKey@@YA_NPEAUHKEY__@@PEBD_N@Z 00000001800a37e0 f   utils:WinUtil.obj
 0001:000a2870       ?LoggedDeleteRegKey@@YA_NPEAUHKEY__@@PEBD_N@Z 00000001800a3870 f   utils:WinUtil.obj
 0001:000a2950       ?DeleteRegValue@@YA_NPEAUHKEY__@@PEBD1@Z 00000001800a3950 f   utils:WinUtil.obj
 0001:000a29e0       ?LoggedDeleteRegValue@@YA_NPEAUHKEY__@@PEBD1@Z 00000001800a39e0 f   utils:WinUtil.obj
 0001:000a2ab0       ?CLSIDFromString@@YAJPEBDPEAU_GUID@@@Z 00000001800a3ab0 f   utils:WinUtil.obj
 0001:000a2af0       ?GetSpecialFolderTemp@@YAPEADH_N@Z 00000001800a3af0 f   utils:WinUtil.obj
 0001:000a2ba0       ?GetTempDirTemp@@YAPEADXZ  00000001800a3ba0 f   utils:WinUtil.obj
 0001:000a2c50       ?GetSelfExePathTemp@@YAPEADXZ 00000001800a3c50 f   utils:WinUtil.obj
 0001:000a2d60       ?GetSelfExeDirTemp@@YAPEADXZ 00000001800a3d60 f   utils:WinUtil.obj
 0001:000a2d90       ?ChangeCurrDirToDocuments@@YAXXZ 00000001800a3d90 f   utils:WinUtil.obj
 0001:000a2de0       ?FileTimeDiffInSecs@@YAHAEBU_FILETIME@@0@Z 00000001800a3de0 f   utils:WinUtil.obj
 0001:000a2e50       ?ResolveLnkTemp@@YAPEADPEBD@Z 00000001800a3e50 f   utils:WinUtil.obj
 0001:000a31a0       ?CreateShortcut@@YA_NPEBD000H@Z 00000001800a41a0 f   utils:WinUtil.obj
 0001:000a34f0       ?GetDataObjectForFile@@YAPEAUIDataObject@@PEBDPEAUHWND__@@@Z 00000001800a44f0 f   utils:WinUtil.obj
 0001:000a3760       ?LaunchProcessWithCmdLine@@YAPEAXPEBD0@Z 00000001800a4760 f   utils:WinUtil.obj
 0001:000a3880       ?LaunchProcessInDir@@YAPEAXPEBD0K@Z 00000001800a4880 f   utils:WinUtil.obj
 0001:000a3980       ?CreateProcessHelper@@YA_NPEBD0@Z 00000001800a4980 f   utils:WinUtil.obj
 0001:000a3a20       ?LaunchFileShell@@YA_NPEBD00_N@Z 00000001800a4a20 f   utils:WinUtil.obj
 0001:000a3b50       ?LaunchBrowser@@YA_NPEBD@Z 00000001800a4b50 f   utils:WinUtil.obj
 0001:000a3b80       ?OpenPathInExplorer@@YAXPEBD@Z 00000001800a4b80 f   utils:WinUtil.obj
 0001:000a3bd0       ?RunNonElevated@@YAXPEBD@Z 00000001800a4bd0 f   utils:WinUtil.obj
 0001:000a3d40       ?LaunchElevated@@YA_NPEBD0@Z 00000001800a4d40 f   utils:WinUtil.obj
 0001:000a3d80       ?IsProcessRunningElevated@@YA_NXZ 00000001800a4d80 f   utils:WinUtil.obj
 0001:000a3e80       ?CanTalkToProcess@@YA_NK@Z 00000001800a4e80 f   utils:WinUtil.obj
 0001:000a3ed0       ?GetAccountType@@YAKXZ     00000001800a4ed0 f   utils:WinUtil.obj
 0001:000a3ef0       ?GetOriginalAccountType@@YAKXZ 00000001800a4ef0 f   utils:WinUtil.obj
 0001:000a3f10       ?DisableDataExecution@@YAXXZ 00000001800a4f10 f   utils:WinUtil.obj
 0001:000a3f90       ?RedirectIOToConsole@@YA_NXZ 00000001800a4f90 f   utils:WinUtil.obj
 0001:000a4080       ?RedirectIOToExistingConsole@@YA_NXZ 00000001800a5080 f   utils:WinUtil.obj
 0001:000a40d0       ?HandleRedirectedConsoleOnShutdown@@YAXXZ 00000001800a50d0 f   utils:WinUtil.obj
 0001:000a4120       ?IsKeyPressed@@YA_NH@Z     00000001800a5120 f   utils:WinUtil.obj
 0001:000a4180       ?IsShiftPressed@@YA_NXZ    00000001800a5180 f   utils:WinUtil.obj
 0001:000a41a0       ?IsAltPressed@@YA_NXZ      00000001800a51a0 f   utils:WinUtil.obj
 0001:000a41c0       ?IsCtrlPressed@@YA_NXZ     00000001800a51c0 f   utils:WinUtil.obj
 0001:000a41e0       ?ShiftRectToWorkArea@@YA?AURect@@U1@PEAUHWND__@@_N@Z 00000001800a51e0 f   utils:WinUtil.obj
 0001:000a43c0       ?GetWorkAreaRect@@YA?AURect@@U1@PEAUHWND__@@@Z 00000001800a53c0 f   utils:WinUtil.obj
 0001:000a44d0       ?LimitWindowSizeToScreen@@YAXPEAUHWND__@@AEAUtagSIZE@@@Z 00000001800a54d0 f   utils:WinUtil.obj
 0001:000a45d0       ?GetFullscreenRect@@YA?AURect@@PEAUHWND__@@@Z 00000001800a55d0 f   utils:WinUtil.obj
 0001:000a46b0       ?GetVirtualScreenRect@@YA?AURect@@XZ 00000001800a56b0 f   utils:WinUtil.obj
 0001:000a4720       ?DrawRect@@YAXPEAUHDC__@@AEBURect@@@Z 00000001800a5720 f   utils:WinUtil.obj
 0001:000a4800       ?FillRect@@YAXPEAUHDC__@@AEBURect@@PEAUHBRUSH__@@@Z 00000001800a5800 f   utils:WinUtil.obj
 0001:000a4880       ?FillRect@@YAXPEAUHDC__@@AEBURect@@K@Z 00000001800a5880 f   utils:WinUtil.obj
 0001:000a4930       ?DrawLine@@YAXPEAUHDC__@@AEBURect@@@Z 00000001800a5930 f   utils:WinUtil.obj
 0001:000a49a0       ?DrawCenteredText@@YAXPEAUHDC__@@URect@@PEBD_N@Z 00000001800a59a0 f   utils:WinUtil.obj
 0001:000a4aa0       ?HwndMeasureText@@YA?AUSize@@PEAUHWND__@@PEBDPEAUHFONT__@@@Z 00000001800a5aa0 f   utils:WinUtil.obj
 0001:000a4b30       ?FontDyPx@@YAHPEAUHWND__@@PEAUHFONT__@@@Z 00000001800a5b30 f   utils:WinUtil.obj
 0001:000a4b70       ?HdcDrawText@@YAHPEAUHDC__@@PEBDPEAUtagRECT@@IPEAUHFONT__@@@Z 00000001800a5b70 f   utils:WinUtil.obj
 0001:000a4c20       ?HdcDrawText@@YAHPEAUHDC__@@PEBDAEBURect@@IPEAUHFONT__@@@Z 00000001800a5c20 f   utils:WinUtil.obj
 0001:000a4cc0       ?HdcDrawText@@YAHPEAUHDC__@@PEBDAEBUPoint@@IPEAUHFONT__@@@Z 00000001800a5cc0 f   utils:WinUtil.obj
 0001:000a4d80       ?HdcMeasureText@@YA?AUSize@@PEAUHDC__@@PEBDIPEAUHFONT__@@@Z 00000001800a5d80 f   utils:WinUtil.obj
 0001:000a4f80       ?HdcMeasureText@@YA?AUSize@@PEAUHDC__@@PEBDPEAUHFONT__@@@Z 00000001800a5f80 f   utils:WinUtil.obj
 0001:000a4fe0       ?HwndSetFocus@@YAPEAUHWND__@@PEAU1@@Z 00000001800a5fe0 f   utils:WinUtil.obj
 0001:000a5000       ?HwndIsFocused@@YA_NPEAUHWND__@@@Z 00000001800a6000 f   utils:WinUtil.obj
 0001:000a5040       ?IsCursorOverWindow@@YA_NPEAUHWND__@@@Z 00000001800a6040 f   utils:WinUtil.obj
 0001:000a50a0       ?HwndGetParent@@YAPEAUHWND__@@PEAU1@@Z 00000001800a60a0 f   utils:WinUtil.obj
 0001:000a50c0       ?HwndGetClassName@@YAPEADPEAUHWND__@@@Z 00000001800a60c0 f   utils:WinUtil.obj
 0001:000a5170       ?HwndGetCursorPos@@YA?AUPoint@@PEAUHWND__@@@Z 00000001800a6170 f   utils:WinUtil.obj
 0001:000a5210       ?MapWindowPoints@@YAHPEAUHWND__@@0PEAUPoint@@H@Z 00000001800a6210 f   utils:WinUtil.obj
 0001:000a5370       ?HwndScreenToClient@@YAXPEAUHWND__@@AEAUPoint@@@Z 00000001800a6370 f   utils:WinUtil.obj
 0001:000a53d0       ?HwndMakeVisible@@YAXPEAUHWND__@@@Z 00000001800a63d0 f   utils:WinUtil.obj
 0001:000a5410       ?IsMouseOverRect@@YA_NPEAUHWND__@@AEBURect@@@Z 00000001800a6410 f   utils:WinUtil.obj
 0001:000a5450       ?CenterDialog@@YAXPEAUHWND__@@0@Z 00000001800a6450 f   utils:WinUtil.obj
 0001:000a5610       ?SetDlgItemFont@@YAXPEAUHWND__@@HPEAUHFONT__@@@Z 00000001800a6610 f   utils:WinUtil.obj
 0001:000a5660       ?GetDefaultPrinterNameTemp@@YAPEADXZ 00000001800a6660 f   utils:WinUtil.obj
 0001:000a56e0       ?CopyTextToClipboard@@YA_NPEBD@Z 00000001800a66e0 f   utils:WinUtil.obj
 0001:000a5700       ?AppendTextToClipboard@@YA_NPEBD@Z 00000001800a6700 f   utils:WinUtil.obj
 0001:000a5720       ?CopyImageToClipboard@@YA_NPEAUHBITMAP__@@_N@Z 00000001800a6720 f   utils:WinUtil.obj
 0001:000a5780       ?IsWindowStyleSet@@YA_NPEAUHWND__@@K@Z 00000001800a6780 f   utils:WinUtil.obj
 0001:000a57c0       ?IsWindowStyleExSet@@YA_NPEAUHWND__@@K@Z 00000001800a67c0 f   utils:WinUtil.obj
 0001:000a5830       ?SetWindowStyle@@YAXPEAUHWND__@@K_N@Z 00000001800a6830 f   utils:WinUtil.obj
 0001:000a5870       ?SetWindowExStyle@@YAXPEAUHWND__@@K_N@Z 00000001800a6870 f   utils:WinUtil.obj
 0001:000a58b0       ?HwndIsRtl@@YA_NPEAUHWND__@@@Z 00000001800a68b0 f   utils:WinUtil.obj
 0001:000a58f0       ?HwndSetRtl@@YAXPEAUHWND__@@_N@Z 00000001800a68f0 f   utils:WinUtil.obj
 0001:000a5920       ?ChildPosWithinParent@@YA?AURect@@PEAUHWND__@@@Z 00000001800a6920 f   utils:WinUtil.obj
 0001:000a59a0       ?GetMenuFont@@YAPEAUHFONT__@@XZ 00000001800a69a0 f   utils:WinUtil.obj
 0001:000a5a40       ?CreateSimpleFont@@YAPEAUHFONT__@@PEAUHDC__@@PEBDH@Z 00000001800a6a40 f   utils:WinUtil.obj
 0001:000a5bc0       ?GetDefaultGuiFont@@YAPEAUHFONT__@@_N0@Z 00000001800a6bc0 f   utils:WinUtil.obj
 0001:000a5d10       ?GetDefaultGuiFontOfSize@@YAPEAUHFONT__@@H@Z 00000001800a6d10 f   utils:WinUtil.obj
 0001:000a5df0       ?GetUserGuiFont@@YAPEAUHFONT__@@PEBDH@Z 00000001800a6df0 f   utils:WinUtil.obj
 0001:000a5f70       ?GetSizeOfDefaultGuiFont@@YAHXZ 00000001800a6f70 f   utils:WinUtil.obj
 0001:000a5ff0       ?DeleteCreatedFonts@@YAXXZ 00000001800a6ff0 f   utils:WinUtil.obj
 0001:000a6090       ?CreateStreamFromData@@YAPEAUIStream@@AEBUByteSlice@@@Z 00000001800a7090 f   utils:WinUtil.obj
 0001:000a6230       ?GetDataFromStream@@YA?AUByteSlice@@PEAUIStream@@PEAJ@Z 00000001800a7230 f   utils:WinUtil.obj
 0001:000a62e0       ?GetStreamOrFileData@@YA?AUByteSlice@@PEAUIStream@@PEBD@Z 00000001800a72e0 f   utils:WinUtil.obj
 0001:000a6360       ?ReadDataFromStream@@YA_NPEAUIStream@@PEAX_K2@Z 00000001800a7360 f   utils:WinUtil.obj
 0001:000a64b0       ?GuessTextCodepage@@YAIPEBD_KI@Z 00000001800a74b0 f   utils:WinUtil.obj
 0001:000a6640       ?NormalizeString@@YAPEADPEBDH@Z 00000001800a7640 f   utils:WinUtil.obj
 0001:000a6770       ?ResizeHwndToClientArea@@YAXPEAUHWND__@@HH_N@Z 00000001800a7770 f   utils:WinUtil.obj
 0001:000a68d0       ?ResizeWindow@@YAXPEAUHWND__@@HH@Z 00000001800a78d0 f   utils:WinUtil.obj
 0001:000a6980       ?MessageBoxWarningSimple@@YAXPEAUHWND__@@PEB_W1@Z 00000001800a7980 f   utils:WinUtil.obj
 0001:000a69e0       ?MessageBoxNYI@@YAXPEAUHWND__@@@Z 00000001800a79e0 f   utils:WinUtil.obj
 0001:000a6a10       ?RegisterServerDLL@@YA_NPEBD0@Z 00000001800a7a10 f   utils:WinUtil.obj
 0001:000a6a40       ?UnRegisterServerDLL@@YA_NPEBD0@Z 00000001800a7a40 f   utils:WinUtil.obj
 0001:000a6a80       ?RegisterOrUnregisterServerDLL@@YA_NPEBD_N0@Z 00000001800a7a80 f   utils:WinUtil.obj
 0001:000a6ce0       ?MenuSetChecked@@YAXPEAUHMENU__@@H_N@Z 00000001800a7ce0 f   utils:WinUtil.obj
 0001:000a6d60       ?MenuSetEnabled@@YA_NPEAUHMENU__@@H_N@Z 00000001800a7d60 f   utils:WinUtil.obj
 0001:000a6e00       ?MenuRemove@@YAXPEAUHMENU__@@H@Z 00000001800a7e00 f   utils:WinUtil.obj
 0001:000a6e50       ?MenuEmpty@@YAXPEAUHMENU__@@@Z 00000001800a7e50 f   utils:WinUtil.obj
 0001:000a6e80       ?MenuSetText@@YAXPEAUHMENU__@@HPEB_W@Z 00000001800a7e80 f   utils:WinUtil.obj
 0001:000a6fd0       ?MenuSetText@@YAXPEAUHMENU__@@HPEBD@Z 00000001800a7fd0 f   utils:WinUtil.obj
 0001:000a7020       ?MenuToSafeStringTemp@@YAPEADPEBD@Z 00000001800a8020 f   utils:WinUtil.obj
 0001:000a7060       ??0DoubleBuffer@@QEAA@PEAUHWND__@@URect@@@Z 00000001800a8060 f   utils:WinUtil.obj
 0001:000a7230       ??1DoubleBuffer@@QEAA@XZ   00000001800a8230 f   utils:WinUtil.obj
 0001:000a7280       ?GetDC@DoubleBuffer@@QEBAPEAUHDC__@@XZ 00000001800a8280 f   utils:WinUtil.obj
 0001:000a72b0       ?Flush@DoubleBuffer@@QEBAXPEAUHDC__@@@Z 00000001800a82b0 f   utils:WinUtil.obj
 0001:000a7360       ??0DeferWinPosHelper@@QEAA@XZ 00000001800a8360 f   utils:WinUtil.obj
 0001:000a7390       ??1DeferWinPosHelper@@QEAA@XZ 00000001800a8390 f   utils:WinUtil.obj
 0001:000a73b0       ?End@DeferWinPosHelper@@QEAAXXZ 00000001800a83b0 f   utils:WinUtil.obj
 0001:000a73f0       ?SetWindowPos@DeferWinPosHelper@@QEAAXPEAUHWND__@@URect@@@Z 00000001800a83f0 f   utils:WinUtil.obj
 0001:000a7470       ?SetWindowPos@DeferWinPosHelper@@QEAAXPEAUHWND__@@0HHHHI@Z 00000001800a8470 f   utils:WinUtil.obj
 0001:000a74e0       ?MoveWindow@DeferWinPosHelper@@QEAAXPEAUHWND__@@HHHHH@Z 00000001800a84e0 f   utils:WinUtil.obj
 0001:000a7560       ?MoveWindow@DeferWinPosHelper@@QEAAXPEAUHWND__@@URect@@@Z 00000001800a8560 f   utils:WinUtil.obj
 0001:000a75c0       ?GetSize@BlittableBitmap@@QEAA?AUSize@@XZ 00000001800a85c0 f   utils:WinUtil.obj
 0001:000a75f0       ??0RenderedBitmap@@QEAA@PEAUHBITMAP__@@USize@@PEAX@Z 00000001800a85f0 f   utils:WinUtil.obj
 0001:000a7680       ??1RenderedBitmap@@UEAA@XZ 00000001800a8680 f   utils:WinUtil.obj
 0001:000a7700       ?Clone@RenderedBitmap@@QEBAPEAU1@XZ 00000001800a8700 f   utils:WinUtil.obj
 0001:000a7790       ?GetBitmap@RenderedBitmap@@QEBAPEAUHBITMAP__@@XZ 00000001800a8790 f   utils:WinUtil.obj
 0001:000a77b0       ?IsValid@RenderedBitmap@@UEAA_NXZ 00000001800a87b0 f   utils:WinUtil.obj
 0001:000a77f0       ?Blit@RenderedBitmap@@UEAA_NPEAUHDC__@@URect@@@Z 00000001800a87f0 f   utils:WinUtil.obj
 0001:000a7840       ?InitAllCommonControls@@YAXXZ 00000001800a8840 f   utils:WinUtil.obj
 0001:000a7880       ?GetBitmapSize@@YA?AUSize@@PEAUHBITMAP__@@@Z 00000001800a8880 f   utils:WinUtil.obj
 0001:000a78d0       ?GetBitmapPixels@@YAPEAUBitmapPixels@@PEAUHBITMAP__@@@Z 00000001800a88d0 f   utils:WinUtil.obj
 0001:000a7c10       ?FinalizeBitmapPixels@@YAXPEAUBitmapPixels@@@Z 00000001800a8c10 f   utils:WinUtil.obj
 0001:000a7ca0       ?GetPixel@@YAKPEAUBitmapPixels@@HH@Z 00000001800a8ca0 f   utils:WinUtil.obj
 0001:000a7e40       ?UpdateBitmapColors@@YAXPEAUHBITMAP__@@KK@Z 00000001800a8e40 f   utils:WinUtil.obj
 0001:000a8660       ?SerializeBitmap@@YA?AUByteSlice@@PEAUHBITMAP__@@@Z 00000001800a9660 f   utils:WinUtil.obj
 0001:000a8820       ?CreateMemoryBitmap@@YAPEAUHBITMAP__@@USize@@PEAPEAX@Z 00000001800a9820 f   utils:WinUtil.obj
 0001:000a8970       ?BlitHBITMAP@@YA_NPEAUHBITMAP__@@PEAUHDC__@@URect@@@Z 00000001800a9970 f   utils:WinUtil.obj
 0001:000a8b30       ?GetProcessRunningTime@@YANXZ 00000001800a9b30 f   utils:WinUtil.obj
 0001:000a8c30       ?VariantInitBstr@@YAXAEAUtagVARIANT@@PEB_W@Z 00000001800a9c30 f   utils:WinUtil.obj
 0001:000a8c80       ?LoadDataResource@@YA?AUStrSpan@@H@Z 00000001800a9c80 f   utils:WinUtil.obj
 0001:000a8e10       ?DDEExecute@@YA_NPEB_W00@Z 00000001800a9e10 f   utils:WinUtil.obj
 0001:000a9030       ?RectInflateTB@@YAXAEAUtagRECT@@HH@Z 00000001800aa030 f   utils:WinUtil.obj
 0001:000a9070       ?DivideRectH@@YAXAEBUtagRECT@@HHAEAU1@11@Z 00000001800aa070 f   utils:WinUtil.obj
 0001:000a9110       ?DivideRectV@@YAXAEBUtagRECT@@HHAEAU1@11@Z 00000001800aa110 f   utils:WinUtil.obj
 0001:000a91a0       ?GetCachedCursor@@YAPEAUHICON__@@PEA_W@Z 00000001800aa1a0 f   utils:WinUtil.obj
 0001:000a9270       ?SetCursorCached@@YAXPEA_W@Z 00000001800aa270 f   utils:WinUtil.obj
 0001:000a92d0       ?DeleteCachedCursors@@YAXXZ 00000001800aa2d0 f   utils:WinUtil.obj
 0001:000a9340       ?GetMeasurementSystem@@YAHXZ 00000001800aa340 f   utils:WinUtil.obj
 0001:000a93a0       ?TrackMouseLeave@@YA_NPEAUHWND__@@@Z 00000001800aa3a0 f   utils:WinUtil.obj
 0001:000a9420       ?LockDataResource@@YA_NHPEAULoadedDataResource@@@Z 00000001800aa420 f   utils:WinUtil.obj
 0001:000a9510       ?GetInstance@@YAPEAUHINSTANCE__@@XZ 00000001800aa510 f   utils:WinUtil.obj
 0001:000a9520       ?ButtonGetIdealSize@@YA?AUSize@@PEAUHWND__@@@Z 00000001800aa520 f   utils:WinUtil.obj
 0001:000a95d0       ?IsValidDelayType@@YA_NH@Z 00000001800aa5d0 f   utils:WinUtil.obj
 0001:000a9610       ?HwndResizeClientSize@@YAXPEAUHWND__@@HH@Z 00000001800aa610 f   utils:WinUtil.obj
 0001:000a9790       ?HwndGetTextLen@@YA_KPEAUHWND__@@@Z 00000001800aa790 f   utils:WinUtil.obj
 0001:000a97c0       ?HwndGetTextWTemp@@YAPEA_WPEAUHWND__@@@Z 00000001800aa7c0 f   utils:WinUtil.obj
 0001:000a9830       ?HwndGetTextTemp@@YAPEADPEAUHWND__@@@Z 00000001800aa830 f   utils:WinUtil.obj
 0001:000a98b0       ?HwndSetText@@YAXPEAUHWND__@@PEBD@Z 00000001800aa8b0 f   utils:WinUtil.obj
 0001:000a9930       ?HwndHasFrameThickness@@YA_NPEAUHWND__@@@Z 00000001800aa930 f   utils:WinUtil.obj
 0001:000a9960       ?HwndHasCaption@@YA_NPEAUHWND__@@@Z 00000001800aa960 f   utils:WinUtil.obj
 0001:000a9990       ?HwndSetDlgItemText@@YAXPEAUHWND__@@HPEBD@Z 00000001800aa990 f   utils:WinUtil.obj
 0001:000a99e0       ?CbAddString@@YAXPEAUHWND__@@PEBD@Z 00000001800aa9e0 f   utils:WinUtil.obj
 0001:000a9a30       ?CbSetCurrentSelection@@YAXPEAUHWND__@@H@Z 00000001800aaa30 f   utils:WinUtil.obj
 0001:000a9a70       ?HwndGetIcon@@YAPEAUHICON__@@PEAUHWND__@@@Z 00000001800aaa70 f   utils:WinUtil.obj
 0001:000a9ab0       ?HwndSetIcon@@YAPEAUHICON__@@PEAUHWND__@@PEAU1@@Z 00000001800aaab0 f   utils:WinUtil.obj
 0001:000a9b10       ?HwndRepaintNow@@YAXPEAUHWND__@@@Z 00000001800aab10 f   utils:WinUtil.obj
 0001:000a9b60       ?HwndScheduleRepaint@@YAXPEAUHWND__@@@Z 00000001800aab60 f   utils:WinUtil.obj
 0001:000a9ba0       ?HwndGetFont@@YAPEAUHFONT__@@PEAUHWND__@@@Z 00000001800aaba0 f   utils:WinUtil.obj
 0001:000a9be0       ?HwndSetFont@@YAXPEAUHWND__@@PEAUHFONT__@@@Z 00000001800aabe0 f   utils:WinUtil.obj
 0001:000a9c30       ?HwndPositionToTheRightOf@@YAXPEAUHWND__@@0@Z 00000001800aac30 f   utils:WinUtil.obj
 0001:000a9d30       ?HwndPositionInCenterOf@@YAXPEAUHWND__@@0@Z 00000001800aad30 f   utils:WinUtil.obj
 0001:000a9e70       ?HwndSendCommand@@YAXPEAUHWND__@@H@Z 00000001800aae70 f   utils:WinUtil.obj
 0001:000a9eb0       ?HwndDestroyWindowSafe@@YAXPEAPEAUHWND__@@@Z 00000001800aaeb0 f   utils:WinUtil.obj
 0001:000a9f10       ?HwndToForeground@@YAXPEAUHWND__@@@Z 00000001800aaf10 f   utils:WinUtil.obj
 0001:000a9f50       ?HwndSetVisibility@@YAXPEAUHWND__@@_N@Z 00000001800aaf50 f   utils:WinUtil.obj
 0001:000a9fa0       ?DeleteObjectSafe@@YA_NPEAPEAX@Z 00000001800aafa0 f   utils:WinUtil.obj
 0001:000aa000       ?DeleteBrushSafe@@YA_NPEAPEAUHBRUSH__@@@Z 00000001800ab000 f   utils:WinUtil.obj
 0001:000aa020       ?DestroyIconSafe@@YA_NPEAPEAUHICON__@@@Z 00000001800ab020 f   utils:WinUtil.obj
 0001:000aa080       ?TbSetButtonInfo@@YAXPEAUHWND__@@HPEAUTBBUTTONINFOW@@@Z 00000001800ab080 f   utils:WinUtil.obj
 0001:000aa0f0       ?TbGetPadding@@YAXPEAUHWND__@@PEAH1@Z 00000001800ab0f0 f   utils:WinUtil.obj
 0001:000aa160       ?TbSetPadding@@YAXPEAUHWND__@@HH@Z 00000001800ab160 f   utils:WinUtil.obj
 0001:000aa1f0       ?TbGetMetrics@@YAXPEAUHWND__@@PEAUTBMETRICS@@@Z 00000001800ab1f0 f   utils:WinUtil.obj
 0001:000aa230       ?TbSetMetrics@@YAXPEAUHWND__@@PEAUTBMETRICS@@@Z 00000001800ab230 f   utils:WinUtil.obj
 0001:000aa270       ?TbGetRect@@YAXPEAUHWND__@@HPEAUtagRECT@@@Z 00000001800ab270 f   utils:WinUtil.obj
 0001:000aa2e0       ?TreeViewExpandRecursively@@YAXPEAUHWND__@@PEAU_TREEITEM@@I_N@Z 00000001800ab2e0 f   utils:WinUtil.obj
 0001:000aa3a0       ?AddPathToRecentDocs@@YAXPEBD@Z 00000001800ab3a0 f   utils:WinUtil.obj
 0001:000aa3e0       ?HGLOBALToStrTemp@@YAPEADPEAX_N@Z 00000001800ab3e0 f   utils:WinUtil.obj
 0001:000aa460       ?MemToHGLOBAL@@YAPEAXPEAXHI@Z 00000001800ab460 f   utils:WinUtil.obj
 0001:000aa4e0       ?StrToHGLOBAL@@YAPEAXPEBDI@Z 00000001800ab4e0 f   utils:WinUtil.obj
 0001:000aa520       ?AtomToStrTemp@@YAPEADG@Z  00000001800ab520 f   utils:WinUtil.obj
 0001:000aa5a0       ?MsgBox@@YAHPEAUHWND__@@PEBD1I@Z 00000001800ab5a0 f   utils:WinUtil.obj
 0001:000aa610       ?CpuID@@YAIXZ              00000001800ab610 f   utils:WinUtil.obj
 0001:000aaa00       ?TimeNow@@YA?AT_LARGE_INTEGER@@XZ 00000001800aba00 f   utils:WinUtil.obj
 0001:000aaa20       ?TimeDiffSecs@@YANAEBT_LARGE_INTEGER@@0@Z 00000001800aba20 f   utils:WinUtil.obj
 0001:000aaa80       ?TimeDiffMs@@YANAEBT_LARGE_INTEGER@@0@Z 00000001800aba80 f   utils:WinUtil.obj
 0001:000aaaf0       ?IsPEFileSigned@@YA_NPEBD@Z 00000001800abaf0 f   utils:WinUtil.obj
 0001:000ae8f0       ??$AllocStruct@UBitmapPixels@@@@YAPEAUBitmapPixels@@XZ 00000001800af8f0 f i utils:WinUtil.obj
 0001:000ae910       ??$IID_PPV_ARGS_Helper@UIMultiLanguage2@@@@YAPEAPEAXPEAPEAUIMultiLanguage2@@@Z 00000001800af910 f i utils:WinUtil.obj
 0001:000ae920       ??$IID_PPV_ARGS_Helper@UIShellLinkW@@@@YAPEAPEAXPEAPEAUIShellLinkW@@@Z 00000001800af920 f i utils:WinUtil.obj
 0001:000ae930       ??$IsMaskSet@J@bit@@YA_NJJ@Z 00000001800af930 f i utils:WinUtil.obj
 0001:000ae980       ??$IsMaskSet@K@bit@@YA_NKK@Z 00000001800af980 f i utils:WinUtil.obj
 0001:000ae9d0       ??$ListInsertFront@UCreatedFontInfo@@@@YAXPEAPEAUCreatedFontInfo@@PEAU0@@Z 00000001800af9d0 f i utils:WinUtil.obj
 0001:000aea10       ??$ListLen@UCreatedFontInfo@@@@YAHPEAUCreatedFontInfo@@@Z 00000001800afa10 f i utils:WinUtil.obj
 0001:000aea70       ??$QueryInterface@UIPersistFile@@@IUnknown@@QEAAJPEAPEAUIPersistFile@@@Z 00000001800afa70 f i utils:WinUtil.obj
 0001:000aeac0       ??0?$ScopedComPtr@UIMultiLanguage2@@@@QEAA@XZ 00000001800afac0 f i utils:WinUtil.obj
 0001:000aeae0       ??0?$ScopedComPtr@UIShellFolder@@@@QEAA@XZ 00000001800afae0 f i utils:WinUtil.obj
 0001:000aeb00       ??0?$ScopedComPtr@UIShellLinkW@@@@QEAA@XZ 00000001800afb00 f i utils:WinUtil.obj
 0001:000aeb20       ??0?$ScopedComQIPtr@UIPersistFile@@@@QEAA@PEAUIUnknown@@@Z 00000001800afb20 f i utils:WinUtil.obj
 0001:000aeb80       ??0?$ScopedGdiObj@PEAUHBITMAP__@@@@QEAA@PEAUHBITMAP__@@@Z 00000001800afb80 f i utils:WinUtil.obj
 0001:000aebb0       ??0?$ScopedGdiObj@PEAUHBRUSH__@@@@QEAA@PEAUHBRUSH__@@@Z 00000001800afbb0 f i utils:WinUtil.obj
 0001:000aebe0       ??0?$ScopedMem@E@@QEAA@PEAE@Z 00000001800afbe0 f i utils:WinUtil.obj
 0001:000aec10       ??0?$ScopedMem@_W@@QEAA@PEA_W@Z 00000001800afc10 f i utils:WinUtil.obj
 0001:000aec40       ??0?$bitset@$0CA@@std@@QEAA@XZ 00000001800afc40 f i utils:WinUtil.obj
 0001:000aec70       ??0?$bitset@$0CA@@std@@QEAA@_K@Z 00000001800afc70 f i utils:WinUtil.obj
 0001:000aecd0       ??0AutoReleaseDC@@QEAA@PEAUHWND__@@@Z 00000001800afcd0 f i utils:WinUtil.obj
 0001:000aed30       ??0BlittableBitmap@@QEAA@XZ 00000001800afd30 f i utils:WinUtil.obj
 0001:000aed90       ??0CreatedFontInfo@@QEAA@XZ 00000001800afd90 f i utils:WinUtil.obj
 0001:000aee00       ??0Point@@QEAA@XZ          00000001800afe00 f i utils:WinUtil.obj
 0001:000aee30       ??0ScopedSelectFont@@QEAA@PEAUHDC__@@PEAUHFONT__@@@Z 00000001800afe30 f i utils:WinUtil.obj
 0001:000aeeb0       ??0reference@?$bitset@$0CA@@std@@AEAA@AEAV12@_K@Z 00000001800afeb0 f i utils:WinUtil.obj
 0001:000aeef0       ??1?$ScopedComPtr@UIMultiLanguage2@@@@QEAA@XZ 00000001800afef0 f i utils:WinUtil.obj
 0001:000aef30       ??1?$ScopedComPtr@UIShellFolder@@@@QEAA@XZ 00000001800aff30 f i utils:WinUtil.obj
 0001:000aef70       ??1?$ScopedComPtr@UIShellLinkW@@@@QEAA@XZ 00000001800aff70 f i utils:WinUtil.obj
 0001:000aefb0       ??1?$ScopedComQIPtr@UIPersistFile@@@@QEAA@XZ 00000001800affb0 f i utils:WinUtil.obj
 0001:000aeff0       ??1?$ScopedGdiObj@PEAUHBITMAP__@@@@QEAA@XZ 00000001800afff0 f i utils:WinUtil.obj
 0001:000af020       ??1?$ScopedGdiObj@PEAUHBRUSH__@@@@QEAA@XZ 00000001800b0020 f i utils:WinUtil.obj
 0001:000af050       ??1?$ScopedMem@E@@QEAA@XZ  00000001800b0050 f i utils:WinUtil.obj
 0001:000af080       ??1?$ScopedMem@_W@@QEAA@XZ 00000001800b0080 f i utils:WinUtil.obj
 0001:000af0b0       ??1AutoReleaseDC@@QEAA@XZ  00000001800b00b0 f i utils:WinUtil.obj
 0001:000af0e0       ??1BlittableBitmap@@UEAA@XZ 00000001800b00e0 f i utils:WinUtil.obj
 0001:000af100       ??1ScopedSelectFont@@QEAA@XZ 00000001800b0100 f i utils:WinUtil.obj
 0001:000af140       ??1reference@?$bitset@$0CA@@std@@QEAA@XZ 00000001800b0140 f i utils:WinUtil.obj
 0001:000af150       ??A?$bitset@$0CA@@std@@QEAA?AVreference@01@_K@Z 00000001800b0150 f i utils:WinUtil.obj
 0001:000af1a0       ??B?$ScopedComPtr@UIShellLinkW@@@@QEBAPEAUIShellLinkW@@XZ 00000001800b01a0 f i utils:WinUtil.obj
 0001:000af1c0       ??B?$ScopedComQIPtr@UIPersistFile@@@@QEBAPEAUIPersistFile@@XZ 00000001800b01c0 f i utils:WinUtil.obj
 0001:000af1e0       ??B?$ScopedGdiObj@PEAUHBITMAP__@@@@QEBAPEAUHBITMAP__@@XZ 00000001800b01e0 f i utils:WinUtil.obj
 0001:000af200       ??B?$ScopedGdiObj@PEAUHBRUSH__@@@@QEBAPEAUHBRUSH__@@XZ 00000001800b0200 f i utils:WinUtil.obj
 0001:000af220       ??B?$ScopedMem@E@@QEBAPEAEXZ 00000001800b0220 f i utils:WinUtil.obj
 0001:000af240       ??B?$ScopedMem@_W@@QEBAPEA_WXZ 00000001800b0240 f i utils:WinUtil.obj
 0001:000af260       ??BAutoReleaseDC@@QEBAPEAUHDC__@@XZ 00000001800b0260 f i utils:WinUtil.obj
 0001:000af280       ??Breference@?$bitset@$0CA@@std@@QEBA_NXZ 00000001800b0280 f i utils:WinUtil.obj
 0001:000af2c0       ??C?$ScopedComPtr@UIMultiLanguage2@@@@QEBAPEAUIMultiLanguage2@@XZ 00000001800b02c0 f i utils:WinUtil.obj
 0001:000af2e0       ??C?$ScopedComPtr@UIShellFolder@@@@QEBAPEAUIShellFolder@@XZ 00000001800b02e0 f i utils:WinUtil.obj
 0001:000af300       ??C?$ScopedComPtr@UIShellLinkW@@@@QEBAPEAUIShellLinkW@@XZ 00000001800b0300 f i utils:WinUtil.obj
 0001:000af320       ??C?$ScopedComQIPtr@UIPersistFile@@@@QEBAPEAUIPersistFile@@XZ 00000001800b0320 f i utils:WinUtil.obj
 0001:000af340       ??I?$ScopedComPtr@UIShellFolder@@@@QEAAPEAPEAUIShellFolder@@XZ 00000001800b0340 f i utils:WinUtil.obj
 0001:000af350       ??_EBlittableBitmap@@UEAAPEAXI@Z 00000001800b0350 f i utils:WinUtil.obj
 0001:000af350       ??_GBlittableBitmap@@UEAAPEAXI@Z 00000001800b0350 f i utils:WinUtil.obj
 0001:000af3a0       ??_ERenderedBitmap@@UEAAPEAXI@Z 00000001800b03a0 f i utils:WinUtil.obj
 0001:000af3a0       ??_GRenderedBitmap@@UEAAPEAXI@Z 00000001800b03a0 f i utils:WinUtil.obj
 0001:000af3f0       ?Create@?$ScopedComPtr@UIMultiLanguage2@@@@QEAA_NU_GUID@@@Z 00000001800b03f0 f i utils:WinUtil.obj
 0001:000af4d0       ?Create@?$ScopedComPtr@UIShellLinkW@@@@QEAA_NU_GUID@@@Z 00000001800b04d0 f i utils:WinUtil.obj
 0001:000af5b0       ?_Subscript@?$bitset@$0CA@@std@@AEBA_N_K@Z 00000001800b05b0 f i utils:WinUtil.obj
 0001:000af650       ?_Validate@?$bitset@$0CA@@std@@CAX_K@Z 00000001800b0650 f i utils:WinUtil.obj
 0001:000af660       ?abs@@YAJJ@Z               00000001800b0660 f i utils:WinUtil.obj
 0001:000af680       ?mul255@@YAHHH@Z           00000001800b0680 f i utils:WinUtil.obj
 0001:000af6d0       ?tobool@@YA_NH@Z           00000001800b06d0 f i utils:WinUtil.obj
 0001:000af710       ??0Point@@QEAA@HH@Z        00000001800b0710 f   utils:GeomUtil.obj
 0001:000af750       ?IsEmpty@Point@@QEBA_NXZ   00000001800b0750 f   utils:GeomUtil.obj
 0001:000af790       ?Eq@Point@@QEBA_NHH@Z      00000001800b0790 f   utils:GeomUtil.obj
 0001:000af7e0       ??8Point@@QEBA_NAEBU0@@Z   00000001800b07e0 f   utils:GeomUtil.obj
 0001:000af830       ??9Point@@QEBA_NAEBU0@@Z   00000001800b0830 f   utils:GeomUtil.obj
 0001:000af880       ??0PointF@@QEAA@MM@Z       00000001800b0880 f   utils:GeomUtil.obj
 0001:000af8c0       ?IsEmpty@PointF@@QEBA_NXZ  00000001800b08c0 f   utils:GeomUtil.obj
 0001:000af920       ??8PointF@@QEBA_NAEBU0@@Z  00000001800b0920 f   utils:GeomUtil.obj
 0001:000af980       ??9PointF@@QEBA_NAEBU0@@Z  00000001800b0980 f   utils:GeomUtil.obj
 0001:000af9d0       ??0Size@@QEAA@HH@Z         00000001800b09d0 f   utils:GeomUtil.obj
 0001:000afa10       ?IsEmpty@Size@@QEBA_NXZ    00000001800b0a10 f   utils:GeomUtil.obj
 0001:000afa50       ?Equals@Size@@QEBA_NAEBU1@@Z 00000001800b0a50 f   utils:GeomUtil.obj
 0001:000afaa0       ??8Size@@QEBA_NAEBU0@@Z    00000001800b0aa0 f   utils:GeomUtil.obj
 0001:000afaf0       ??9Size@@QEBA_NAEBU0@@Z    00000001800b0af0 f   utils:GeomUtil.obj
 0001:000afb40       ??0SizeF@@QEAA@MM@Z        00000001800b0b40 f   utils:GeomUtil.obj
 0001:000afb80       ?IsEmpty@SizeF@@QEBA_NXZ   00000001800b0b80 f   utils:GeomUtil.obj
 0001:000afbe0       ??8SizeF@@QEBA_NAEBU0@@Z   00000001800b0be0 f   utils:GeomUtil.obj
 0001:000afc40       ??9SizeF@@QEBA_NAEBU0@@Z   00000001800b0c40 f   utils:GeomUtil.obj
 0001:000afc90       ??0Rect@@QEAA@UtagRECT@@@Z 00000001800b0c90 f   utils:GeomUtil.obj
 0001:000afd30       ??0Rect@@QEAA@VRectF@Gdiplus@@@Z 00000001800b0d30 f   utils:GeomUtil.obj
 0001:000afdc0       ??0Rect@@QEAA@HHHH@Z       00000001800b0dc0 f   utils:GeomUtil.obj
 0001:000afe10       ??0Rect@@QEAA@UPoint@@0@Z  00000001800b0e10 f   utils:GeomUtil.obj
 0001:000afe70       ?EqSize@Rect@@QEBA_NHH@Z   00000001800b0e70 f   utils:GeomUtil.obj
 0001:000afec0       ?Right@Rect@@QEBAHXZ       00000001800b0ec0 f   utils:GeomUtil.obj
 0001:000afee0       ?Bottom@Rect@@QEBAHXZ      00000001800b0ee0 f   utils:GeomUtil.obj
 0001:000aff00       ?FromXY@Rect@@SA?AU1@HHHH@Z 00000001800b0f00 f   utils:GeomUtil.obj
 0001:000aff90       ?FromXY@Rect@@SA?AU1@UPoint@@0@Z 00000001800b0f90 f   utils:GeomUtil.obj
 0001:000affe0       ?IsZero@Rect@@QEBA_NXZ     00000001800b0fe0 f   utils:GeomUtil.obj
 0001:000b0040       ?IsEmpty@Rect@@QEBA_NXZ    00000001800b1040 f   utils:GeomUtil.obj
 0001:000b0080       ?Contains@Rect@@QEBA_NHH@Z 00000001800b1080 f   utils:GeomUtil.obj
 0001:000b00f0       ?Contains@Rect@@QEBA_NUPoint@@@Z 00000001800b10f0 f   utils:GeomUtil.obj
 0001:000b0120       ?Intersect@Rect@@QEBA?AU1@U1@@Z 00000001800b1120 f   utils:GeomUtil.obj
 0001:000b0250       ?Union@Rect@@QEBA?AU1@U1@@Z 00000001800b1250 f   utils:GeomUtil.obj
 0001:000b03d0       ?Offset@Rect@@QEAAXHH@Z    00000001800b13d0 f   utils:GeomUtil.obj
 0001:000b0410       ?Inflate@Rect@@QEAAXHH@Z   00000001800b1410 f   utils:GeomUtil.obj
 0001:000b0480       ?SubTB@Rect@@QEAAXHH@Z     00000001800b1480 f   utils:GeomUtil.obj
 0001:000b04e0       ?SubLR@Rect@@QEAAXHH@Z     00000001800b14e0 f   utils:GeomUtil.obj
 0001:000b0540       ?TL@Rect@@QEBA?AUPoint@@XZ 00000001800b1540 f   utils:GeomUtil.obj
 0001:000b0580       ?BR@Rect@@QEBA?AUPoint@@XZ 00000001800b1580 f   utils:GeomUtil.obj
 0001:000b05d0       ?Size@Rect@@QEBA?AU0@XZ    00000001800b15d0 f   utils:GeomUtil.obj
 0001:000b0610       ?SetSize@Rect@@QEAAXAEBUSize@@@Z 00000001800b1610 f   utils:GeomUtil.obj
 0001:000b0640       ?SetPos@Rect@@QEAAXAEBUPoint@@@Z 00000001800b1640 f   utils:GeomUtil.obj
 0001:000b0670       ?Equals@Rect@@QEBA_NAEBU1@@Z 00000001800b1670 f   utils:GeomUtil.obj
 0001:000b06f0       ??8Rect@@QEBA_NAEBU0@@Z    00000001800b16f0 f   utils:GeomUtil.obj
 0001:000b0770       ??9Rect@@QEBA_NAEBU0@@Z    00000001800b1770 f   utils:GeomUtil.obj
 0001:000b07c0       ??0RectF@@QEAA@UtagRECT@@@Z 00000001800b17c0 f   utils:GeomUtil.obj
 0001:000b0870       ??0RectF@@QEAA@V0Gdiplus@@@Z 00000001800b1870 f   utils:GeomUtil.obj
 0001:000b0910       ??0RectF@@QEAA@MMMM@Z      00000001800b1910 f   utils:GeomUtil.obj
 0001:000b0980       ??0RectF@@QEAA@UPointF@@USizeF@@@Z 00000001800b1980 f   utils:GeomUtil.obj
 0001:000b09e0       ??0RectF@@QEAA@UPointF@@0@Z 00000001800b19e0 f   utils:GeomUtil.obj
 0001:000b0a50       ?EqSize@RectF@@QEBA_NMM@Z  00000001800b1a50 f   utils:GeomUtil.obj
 0001:000b0ab0       ?Right@RectF@@QEBAMXZ      00000001800b1ab0 f   utils:GeomUtil.obj
 0001:000b0ad0       ?Bottom@RectF@@QEBAMXZ     00000001800b1ad0 f   utils:GeomUtil.obj
 0001:000b0af0       ?FromXY@RectF@@SA?AU1@MMMM@Z 00000001800b1af0 f   utils:GeomUtil.obj
 0001:000b0b90       ?FromXY@RectF@@SA?AU1@UPointF@@0@Z 00000001800b1b90 f   utils:GeomUtil.obj
 0001:000b0be0       ?Round@RectF@@QEBA?AURect@@XZ 00000001800b1be0 f   utils:GeomUtil.obj
 0001:000b0cc0       ?IsEmpty@RectF@@QEBA_NXZ   00000001800b1cc0 f   utils:GeomUtil.obj
 0001:000b0d20       ?Contains@RectF@@QEBA_NUPointF@@@Z 00000001800b1d20 f   utils:GeomUtil.obj
 0001:000b0db0       ?Intersect@RectF@@QEBA?AU1@U1@@Z 00000001800b1db0 f   utils:GeomUtil.obj
 0001:000b0f20       ?Union@RectF@@QEAA?AU1@U1@@Z 00000001800b1f20 f   utils:GeomUtil.obj
 0001:000b10e0       ?Offset@RectF@@QEAAXMM@Z   00000001800b20e0 f   utils:GeomUtil.obj
 0001:000b1130       ?Inflate@RectF@@QEAAXMM@Z  00000001800b2130 f   utils:GeomUtil.obj
 0001:000b11d0       ?TL@RectF@@QEBA?AUPointF@@XZ 00000001800b21d0 f   utils:GeomUtil.obj
 0001:000b1210       ?BR@RectF@@QEBA?AUPointF@@XZ 00000001800b2210 f   utils:GeomUtil.obj
 0001:000b1270       ?Size@RectF@@QEBA?AUSizeF@@XZ 00000001800b2270 f   utils:GeomUtil.obj
 0001:000b12b0       ??8RectF@@QEBA_NAEBU0@@Z   00000001800b22b0 f   utils:GeomUtil.obj
 0001:000b1340       ??9RectF@@QEBA_NAEBU0@@Z   00000001800b2340 f   utils:GeomUtil.obj
 0001:000b1390       ?RectDx@@YAHAEBUtagRECT@@@Z 00000001800b2390 f   utils:GeomUtil.obj
 0001:000b13b0       ?RectDy@@YAHAEBUtagRECT@@@Z 00000001800b23b0 f   utils:GeomUtil.obj
 0001:000b13d0       ?ToPointFl@@YA?AUPointF@@UPoint@@@Z 00000001800b23d0 f   utils:GeomUtil.obj
 0001:000b1410       ?ToGdipPoint@@YA?AVPoint@Gdiplus@@U1@@Z 00000001800b2410 f   utils:GeomUtil.obj
 0001:000b1450       ?ToPoint@@YA?AUPoint@@UPointF@@@Z 00000001800b2450 f   utils:GeomUtil.obj
 0001:000b1490       ?ToGdipPointF@@YA?AVPointF@Gdiplus@@U1@@Z 00000001800b2490 f   utils:GeomUtil.obj
 0001:000b14d0       ?ToPOINT@@YA?AUtagPOINT@@AEBUPoint@@@Z 00000001800b24d0 f   utils:GeomUtil.obj
 0001:000b1500       ?ToSIZE@@YA?AUtagSIZE@@USize@@@Z 00000001800b2500 f   utils:GeomUtil.obj
 0001:000b1530       ?ToSizeFl@@YA?AUSizeF@@USize@@@Z 00000001800b2530 f   utils:GeomUtil.obj
 0001:000b1570       ?ToSize@@YA?AUSize@@USizeF@@@Z 00000001800b2570 f   utils:GeomUtil.obj
 0001:000b15e0       ?ToRectF@@YA?AURectF@@AEBURect@@@Z 00000001800b25e0 f   utils:GeomUtil.obj
 0001:000b1640       ?ToRECT@@YA?AUtagRECT@@AEBURect@@@Z 00000001800b2640 f   utils:GeomUtil.obj
 0001:000b16b0       ?ToRECT@@YA?AUtagRECT@@AEBURectF@@@Z 00000001800b26b0 f   utils:GeomUtil.obj
 0001:000b1730       ?ToRect@@YA?AURect@@AEBURectF@@@Z 00000001800b2730 f   utils:GeomUtil.obj
 0001:000b17f0       ?ToRect@@YA?AURect@@AEBUtagRECT@@@Z 00000001800b27f0 f   utils:GeomUtil.obj
 0001:000b1870       ?ToGdipRect@@YA?AVRect@Gdiplus@@AEBU1@@Z 00000001800b2870 f   utils:GeomUtil.obj
 0001:000b18c0       ?ToGdipRectF@@YA?AVRectF@Gdiplus@@AEBURect@@@Z 00000001800b28c0 f   utils:GeomUtil.obj
 0001:000b1930       ?ToGdipRect@@YA?AVRect@Gdiplus@@AEBURectF@@@Z 00000001800b2930 f   utils:GeomUtil.obj
 0001:000b1980       ?ToGdipRectF@@YA?AVRectF@Gdiplus@@AEBU1@@Z 00000001800b2980 f   utils:GeomUtil.obj
 0001:000b19e0       ?NormalizeRotation@@YAHH@Z 00000001800b29e0 f   utils:GeomUtil.obj
 0001:000b2330       ??$max@M@std@@YAAEBMAEBM0@Z 00000001800b3330 f i utils:GeomUtil.obj
 0001:000b2390       ??0Point@Gdiplus@@QEAA@HH@Z 00000001800b3390 f i utils:GeomUtil.obj
 0001:000b23d0       ?DpiGetForHwnd@@YAHPEAUHWND__@@@Z 00000001800b33d0 f   utils:Dpi.obj
 0001:000b24a0       ?DpiGet@@YAHPEAUHWND__@@@Z 00000001800b34a0 f   utils:Dpi.obj
 0001:000b24e0       ?DpiScale@@YAHPEAUHWND__@@H@Z 00000001800b34e0 f   utils:Dpi.obj
 0001:000b2530       ?DpiScale@@YAXPEAUHWND__@@AEAH1@Z 00000001800b3530 f   utils:Dpi.obj
 0001:000b25b0       ?DpiScale@@YAHPEAUHDC__@@H@Z 00000001800b35b0 f   utils:Dpi.obj
 0001:000b2680       ??0ScopedGetDC@@QEAA@PEAUHWND__@@@Z 00000001800b3680 f i utils:Dpi.obj
 0001:000b26f0       ??1ScopedGetDC@@QEAA@XZ    00000001800b36f0 f i utils:Dpi.obj
 0001:000b2720       ??BScopedGetDC@@QEBAPEAUHDC__@@XZ 00000001800b3720 f i utils:Dpi.obj
 0001:000b2740       ?RectToRectF@@YA?AVRectF@Gdiplus@@VRect@2@@Z 00000001800b3740 f   utils:GdiPlusUtil.obj
 0001:000b27b0       ?MeasureTextAccurate@@YA?AURectF@@PEAVGraphics@Gdiplus@@PEAVFont@3@PEB_WH@Z 00000001800b37b0 f   utils:GdiPlusUtil.obj
 0001:000b2a20       ?MeasureTextAccurate2@@YA?AURectF@@PEAVGraphics@Gdiplus@@PEAVFont@3@PEB_WH@Z 00000001800b3a20 f   utils:GdiPlusUtil.obj
 0001:000b2d10       ?MeasureTextStandard@@YA?AURectF@@PEAVGraphics@Gdiplus@@PEAVFont@3@PEB_WH@Z 00000001800b3d10 f   utils:GdiPlusUtil.obj
 0001:000b2dc0       ?MeasureTextQuick@@YA?AURectF@@PEAVGraphics@Gdiplus@@PEAVFont@3@PEB_WH@Z 00000001800b3dc0 f   utils:GdiPlusUtil.obj
 0001:000b3260       ?MeasureText@@YA?AURectF@@PEAVGraphics@Gdiplus@@PEAVFont@3@PEB_W_KP6A?AU1@012H@Z@Z 00000001800b4260 f   utils:GdiPlusUtil.obj
 0001:000b3380       ?GetBaseTransform@@YAXAEAVMatrix@Gdiplus@@VRectF@2@MH@Z 00000001800b4380 f   utils:GdiPlusUtil.obj
 0001:000b34f0       ?BitmapFromDataWin@@YAPEAVBitmap@Gdiplus@@AEBUByteSlice@@@Z 00000001800b44f0 f   utils:GdiPlusUtil.obj
 0001:000b3630       ?BitmapSizeFromData@@YA?AUSize@@AEBUByteSlice@@@Z 00000001800b4630 f   utils:GdiPlusUtil.obj
 0001:000b39e0       ?GetEncoderClsid@@YA?AU_GUID@@PEB_W@Z 00000001800b49e0 f   utils:GdiPlusUtil.obj
 0001:000b3c00       ?LoadRenderedBitmapWin@@YAPEAURenderedBitmap@@PEBD@Z 00000001800b4c00 f   utils:GdiPlusUtil.obj
 0001:000b3da0       ?StringLenForWidth@@YA_KPEAVGraphics@Gdiplus@@PEAVFont@2@PEB_W_KMP6A?AURectF@@012H@Z@Z 00000001800b4da0 f   utils:GdiPlusUtil.obj
 0001:000b3fe0       ?GetSpaceDx@@YAMPEAVGraphics@Gdiplus@@PEAVFont@2@P6A?AURectF@@01PEB_WH@Z@Z 00000001800b4fe0 f   utils:GdiPlusUtil.obj
 0001:000b65a0       ??$IID_PPV_ARGS_Helper@UIWICImagingFactory@@@@YAPEAPEAXPEAPEAUIWICImagingFactory@@@Z 00000001800b75a0 f i utils:GdiPlusUtil.obj
 0001:000b65b0       ??0?$FixedArray@VCharacterRange@Gdiplus@@$0EAA@@@QEAA@_K@Z 00000001800b75b0 f i utils:GdiPlusUtil.obj
 0001:000b6650       ??0?$FixedArray@VRegion@Gdiplus@@$0EAA@@@QEAA@_K@Z 00000001800b7650 f i utils:GdiPlusUtil.obj
 0001:000b66f0       ??0?$ScopedComPtr@UIWICBitmapDecoder@@@@QEAA@XZ 00000001800b76f0 f i utils:GdiPlusUtil.obj
 0001:000b6710       ??0?$ScopedComPtr@UIWICBitmapFrameDecode@@@@QEAA@XZ 00000001800b7710 f i utils:GdiPlusUtil.obj
 0001:000b6730       ??0?$ScopedComPtr@UIWICFormatConverter@@@@QEAA@XZ 00000001800b7730 f i utils:GdiPlusUtil.obj
 0001:000b6750       ??0?$ScopedComPtr@UIWICImagingFactory@@@@QEAA@XZ 00000001800b7750 f i utils:GdiPlusUtil.obj
 0001:000b6770       ??0?$ScopedComPtr@UIWICMetadataQueryReader@@@@QEAA@XZ 00000001800b7770 f i utils:GdiPlusUtil.obj
 0001:000b6790       ??0?$ScopedMem@VImageCodecInfo@Gdiplus@@@@QEAA@PEAVImageCodecInfo@Gdiplus@@@Z 00000001800b7790 f i utils:GdiPlusUtil.obj
 0001:000b67c0       ??0?$Vec@PEAVFont@Gdiplus@@@@QEAA@_KPEAUAllocator@@@Z 00000001800b77c0 f i utils:GdiPlusUtil.obj
 0001:000b6880       ??0?$Vec@_N@@QEAA@_KPEAUAllocator@@@Z 00000001800b7880 f i utils:GdiPlusUtil.obj
 0001:000b6940       ??0Bitmap@Gdiplus@@QEAA@PEAUIStream@@H@Z 00000001800b7940 f i utils:GdiPlusUtil.obj
 0001:000b69f0       ??0CharacterRange@Gdiplus@@QEAA@HH@Z 00000001800b79f0 f i utils:GdiPlusUtil.obj
 0001:000b6a30       ??0CharacterRange@Gdiplus@@QEAA@XZ 00000001800b7a30 f i utils:GdiPlusUtil.obj
 0001:000b6a60       ??0RectF@Gdiplus@@QEAA@XZ  00000001800b7a60 f i utils:GdiPlusUtil.obj
 0001:000b6ab0       ??0StringFormat@Gdiplus@@QEAA@PEBV01@@Z 00000001800b7ab0 f i utils:GdiPlusUtil.obj
 0001:000b6b30       ??1?$FixedArray@VCharacterRange@Gdiplus@@$0EAA@@@QEAA@XZ 00000001800b7b30 f i utils:GdiPlusUtil.obj
 0001:000b6b60       ??1?$FixedArray@VRegion@Gdiplus@@$0EAA@@@QEAA@XZ 00000001800b7b60 f i utils:GdiPlusUtil.obj
 0001:000b6bb0       ??1?$ScopedComPtr@UIWICBitmapDecoder@@@@QEAA@XZ 00000001800b7bb0 f i utils:GdiPlusUtil.obj
 0001:000b6bf0       ??1?$ScopedComPtr@UIWICBitmapFrameDecode@@@@QEAA@XZ 00000001800b7bf0 f i utils:GdiPlusUtil.obj
 0001:000b6c30       ??1?$ScopedComPtr@UIWICFormatConverter@@@@QEAA@XZ 00000001800b7c30 f i utils:GdiPlusUtil.obj
 0001:000b6c70       ??1?$ScopedComPtr@UIWICImagingFactory@@@@QEAA@XZ 00000001800b7c70 f i utils:GdiPlusUtil.obj
 0001:000b6cb0       ??1?$ScopedComPtr@UIWICMetadataQueryReader@@@@QEAA@XZ 00000001800b7cb0 f i utils:GdiPlusUtil.obj
 0001:000b6cf0       ??1?$ScopedMem@VImageCodecInfo@Gdiplus@@@@QEAA@XZ 00000001800b7cf0 f i utils:GdiPlusUtil.obj
 0001:000b6d20       ??1?$Vec@PEAVFont@Gdiplus@@@@QEAA@XZ 00000001800b7d20 f i utils:GdiPlusUtil.obj
 0001:000b6d40       ??1?$Vec@_N@@QEAA@XZ       00000001800b7d40 f i utils:GdiPlusUtil.obj
 0001:000b6d60       ??B?$ScopedComPtr@UIWICBitmapFrameDecode@@@@QEBAPEAUIWICBitmapFrameDecode@@XZ 00000001800b7d60 f i utils:GdiPlusUtil.obj
 0001:000b6d80       ??B?$ScopedMem@VImageCodecInfo@Gdiplus@@@@QEBAPEAVImageCodecInfo@Gdiplus@@XZ 00000001800b7d80 f i utils:GdiPlusUtil.obj
 0001:000b6da0       ??C?$ScopedComPtr@UIWICBitmapDecoder@@@@QEBAPEAUIWICBitmapDecoder@@XZ 00000001800b7da0 f i utils:GdiPlusUtil.obj
 0001:000b6dc0       ??C?$ScopedComPtr@UIWICBitmapFrameDecode@@@@QEBAPEAUIWICBitmapFrameDecode@@XZ 00000001800b7dc0 f i utils:GdiPlusUtil.obj
 0001:000b6de0       ??C?$ScopedComPtr@UIWICFormatConverter@@@@QEBAPEAUIWICFormatConverter@@XZ 00000001800b7de0 f i utils:GdiPlusUtil.obj
 0001:000b6e00       ??C?$ScopedComPtr@UIWICImagingFactory@@@@QEBAPEAUIWICImagingFactory@@XZ 00000001800b7e00 f i utils:GdiPlusUtil.obj
 0001:000b6e20       ??C?$ScopedComPtr@UIWICMetadataQueryReader@@@@QEBAPEAUIWICMetadataQueryReader@@XZ 00000001800b7e20 f i utils:GdiPlusUtil.obj
 0001:000b6e40       ??I?$ScopedComPtr@UIWICBitmapDecoder@@@@QEAAPEAPEAUIWICBitmapDecoder@@XZ 00000001800b7e40 f i utils:GdiPlusUtil.obj
 0001:000b6e50       ??I?$ScopedComPtr@UIWICBitmapFrameDecode@@@@QEAAPEAPEAUIWICBitmapFrameDecode@@XZ 00000001800b7e50 f i utils:GdiPlusUtil.obj
 0001:000b6e60       ??I?$ScopedComPtr@UIWICFormatConverter@@@@QEAAPEAPEAUIWICFormatConverter@@XZ 00000001800b7e60 f i utils:GdiPlusUtil.obj
 0001:000b6e70       ??I?$ScopedComPtr@UIWICMetadataQueryReader@@@@QEAAPEAPEAUIWICMetadataQueryReader@@XZ 00000001800b7e70 f i utils:GdiPlusUtil.obj
 0001:000b6e80       ??_I@YAXPEAX_K1P6AX0@Z@Z   00000001800b7e80 f i utils:GdiPlusUtil.obj
 0001:000b6f30       ?Append@?$Vec@PEAVFont@Gdiplus@@@@QEAA_NAEBQEAVFont@Gdiplus@@@Z 00000001800b7f30 f i utils:GdiPlusUtil.obj
 0001:000b6f70       ?Append@?$Vec@_N@@QEAA_NAEB_N@Z 00000001800b7f70 f i utils:GdiPlusUtil.obj
 0001:000b6fb0       ?Create@?$ScopedComPtr@UIWICImagingFactory@@@@QEAA_NU_GUID@@@Z 00000001800b7fb0 f i utils:GdiPlusUtil.obj
 0001:000b7090       ?EnsureCap@?$Vec@PEAVFont@Gdiplus@@@@IEAA_N_K@Z 00000001800b8090 f i utils:GdiPlusUtil.obj
 0001:000b70e0       ?EnsureCap@?$Vec@_N@@IEAA_N_K@Z 00000001800b80e0 f i utils:GdiPlusUtil.obj
 0001:000b7130       ?EnsureCapSlow@?$Vec@PEAVFont@Gdiplus@@@@IEAA_N_K@Z 00000001800b8130 f i utils:GdiPlusUtil.obj
 0001:000b7340       ?EnsureCapSlow@?$Vec@_N@@IEAA_N_K@Z 00000001800b8340 f i utils:GdiPlusUtil.obj
 0001:000b7530       ?Find@?$Vec@PEAVFont@Gdiplus@@@@QEBAHAEBQEAVFont@Gdiplus@@_K@Z 00000001800b8530 f i utils:GdiPlusUtil.obj
 0001:000b75b0       ?FreeEls@?$Vec@PEAVFont@Gdiplus@@@@IEAAXXZ 00000001800b85b0 f i utils:GdiPlusUtil.obj
 0001:000b7610       ?FreeEls@?$Vec@_N@@IEAAXXZ 00000001800b8610 f i utils:GdiPlusUtil.obj
 0001:000b7670       ?FromStream@Bitmap@Gdiplus@@SAPEAV12@PEAUIStream@@H@Z 00000001800b8670 f i utils:GdiPlusUtil.obj
 0001:000b76e0       ?GenericTypographic@StringFormat@Gdiplus@@SAPEBV12@XZ 00000001800b86e0 f i utils:GdiPlusUtil.obj
 0001:000b7720       ?Get@?$FixedArray@VCharacterRange@Gdiplus@@$0EAA@@@QEAAPEAVCharacterRange@Gdiplus@@XZ 00000001800b8720 f i utils:GdiPlusUtil.obj
 0001:000b7770       ?Get@?$FixedArray@VRegion@Gdiplus@@$0EAA@@@QEAAPEAVRegion@Gdiplus@@XZ 00000001800b8770 f i utils:GdiPlusUtil.obj
 0001:000b77c0       ?GetBounds@Region@Gdiplus@@QEBA?AW4Status@2@PEAVRectF@2@PEBVGraphics@2@@Z 00000001800b87c0 f i utils:GdiPlusUtil.obj
 0001:000b7810       ?GetFormatFlags@StringFormat@Gdiplus@@QEBAHXZ 00000001800b8810 f i utils:GdiPlusUtil.obj
 0001:000b7850       ?GetImageEncoders@Gdiplus@@YA?AW4Status@1@IIPEAVImageCodecInfo@1@@Z 00000001800b8850 f i utils:GdiPlusUtil.obj
 0001:000b7890       ?GetImageEncodersSize@Gdiplus@@YA?AW4Status@1@PEAI0@Z 00000001800b8890 f i utils:GdiPlusUtil.obj
 0001:000b78c0       ?InsertAt@?$Vec@PEAVFont@Gdiplus@@@@QEAA_N_KAEBQEAVFont@Gdiplus@@@Z 00000001800b88c0 f i utils:GdiPlusUtil.obj
 0001:000b7930       ?InsertAt@?$Vec@_N@@QEAA_N_KAEB_N@Z 00000001800b8930 f i utils:GdiPlusUtil.obj
 0001:000b79a0       ?MakeSpaceAt@?$Vec@PEAVFont@Gdiplus@@@@IEAAPEAPEAVFont@Gdiplus@@_K0@Z 00000001800b89a0 f i utils:GdiPlusUtil.obj
 0001:000b7ae0       ?MakeSpaceAt@?$Vec@_N@@IEAAPEA_N_K0@Z 00000001800b8ae0 f i utils:GdiPlusUtil.obj
 0001:000b7c00       ?MeasureCharacterRanges@Graphics@Gdiplus@@QEBA?AW4Status@2@PEB_WHPEBVFont@2@AEBVRectF@2@PEBVStringFormat@2@HPEAVRegion@2@@Z 00000001800b8c00 f i utils:GdiPlusUtil.obj
 0001:000b7e30       ?MeasureString@Graphics@Gdiplus@@QEBA?AW4Status@2@PEB_WHPEBVFont@2@AEBVPointF@2@PEAVRectF@2@@Z 00000001800b8e30 f i utils:GdiPlusUtil.obj
 0001:000b7f40       ?Reset@?$Vec@PEAVFont@Gdiplus@@@@QEAAXXZ 00000001800b8f40 f i utils:GdiPlusUtil.obj
 0001:000b7fc0       ?Reset@?$Vec@_N@@QEAAXXZ   00000001800b8fc0 f i utils:GdiPlusUtil.obj
 0001:000b8040       ?Rotate@Matrix@Gdiplus@@QEAA?AW4Status@2@MW4MatrixOrder@2@@Z 00000001800b9040 f i utils:GdiPlusUtil.obj
 0001:000b8090       ?RotateFlip@Image@Gdiplus@@QEAA?AW4Status@2@W4RotateFlipType@2@@Z 00000001800b9090 f i utils:GdiPlusUtil.obj
 0001:000b80d0       ?Scale@Matrix@Gdiplus@@QEAA?AW4Status@2@MMW4MatrixOrder@2@@Z 00000001800b90d0 f i utils:GdiPlusUtil.obj
 0001:000b8130       ?SetMeasurableCharacterRanges@StringFormat@Gdiplus@@QEAA?AW4Status@2@HPEBVCharacterRange@2@@Z 00000001800b9130 f i utils:GdiPlusUtil.obj
 0001:000b8180       ?at@?$Vec@_N@@QEBAAEA_NH@Z 00000001800b9180 f i utils:GdiPlusUtil.obj
 0001:000b8220       ?size@?$Vec@PEAVFont@Gdiplus@@@@QEBA_KXZ 00000001800b9220 f i utils:GdiPlusUtil.obj
 0001:000b8240       PropVariantInit            00000001800b9240 f i utils:GdiPlusUtil.obj
 0001:000b8270       ?WriteData@ZipCreator@@AEAA_NPEBX_K@Z 00000001800b9270 f   utils:ZipUtil.obj
 0001:000b8310       ?AddFileData@ZipCreator@@AEAA_NPEBDPEBX_KI@Z 00000001800b9310 f   utils:ZipUtil.obj
 0001:000b8880       ??0ZipCreator@@QEAA@PEBD@Z 00000001800b9880 f   utils:ZipUtil.obj
 0001:000b8920       ??0ZipCreator@@QEAA@PEAUISequentialStream@@@Z 00000001800b9920 f   utils:ZipUtil.obj
 0001:000b89a0       ??1ZipCreator@@QEAA@XZ     00000001800b99a0 f   utils:ZipUtil.obj
 0001:000b89e0       ?AddFile@ZipCreator@@QEAA_NPEBD0@Z 00000001800b99e0 f   utils:ZipUtil.obj
 0001:000b8b80       ?AddFileFromDir@ZipCreator@@QEAA_NPEBD0@Z 00000001800b9b80 f   utils:ZipUtil.obj
 0001:000b8c20       ?AddDir@ZipCreator@@QEAA_NPEBD_N@Z 00000001800b9c20 f   utils:ZipUtil.obj
 0001:000b8d60       ?Finish@ZipCreator@@QEAA_NXZ 00000001800b9d60 f   utils:ZipUtil.obj
 0001:000b8fc0       ?OpenDirAsZipStream@@YAPEAUIStream@@PEBD_N@Z 00000001800b9fc0 f   utils:ZipUtil.obj
 0001:000b9140       ?Ungzip@@YA?AUByteSlice@@AEBU1@@Z 00000001800ba140 f   utils:ZipUtil.obj
 0001:000b99a0       ??0FileWriteStream@@QEAA@PEBD@Z 00000001800ba9a0 f i utils:ZipUtil.obj
 0001:000b9a60       ??0ISequentialStream@@QEAA@XZ 00000001800baa60 f i utils:ZipUtil.obj
 0001:000b9a90       ??1ByteWriter@@QEAA@XZ     00000001800baa90 f i utils:ZipUtil.obj
 0001:000b9ac0       ??1ByteWriterLE@@QEAA@XZ   00000001800baac0 f i utils:ZipUtil.obj
 0001:000b9ae0       ??1FileWriteStream@@UEAA@XZ 00000001800baae0 f i utils:ZipUtil.obj
 0001:000b9b20       ??_EFileWriteStream@@UEAAPEAXI@Z 00000001800bab20 f i utils:ZipUtil.obj
 0001:000b9b20       ??_GFileWriteStream@@UEAAPEAXI@Z 00000001800bab20 f i utils:ZipUtil.obj
 0001:000b9b70       ?AddRef@FileWriteStream@@UEAAKXZ 00000001800bab70 f i utils:ZipUtil.obj
 0001:000b9ba0       ?QueryInterface@FileWriteStream@@UEAAJAEBU_GUID@@PEAPEAX@Z 00000001800baba0 f i utils:ZipUtil.obj
 0001:000b9be0       ?Read@FileWriteStream@@UEAAJPEAXKPEAK@Z 00000001800babe0 f i utils:ZipUtil.obj
 0001:000b9c00       ?Release@FileWriteStream@@UEAAKXZ 00000001800bac00 f i utils:ZipUtil.obj
 0001:000b9ca0       ?Write@FileWriteStream@@UEAAJPEBXKPEAK@Z 00000001800baca0 f i utils:ZipUtil.obj
 0001:000b9d50       ?Parse@json@@YA_NPEBDPEAUValueVisitor@1@@Z 00000001800bad50 f   utils:JsonParser.obj
 0001:000bace0       ??0ParseArgs@json@@QEAA@PEAUValueVisitor@1@@Z 00000001800bbce0 f i utils:JsonParser.obj
 0001:000bad40       ??1ParseArgs@json@@QEAA@XZ 00000001800bbd40 f i utils:JsonParser.obj
 0001:000bad70       ??0iterator@DirIter@@QEAA@PEBU1@_N@Z 00000001800bbd70 f   utils:DirIter.obj
 0001:000bae70       ??1iterator@DirIter@@QEAA@XZ 00000001800bbe70 f   utils:DirIter.obj
 0001:000baeb0       ??Diterator@DirIter@@QEAAPEAUDirIterEntry@@XZ 00000001800bbeb0 f   utils:DirIter.obj
 0001:000baee0       ??Eiterator@DirIter@@QEAAAEAU01@XZ 00000001800bbee0 f   utils:DirIter.obj
 0001:000baf10       ??Eiterator@DirIter@@QEAA?AU01@H@Z 00000001800bbf10 f   utils:DirIter.obj
 0001:000baf60       ??Hiterator@DirIter@@QEAAAEAU01@H@Z 00000001800bbf60 f   utils:DirIter.obj
 0001:000baf90       ??8@YA_NAEBUiterator@DirIter@@0@Z 00000001800bbf90 f   utils:DirIter.obj
 0001:000baff0       ??9@YA_NAEBUiterator@DirIter@@0@Z 00000001800bbff0 f   utils:DirIter.obj
 0001:000bb050       ?begin@DirIter@@QEBA?AUiterator@1@XZ 00000001800bc050 f   utils:DirIter.obj
 0001:000bb080       ?end@DirIter@@QEBA?AUiterator@1@XZ 00000001800bc080 f   utils:DirIter.obj
 0001:000bb0b0       ?StartDirTraverseAsync@@YAXPEAUStrQueue@@PEBD_N@Z 00000001800bc0b0 f   utils:DirIter.obj
 0001:000bb170       ?GetFileSize@@YA_JPEAU_WIN32_FIND_DATAW@@@Z 00000001800bc170 f   utils:DirIter.obj
 0001:000bb1a0       ?IsDirectory@@YA_NK@Z      00000001800bc1a0 f   utils:DirIter.obj
 0001:000bb1e0       ?IsRegularFile@@YA_NK@Z    00000001800bc1e0 f   utils:DirIter.obj
 0001:000bba00       ??$MkFunc0@UDirTraverseThreadData@@@@YA?AUFunc0@@P6AXPEAUDirTraverseThreadData@@@Z0@Z 00000001800bca00 f i utils:DirIter.obj
 0001:000bba70       ??0DirIterEntry@@QEAA@XZ   00000001800bca70 f i utils:DirIter.obj
 0001:000bbad0       ??0iterator@DirIter@@QEAA@AEBU01@@Z 00000001800bcad0 f i utils:DirIter.obj
 0001:000bbbe0       ??1DirTraverseThreadData@@QEAA@XZ 00000001800bcbe0 f i utils:DirIter.obj
 0001:000bbc10       ??_GDirTraverseThreadData@@QEAAPEAXI@Z 00000001800bcc10 f i utils:DirIter.obj
 0001:000bbc60       ?FindHtmlTag@@YA?AW4HtmlTag@@PEBD_K@Z 00000001800bcc60 f   utils:HtmlParserLookup.obj
 0001:000bdca0       ?IsTagSelfClosing@@YA_NW4HtmlTag@@@Z 00000001800beca0 f   utils:HtmlParserLookup.obj
 0001:000bdd60       ?IsInlineTag@@YA_NW4HtmlTag@@@Z 00000001800bed60 f   utils:HtmlParserLookup.obj
 0001:000bde40       ?FindAlignAttr@@YA?AW4AlignAttr@@PEBD_K@Z 00000001800bee40 f   utils:HtmlParserLookup.obj
 0001:000be600       ?FindHtmlEntityRune@@YAIPEBD_K@Z 00000001800bf600 f   utils:HtmlParserLookup.obj
 0001:000c4b00       ?FindCssProp@@YA?AW4CssProp@@PEBD_K@Z 00000001800c5b00 f   utils:HtmlParserLookup.obj
 0001:000c84c0       ?NextRule@CssPullParser@@QEAA_NXZ 00000001800c94c0 f   utils:CssParser.obj
 0001:000c8770       ?NextSelector@CssPullParser@@QEAAPEBUCssSelector@@XZ 00000001800c9770 f   utils:CssParser.obj
 0001:000c8b80       ?NextProperty@CssPullParser@@QEAAPEBUCssProperty@@XZ 00000001800c9b80 f   utils:CssParser.obj
 0001:000c9770       ?GetByte@BitReader@@AEBAE_K@Z 00000001800ca770 f   utils:BitReader.obj
 0001:000c97b0       ??0BitReader@@QEAA@PEAE_K@Z 00000001800ca7b0 f   utils:BitReader.obj
 0001:000c9820       ??1BitReader@@QEAA@XZ      00000001800ca820 f   utils:BitReader.obj
 0001:000c9830       ?Peek@BitReader@@QEAAI_K@Z 00000001800ca830 f   utils:BitReader.obj
 0001:000c99b0       ?BitsLeft@BitReader@@QEBA_KXZ 00000001800ca9b0 f   utils:BitReader.obj
 0001:000c99f0       ?Eat@BitReader@@QEAA_N_K@Z 00000001800ca9f0 f   utils:BitReader.obj
 0001:000c9b00       ??0ByteOrderDecoder@@QEAA@PEBD_KW4ByteOrder@0@@Z 00000001800cab00 f   utils:ByteOrderDecoder.obj
 0001:000c9b70       ??0ByteOrderDecoder@@QEAA@PEBE_KW4ByteOrder@0@@Z 00000001800cab70 f   utils:ByteOrderDecoder.obj
 0001:000c9be0       ?Bytes@ByteOrderDecoder@@QEAAXPEAD_K@Z 00000001800cabe0 f   utils:ByteOrderDecoder.obj
 0001:000c9c70       ?UInt8@ByteOrderDecoder@@QEAAEXZ 00000001800cac70 f   utils:ByteOrderDecoder.obj
 0001:000c9cf0       ?UInt16@ByteOrderDecoder@@QEAAGXZ 00000001800cacf0 f   utils:ByteOrderDecoder.obj
 0001:000c9d90       ?UInt32@ByteOrderDecoder@@QEAAIXZ 00000001800cad90 f   utils:ByteOrderDecoder.obj
 0001:000c9e30       ?UInt64@ByteOrderDecoder@@QEAA_KXZ 00000001800cae30 f   utils:ByteOrderDecoder.obj
 0001:000c9ec0       ?Skip@ByteOrderDecoder@@QEAAX_K@Z 00000001800caec0 f   utils:ByteOrderDecoder.obj
 0001:000c9f30       ?Unskip@ByteOrderDecoder@@QEAAX_K@Z 00000001800caf30 f   utils:ByteOrderDecoder.obj
 0001:000c9fb0       ?UInt16BE@@YAGPEBE@Z       00000001800cafb0 f   utils:ByteOrderDecoder.obj
 0001:000c9ff0       ?UInt16LE@@YAGPEBE@Z       00000001800caff0 f   utils:ByteOrderDecoder.obj
 0001:000ca030       ?UInt32BE@@YAIPEBE@Z       00000001800cb030 f   utils:ByteOrderDecoder.obj
 0001:000ca0a0       ?UInt32LE@@YAIPEBE@Z       00000001800cb0a0 f   utils:ByteOrderDecoder.obj
 0001:000ca280       ?Format@fmt@@YAPEADPEBDAEBUArg@1@11111@Z 00000001800cb280 f   utils:StrFormat.obj
 0001:000ca4b0       ?FormatTemp@fmt@@YAPEADPEBDUArg@1@@Z 00000001800cb4b0 f   utils:StrFormat.obj
 0001:000ca520       ?FormatTemp@fmt@@YAPEADPEBDUArg@1@1@Z 00000001800cb520 f   utils:StrFormat.obj
 0001:000ca5a0       ?FormatTemp@fmt@@YAPEADPEBDUArg@1@11@Z 00000001800cb5a0 f   utils:StrFormat.obj
 0001:000ca620       ?Eval@Fmt@fmt@@QEAA_NPEAPEBUArg@2@H@Z 00000001800cb620 f   utils:StrFormat.obj
 0001:000cb480       ?FormatTemp@fmt@@YAPEADPEBDPEAPEBUArg@1@H@Z 00000001800cc480 f   utils:StrFormat.obj
 0001:000cb5f0       ?FormatTemp@fmt@@YAPEADPEBDAEBUArg@1@11111@Z 00000001800cc5f0 f   utils:StrFormat.obj
 0001:000cbc40       ??$__builtin_array_init_helper@UInst@fmt@@@@YAXPEAUInst@fmt@@_K@Z 00000001800ccc40 f i utils:StrFormat.obj
 0001:000cbd30       ??0Fmt@fmt@@QEAA@XZ        00000001800ccd30 f i utils:StrFormat.obj
 0001:000cbe20       ??1Fmt@fmt@@QEAA@XZ        00000001800cce20 f i utils:StrFormat.obj
 0001:000cbe50       ?HasSignature@tga@@YA_NAEBUByteSlice@@@Z 00000001800cce50 f   utils:TgaReader.obj
 0001:000cbf00       ?ImageFromData@tga@@YAPEAVBitmap@Gdiplus@@AEBUByteSlice@@@Z 00000001800ccf00 f   utils:TgaReader.obj
 0001:000cc350       ?SerializeBitmap@tga@@YA?AUByteSlice@@PEAUHBITMAP__@@@Z 00000001800cd350 f   utils:TgaReader.obj
 0001:000cdc60       ?SetPropertyItem@Image@Gdiplus@@QEAA?AW4Status@2@PEBVPropertyItem@2@@Z 00000001800cec60 f i utils:TgaReader.obj
 0001:000cdca0       ?memeq3@tga@@YA_NPEBD0@Z   00000001800ceca0 f i utils:TgaReader.obj
 0001:000cdd20       snprintf                   00000001800ced20 f i utils:TgaReader.obj
 0001:000cdd90       ?HasSignature@webp@@YA_NAEBUByteSlice@@@Z 00000001800ced90 f   utils:WebpReader.obj
 0001:000cde20       ?SizeFromData@webp@@YA?AUSize@@AEBUByteSlice@@@Z 00000001800cee20 f   utils:WebpReader.obj
 0001:000cde90       ?ImageFromData@webp@@YAPEAVBitmap@Gdiplus@@AEBUByteSlice@@@Z 00000001800cee90 f   utils:WebpReader.obj
 0001:000ce110       ?MkGray@@YAKE@Z            00000001800cf110 f   utils:ColorUtil.obj
 0001:000ce140       ?MkColor@@YAKEEEE@Z        00000001800cf140 f   utils:ColorUtil.obj
 0001:000ce1a0       ?UnpackColor@@YAXKAEAE00@Z 00000001800cf1a0 f   utils:ColorUtil.obj
 0001:000ce200       ?UnpackColor@@YAXKAEAE000@Z 00000001800cf200 f   utils:ColorUtil.obj
 0001:000ce280       ?IsSpecialColor@@YA_NK@Z   00000001800cf280 f   utils:ColorUtil.obj
 0001:000ce2c0       ?ParseColor@@YAXAEAUParsedColor@@PEBD@Z 00000001800cf2c0 f   utils:ColorUtil.obj
 0001:000ce500       ?ParseColor@@YA_NPEAKPEBD@Z 00000001800cf500 f   utils:ColorUtil.obj
 0001:000ce570       ?ParseColor@@YAKPEBDK@Z    00000001800cf570 f   utils:ColorUtil.obj
 0001:000ce5b0       ?SerializeColorTemp@@YAPEADK@Z 00000001800cf5b0 f   utils:ColorUtil.obj
 0001:000ce660       ?MkPdfColor@@YA_KEEEE@Z    00000001800cf660 f   utils:ColorUtil.obj
 0001:000ce6d0       ?UnpackPdfColor@@YAX_KAEAE111@Z 00000001800cf6d0 f   utils:ColorUtil.obj
 0001:000ce760       ?SerializePdfColor@@YAX_KAEAUStr@str@@@Z 00000001800cf760 f   utils:ColorUtil.obj
 0001:000ce7d0       ?AdjustLightness@@YAKKM@Z  00000001800cf7d0 f   utils:ColorUtil.obj
 0001:000ceb90       ?AdjustLightness2@@YAKKM@Z 00000001800cfb90 f   utils:ColorUtil.obj
 0001:000cec70       ?GetLightness@@YAMK@Z      00000001800cfc70 f   utils:ColorUtil.obj
 0001:000ced00       ?IsLightColor@@YA_NK@Z     00000001800cfd00 f   utils:ColorUtil.obj
 0001:000cedb0       ?Unblend@@YA?AVColor@Gdiplus@@KE@Z 00000001800cfdb0 f   utils:ColorUtil.obj
 0001:000cef60       ?GdiRgbFromCOLORREF@@YA?AVColor@Gdiplus@@K@Z 00000001800cff60 f   utils:ColorUtil.obj
 0001:000cefb0       ?GdiRgbaFromCOLORREF@@YA?AVColor@Gdiplus@@K@Z 00000001800cffb0 f   utils:ColorUtil.obj
 0001:000cefe0       ?GetRed@@YAEK@Z            00000001800cffe0 f   utils:ColorUtil.obj
 0001:000cf000       ?GetGreen@@YAEK@Z          00000001800d0000 f   utils:ColorUtil.obj
 0001:000cf020       ?GetBlue@@YAEK@Z           00000001800d0020 f   utils:ColorUtil.obj
 0001:000cf040       ?GetAlpha@@YAEK@Z          00000001800d0040 f   utils:ColorUtil.obj
 0001:000cf430       ??$max@E@std@@YAAEBEAEBE0@Z 00000001800d0430 f i utils:ColorUtil.obj
 0001:000cf490       ??$min@E@std@@YAAEBEAEBE0@Z 00000001800d0490 f i utils:ColorUtil.obj
 0001:000cf4f0       ??0ParsedColor@@QEAA@XZ    00000001800d04f0 f i utils:ColorUtil.obj
 0001:000cf540       ?InitDynCalls@@YAXXZ       00000001800d0540 f   utils:WinDynCalls.obj
 0001:000cfab0       ?IsAppThemed@theme@@YA_NXZ 00000001800d0ab0 f   utils:WinDynCalls.obj
 0001:000cfaf0       ?OpenThemeData@theme@@YAPEAXPEAUHWND__@@PEB_W@Z 00000001800d0af0 f   utils:WinDynCalls.obj
 0001:000cfb40       ?CloseThemeData@theme@@YAJPEAX@Z 00000001800d0b40 f   utils:WinDynCalls.obj
 0001:000cfb80       ?DrawThemeBackground@theme@@YAJPEAXPEAUHDC__@@HHPEBUtagRECT@@2@Z 00000001800d0b80 f   utils:WinDynCalls.obj
 0001:000cfbf0       ?IsThemeActive@theme@@YAHXZ 00000001800d0bf0 f   utils:WinDynCalls.obj
 0001:000cfc20       ?IsThemeBackgroundPartiallyTransparent@theme@@YAHPEAXHH@Z 00000001800d0c20 f   utils:WinDynCalls.obj
 0001:000cfc70       ?GetThemeColor@theme@@YAJPEAXHHHPEAK@Z 00000001800d0c70 f   utils:WinDynCalls.obj
 0001:000cfcd0       ?IsCompositionEnabled@dwm@@YAHXZ 00000001800d0cd0 f   utils:WinDynCalls.obj
 0001:000cfd10       ?ExtendFrameIntoClientArea@dwm@@YAJPEAUHWND__@@PEBU_MARGINS@@@Z 00000001800d0d10 f   utils:WinDynCalls.obj
 0001:000cfd60       ?DefaultWindowProc@dwm@@YAHPEAUHWND__@@I_K_JPEA_J@Z 00000001800d0d60 f   utils:WinDynCalls.obj
 0001:000cfdc0       ?GetWindowAttribute@dwm@@YAJPEAUHWND__@@KPEAXK@Z 00000001800d0dc0 f   utils:WinDynCalls.obj
 0001:000cfe20       ?SetWindowAttribute@dwm@@YAJPEAUHWND__@@KPEAXK@Z 00000001800d0e20 f   utils:WinDynCalls.obj
 0001:000cfe80       ?SetCaptionColor@dwm@@YAJPEAUHWND__@@K@Z 00000001800d0e80 f   utils:WinDynCalls.obj
 0001:000cfec0       ?SupportsGestures@touch@@YA_NXZ 00000001800d0ec0 f   utils:WinDynCalls.obj
 0001:000cff00       ?GetGestureInfo@touch@@YAHPEAUHGESTUREINFO__@@PEAUtagGESTUREINFO@@@Z 00000001800d0f00 f   utils:WinDynCalls.obj
 0001:000cff50       ?CloseGestureInfoHandle@touch@@YAHPEAUHGESTUREINFO__@@@Z 00000001800d0f50 f   utils:WinDynCalls.obj
 0001:000cff90       ?SetGestureConfig@touch@@YAHPEAUHWND__@@KIPEAUtagGESTURECONFIG@@I@Z 00000001800d0f90 f   utils:WinDynCalls.obj
 0001:000cfff0       ?NoDllHijacking@@YAXXZ     00000001800d0ff0 f   utils:WinDynCalls.obj
 0001:000d0030       ?PrioritizeSystemDirectoriesForDllLoad@@YAXXZ 00000001800d1030 f   utils:WinDynCalls.obj
 0001:000d0450       ?AvifSizeFromData@@YA?AUSize@@AEBUByteSlice@@@Z 00000001800d1450 f   utils:AvifReader.obj
 0001:000d0590       ?AvifImageFromData@@YAPEAVBitmap@Gdiplus@@AEBUByteSlice@@@Z 00000001800d1590 f   utils:AvifReader.obj
 0001:000d0b40       ??0ByteWriter@@QEAA@_K@Z   00000001800d1b40 f   utils:ByteWriter.obj
 0001:000d0b90       ??0ByteWriter@@QEAA@AEBU0@@Z 00000001800d1b90 f   utils:ByteWriter.obj
 0001:000d0c10       ?Write8@ByteWriter@@QEAAXE@Z 00000001800d1c10 f   utils:ByteWriter.obj
 0001:000d0c50       ?Write8x2@ByteWriter@@QEAAXEE@Z 00000001800d1c50 f   utils:ByteWriter.obj
 0001:000d0cb0       ?Write16@ByteWriter@@QEAAXG@Z 00000001800d1cb0 f   utils:ByteWriter.obj
 0001:000d0d30       ?Write32@ByteWriter@@QEAAXI@Z 00000001800d1d30 f   utils:ByteWriter.obj
 0001:000d0df0       ?Write64@ByteWriter@@QEAAX_K@Z 00000001800d1df0 f   utils:ByteWriter.obj
 0001:000d0e80       ?Size@ByteWriter@@QEBA_KXZ 00000001800d1e80 f   utils:ByteWriter.obj
 0001:000d0eb0       ?AsByteSlice@ByteWriter@@QEBA?AUByteSlice@@XZ 00000001800d1eb0 f   utils:ByteWriter.obj
 0001:000d0ef0       ??0ByteWriterLE@@QEAA@_K@Z 00000001800d1ef0 f   utils:ByteWriter.obj
 0001:000d1030       ?SetThreadName@@YAXPEBDK@Z 00000001800d2030 f   utils:ThreadUtil.obj
 0001:000d10e0       ?RunAsync@@YAXAEBUFunc0@@PEBD@Z 00000001800d20e0 f   utils:ThreadUtil.obj
 0001:000d1120       ?StartThread@@YAPEAXAEBUFunc0@@PEBD@Z 00000001800d2120 f   utils:ThreadUtil.obj
 0001:000d11e0       ?AreDangerousThreadsPending@@YA_NXZ 00000001800d21e0 f   utils:ThreadUtil.obj
 0001:000d1300       ??0Func0@@QEAA@AEBU0@@Z    00000001800d2300 f i utils:ThreadUtil.obj
 0001:000d1360       ?Call@Func0@@QEBAXXZ       00000001800d2360 f i utils:ThreadUtil.obj
 0001:000d13e0       ??0StrQueue@@QEAA@XZ       00000001800d23e0 f   utils:StrQueue.obj
 0001:000d1460       ??1StrQueue@@QEAA@XZ       00000001800d2460 f   utils:StrQueue.obj
 0001:000d14b0       ?Lock@StrQueue@@QEAAXXZ    00000001800d24b0 f   utils:StrQueue.obj
 0001:000d14e0       ?Unlock@StrQueue@@QEAAXXZ  00000001800d24e0 f   utils:StrQueue.obj
 0001:000d1510       ?Size@StrQueue@@QEAAHXZ    00000001800d2510 f   utils:StrQueue.obj
 0001:000d1550       ?Append@StrQueue@@QEAAPEADPEBDH@Z 00000001800d2550 f   utils:StrQueue.obj
 0001:000d15c0       ?PopFront@StrQueue@@QEAAPEADXZ 00000001800d25c0 f   utils:StrQueue.obj
 0001:000d1660       ?IsSentinel@StrQueue@@QEAA_NPEAD@Z 00000001800d2660 f   utils:StrQueue.obj
 0001:000d16a0       ?MarkFinished@StrQueue@@QEAAXXZ 00000001800d26a0 f   utils:StrQueue.obj
 0001:000d1710       ?IsFinished@StrQueue@@QEAA_NXZ 00000001800d2710 f   utils:StrQueue.obj
 0001:000d1750       ?Access@StrQueue@@QEAA_NAEBU?$Func1@PEAUStrQueue@@@@@Z 00000001800d2750 f   utils:StrQueue.obj
 0001:000d18e0       ?Call@?$Func1@PEAUStrQueue@@@@QEBAXPEAUStrQueue@@@Z 00000001800d28e0 f i utils:StrQueue.obj
 0001:000d196c       ??0?$Array@D@@QEAA@_K@Z    00000001800d296c f i unrar:dll.obj
 0001:000d19a0       ??0?$Array@_W@@QEAA@XZ     00000001800d29a0 f i unrar:dll.obj
 0001:000d19bc       ??1?$Array@D@@QEAA@XZ      00000001800d29bc f i unrar:dll.obj
 0001:000d19d8       ??1?$Array@_W@@QEAA@XZ     00000001800d29d8 f i unrar:dll.obj
 0001:000d19f4       ??1CommandData@@QEAA@XZ    00000001800d29f4 f i unrar:dll.obj
 0001:000d1afc       ?Add@?$Array@D@@QEAAX_K@Z  00000001800d2afc f i unrar:dll.obj
 0001:000d1bc8       ?Add@?$Array@_W@@QEAAX_K@Z 00000001800d2bc8 f i unrar:dll.obj
 0001:000d1c98       ?ProcessFile@@YAHPEAXHPEAD1PEA_W2@Z 00000001800d2c98 f   unrar:dll.obj
 0001:000d1fd8       ?Push@?$Array@_W@@QEAAX_W@Z 00000001800d2fd8 f i unrar:dll.obj
 0001:000d2090       RARCloseArchive            00000001800d3090 f   unrar:dll.obj
 0001:000d212c       RARGetDllVersion           00000001800d312c f   unrar:dll.obj
 0001:000d2134       RAROpenArchive             00000001800d3134 f   unrar:dll.obj
 0001:000d21b4       RAROpenArchiveEx           00000001800d31b4 f   unrar:dll.obj
 0001:000d2718       RARProcessFile             00000001800d3718 f   unrar:dll.obj
 0001:000d2738       RARProcessFileW            00000001800d3738 f   unrar:dll.obj
 0001:000d2760       RARReadHeader              00000001800d3760 f   unrar:dll.obj
 0001:000d28d0       RARReadHeaderEx            00000001800d38d0 f   unrar:dll.obj
 0001:000d2d8c       RARSetCallback             00000001800d3d8c f   unrar:dll.obj
 0001:000d2da0       RARSetChangeVolProc        00000001800d3da0 f   unrar:dll.obj
 0001:000d2dac       RARSetPassword             00000001800d3dac f   unrar:dll.obj
 0001:000d2e38       RARSetProcessDataProc      00000001800d3e38 f   unrar:dll.obj
 0001:000d2e44       ??0SupportDBCS@@QEAA@XZ    00000001800d3e44 f   unrar:unicode.obj
 0001:000d2e60       ?CharToWide@@YA_NPEBDPEA_W_K@Z 00000001800d3e60 f   unrar:unicode.obj
 0001:000d2ec8       ?Init@SupportDBCS@@QEAAXXZ 00000001800d3ec8 f   unrar:unicode.obj
 0001:000d2f50       ?IsTextUtf8@@YA_NPEBE@Z    00000001800d3f50 f   unrar:unicode.obj
 0001:000d2f68       ?IsTextUtf8@@YA_NPEBE_K@Z  00000001800d3f68 f   unrar:unicode.obj
 0001:000d2fd0       ?RawToWide@@YAPEA_WPEBEPEA_W_K@Z 00000001800d3fd0 f   unrar:unicode.obj
 0001:000d302c       ?UtfToWide@@YA_NPEBDPEA_W_K@Z 00000001800d402c f   unrar:unicode.obj
 0001:000d321c       ?WideToChar@@YA_NPEB_WPEAD_K@Z 00000001800d421c f   unrar:unicode.obj
 0001:000d3284       ?WideToRaw@@YAPEAEPEB_W_KPEAE1@Z 00000001800d4284 f   unrar:unicode.obj
 0001:000d32dc       ?WideToUtf@@YAXPEB_WPEAD_K@Z 00000001800d42dc f   unrar:unicode.obj
 0001:000d3408       ?WideToUtfSize@@YA_KPEB_W@Z 00000001800d4408 f   unrar:unicode.obj
 0001:000d34a8       ?atoilw@@YA_JPEB_W@Z       00000001800d44a8 f   unrar:unicode.obj
 0001:000d3528       ?atoiw@@YAHPEB_W@Z         00000001800d4528 f   unrar:unicode.obj
 0001:000d3530       ?charnext@SupportDBCS@@QEAAPEADPEBD@Z 00000001800d4530 f   unrar:unicode.obj
 0001:000d3554       ?tolowerw@@YAHH@Z          00000001800d4554 f   unrar:unicode.obj
 0001:000d3560       ?toupperw@@YAHH@Z          00000001800d4560 f   unrar:unicode.obj
 0001:000d356c       ?wcscasestr@@YAPEB_WPEB_W0@Z 00000001800d456c f   unrar:unicode.obj
 0001:000d362c       ?wcsicomp@@YAHPEB_W0@Z     00000001800d462c f   unrar:unicode.obj
 0001:000d3664       ?wcslower@@YAPEA_WPEA_W@Z  00000001800d4664 f   unrar:unicode.obj
 0001:000d3684       ?wcsnicomp@@YAHPEB_W0_K@Z  00000001800d4684 f   unrar:unicode.obj
 0001:000d3728       ?wcsupper@@YAPEA_WPEA_W@Z  00000001800d4728 f   unrar:unicode.obj
 0001:000d3748       ??$uiMsg@$$V@@YAXW4UIMESSAGE_CODE@@@Z 00000001800d4748 f i unrar:errhnd.obj
 0001:000d37e4       ??$uiMsg@AEAPEB_W@@YAXW4UIMESSAGE_CODE@@AEAPEB_W@Z 00000001800d47e4 f i unrar:errhnd.obj
 0001:000d388c       ??$uiMsg@AEAPEB_WAEAPEB_W@@YAXW4UIMESSAGE_CODE@@AEAPEB_W1@Z 00000001800d488c f i unrar:errhnd.obj
 0001:000d3934       ??$uiMsg@AEAY0EAA@_W@@YAXW4UIMESSAGE_CODE@@AEAY0EAA@_W@Z 00000001800d4934 f i unrar:errhnd.obj
 0001:000d39dc       ??$uiMsgBase@AEAPEB_W$$V@@YAXAEAVuiMsgStore@@AEAPEB_W@Z 00000001800d49dc f i unrar:errhnd.obj
 0001:000d39f8       ??$uiMsgBase@AEAPEB_WAEAPEB_W@@YAXAEAVuiMsgStore@@AEAPEB_W1@Z 00000001800d49f8 f i unrar:errhnd.obj
 0001:000d3a34       ??$uiMsgBase@AEAY0EAA@_W$$V@@YAXAEAVuiMsgStore@@AEAY0EAA@_W@Z 00000001800d4a34 f i unrar:errhnd.obj
 0001:000d3a4c       ??0ErrorHandler@@QEAA@XZ   00000001800d4a4c f   unrar:errhnd.obj
 0001:000d3a68       ?ArcBrokenMsg@ErrorHandler@@QEAAXPEB_W@Z 00000001800d4a68 f   unrar:errhnd.obj
 0001:000d3aa4       ?AskRepeatRead@ErrorHandler@@QEAAXPEB_WAEA_N11@Z 00000001800d4aa4 f   unrar:errhnd.obj
 0001:000d3ab8       ?AskRepeatWrite@ErrorHandler@@QEAA_NPEB_W_N@Z 00000001800d4ab8 f   unrar:errhnd.obj
 0001:000d3abc       ?ChecksumFailedMsg@ErrorHandler@@QEAAXPEB_W0@Z 00000001800d4abc f   unrar:errhnd.obj
 0001:000d3b04       ?Clean@ErrorHandler@@QEAAXXZ 00000001800d4b04 f   unrar:errhnd.obj
 0001:000d3b1c       ?CloseError@ErrorHandler@@QEAAXPEB_W@Z 00000001800d4b1c f   unrar:errhnd.obj
 0001:000d3b60       ?CreateErrorMsg@ErrorHandler@@QEAAXPEB_W0@Z 00000001800d4b60 f   unrar:errhnd.obj
 0001:000d3ba4       ?CreateErrorMsg@ErrorHandler@@QEAAXPEB_W@Z 00000001800d4ba4 f   unrar:errhnd.obj
 0001:000d3bb0       ?Exit@ErrorHandler@@QEAAXW4RAR_EXIT@@@Z 00000001800d4bb0 f   unrar:errhnd.obj
 0001:000d3be4       ?GeneralErrMsg@ErrorHandler@@QEAAXPEB_WZZ 00000001800d4be4 f   unrar:errhnd.obj
 0001:000d3c84       ?GetSysErrMsg@ErrorHandler@@QEAA_NPEA_W_K@Z 00000001800d4c84 f   unrar:errhnd.obj
 0001:000d3c88       ?GetSystemErrorCode@ErrorHandler@@QEAAHXZ 00000001800d4c88 f   unrar:errhnd.obj
 0001:000d3c90       ?MemoryError@ErrorHandler@@QEAAXXZ 00000001800d4c90 f   unrar:errhnd.obj
 0001:000d3cb8       ?MemoryErrorMsg@ErrorHandler@@QEAAXXZ 00000001800d4cb8 f   unrar:errhnd.obj
 0001:000d3ce4       ?OpenError@ErrorHandler@@QEAAXPEB_W@Z 00000001800d4ce4 f   unrar:errhnd.obj
 0001:000d3ce8       ?OpenErrorMsg@ErrorHandler@@QEAAXPEB_W0@Z 00000001800d4ce8 f   unrar:errhnd.obj
 0001:000d3d30       ?OpenErrorMsg@ErrorHandler@@QEAAXPEB_W@Z 00000001800d4d30 f   unrar:errhnd.obj
 0001:000d3d3c       ?ProcessSignal@@YAHK@Z     00000001800d4d3c f   unrar:errhnd.obj
 0001:000d3da8       ?ReadError@ErrorHandler@@QEAAXPEB_W@Z 00000001800d4da8 f   unrar:errhnd.obj
 0001:000d3db4       ?ReadErrorMsg@ErrorHandler@@QEAAXPEB_W0@Z 00000001800d4db4 f   unrar:errhnd.obj
 0001:000d3df8       ?ReadErrorMsg@ErrorHandler@@QEAAXPEB_W@Z 00000001800d4df8 f   unrar:errhnd.obj
 0001:000d3e04       ?SeekError@ErrorHandler@@QEAAXPEB_W@Z 00000001800d4e04 f   unrar:errhnd.obj
 0001:000d3e48       ?SetDisableShutdown@ErrorHandler@@QEAAXXZ 00000001800d4e48 f i unrar:errhnd.obj
 0001:000d3e50       ?SetErrorCode@ErrorHandler@@QEAAXW4RAR_EXIT@@@Z 00000001800d4e50 f   unrar:errhnd.obj
 0001:000d3ea4       ?SetSignalHandlers@ErrorHandler@@QEAAX_N@Z 00000001800d4ea4 f   unrar:errhnd.obj
 0001:000d3ecc       ?SetSystemErrorCode@ErrorHandler@@QEAAXH@Z 00000001800d4ecc f   unrar:errhnd.obj
 0001:000d3ed8       ?SysErrMsg@ErrorHandler@@QEAAXXZ 00000001800d4ed8 f   unrar:errhnd.obj
 0001:000d3edc       ?Throw@ErrorHandler@@QEAAXW4RAR_EXIT@@@Z 00000001800d4edc f   unrar:errhnd.obj
 0001:000d3f20       ?UnknownMethodMsg@ErrorHandler@@QEAAXPEB_W0@Z 00000001800d4f20 f   unrar:errhnd.obj
 0001:000d3f70       ?WriteError@ErrorHandler@@QEAAXPEB_W0@Z 00000001800d4f70 f   unrar:errhnd.obj
 0001:000d3f7c       ?WriteErrorFAT@ErrorHandler@@QEAAXPEB_W@Z 00000001800d4f7c f   unrar:errhnd.obj
 0001:000d3fb8       ?WriteErrorMsg@ErrorHandler@@QEAAXPEB_W0@Z 00000001800d4fb8 f   unrar:errhnd.obj
 0001:000d3ffc       ??$_Allocate_manually_vector_aligned@U_Default_allocate_traits@std@@@std@@YAPEAX_K@Z 00000001800d4ffc f i unrar:secpassword.obj
 0001:000d4044       ??$_Construct_n@$$V@?$vector@_WV?$allocator@_W@std@@@std@@AEAAX_K@Z 00000001800d5044 f i unrar:secpassword.obj
 0001:000d4104       ??$_Zero_range@PEA_W@std@@YAPEA_WQEA_W0@Z 00000001800d5104 f i unrar:secpassword.obj
 0001:000d412c       ??0SecPassword@@QEAA@XZ    00000001800d512c f   unrar:secpassword.obj
 0001:000d416c       ??0bad_array_new_length@stdext@@QEAA@XZ 00000001800d516c f i unrar:secpassword.obj
 0001:000d418c       ??1?$_Tidy_guard@V?$vector@_WV?$allocator@_W@std@@@std@@@std@@QEAA@XZ 00000001800d518c f i unrar:secpassword.obj
 0001:000d4208       ??1SecPassword@@QEAA@XZ    00000001800d5208 f   unrar:secpassword.obj
 0001:000d4284       ??1bad_alloc@stdext@@UEAA@XZ 00000001800d5284 f i unrar:secpassword.obj
 0001:000d4294       ??1exception@stdext@@UEAA@XZ 00000001800d5294 f i unrar:secpassword.obj
 0001:000d42a4       ??8SecPassword@@QEAA_NAEAV0@@Z 00000001800d52a4 f   unrar:secpassword.obj
 0001:000d437c       ??_Ebad_alloc@stdext@@UEAAPEAXI@Z 00000001800d537c f i unrar:secpassword.obj
 0001:000d437c       ??_Gbad_alloc@stdext@@UEAAPEAXI@Z 00000001800d537c f i unrar:secpassword.obj
 0001:000d43b4       ??_Ebad_array_new_length@stdext@@UEAAPEAXI@Z 00000001800d53b4 f i unrar:secpassword.obj
 0001:000d43b4       ??_Gbad_array_new_length@stdext@@UEAAPEAXI@Z 00000001800d53b4 f i unrar:secpassword.obj
 0001:000d43ec       ??_Eexception@stdext@@UEAAPEAXI@Z 00000001800d53ec f i unrar:secpassword.obj
 0001:000d43ec       ??_Gexception@stdext@@UEAAPEAXI@Z 00000001800d53ec f i unrar:secpassword.obj
 0001:000d4424       ?Clean@SecPassword@@QEAAXXZ 00000001800d5424 f   unrar:secpassword.obj
 0001:000d4454       ?Get@SecPassword@@QEAAXPEA_W_K@Z 00000001800d5454 f   unrar:secpassword.obj
 0001:000d44c0       ?Length@SecPassword@@QEAA_KXZ 00000001800d54c0 f   unrar:secpassword.obj
 0001:000d4544       ?Process@SecPassword@@AEAAXPEB_W_KPEA_W1_N@Z 00000001800d5544 f   unrar:secpassword.obj
 0001:000d45a0       ?SecHideData@@YAXPEAX_K_N2@Z 00000001800d55a0 f   unrar:secpassword.obj
 0001:000d4730       ?Set@SecPassword@@QEAAXPEB_W@Z 00000001800d5730 f   unrar:secpassword.obj
 0001:000d47a8       ?_Doraise@bad_alloc@stdext@@MEBAXXZ 00000001800d57a8 f i unrar:secpassword.obj
 0001:000d47c8       ?_Doraise@exception@stdext@@MEBAXXZ 00000001800d57c8 f i unrar:secpassword.obj
 0001:000d47cc       ?_Raise@exception@stdext@@QEBAXXZ 00000001800d57cc f i unrar:secpassword.obj
 0001:000d4810       ?_Throw_bad_array_new_length@std@@YAXXZ 00000001800d5810 f i unrar:secpassword.obj
 0001:000d482c       ?_Xlength@?$vector@_WV?$allocator@_W@std@@@std@@CAXXZ 00000001800d582c f i unrar:secpassword.obj
 0001:000d4844       ?cleandata@@YAXPEAX_K@Z    00000001800d5844 f   unrar:secpassword.obj
 0001:000d486c       ?what@exception@stdext@@UEBAPEBDXZ 00000001800d586c f i unrar:secpassword.obj
 0001:000d4884       ??0?$Array@_W@@QEAA@_K@Z   00000001800d5884 f i unrar:strlist.obj
 0001:000d48b8       ??0StringList@@QEAA@XZ     00000001800d58b8 f   unrar:strlist.obj
 0001:000d48ec       ?AddString@StringList@@QEAAXPEB_W@Z 00000001800d58ec f   unrar:strlist.obj
 0001:000d497c       ?AddStringA@StringList@@QEAAXPEBD@Z 00000001800d597c f   unrar:strlist.obj
 0001:000d4a14       ?GetString@StringList@@QEAAPEA_WXZ 00000001800d5a14 f   unrar:strlist.obj
 0001:000d4a34       ?GetString@StringList@@QEAA_NPEAPEA_W@Z 00000001800d5a34 f   unrar:strlist.obj
 0001:000d4a8c       ?GetString@StringList@@QEAA_NPEA_W_K@Z 00000001800d5a8c f   unrar:strlist.obj
 0001:000d4ad8       ?GetString@StringList@@QEAA_NPEA_W_KH@Z 00000001800d5ad8 f   unrar:strlist.obj
 0001:000d4bac       ?GetStringA@StringList@@QEAA_NPEAD_K@Z 00000001800d5bac f   unrar:strlist.obj
 0001:000d4c58       ?Reset@?$Array@_W@@QEAAXXZ 00000001800d5c58 f i unrar:strlist.obj
 0001:000d4c8c       ?Reset@StringList@@QEAAXXZ 00000001800d5c8c f   unrar:strlist.obj
 0001:000d4cbc       ?RestorePosition@StringList@@QEAAXXZ 00000001800d5cbc f   unrar:strlist.obj
 0001:000d4ce4       ?Rewind@StringList@@QEAAXXZ 00000001800d5ce4 f   unrar:strlist.obj
 0001:000d4cec       ?SavePosition@StringList@@QEAAXXZ 00000001800d5cec f   unrar:strlist.obj
 0001:000d4d14       ?Search@StringList@@QEAA_NPEB_W_N@Z 00000001800d5d14 f   unrar:strlist.obj
 0001:000d4e18       ?Adjust@RarTime@@QEAAX_J@Z 00000001800d5e18 f   unrar:timefn.obj
 0001:000d4e1c       ?GetDos@RarTime@@QEAAIXZ   00000001800d5e1c f   unrar:timefn.obj
 0001:000d4e70       ?GetLocal@RarTime@@QEAAXPEAURarLocalTime@@@Z 00000001800d5e70 f   unrar:timefn.obj
 0001:000d5094       ?GetMonthName@@YAPEB_WH@Z  00000001800d6094 f   unrar:timefn.obj
 0001:000d509c       ?GetText@RarTime@@QEAAXPEA_W_K_N@Z 00000001800d609c f   unrar:timefn.obj
 0001:000d519c       ?GetUnix@RarTime@@QEAA_JXZ 00000001800d619c f   unrar:timefn.obj
 0001:000d51d4       ?GetUnixNS@RarTime@@QEAA_KXZ 00000001800d61d4 f   unrar:timefn.obj
 0001:000d51ec       ?GetWin@RarTime@@QEAA_KXZ  00000001800d61ec f   unrar:timefn.obj
 0001:000d5214       ?GetWinFT@RarTime@@QEAAXPEAU_FILETIME@@@Z 00000001800d6214 f   unrar:timefn.obj
 0001:000d524c       ?IsLeapYear@@YA_NH@Z       00000001800d624c f   unrar:timefn.obj
 0001:000d52a8       ?SetAgeText@RarTime@@QEAAXPEB_W@Z 00000001800d62a8 f   unrar:timefn.obj
 0001:000d53a4       ?SetCurrentTime@RarTime@@QEAAXXZ 00000001800d63a4 f   unrar:timefn.obj
 0001:000d5408       ?SetDos@RarTime@@QEAAXI@Z  00000001800d6408 f   unrar:timefn.obj
 0001:000d5480       ?SetIsoText@RarTime@@QEAAXPEB_W@Z 00000001800d6480 f   unrar:timefn.obj
 0001:000d55b0       ?SetLocal@RarTime@@QEAAXPEAURarLocalTime@@@Z 00000001800d65b0 f   unrar:timefn.obj
 0001:000d5720       ?SetUnix@RarTime@@QEAAX_J@Z 00000001800d6720 f   unrar:timefn.obj
 0001:000d5740       ?SetUnixNS@RarTime@@QEAAX_K@Z 00000001800d6740 f   unrar:timefn.obj
 0001:000d5758       ?SetWin@RarTime@@QEAAX_K@Z 00000001800d6758 f   unrar:timefn.obj
 0001:000d5764       ?SetWinFT@RarTime@@QEAAXPEAU_FILETIME@@@Z 00000001800d6764 f   unrar:timefn.obj
 0001:000d5780       swprintf                   00000001800d6780 f i unrar:timefn.obj
 0001:000d57e8       ??$uiMsg@$$T@@YAXW4UIMESSAGE_CODE@@$$QEA$$T@Z 00000001800d67e8 f i unrar:pathfn.obj
 0001:000d5890       ??$uiMsg@$$TAEAY0IAA@_WAEAPEA_W@@YAXW4UIMESSAGE_CODE@@$$QEA$$TAEAY0IAA@_WAEAPEA_W@Z 00000001800d6890 f i unrar:pathfn.obj
 0001:000d5938       ??$uiMsgBase@AEA$$T$$V@@YAXAEAVuiMsgStore@@AEA$$T@Z 00000001800d6938 f i unrar:pathfn.obj
 0001:000d5954       ??$uiMsgBase@AEA$$TAEAY0IAA@_WAEAPEA_W@@YAXAEAVuiMsgStore@@AEA$$TAEAY0IAA@_WAEAPEA_W@Z 00000001800d6954 f i unrar:pathfn.obj
 0001:000d59a0       ??$uiMsgBase@AEAPEA_W$$V@@YAXAEAVuiMsgStore@@AEAPEA_W@Z 00000001800d69a0 f i unrar:pathfn.obj
 0001:000d59bc       ??$uiMsgBase@AEAY0IAA@_WAEAPEA_W@@YAXAEAVuiMsgStore@@AEAY0IAA@_WAEAPEA_W@Z 00000001800d69bc f i unrar:pathfn.obj
 0001:000d59f0       ?AddEndSlash@@YAXPEA_W_K@Z 00000001800d69f0 f   unrar:pathfn.obj
 0001:000d5a30       ?CmpExt@@YA_NPEB_W0@Z      00000001800d6a30 f   unrar:pathfn.obj
 0001:000d5a8c       ?ConvertNameToFull@@YAXPEB_WPEA_W_K@Z 00000001800d6a8c f   unrar:pathfn.obj
 0001:000d5bb8       ?ConvertPath@@YAPEA_WPEB_WPEA_W_K@Z 00000001800d6bb8 f   unrar:pathfn.obj
 0001:000d5da8       ?ConvertToPrecomposed@@YAXPEA_W_K@Z 00000001800d6da8 f   unrar:pathfn.obj
 0001:000d5e64       ?DosSlashToUnix@@YAXPEBDPEAD_K@Z 00000001800d6e64 f   unrar:pathfn.obj
 0001:000d5ec0       ?DosSlashToUnix@@YAXPEB_WPEA_W_K@Z 00000001800d6ec0 f   unrar:pathfn.obj
 0001:000d5f10       ?EnumConfigPaths@@YA_NIPEA_W_K_N@Z 00000001800d6f10 f   unrar:pathfn.obj
 0001:000d678c       ?GenerateArchiveName@@YAXPEA_W_KPEB_W_N@Z 00000001800d778c f   unrar:pathfn.obj
 0001:000d68d8       ?GetAppDataPath@@YA_NPEA_W_K_N@Z 00000001800d78d8 f   unrar:pathfn.obj
 0001:000d69d0       ?GetConfigName@@YAXPEB_WPEA_W_K_N3@Z 00000001800d79d0 f   unrar:pathfn.obj
 0001:000d6a80       ?GetExt@@YAPEA_WPEB_W@Z    00000001800d7a80 f   unrar:pathfn.obj
 0001:000d6aac       ?GetFilePath@@YAXPEB_WPEA_W_K@Z 00000001800d7aac f   unrar:pathfn.obj
 0001:000d6b34       ?GetPathDisk@@YAHPEB_W@Z   00000001800d7b34 f   unrar:pathfn.obj
 0001:000d6b6c       ?GetPathRoot@@YAXPEB_WPEA_W_K@Z 00000001800d7b6c f   unrar:pathfn.obj
 0001:000d6c6c       ?GetRarDataPath@@YAXPEA_W_K_N@Z 00000001800d7c6c f   unrar:pathfn.obj
 0001:000d6d60       ?GetVolNumPart@@YAPEA_WPEB_W@Z 00000001800d7d60 f   unrar:pathfn.obj
 0001:000d6e68       ?GetWideName@@YAPEA_WPEBDPEB_WPEA_W_K@Z 00000001800d7e68 f   unrar:pathfn.obj
 0001:000d6ee8       ?GetWinLongPath@@YA_NPEB_WPEA_W_K@Z 00000001800d7ee8 f   unrar:pathfn.obj
 0001:000d7150       ?IsDriveDiv@@YA_NH@Z       00000001800d8150 f   unrar:pathfn.obj
 0001:000d7158       ?IsDriveLetter@@YA_NPEB_W@Z 00000001800d8158 f   unrar:pathfn.obj
 0001:000d7194       ?IsFullPath@@YA_NPEB_W@Z   00000001800d8194 f   unrar:pathfn.obj
 0001:000d71dc       ?IsFullRootPath@@YA_NPEB_W@Z 00000001800d81dc f   unrar:pathfn.obj
 0001:000d7210       ?IsNameUsable@@YA_NPEB_W@Z 00000001800d8210 f   unrar:pathfn.obj
 0001:000d729c       ?IsPathDiv@@YA_NH@Z        00000001800d829c f   unrar:pathfn.obj
 0001:000d72b0       ?IsWildcard@@YA_NPEB_W@Z   00000001800d82b0 f   unrar:pathfn.obj
 0001:000d7304       ?MakeName@@YAXPEB_W0PEA_W_K@Z 00000001800d8304 f   unrar:pathfn.obj
 0001:000d73d4       ?MakeNameCompatible@@YAXPEA_W_K@Z 00000001800d83d4 f   unrar:pathfn.obj
 0001:000d769c       ?MakeNameUsable@@YAXPEA_W_N@Z 00000001800d869c f   unrar:pathfn.obj
 0001:000d7768       ?NextVolumeName@@YAXPEA_WI_N@Z 00000001800d8768 f   unrar:pathfn.obj
 0001:000d79ec       ?ParseVersionFileName@@YAHPEA_W_N@Z 00000001800d89ec f   unrar:pathfn.obj
 0001:000d7a58       ?PointToLastChar@@YAPEA_WPEB_W@Z 00000001800d8a58 f   unrar:pathfn.obj
 0001:000d7a88       ?PointToName@@YAPEA_WPEB_W@Z 00000001800d8a88 f   unrar:pathfn.obj
 0001:000d7af0       ?RemoveNameFromPath@@YAXPEA_W@Z 00000001800d8af0 f   unrar:pathfn.obj
 0001:000d7b34       ?SetExt@@YAXPEA_WPEB_W_K@Z 00000001800d8b34 f   unrar:pathfn.obj
 0001:000d7bd0       ?SetName@@YAXPEA_WPEB_W_K@Z 00000001800d8bd0 f   unrar:pathfn.obj
 0001:000d7c28       ?SetSFXExt@@YAXPEA_W_K@Z   00000001800d8c28 f   unrar:pathfn.obj
 0001:000d7c58       ?UnixSlashToDos@@YAXPEBDPEAD_K@Z 00000001800d8c58 f   unrar:pathfn.obj
 0001:000d7cb4       ?UnixSlashToDos@@YAXPEB_WPEA_W_K@Z 00000001800d8cb4 f   unrar:pathfn.obj
 0001:000d7d04       ?VolNameToFirstName@@YAPEA_WPEB_WPEA_W_K_N@Z 00000001800d8d04 f   unrar:pathfn.obj
 0001:000d7f70       sprintf                    00000001800d8f70 f i unrar:pathfn.obj
 0001:000d7fdc       ??0?$Array@D@@QEAA@XZ      00000001800d8fdc f i unrar:strfn.obj
 0001:000d7ff8       ?Alloc@?$Array@D@@QEAAX_K@Z 00000001800d8ff8 f i unrar:strfn.obj
 0001:000d8014       ?ArcCharToWide@@YAXPEBDPEA_W_KW4ACTW_ENCODING@@@Z 00000001800d9014 f   unrar:strfn.obj
 0001:000d8104       ?BinToHex@@YAXPEBE_KPEADPEA_W1@Z 00000001800d9104 f   unrar:strfn.obj
 0001:000d822c       ?GetCmdParam@@YAPEB_WPEB_WPEA_W_K@Z 00000001800d922c f   unrar:strfn.obj
 0001:000d8310       ?GetDigits@@YAII@Z         00000001800d9310 f   unrar:strfn.obj
 0001:000d8334       ?GetWide@@YAPEB_WPEBD@Z    00000001800d9334 f   unrar:strfn.obj
 0001:000d83a4       ?IntToExt@@YAXPEBDPEAD_K@Z 00000001800d93a4 f   unrar:strfn.obj
 0001:000d83f4       ?IsAlpha@@YA_NH@Z          00000001800d93f4 f   unrar:strfn.obj
 0001:000d8410       ?IsDigit@@YA_NH@Z          00000001800d9410 f   unrar:strfn.obj
 0001:000d841c       ?IsSpace@@YA_NH@Z          00000001800d941c f   unrar:strfn.obj
 0001:000d8430       ?LowAscii@@YA_NPEBD@Z      00000001800d9430 f   unrar:strfn.obj
 0001:000d844c       ?LowAscii@@YA_NPEB_W@Z     00000001800d944c f   unrar:strfn.obj
 0001:000d8478       ?NullToEmpty@@YAPEBDPEBD@Z 00000001800d9478 f   unrar:strfn.obj
 0001:000d8490       ?NullToEmpty@@YAPEB_WPEB_W@Z 00000001800d9490 f   unrar:strfn.obj
 0001:000d84a8       ?RemoveEOL@@YAPEA_WPEA_W@Z 00000001800d94a8 f   unrar:strfn.obj
 0001:000d8504       ?RemoveLF@@YAPEA_WPEA_W@Z  00000001800d9504 f   unrar:strfn.obj
 0001:000d8550       ?etoupperw@@YA_W_W@Z       00000001800d9550 f   unrar:strfn.obj
 0001:000d8568       ?fmtitoa@@YAX_JPEA_W_K@Z   00000001800d9568 f   unrar:strfn.obj
 0001:000d8708       ?itoa@@YAX_JPEAD_K@Z       00000001800d9708 f   unrar:strfn.obj
 0001:000d8800       ?itoa@@YAX_JPEA_W_K@Z      00000001800d9800 f   unrar:strfn.obj
 0001:000d892c       ?stricomp@@YAHPEBD0@Z      00000001800d992c f   unrar:strfn.obj
 0001:000d8964       ?strncatz@@YAXPEADPEBD_K@Z 00000001800d9964 f   unrar:strfn.obj
 0001:000d89ac       ?strncpyz@@YAXPEADPEBD_K@Z 00000001800d99ac f   unrar:strfn.obj
 0001:000d89dc       ?strnicomp@@YAHPEBD0_K@Z   00000001800d99dc f   unrar:strfn.obj
 0001:000d8a94       ?wcsicompc@@YAHPEB_W0@Z    00000001800d9a94 f   unrar:strfn.obj
 0001:000d8a9c       ?wcsncatz@@YAXPEA_WPEB_W_K@Z 00000001800d9a9c f   unrar:strfn.obj
 0001:000d8ad0       ?wcsncpyz@@YAXPEA_WPEB_W_K@Z 00000001800d9ad0 f   unrar:strfn.obj
 0001:000d8b08       ?wcsnicompc@@YAHPEB_W0_K@Z 00000001800d9b08 f   unrar:strfn.obj
 0001:000d8b10       ??$uiMsg@AEAY0IAA@_W@@YAXW4UIMESSAGE_CODE@@AEAY0IAA@_W@Z 00000001800d9b10 f i unrar:archive.obj
 0001:000d8bb8       ??$uiMsg@AEAY0IAA@_WAEAY0IAA@_W@@YAXW4UIMESSAGE_CODE@@AEAY0IAA@_W1@Z 00000001800d9bb8 f i unrar:archive.obj
 0001:000d8c50       ??$uiMsgBase@AEAY0IAA@_W$$V@@YAXAEAVuiMsgStore@@AEAY0IAA@_W@Z 00000001800d9c50 f i unrar:archive.obj
 0001:000d8c68       ??$uiMsgBase@AEAY0IAA@_WAEAY0IAA@_W@@YAXAEAVuiMsgStore@@AEAY0IAA@_W1@Z 00000001800d9c68 f i unrar:archive.obj
 0001:000d8c90       ??0?$Array@E@@QEAA@XZ      00000001800d9c90 f i unrar:archive.obj
 0001:000d8cac       ??0?$Array@E@@QEAA@_K@Z    00000001800d9cac f i unrar:archive.obj
 0001:000d8ce0       ??0Archive@@QEAA@PEAVCommandData@@@Z 00000001800d9ce0 f   unrar:archive.obj
 0001:000d8f54       ??1?$Array@E@@QEAA@XZ      00000001800d9f54 f i unrar:archive.obj
 0001:000d8f70       ??1Archive@@UEAA@XZ        00000001800d9f70 f   unrar:archive.obj
 0001:000d9040       ??1CryptData@@QEAA@XZ      00000001800da040 f i unrar:archive.obj
 0001:000d9164       ??1KDF3CacheItem@CryptData@@QEAA@XZ 00000001800da164 f i unrar:archive.obj
 0001:000d91c8       ??1KDF5CacheItem@CryptData@@QEAA@XZ 00000001800da1c8 f i unrar:archive.obj
 0001:000d9240       ??_EArchive@@UEAAPEAXI@Z   00000001800da240 f i unrar:archive.obj
 0001:000d9240       ??_GArchive@@UEAAPEAXI@Z   00000001800da240 f i unrar:archive.obj
 0001:000d9284       ?Add@?$Array@E@@QEAAX_K@Z  00000001800da284 f i unrar:archive.obj
 0001:000d9350       ?Alloc@?$Array@E@@QEAAX_K@Z 00000001800da350 f i unrar:archive.obj
 0001:000d936c       ?Alloc@?$Array@_W@@QEAAX_K@Z 00000001800da36c f i unrar:archive.obj
 0001:000d9388       ?CheckArc@Archive@@QEAAX_N@Z 00000001800da388 f   unrar:archive.obj
 0001:000d93d8       ?CheckOpen@Archive@@QEAAXPEB_W@Z 00000001800da3d8 f   unrar:archive.obj
 0001:000d93fc       ?DoGetComment@Archive@@AEAA_NPEAV?$Array@_W@@@Z 00000001800da3fc f   unrar:archive.obj
 0001:000d9a04       ?FullHeaderSize@Archive@@QEAAI_K@Z 00000001800daa04 f   unrar:archive.obj
 0001:000d9a3c       ?GetComment@Archive@@QEAA_NPEAV?$Array@_W@@@Z 00000001800daa3c f   unrar:archive.obj
 0001:000d9aac       ?IsArchive@Archive@@QEAA_N_N@Z 00000001800daaac f   unrar:archive.obj
 0001:000d9fc4       ?IsOpened@File@@UEAA_NXZ   00000001800dafc4 f i unrar:archive.obj
 0001:000d9fd0       ?IsSignature@Archive@@SA?AW4RARFORMAT@@PEBE_K@Z 00000001800dafd0 f   unrar:archive.obj
 0001:000da064       ?Open@Archive@@UEAA_NPEB_WI@Z 00000001800db064 f   unrar:archive.obj
 0001:000da074       ?Push@?$Array@E@@QEAAXE@Z  00000001800db074 f i unrar:archive.obj
 0001:000da0b4       ?Read@Archive@@UEAAHPEAX_K@Z 00000001800db0b4 f   unrar:archive.obj
 0001:000da11c       ?ReadCommentData@Archive@@AEAA_NPEAV?$Array@_W@@@Z 00000001800db11c f   unrar:archive.obj
 0001:000da280       ?Seek@Archive@@UEAAX_JH@Z  00000001800db280 f   unrar:archive.obj
 0001:000da2d8       ?SeekToNext@Archive@@QEAAXXZ 00000001800db2d8 f   unrar:archive.obj
 0001:000da2f0       ?Tell@Archive@@UEAA_JXZ    00000001800db2f0 f   unrar:archive.obj
 0001:000da330       ?ViewComment@Archive@@QEAAXXZ 00000001800db330 f   unrar:archive.obj
 0001:000da3d4       ?WCheckOpen@Archive@@QEAA_NPEB_W@Z 00000001800db3d4 f   unrar:archive.obj
 0001:000da42c       ?_Tidy_deallocate@?$basic_string@_WU?$char_traits@_W@std@@V?$allocator@_W@2@@std@@AEAAXXZ 00000001800db42c f i unrar:archive.obj
 0001:000da4a8       ??$_Construct_n@$$V@?$vector@DV?$allocator@D@std@@@std@@AEAAX_K@Z 00000001800db4a8 f i unrar:arcread.obj
 0001:000da540       ??$_Copy_memmove@PEADPEAD@std@@YAPEADPEAD00@Z 00000001800db540 f i unrar:arcread.obj
 0001:000da57c       ??$_Emplace_reallocate@D@?$vector@DV?$allocator@D@std@@@std@@AEAAPEADQEAD$$QEAD@Z 00000001800db57c f i unrar:arcread.obj
 0001:000da6c4       ??$_Reallocate_for@V<lambda_3fa8b2c8193a0f3144fc4b1b8f243931>@@PEB_W@?$basic_string@_WU?$char_traits@_W@std@@V?$allocator@_W@2@@std@@AEAAAEAV01@_KV<lambda_3fa8b2c8193a0f3144fc4b1b8f243931>@@PEB_W@Z 00000001800db6c4 f i unrar:arcread.obj
 0001:000da850       ??$_Zero_range@PEAD@std@@YAPEADQEAD0@Z 00000001800db850 f i unrar:arcread.obj
 0001:000da878       ??$uiMsg@AEAY0IAA@_WAEAPEB_WAEAPEB_W@@YAXW4UIMESSAGE_CODE@@AEAY0IAA@_WAEAPEB_W2@Z 00000001800db878 f i unrar:arcread.obj
 0001:000da924       ??$uiMsgBase@AEAY0IAA@_WAEAPEB_WAEAPEB_W@@YAXAEAVuiMsgStore@@AEAY0IAA@_WAEAPEB_W2@Z 00000001800db924 f i unrar:arcread.obj
 0001:000da94c       ?BrokenHeaderMsg@Archive@@AEAAXXZ 00000001800db94c f   unrar:arcread.obj
 0001:000da990       ?Check@RarCheckPassword@@UEAA_NPEAVSecPassword@@@Z 00000001800db990 f i unrar:arcread.obj
 0001:000daa1c       ?ConvertAttributes@Archive@@QEAAXXZ 00000001800dba1c f   unrar:arcread.obj
 0001:000daa44       ?ConvertFileHeader@Archive@@AEAAXPEAUFileHeader@@@Z 00000001800dba44 f   unrar:arcread.obj
 0001:000dab14       ?ConvertNameCase@Archive@@AEAAXPEA_W@Z 00000001800dbb14 f   unrar:arcread.obj
 0001:000dab74       ?GetConfidence@RarCheckPassword@@UEAA?AW4CONFIDENCE@CheckPassword@@XZ 00000001800dbb74 f i unrar:arcread.obj
 0001:000dab78       ?GetStartPos@Archive@@QEAA_JXZ 00000001800dbb78 f   unrar:arcread.obj
 0001:000dabd0       ?IsArcDir@Archive@@QEAA_NXZ 00000001800dbbd0 f   unrar:arcread.obj
 0001:000dabd8       ?ProcessExtra50@Archive@@AEAAXPEAVRawRead@@_KPEBUBaseBlock@@@Z 00000001800dbbd8 f   unrar:arcread.obj
 0001:000db644       ?ReadHeader14@Archive@@AEAA_KXZ 00000001800dc644 f   unrar:arcread.obj
 0001:000dba88       ?ReadHeader15@Archive@@AEAA_KXZ 00000001800dca88 f   unrar:arcread.obj
 0001:000dcc5c       ?ReadHeader50@Archive@@AEAA_KXZ 00000001800ddc5c f   unrar:arcread.obj
 0001:000dd904       ?ReadHeader@Archive@@QEAA_KXZ 00000001800de904 f   unrar:arcread.obj
 0001:000dd9b4       ?ReadSubData@Archive@@QEAA_NPEAV?$Array@E@@PEAVFile@@_N@Z 00000001800de9b4 f   unrar:arcread.obj
 0001:000ddd8c       ?RequestArcPassword@Archive@@AEAAXPEAVRarCheckPassword@@@Z 00000001800ded8c f   unrar:arcread.obj
 0001:000ddf6c       ?Reset@?$Array@E@@QEAAXXZ  00000001800def6c f i unrar:arcread.obj
 0001:000ddfa0       ?SearchBlock@Archive@@QEAA_KW4HEADER_TYPE@@@Z 00000001800defa0 f   unrar:arcread.obj
 0001:000de050       ?SearchRR@Archive@@QEAA_KXZ 00000001800df050 f   unrar:arcread.obj
 0001:000de128       ?SearchSubBlock@Archive@@QEAA_KPEB_W@Z 00000001800df128 f   unrar:arcread.obj
 0001:000de1e8       ?Set@RarCheckPassword@@QEAAXPEAE0I0@Z 00000001800df1e8 f i unrar:arcread.obj
 0001:000de290       ?UnexpEndArcMsg@Archive@@AEAAXXZ 00000001800df290 f   unrar:arcread.obj
 0001:000de2e8       ?UnkEncVerMsg@Archive@@AEAAXPEB_W0@Z 00000001800df2e8 f   unrar:arcread.obj
 0001:000de330       ?_Change_array@?$vector@DV?$allocator@D@std@@@std@@AEAAXQEAD_K1@Z 00000001800df330 f i unrar:arcread.obj
 0001:000de3d4       ?_Xlen_string@std@@YAXXZ   00000001800df3d4 f i unrar:arcread.obj
 0001:000de3ec       ?_Xlength@?$vector@DV?$allocator@D@std@@@std@@CAXXZ 00000001800df3ec f i unrar:arcread.obj
 0001:000de404       ?assign@?$basic_string@_WU?$char_traits@_W@std@@V?$allocator@_W@2@@std@@QEAAAEAV12@QEB_W@Z 00000001800df404 f i unrar:arcread.obj
 0001:000de4a0       ??$uiMsg@AEAY03$$CB_WH@@YAXW4UIMESSAGE_CODE@@AEAY03$$CB_W$$QEAH@Z 00000001800df4a0 f i unrar:cmddata.obj
 0001:000de53c       ??$uiMsg@H@@YAXW4UIMESSAGE_CODE@@$$QEAH@Z 00000001800df53c f i unrar:cmddata.obj
 0001:000de5e4       ??$uiMsgBase@AEAH$$V@@YAXAEAVuiMsgStore@@AEAH@Z 00000001800df5e4 f i unrar:cmddata.obj
 0001:000de600       ??$uiMsgBase@AEAY03$$CB_WAEAH@@YAXAEAVuiMsgStore@@AEAY03$$CB_WAEAH@Z 00000001800df600 f i unrar:cmddata.obj
 0001:000de634       ??0CommandData@@QEAA@XZ    00000001800df634 f   unrar:cmddata.obj
 0001:000de6d4       ?AddArcName@CommandData@@QEAAXPEB_W@Z 00000001800df6d4 f   unrar:cmddata.obj
 0001:000de6e4       ?BadSwitch@CommandData@@AEAAXPEB_W@Z 00000001800df6e4 f   unrar:cmddata.obj
 0001:000de714       ?CheckArgs@CommandData@@SA_NPEAVStringList@@_NPEB_W1H@Z 00000001800df714 f   unrar:cmddata.obj
 0001:000de91c       ?CheckWinSize@CommandData@@QEAA_NXZ 00000001800df91c f   unrar:cmddata.obj
 0001:000de954       ?ExclCheck@CommandData@@QEAA_NPEB_W_N11@Z 00000001800df954 f   unrar:cmddata.obj
 0001:000dea00       ?ExclDirByAttr@CommandData@@QEAA_NI@Z 00000001800dfa00 f   unrar:cmddata.obj
 0001:000dea18       ?GetArcName@CommandData@@QEAA_NPEA_WH@Z 00000001800dfa18 f   unrar:cmddata.obj
 0001:000dea2c       ?GetExclAttr@CommandData@@AEAAIPEB_WAEA_N@Z 00000001800dfa2c f   unrar:cmddata.obj
 0001:000deae8       ?Init@CommandData@@QEAAXXZ 00000001800dfae8 f   unrar:cmddata.obj
 0001:000deba4       ?IsProcessFile@CommandData@@QEAAHAEAUFileHeader@@PEA_NH_NPEA_WI@Z 00000001800dfba4 f   unrar:cmddata.obj
 0001:000ded54       ?IsSwitch@CommandData@@QEAA_NH@Z 00000001800dfd54 f   unrar:cmddata.obj
 0001:000ded64       ?OutHelp@CommandData@@QEAAXW4RAR_EXIT@@@Z 00000001800dfd64 f   unrar:cmddata.obj
 0001:000ded68       ?OutTitle@CommandData@@QEAAXXZ 00000001800dfd68 f   unrar:cmddata.obj
 0001:000ded6c       ?ParseArg@CommandData@@QEAAXPEA_W@Z 00000001800dfd6c f   unrar:cmddata.obj
 0001:000df0d4       ?ParseCommandLine@CommandData@@QEAAX_NHQEAPEAD@Z 00000001800e00d4 f   unrar:cmddata.obj
 0001:000df2b0       ?ParseDone@CommandData@@QEAAXXZ 00000001800e02b0 f   unrar:cmddata.obj
 0001:000df360       ?ParseEnvVar@CommandData@@QEAAXXZ 00000001800e0360 f   unrar:cmddata.obj
 0001:000df414       ?PreprocessArg@CommandData@@QEAAXPEB_W@Z 00000001800e0414 f   unrar:cmddata.obj
 0001:000df56c       ?ProcessCommand@CommandData@@QEAAXXZ 00000001800e056c f   unrar:cmddata.obj
 0001:000df894       ?ProcessSwitch@CommandData@@AEAAXPEB_W@Z 00000001800e0894 f   unrar:cmddata.obj
 0001:000e0e1c       ?ProcessSwitchesString@CommandData@@QEAAXPEB_W@Z 00000001800e1e1c f   unrar:cmddata.obj
 0001:000e0ed8       ?ReadConfig@CommandData@@QEAAXXZ 00000001800e1ed8 f   unrar:cmddata.obj
 0001:000e1104       ?ReportWrongSwitches@CommandData@@QEAAXW4RARFORMAT@@@Z 00000001800e2104 f   unrar:cmddata.obj
 0001:000e11e4       ?SetStoreTimeMode@CommandData@@AEAAXPEB_W@Z 00000001800e21e4 f   unrar:cmddata.obj
 0001:000e1304       ?SetTimeFilters@CommandData@@AEAAXPEB_W_N1@Z 00000001800e2304 f   unrar:cmddata.obj
 0001:000e1544       ?SizeCheck@CommandData@@QEAA_N_J@Z 00000001800e2544 f   unrar:cmddata.obj
 0001:000e158c       ?TimeCheck@CommandData@@QEAA_NAEAVRarTime@@00@Z 00000001800e258c f   unrar:cmddata.obj
 0001:000e16f4       ?mprintf@@YAXPEB_WZZ       00000001800e26f4 f i unrar:cmddata.obj
 0001:000e1708       ??$_Construct_n@AEBQEA_WAEBQEA_W@?$vector@_WV?$allocator@_W@std@@@std@@AEAAX_KAEBQEA_W1@Z 00000001800e2708 f i unrar:extract.obj
 0001:000e17ec       ??$_Copy_memmove@PEA_WPEA_W@std@@YAPEA_WPEA_W00@Z 00000001800e27ec f i unrar:extract.obj
 0001:000e1828       ??$uiMsg@AEAPEA_W@@YAXW4UIMESSAGE_CODE@@AEAPEA_W@Z 00000001800e2828 f i unrar:extract.obj
 0001:000e18d0       ??$uiMsg@AEAPEA_WAEAPEA_WAEAPEA_W@@YAXW4UIMESSAGE_CODE@@AEAPEA_W11@Z 00000001800e28d0 f i unrar:extract.obj
 0001:000e1980       ??$uiMsg@AEAY0IAA@_WAEAY0IAA@_WAEAY0IAA@_W@@YAXW4UIMESSAGE_CODE@@AEAY0IAA@_W11@Z 00000001800e2980 f i unrar:extract.obj
 0001:000e1a20       ??$uiMsgBase@AEAPEA_WAEAPEA_W@@YAXAEAVuiMsgStore@@AEAPEA_W1@Z 00000001800e2a20 f i unrar:extract.obj
 0001:000e1a5c       ??$uiMsgBase@AEAPEA_WAEAPEA_WAEAPEA_W@@YAXAEAVuiMsgStore@@AEAPEA_W11@Z 00000001800e2a5c f i unrar:extract.obj
 0001:000e1a88       ??$uiMsgBase@AEAY0IAA@_WAEAY0IAA@_WAEAY0IAA@_W@@YAXAEAVuiMsgStore@@AEAY0IAA@_W11@Z 00000001800e2a88 f i unrar:extract.obj
 0001:000e1ac4       ??0?$Array@UExtractRef@CmdExtract@@@@QEAA@XZ 00000001800e2ac4 f i unrar:extract.obj
 0001:000e1ae0       ??0CmdExtract@@QEAA@PEAVCommandData@@@Z 00000001800e2ae0 f   unrar:extract.obj
 0001:000e1c00       ??1?$Array@UExtractRef@CmdExtract@@@@QEAA@XZ 00000001800e2c00 f i unrar:extract.obj
 0001:000e1c1c       ??1CmdExtract@@QEAA@XZ     00000001800e2c1c f   unrar:extract.obj
 0001:000e1ca8       ?Add@?$Array@UExtractRef@CmdExtract@@@@QEAAX_K@Z 00000001800e2ca8 f i unrar:extract.obj
 0001:000e1d7c       ?AnalyzeArchive@CmdExtract@@AEAAXPEB_W_N1@Z 00000001800e2d7c f   unrar:extract.obj
 0001:000e2230       ?CheckUnpVer@CmdExtract@@AEAA_NAEAVArchive@@PEB_W@Z 00000001800e3230 f   unrar:extract.obj
 0001:000e22b4       ?ConvertDosPassword@CmdExtract@@AEAAXAEAVArchive@@AEAVSecPassword@@@Z 00000001800e32b4 f   unrar:extract.obj
 0001:000e23cc       ?DoExtract@CmdExtract@@QEAAXXZ 00000001800e33cc f   unrar:extract.obj
 0001:000e25d4       ?ExtrCreateDir@CmdExtract@@AEAAXAEAVArchive@@PEB_W@Z 00000001800e35d4 f   unrar:extract.obj
 0001:000e29d8       ?ExtrCreateFile@CmdExtract@@AEAA_NAEAVArchive@@AEAVFile@@@Z 00000001800e39d8 f   unrar:extract.obj
 0001:000e2c78       ?ExtrDllGetPassword@CmdExtract@@AEAA_NXZ 00000001800e3c78 f   unrar:extract.obj
 0001:000e2e18       ?ExtrPrepareName@CmdExtract@@AEAAXAEAVArchive@@PEB_WPEA_W_K@Z 00000001800e3e18 f   unrar:extract.obj
 0001:000e3164       ?ExtractArchive@CmdExtract@@AEAA?AW4EXTRACT_ARC_CODE@@XZ 00000001800e4164 f   unrar:extract.obj
 0001:000e357c       ?ExtractArchiveInit@CmdExtract@@QEAAXAEAVArchive@@@Z 00000001800e457c f   unrar:extract.obj
 0001:000e3634       ?ExtractCurrentFile@CmdExtract@@QEAA_NAEAVArchive@@_KAEA_N@Z 00000001800e4634 f   unrar:extract.obj
 0001:000e4d64       ?ExtractFileCopy@CmdExtract@@AEAA_NAEAVFile@@PEA_WPEB_W11_K_J@Z 00000001800e5d64 f   unrar:extract.obj
 0001:000e5078       ?FreeAnalyzeData@CmdExtract@@AEAAXXZ 00000001800e6078 f   unrar:extract.obj
 0001:000e5114       ?GetFirstVolIfFullSet@CmdExtract@@AEAAXPEB_W_NPEA_W_K@Z 00000001800e6114 f   unrar:extract.obj
 0001:000e5290       ?Push@?$Array@UExtractRef@CmdExtract@@@@QEAAXUExtractRef@CmdExtract@@@Z 00000001800e6290 f i unrar:extract.obj
 0001:000e52e4       ?Reset@?$Array@UExtractRef@CmdExtract@@@@QEAAXXZ 00000001800e62e4 f i unrar:extract.obj
 0001:000e5318       ?UnstoreFile@CmdExtract@@SAXAEAVComprDataIO@@_J@Z 00000001800e6318 f   unrar:extract.obj
 0001:000e5720       ?MergeArchive@@YA_NAEAVArchive@@PEAVComprDataIO@@_N_W@Z 00000001800e6720 f   unrar:volume.obj
 0001:000e5c50       ?Msg@uiMsgStore@@QEAAXXZ   00000001800e6c50 f   unrar:ui.obj
 0001:000e5c54       ?uiAlarm@@YAXW4UIALARM_TYPE@@@Z 00000001800e6c54 f   unrar:ui.obj
 0001:000e5c58       ?uiAskReplace@@YA?AW4UIASKREP_RESULT@@PEA_W_K_JPEAVRarTime@@I@Z 00000001800e6c58 f   unrar:ui.obj
 0001:000e5c5c       ?uiAskReplaceEx@@YA?AW4UIASKREP_RESULT@@PEAVCommandData@@PEA_W_K_JPEAVRarTime@@I@Z 00000001800e6c5c f   unrar:ui.obj
 0001:000e5cf0       ?uiEolAfterMsg@@YAXXZ      00000001800e6cf0 f   unrar:ui.obj
 0001:000e5cf4       ?uiExtractProgress@@YAX_J000@Z 00000001800e6cf4 f   unrar:ui.obj
 0001:000e5cf8       ?uiGetMonthName@@YAPEB_WH@Z 00000001800e6cf8 f   unrar:ui.obj
 0001:000e5d04       ?uiGetPassword@@YA_NW4UIPASSWORD_TYPE@@PEB_WPEAVSecPassword@@PEAVCheckPassword@@@Z 00000001800e6d04 f   unrar:ui.obj
 0001:000e5d08       ?uiGiveTick@@YAXXZ         00000001800e6d08 f   unrar:ui.obj
 0001:000e5d0c       ?uiInit@@YAXW4SOUND_NOTIFY_MODE@@@Z 00000001800e6d0c f   unrar:ui.obj
 0001:000e5d14       ?uiIsAborted@@YA_NXZ       00000001800e6d14 f   unrar:ui.obj
 0001:000e5d18       ?uiIsGlobalPasswordSet@@YA_NXZ 00000001800e6d18 f   unrar:ui.obj
 0001:000e5d1c       ?uiProcessProgress@@YAXPEBD_J1@Z 00000001800e6d1c f   unrar:ui.obj
 0001:000e5d20       ?uiStartArchiveExtract@@YAX_NPEB_W@Z 00000001800e6d20 f   unrar:ui.obj
 0001:000e5d24       ?uiStartFileExtract@@YA_NPEB_W_N11@Z 00000001800e6d24 f   unrar:ui.obj
 0001:000e5d28       ?GetSSEVersion@@YA?AW4SSE_VERSION@@XZ 00000001800e6d28 f   unrar:system.obj
 0001:000e5db0       ?InitSystemOptions@@YAXH@Z 00000001800e6db0 f   unrar:system.obj
 0001:000e5db8       ?IsUserAdmin@@YA_NXZ       00000001800e6db8 f   unrar:system.obj
 0001:000e5e90       ?LoadSysLibrary@@YAPEAUHINSTANCE__@@PEB_W@Z 00000001800e6e90 f   unrar:system.obj
 0001:000e5f28       ?MonoClock@@YAJXZ          00000001800e6f28 f   unrar:system.obj
 0001:000e5f30       ?SetPriority@@YAXH@Z       00000001800e6f30 f   unrar:system.obj
 0001:000e5fe4       ?Shutdown@@YAXW4POWER_MODE@@@Z 00000001800e6fe4 f   unrar:system.obj
 0001:000e60e0       ?ShutdownCheckAnother@@YA_N_N@Z 00000001800e70e0 f   unrar:system.obj
 0001:000e6180       ?Wait@@YAXXZ               00000001800e7180 f   unrar:system.obj
 0001:000e625c       ?IsWindows11OrGreater@@YA_NXZ 00000001800e725c f   unrar:isnt.obj
 0001:000e661c       ?WinNT@@YAKXZ              00000001800e761c f   unrar:isnt.obj
 0001:000e66cc       ?_Free@_bstr_t@@AEAAXXZ    00000001800e76cc f i unrar:isnt.obj
 0001:000e6748       ?CalcFileSum@@YAXPEAVFile@@PEAIPEAEI_JI@Z 00000001800e7748 f   unrar:filefn.obj
 0001:000e69a8       ?CreatePath@@YA_NPEB_W_N1@Z 00000001800e79a8 f   unrar:filefn.obj
 0001:000e6b28       ?DelDir@@YA_NPEB_W@Z       00000001800e7b28 f   unrar:filefn.obj
 0001:000e6bcc       ?DelFile@@YA_NPEB_W@Z      00000001800e7bcc f   unrar:filefn.obj
 0001:000e6c70       ?FileExist@@YA_NPEB_W@Z    00000001800e7c70 f   unrar:filefn.obj
 0001:000e6c8c       ?GetFileAttr@@YAIPEB_W@Z   00000001800e7c8c f   unrar:filefn.obj
 0001:000e6d28       ?GetFreeDisk@@YA_JPEB_W@Z  00000001800e7d28 f   unrar:filefn.obj
 0001:000e6de4       ?IsDeleteAllowed@@YA_NI@Z  00000001800e7de4 f   unrar:filefn.obj
 0001:000e6dec       ?IsDir@@YA_NI@Z            00000001800e7dec f   unrar:filefn.obj
 0001:000e6e00       ?IsLink@@YA_NI@Z           00000001800e7e00 f   unrar:filefn.obj
 0001:000e6e0c       ?IsRemovable@@YA_NPEB_W@Z  00000001800e7e0c f   unrar:filefn.obj
 0001:000e6e98       ?IsUnreadable@@YA_NI@Z     00000001800e7e98 f   unrar:filefn.obj
 0001:000e6e9c       ?MakeDir@@YA?AW4MKDIR_CODE@@PEB_W_NI@Z 00000001800e7e9c f   unrar:filefn.obj
 0001:000e6fac       ?MkTemp@@YAPEA_WPEA_W_K@Z  00000001800e7fac f   unrar:filefn.obj
 0001:000e7174       ?PrepareToDelete@@YAXPEB_W@Z 00000001800e8174 f   unrar:filefn.obj
 0001:000e717c       ?RenameFile@@YA_NPEB_W0@Z  00000001800e817c f   unrar:filefn.obj
 0001:000e7258       ?ResetFileCache@@YAXPEB_W@Z 00000001800e8258 f   unrar:filefn.obj
 0001:000e72a8       ?SetDirTime@@YAXPEB_WPEAVRarTime@@11@Z 00000001800e82a8 f   unrar:filefn.obj
 0001:000e74e0       ?SetFileAttr@@YA_NPEB_WI@Z 00000001800e84e0 f   unrar:filefn.obj
 0001:000e7594       ?SetFileCompression@@YA_NPEB_W_N@Z 00000001800e8594 f   unrar:filefn.obj
 0001:000e76f0       ?WildFileExist@@YA_NPEB_W@Z 00000001800e86f0 f   unrar:filefn.obj
 0001:000e77c8       ??0FindFile@@QEAA@XZ       00000001800e87c8 f   unrar:find.obj
 0001:000e77e8       ??1FindFile@@QEAA@XZ       00000001800e87e8 f   unrar:find.obj
 0001:000e780c       ?FastFind@FindFile@@SA_NPEB_WPEAUFindData@@_N@Z 00000001800e880c f   unrar:find.obj
 0001:000e78a4       ?Next@FindFile@@QEAA_NPEAUFindData@@_N@Z 00000001800e88a4 f   unrar:find.obj
 0001:000e79b0       ?SetMask@FindFile@@QEAAXPEB_W@Z 00000001800e89b0 f   unrar:find.obj
 0001:000e79dc       ?Win32Find@FindFile@@CAPEAXPEAXPEB_WPEAUFindData@@@Z 00000001800e89dc f   unrar:find.obj
 0001:000e7bc8       ??0DataHash@@QEAA@XZ       00000001800e8bc8 f   unrar:hash.obj
 0001:000e7be0       ??0blake2s_state@@QEAA@AEAU0@@Z 00000001800e8be0 f i unrar:hash.obj
 0001:000e7c40       ??0blake2s_state@@QEAA@XZ  00000001800e8c40 f i unrar:hash.obj
 0001:000e7c88       ??0blake2sp_state@@QEAA@AEAU0@@Z 00000001800e8c88 f i unrar:hash.obj
 0001:000e7e54       ??0blake2sp_state@@QEAA@XZ 00000001800e8e54 f i unrar:hash.obj
 0001:000e7f0c       ??1DataHash@@QEAA@XZ       00000001800e8f0c f   unrar:hash.obj
 0001:000e7f8c       ??4blake2s_state@@QEAAAEAU0@AEAU0@@Z 00000001800e8f8c f i unrar:hash.obj
 0001:000e8058       ??8HashValue@@QEBA_NAEBU0@@Z 00000001800e9058 f   unrar:hash.obj
 0001:000e80c8       ??__G@YAXPEAX0_K1P6APEAX00@Z@Z 00000001800e90c8 f i unrar:hash.obj
 0001:000e8130       ?Cmp@DataHash@@QEAA_NPEAUHashValue@@PEAE@Z 00000001800e9130 f   unrar:hash.obj
 0001:000e81a8       ?GetCRC32@DataHash@@QEAAIXZ 00000001800e91a8 f   unrar:hash.obj
 0001:000e81bc       ?Init@DataHash@@QEAAXW4HASH_TYPE@@I@Z 00000001800e91bc f   unrar:hash.obj
 0001:000e8258       ?Init@HashValue@@QEAAXW4HASH_TYPE@@@Z 00000001800e9258 f   unrar:hash.obj
 0001:000e828c       ?Result@DataHash@@QEAAXPEAUHashValue@@@Z 00000001800e928c f   unrar:hash.obj
 0001:000e831c       ?Update@DataHash@@QEAAXPEBX_K@Z 00000001800e931c f   unrar:hash.obj
 0001:000e8408       ??$_Assign_counted_range@PEA_W@?$vector@_WV?$allocator@_W@std@@@std@@AEAAXPEA_W_K@Z 00000001800e9408 f i unrar:crypt.obj
 0001:000e84d8       ??$_Copy_memmove_n@PEA_WPEA_W@std@@YAPEA_WPEA_W_K0@Z 00000001800e94d8 f i unrar:crypt.obj
 0001:000e8514       ??0CryptData@@QEAA@XZ      00000001800e9514 f   unrar:crypt.obj
 0001:000e8680       ??0KDF3CacheItem@CryptData@@QEAA@XZ 00000001800e9680 f i unrar:crypt.obj
 0001:000e86e4       ??0KDF5CacheItem@CryptData@@QEAA@XZ 00000001800e96e4 f i unrar:crypt.obj
 0001:000e875c       ?ConvertHashToMAC@@YAXPEAUHashValue@@PEAE@Z 00000001800e975c f   unrar:crypt.obj
 0001:000e889c       ?Crypt15@CryptData@@AEAAXPEAE_K@Z 00000001800e989c f   unrar:crypt.obj
 0001:000e8968       ?Decrypt13@CryptData@@AEAAXPEAE_K@Z 00000001800e9968 f   unrar:crypt.obj
 0001:000e89a4       ?DecryptBlock20@CryptData@@AEAAXPEAE@Z 00000001800e99a4 f   unrar:crypt.obj
 0001:000e8ba0       ?DecryptBlock@CryptData@@QEAAXPEAE_K@Z 00000001800e9ba0 f   unrar:crypt.obj
 0001:000e8c58       ?EncryptBlock20@CryptData@@AEAAXPEAE@Z 00000001800e9c58 f   unrar:crypt.obj
 0001:000e8e40       ?GetRnd@@YAXPEAE_K@Z       00000001800e9e40 f   unrar:crypt.obj
 0001:000e8f38       ?SetAV15Encryption@CryptData@@QEAAXXZ 00000001800e9f38 f   unrar:crypt.obj
 0001:000e8f80       ?SetCmt13Encryption@CryptData@@QEAAXXZ 00000001800e9f80 f   unrar:crypt.obj
 0001:000e8fa4       ?SetCryptKeys@CryptData@@QEAA_N_NW4CRYPT_METHOD@@PEAVSecPassword@@PEBE3IPEAE4@Z 00000001800e9fa4 f   unrar:crypt.obj
 0001:000e91ac       ?SetKey13@CryptData@@AEAAXPEBD@Z 00000001800ea1ac f   unrar:crypt.obj
 0001:000e9218       ?SetKey15@CryptData@@AEAAXPEBD@Z 00000001800ea218 f   unrar:crypt.obj
 0001:000e92f4       ?SetKey20@CryptData@@AEAAXPEBD@Z 00000001800ea2f4 f   unrar:crypt.obj
 0001:000e9554       ?SetKey30@CryptData@@AEAAX_NPEAVSecPassword@@PEB_WPEBE@Z 00000001800ea554 f   unrar:crypt.obj
 0001:000e993c       ?SetKey50@CryptData@@AEAAX_NPEAVSecPassword@@PEB_WPEBE3IPEAE4@Z 00000001800ea93c f   unrar:crypt.obj
 0001:000e9cc0       ?Swap20@CryptData@@AEAAXPEAE0@Z 00000001800eacc0 f   unrar:crypt.obj
 0001:000e9cd0       ?UpdKeys20@CryptData@@AEAAXPEAE@Z 00000001800eacd0 f   unrar:crypt.obj
 0001:000e9d78       ?_Clear_and_reserve_geometric@?$vector@_WV?$allocator@_W@std@@@std@@AEAAX_K@Z 00000001800ead78 f i unrar:crypt.obj
 0001:000ea28c       ?pbkdf2@@YAXPEBE_K01PEAE22I@Z 00000001800eb28c f   unrar:crypt.obj
 0001:000ea58c       ??4?$Array@E@@QEAAAEAV0@AEBV0@@Z 00000001800eb58c f i unrar:headers.obj
 0001:000ea5f8       ??4FileHeader@@QEAAAEAU0@AEAU0@@Z 00000001800eb5f8 f   unrar:headers.obj
 0001:000ea67c       ??4MainHeader@@QEAAAEAU0@$$QEAU0@@Z 00000001800eb67c f i unrar:headers.obj
 0001:000ea770       ?Reset@FileHeader@@QEAAX_K@Z 00000001800eb770 f   unrar:headers.obj
 0001:000ea844       ?Reset@MainHeader@@QEAAXXZ 00000001800eb844 f   unrar:headers.obj
 0001:000ea938       ??0File@@QEAA@XZ           00000001800eb938 f   unrar:file.obj
 0001:000ea994       ??1File@@UEAA@XZ           00000001800eb994 f   unrar:file.obj
 0001:000ea9d8       ??4File@@QEAAXAEAV0@@Z     00000001800eb9d8 f   unrar:file.obj
 0001:000eaa30       ??_EFile@@UEAAPEAXI@Z      00000001800eba30 f i unrar:file.obj
 0001:000eaa30       ??_GFile@@UEAAPEAXI@Z      00000001800eba30 f i unrar:file.obj
 0001:000eaa74       ?Close@File@@UEAA_NXZ      00000001800eba74 f   unrar:file.obj
 0001:000eaaf4       ?Copy@File@@QEAA_JAEAV1@_J@Z 00000001800ebaf4 f   unrar:file.obj
 0001:000eac84       ?Create@File@@QEAA_NPEB_WI@Z 00000001800ebc84 f   unrar:file.obj
 0001:000eadfc       ?Delete@File@@QEAA_NXZ     00000001800ebdfc f   unrar:file.obj
 0001:000eae44       ?DirectRead@File@@QEAAHPEAX_K@Z 00000001800ebe44 f   unrar:file.obj
 0001:000eaf58       ?FileLength@File@@QEAA_JXZ 00000001800ebf58 f   unrar:file.obj
 0001:000eafc8       ?Flush@File@@QEAAXXZ       00000001800ebfc8 f   unrar:file.obj
 0001:000eafd8       ?GetByte@File@@QEAAEXZ     00000001800ebfd8 f   unrar:file.obj
 0001:000eb004       ?GetOpenFileTime@File@@QEAAXPEAVRarTime@@00@Z 00000001800ec004 f   unrar:file.obj
 0001:000eb088       ?IsDevice@File@@QEAA_NXZ   00000001800ec088 f   unrar:file.obj
 0001:000eb0b8       ?Open@File@@UEAA_NPEB_WI@Z 00000001800ec0b8 f   unrar:file.obj
 0001:000eb2f4       ?Prealloc@File@@QEAAX_J@Z  00000001800ec2f4 f   unrar:file.obj
 0001:000eb334       ?PutByte@File@@QEAAXE@Z    00000001800ec334 f   unrar:file.obj
 0001:000eb358       ?RawSeek@File@@QEAA_N_JH@Z 00000001800ec358 f   unrar:file.obj
 0001:000eb4cc       ?Read@File@@UEAAHPEAX_K@Z  00000001800ec4cc f   unrar:file.obj
 0001:000eb6dc       ?Rename@File@@QEAA_NPEB_W@Z 00000001800ec6dc f   unrar:file.obj
 0001:000eb76c       ?Seek@File@@UEAAX_JH@Z     00000001800ec76c f   unrar:file.obj
 0001:000eb7a4       ?SetCloseFileTime@File@@QEAAXPEAVRarTime@@0@Z 00000001800ec7a4 f   unrar:file.obj
 0001:000eb7a8       ?SetCloseFileTimeByName@File@@SAXPEB_WPEAVRarTime@@1@Z 00000001800ec7a8 f   unrar:file.obj
 0001:000eb7ac       ?SetOpenFileTime@File@@QEAAXPEAVRarTime@@00@Z 00000001800ec7ac f   unrar:file.obj
 0001:000eb8c4       ?TCreate@File@@QEAAXPEB_WI@Z 00000001800ec8c4 f   unrar:file.obj
 0001:000eb8f0       ?TOpen@File@@QEAAXPEB_W@Z  00000001800ec8f0 f   unrar:file.obj
 0001:000eb91c       ?Tell@File@@UEAA_JXZ       00000001800ec91c f   unrar:file.obj
 0001:000eb9f8       ?Truncate@File@@QEAA_NXZ   00000001800ec9f8 f   unrar:file.obj
 0001:000eba18       ?WCreate@File@@QEAA_NPEB_WI@Z 00000001800eca18 f   unrar:file.obj
 0001:000eba50       ?WOpen@File@@QEAA_NPEB_W@Z 00000001800eca50 f   unrar:file.obj
 0001:000eba90       ?Write@File@@QEAA_NPEBX_K@Z 00000001800eca90 f   unrar:file.obj
 0001:000ebc34       ??0CallInitCRC@@QEAA@XZ    00000001800ecc34 f i unrar:crc.obj
 0001:000ebcbc       ?CRC32@@YAIIPEBX_K@Z       00000001800eccbc f   unrar:crc.obj
 0001:000ebe20       ?Checksum14@@YAGGPEBX_K@Z  00000001800ece20 f   unrar:crc.obj
 0001:000ebe60       ?InitCRC32@@YAXPEAI@Z      00000001800ece60 f   unrar:crc.obj
 0001:000ebebc       ??0ComprDataIO@@QEAA@XZ    00000001800ecebc f   unrar:rdwrfn.obj
 0001:000ebf6c       ??1ComprDataIO@@QEAA@XZ    00000001800ecf6c f   unrar:rdwrfn.obj
 0001:000ec008       ?AdjustTotalArcSize@ComprDataIO@@QEAAXPEAVArchive@@@Z 00000001800ed008 f   unrar:rdwrfn.obj
 0001:000ec08c       ?GetUnpackedData@ComprDataIO@@QEAAXPEAPEAEPEA_K@Z 00000001800ed08c f   unrar:rdwrfn.obj
 0001:000ec0a0       ?Init@ComprDataIO@@QEAAXXZ 00000001800ed0a0 f   unrar:rdwrfn.obj
 0001:000ec140       ?SetAV15Encryption@ComprDataIO@@QEAAXXZ 00000001800ed140 f   unrar:rdwrfn.obj
 0001:000ec158       ?SetCmt13Encryption@ComprDataIO@@QEAAXXZ 00000001800ed158 f   unrar:rdwrfn.obj
 0001:000ec170       ?SetEncryption@ComprDataIO@@QEAAX_NW4CRYPT_METHOD@@PEAVSecPassword@@PEBE3IPEAE4@Z 00000001800ed170 f   unrar:rdwrfn.obj
 0001:000ec208       ?SetFiles@ComprDataIO@@QEAAXPEAVFile@@0@Z 00000001800ed208 f   unrar:rdwrfn.obj
 0001:000ec228       ?SetUnpackToMemory@ComprDataIO@@QEAAXPEAEI@Z 00000001800ed228 f   unrar:rdwrfn.obj
 0001:000ec23c       ?ShowUnpRead@ComprDataIO@@AEAAX_J0@Z 00000001800ed23c f   unrar:rdwrfn.obj
 0001:000ec2f8       ?ShowUnpWrite@ComprDataIO@@AEAAXXZ 00000001800ed2f8 f   unrar:rdwrfn.obj
 0001:000ec2fc       ?UnpRead@ComprDataIO@@QEAAHPEAE_K@Z 00000001800ed2fc f   unrar:rdwrfn.obj
 0001:000ec570       ?UnpWrite@ComprDataIO@@QEAAXPEAE_K@Z 00000001800ed570 f   unrar:rdwrfn.obj
 0001:000ec6bc       ??0QuickOpen@@QEAA@XZ      00000001800ed6bc f   unrar:qopen.obj
 0001:000ec718       ??1QuickOpen@@QEAA@XZ      00000001800ed718 f   unrar:qopen.obj
 0001:000ec75c       ?Close@QuickOpen@@AEAAXXZ  00000001800ed75c f   unrar:qopen.obj
 0001:000ec7ac       ?Init@QuickOpen@@QEAAXPEAVArchive@@_N@Z 00000001800ed7ac f   unrar:qopen.obj
 0001:000ec82c       ?Load@QuickOpen@@QEAAX_K@Z 00000001800ed82c f   unrar:qopen.obj
 0001:000eca5c       ?Read@QuickOpen@@QEAA_NPEAX_KAEA_K@Z 00000001800eda5c f   unrar:qopen.obj
 0001:000ecbec       ?ReadBuffer@QuickOpen@@AEAAIXZ 00000001800edbec f   unrar:qopen.obj
 0001:000ecd18       ?ReadNext@QuickOpen@@AEAA_NXZ 00000001800edd18 f   unrar:qopen.obj
 0001:000ece1c       ?ReadRaw@QuickOpen@@AEAA_NAEAVRawRead@@@Z 00000001800ede1c f   unrar:qopen.obj
 0001:000ecfcc       ?Seek@QuickOpen@@QEAA_N_JH@Z 00000001800edfcc f   unrar:qopen.obj
 0001:000ed098       ?Tell@QuickOpen@@QEAA_NPEA_J@Z 00000001800ee098 f   unrar:qopen.obj
 0001:000ed0b8       ?InitConsole@@YAXXZ        00000001800ee0b8 f   unrar:consio.obj
 0001:000ed194       ?InitLogOptions@@YAXPEB_WW4RAR_CHARSET@@@Z 00000001800ee194 f   unrar:consio.obj
 0001:000ed214       ?OutComment@@YAXPEB_W_K@Z  00000001800ee214 f   unrar:consio.obj
 0001:000ed34c       ?ProhibitConsoleInput@@YAXXZ 00000001800ee34c f   unrar:consio.obj
 0001:000ed358       ?SetConsoleMsgStream@@YAXW4MESSAGE_TYPE@@@Z 00000001800ee358 f   unrar:consio.obj
 0001:000ed360       ?SetConsoleRedirectCharset@@YAXW4RAR_CHARSET@@@Z 00000001800ee360 f   unrar:consio.obj
 0001:000ed368       ??0?$Array@H@@QEAA@XZ      00000001800ee368 f i unrar:unpack.obj
 0001:000ed384       ??0?$Array@PEAUUnpackFilter30@@@@QEAA@XZ 00000001800ee384 f i unrar:unpack.obj
 0001:000ed3a0       ??0?$Array@UUnpackFilter@@@@QEAA@XZ 00000001800ee3a0 f i unrar:unpack.obj
 0001:000ed3bc       ??0FragmentedWindow@@QEAA@XZ 00000001800ee3bc f   unrar:unpack.obj
 0001:000ed3fc       ??0ModelPPM@@QEAA@XZ       00000001800ee3fc f   unrar:unpack.obj
 0001:000ed428       ??0SubAllocator@@QEAA@XZ   00000001800ee428 f   unrar:unpack.obj
 0001:000ed430       ??0Unpack@@QEAA@PEAVComprDataIO@@@Z 00000001800ee430 f   unrar:unpack.obj
 0001:000ed620       ??0UnpackThreadData@@QEAA@XZ 00000001800ee620 f i unrar:unpack.obj
 0001:000ed650       ??0bad_alloc@stdext@@QEAA@AEBV01@@Z 00000001800ee650 f i unrar:unpack.obj
 0001:000ed678       ??0bad_alloc@stdext@@QEAA@XZ 00000001800ee678 f i unrar:unpack.obj
 0001:000ed698       ??0exception@stdext@@QEAA@AEBV01@@Z 00000001800ee698 f i unrar:unpack.obj
 0001:000ed6b4       ??1?$Array@H@@QEAA@XZ      00000001800ee6b4 f i unrar:unpack.obj
 0001:000ed6d0       ??1?$Array@PEAUUnpackFilter30@@@@QEAA@XZ 00000001800ee6d0 f i unrar:unpack.obj
 0001:000ed6ec       ??1?$Array@UUnpackFilter@@@@QEAA@XZ 00000001800ee6ec f i unrar:unpack.obj
 0001:000ed708       ??1FragmentedWindow@@QEAA@XZ 00000001800ee708 f   unrar:unpack.obj
 0001:000ed710       ??1Unpack@@QEAA@XZ         00000001800ee710 f   unrar:unpack.obj
 0001:000ed868       ??1UnpackThreadData@@QEAA@XZ 00000001800ee868 f i unrar:unpack.obj
 0001:000ed89c       ??AFragmentedWindow@@QEAAAEAE_K@Z 00000001800ee89c f   unrar:unpack.obj
 0001:000ed8f8       ??_EUnpackThreadData@@QEAAPEAXI@Z 00000001800ee8f8 f i unrar:unpack.obj
 0001:000ed9e8       ?Add@?$Array@H@@QEAAX_K@Z  00000001800ee9e8 f i unrar:unpack.obj
 0001:000edabc       ?Add@?$Array@PEAUUnpackFilter30@@@@QEAAX_K@Z 00000001800eeabc f i unrar:unpack.obj
 0001:000edb90       ?Add@?$Array@UUnpackFilter@@@@QEAAX_K@Z 00000001800eeb90 f i unrar:unpack.obj
 0001:000edc60       ?AddFilter@Unpack@@AEAA_NAEAUUnpackFilter@@@Z 00000001800eec60 f   unrar:unpack.obj
 0001:000edd34       ?AddVMCode@Unpack@@AEAA_NIPEAEI@Z 00000001800eed34 f   unrar:unpack.obj
 0001:000ee20c       ?Alloc@?$Array@UUnpackFilter@@@@QEAAX_K@Z 00000001800ef20c f i unrar:unpack.obj
 0001:000ee228       ?AllocUnits@SubAllocator@@QEAAPEAXH@Z 00000001800ef228 f i unrar:unpack.obj
 0001:000ee2c0       ?AllocUnitsRare@SubAllocator@@AEAAPEAXH@Z 00000001800ef2c0 f   unrar:unpack.obj
 0001:000ee3fc       ?ApplyFilter@Unpack@@AEAAPEAEPEAEIPEAUUnpackFilter@@@Z 00000001800ef3fc f   unrar:unpack.obj
 0001:000ee5fc       ?Clean@SubAllocator@@QEAAXXZ 00000001800ef5fc f   unrar:unpack.obj
 0001:000ee600       ?CleanUp@ModelPPM@@QEAAXXZ 00000001800ef600 f   unrar:unpack.obj
 0001:000ee660       ?CopyData@FragmentedWindow@@QEAAXPEAE_K1@Z 00000001800ef660 f   unrar:unpack.obj
 0001:000ee6cc       ?CopyString15@Unpack@@AEAAXII@Z 00000001800ef6cc f   unrar:unpack.obj
 0001:000ee740       ?CopyString20@Unpack@@AEAAXII@Z 00000001800ef740 f   unrar:unpack.obj
 0001:000ee93c       ?CopyString@FragmentedWindow@@QEAAXIIAEA_K_K@Z 00000001800ef93c f   unrar:unpack.obj
 0001:000ee9e0       ?CorrHuff@Unpack@@AEAAXPEAGPEAE@Z 00000001800ef9e0 f   unrar:unpack.obj
 0001:000eea88       ?CreateSuccessors@ModelPPM@@AEAAPEAURARPPM_CONTEXT@@_NPEAURARPPM_STATE@@@Z 00000001800efa88 f i unrar:unpack.obj
 0001:000eec7c       ?DecodeAudio@Unpack@@AEAAEH@Z 00000001800efc7c f   unrar:unpack.obj
 0001:000ef08c       ?DecodeChar@ModelPPM@@QEAAHXZ 00000001800f008c f   unrar:unpack.obj
 0001:000ef3a8       ?DecodeInit@ModelPPM@@QEAA_NPEAVUnpack@@AEAH@Z 00000001800f03a8 f   unrar:unpack.obj
 0001:000ef56c       ?DecodeNum@Unpack@@AEAAIIIPEAI0@Z 00000001800f056c f   unrar:unpack.obj
 0001:000ef618       ?DoUnpack@Unpack@@QEAAXI_N@Z 00000001800f0618 f   unrar:unpack.obj
 0001:000ef6c0       ?ExecuteCode@Unpack@@AEAAXPEAUVM_PreparedProgram@@@Z 00000001800f06c0 f   unrar:unpack.obj
 0001:000ef6dc       ?ExpandUnits@SubAllocator@@QEAAPEAXPEAXH@Z 00000001800f06dc f i unrar:unpack.obj
 0001:000ef788       ?GetBlockSize@FragmentedWindow@@QEAA_K_K0@Z 00000001800f0788 f   unrar:unpack.obj
 0001:000ef7c4       ?GetFlagsBuf@Unpack@@AEAAXXZ 00000001800f07c4 f   unrar:unpack.obj
 0001:000ef8b8       ?GlueFreeBlocks@SubAllocator@@AEAAXXZ 00000001800f08b8 f i unrar:unpack.obj
 0001:000efb10       ?HuffDecode@Unpack@@AEAAXXZ 00000001800f0b10 f   unrar:unpack.obj
 0001:000efe60       ?Init@FragmentedWindow@@QEAAX_K@Z 00000001800f0e60 f   unrar:unpack.obj
 0001:000effa0       ?Init@Unpack@@QEAAX_K_N@Z  00000001800f0fa0 f   unrar:unpack.obj
 0001:000f01e8       ?InitDecoder@RangeCoder@@QEAAXPEAVUnpack@@@Z 00000001800f11e8 f   unrar:unpack.obj
 0001:000f0288       ?InitFilters30@Unpack@@AEAAX_N@Z 00000001800f1288 f   unrar:unpack.obj
 0001:000f0340       ?InitFilters@Unpack@@AEAAXXZ 00000001800f1340 f   unrar:unpack.obj
 0001:000f034c       ?InitHuff@Unpack@@AEAAXXZ  00000001800f134c f   unrar:unpack.obj
 0001:000f0434       ?InitMT@Unpack@@AEAAXXZ    00000001800f1434 f   unrar:unpack.obj
 0001:000f05bc       ?InitSubAllocator@SubAllocator@@QEAAXXZ 00000001800f15bc f   unrar:unpack.obj
 0001:000f0740       ?LongLZ@Unpack@@AEAAXXZ    00000001800f1740 f   unrar:unpack.obj
 0001:000f0ac0       ?MakeDecodeTables@Unpack@@AEAAXPEAEPEAUDecodeTable@@I@Z 00000001800f1ac0 f   unrar:unpack.obj
 0001:000f0d20       ?ProcessDecoded@Unpack@@AEAA_NAEAUUnpackThreadData@@@Z 00000001800f1d20 f   unrar:unpack.obj
 0001:000f1408       ?Push@?$Array@H@@QEAAXH@Z  00000001800f2408 f i unrar:unpack.obj
 0001:000f1444       ?Push@?$Array@UUnpackFilter@@@@QEAAXUUnpackFilter@@@Z 00000001800f2444 f i unrar:unpack.obj
 0001:000f148c       ?ReadBlockHeader@Unpack@@AEAA_NAEAVBitInput@@AEAUUnpackBlockHeader@@@Z 00000001800f248c f   unrar:unpack.obj
 0001:000f1648       ?ReadEndOfBlock@Unpack@@AEAA_NXZ 00000001800f2648 f   unrar:unpack.obj
 0001:000f16d0       ?ReadFilter@Unpack@@AEAA_NAEAVBitInput@@AEAUUnpackFilter@@@Z 00000001800f26d0 f   unrar:unpack.obj
 0001:000f17a4       ?ReadFilterData@Unpack@@AEAAIAEAVBitInput@@@Z 00000001800f27a4 f   unrar:unpack.obj
 0001:000f1850       ?ReadLastTables@Unpack@@AEAAXXZ 00000001800f2850 f   unrar:unpack.obj
 0001:000f1ae0       ?ReadTables20@Unpack@@AEAA_NXZ 00000001800f2ae0 f   unrar:unpack.obj
 0001:000f2048       ?ReadTables30@Unpack@@AEAA_NXZ 00000001800f3048 f   unrar:unpack.obj
 0001:000f25bc       ?ReadTables@Unpack@@AEAA_NAEAVBitInput@@AEAUUnpackBlockHeader@@AEAUUnpackBlockTables@@@Z 00000001800f35bc f   unrar:unpack.obj
 0001:000f29fc       ?ReadVMCode@Unpack@@AEAA_NXZ 00000001800f39fc f   unrar:unpack.obj
 0001:000f2be8       ?ReadVMCodePPM@Unpack@@AEAA_NXZ 00000001800f3be8 f   unrar:unpack.obj
 0001:000f2d58       ?Reset@FragmentedWindow@@AEAAXXZ 00000001800f3d58 f   unrar:unpack.obj
 0001:000f2da0       ?RestartModelRare@ModelPPM@@AEAAXXZ 00000001800f3da0 f   unrar:unpack.obj
 0001:000f3078       ?SetThreads@Unpack@@QEAAXI@Z 00000001800f4078 f   unrar:unpack.obj
 0001:000f30c4       ?ShortLZ@Unpack@@AEAAXXZ   00000001800f40c4 f   unrar:unpack.obj
 0001:000f3494       ?ShrinkUnits@SubAllocator@@QEAAPEAXPEAXHH@Z 00000001800f4494 f i unrar:unpack.obj
 0001:000f3548       ?SoftReset@?$Array@H@@QEAAXXZ 00000001800f4548 f i unrar:unpack.obj
 0001:000f3550       ?SoftReset@?$Array@PEAUUnpackFilter30@@@@QEAAXXZ 00000001800f4550 f i unrar:unpack.obj
 0001:000f3558       ?SoftReset@?$Array@UUnpackFilter@@@@QEAAXXZ 00000001800f4558 f i unrar:unpack.obj
 0001:000f3560       ?SplitBlock@SubAllocator@@AEAAXPEAXHH@Z 00000001800f4560 f i unrar:unpack.obj
 0001:000f3608       ?StartModelRare@ModelPPM@@AEAAXH@Z 00000001800f4608 f   unrar:unpack.obj
 0001:000f3740       ?StartSubAllocator@SubAllocator@@QEAA_NH@Z 00000001800f4740 f   unrar:unpack.obj
 0001:000f37f8       ?StopSubAllocator@SubAllocator@@QEAAXXZ 00000001800f47f8 f   unrar:unpack.obj
 0001:000f381c       ?UnpInitData15@Unpack@@AEAAXH@Z 00000001800f481c f   unrar:unpack.obj
 0001:000f3894       ?UnpInitData20@Unpack@@AEAAXH@Z 00000001800f4894 f   unrar:unpack.obj
 0001:000f391c       ?UnpInitData30@Unpack@@AEAAX_N@Z 00000001800f491c f   unrar:unpack.obj
 0001:000f3988       ?UnpInitData50@Unpack@@AEAAX_N@Z 00000001800f4988 f   unrar:unpack.obj
 0001:000f3998       ?UnpInitData@Unpack@@AEAAX_N@Z 00000001800f4998 f   unrar:unpack.obj
 0001:000f3aa4       ?UnpReadBuf30@Unpack@@AEAA_NXZ 00000001800f4aa4 f   unrar:unpack.obj
 0001:000f3b7c       ?UnpReadBuf@Unpack@@AEAA_NXZ 00000001800f4b7c f   unrar:unpack.obj
 0001:000f3ce8       ?UnpWriteArea@Unpack@@AEAAX_K0@Z 00000001800f4ce8 f   unrar:unpack.obj
 0001:000f3e00       ?UnpWriteBuf20@Unpack@@AEAAXXZ 00000001800f4e00 f   unrar:unpack.obj
 0001:000f3eb4       ?UnpWriteBuf30@Unpack@@AEAAXXZ 00000001800f4eb4 f   unrar:unpack.obj
 0001:000f41a0       ?UnpWriteBuf@Unpack@@AEAAXXZ 00000001800f51a0 f   unrar:unpack.obj
 0001:000f4650       ?UnpWriteData@Unpack@@AEAAXPEAE_K@Z 00000001800f5650 f   unrar:unpack.obj
 0001:000f46a8       ?Unpack15@Unpack@@AEAAX_N@Z 00000001800f56a8 f   unrar:unpack.obj
 0001:000f48a4       ?Unpack20@Unpack@@AEAAX_N@Z 00000001800f58a4 f   unrar:unpack.obj
 0001:000f518c       ?Unpack29@Unpack@@AEAAX_N@Z 00000001800f618c f   unrar:unpack.obj
 0001:000f6670       ?Unpack5@Unpack@@AEAAX_N@Z 00000001800f7670 f   unrar:unpack.obj
 0001:000f75b4       ?Unpack5MT@Unpack@@AEAAX_N@Z 00000001800f85b4 f   unrar:unpack.obj
 0001:000f7b54       ?UnpackDecode@Unpack@@QEAAXAEAUUnpackThreadData@@@Z 00000001800f8b54 f   unrar:unpack.obj
 0001:000f8528       ?UnpackDecodeThread@@YAXPEAX@Z 00000001800f9528 f   unrar:unpack.obj
 0001:000f8574       ?UnpackLargeBlock@Unpack@@AEAA_NAEAUUnpackThreadData@@@Z 00000001800f9574 f   unrar:unpack.obj
 0001:000f93f0       ?UpdateModel@ModelPPM@@AEAAXXZ 00000001800fa3f0 f i unrar:unpack.obj
 0001:000f9854       ?createChild@RARPPM_CONTEXT@@QEAAPEAU1@PEAVModelPPM@@PEAURARPPM_STATE@@AEAU3@@Z 00000001800fa854 f i unrar:unpack.obj
 0001:000f990c       ?decodeBinSymbol@RARPPM_CONTEXT@@QEAAXPEAVModelPPM@@@Z 00000001800fa90c f i unrar:unpack.obj
 0001:000f9ad8       ?decodeSymbol1@RARPPM_CONTEXT@@QEAA_NPEAVModelPPM@@@Z 00000001800faad8 f i unrar:unpack.obj
 0001:000f9ca0       ?decodeSymbol2@RARPPM_CONTEXT@@QEAA_NPEAVModelPPM@@@Z 00000001800faca0 f i unrar:unpack.obj
 0001:000f9f1c       ?makeEscFreq2@RARPPM_CONTEXT@@QEAAPEAURARPPM_SEE2_CONTEXT@@PEAVModelPPM@@H@Z 00000001800faf1c f i unrar:unpack.obj
 0001:000fa000       ?rescale@RARPPM_CONTEXT@@QEAAXPEAVModelPPM@@@Z 00000001800fb000 f   unrar:unpack.obj
 0001:000fa290       ?update1@RARPPM_CONTEXT@@QEAAXPEAVModelPPM@@PEAURARPPM_STATE@@@Z 00000001800fb290 f i unrar:unpack.obj
 0001:000fa314       ?sha256_done@@YAXPEAUsha256_context@@PEAE@Z 00000001800fb314 f   unrar:sha256.obj
 0001:000fa494       ?sha256_init@@YAXPEAUsha256_context@@@Z 00000001800fb494 f   unrar:sha256.obj
 0001:000fa4e0       ?sha256_process@@YAXPEAUsha256_context@@PEBX_K@Z 00000001800fb4e0 f   unrar:sha256.obj
 0001:000fa83c       ??0RawRead@@QEAA@PEAVFile@@@Z 00000001800fb83c f   unrar:rawread.obj
 0001:000fa86c       ??0RawRead@@QEAA@XZ        00000001800fb86c f   unrar:rawread.obj
 0001:000fa89c       ?Get1@RawRead@@QEAAEXZ     00000001800fb89c f   unrar:rawread.obj
 0001:000fa8c0       ?Get2@RawRead@@QEAAGXZ     00000001800fb8c0 f   unrar:rawread.obj
 0001:000fa904       ?Get4@RawRead@@QEAAIXZ     00000001800fb904 f   unrar:rawread.obj
 0001:000fa95c       ?Get8@RawRead@@QEAA_KXZ    00000001800fb95c f   unrar:rawread.obj
 0001:000fa998       ?GetB@RawRead@@QEAA_KPEAX_K@Z 00000001800fb998 f   unrar:rawread.obj
 0001:000faa30       ?GetCRC15@RawRead@@QEAAI_N@Z 00000001800fba30 f   unrar:rawread.obj
 0001:000faa74       ?GetCRC50@RawRead@@QEAAIXZ 00000001800fba74 f   unrar:rawread.obj
 0001:000faaac       ?GetV@RawRead@@QEAA_KXZ    00000001800fbaac f   unrar:rawread.obj
 0001:000fab08       ?GetVSize@RawRead@@QEAAI_K@Z 00000001800fbb08 f   unrar:rawread.obj
 0001:000fab38       ?GetW@RawRead@@QEAAXPEA_W_K@Z 00000001800fbb38 f   unrar:rawread.obj
 0001:000fab98       ?RawGetV@@YA_KPEBEAEAIIAEA_N@Z 00000001800fbb98 f   unrar:rawread.obj
 0001:000fac08       ?Read@RawRead@@QEAAXPEAE_K@Z 00000001800fbc08 f   unrar:rawread.obj
 0001:000fac68       ?Read@RawRead@@QEAA_K_K@Z  00000001800fbc68 f   unrar:rawread.obj
 0001:000fad80       ?Reset@RawRead@@QEAAXXZ    00000001800fbd80 f   unrar:rawread.obj
 0001:000fad98       ?SoftReset@?$Array@E@@QEAAXXZ 00000001800fbd98 f i unrar:rawread.obj
 0001:000fada0       ??0EncodeFileName@@QEAA@XZ 00000001800fbda0 f   unrar:encname.obj
 0001:000fadb8       ?Decode@EncodeFileName@@QEAAXPEAD_KPEAE1PEA_W1@Z 00000001800fbdb8 f   unrar:encname.obj
 0001:000fb05c       ??0RAROptions@@QEAA@XZ     00000001800fc05c f   unrar:options.obj
 0001:000fb0b0       ?Init@RAROptions@@QEAAXXZ  00000001800fc0b0 f   unrar:options.obj
 0001:000fb138       ?DetectTextEncoding@@YA?AW4RAR_CHARSET@@PEBE_K@Z 00000001800fc138 f   unrar:filestr.obj
 0001:000fb214       ?ReadTextFile@@YA_NPEB_WPEAVStringList@@_N2W4RAR_CHARSET@@222@Z 00000001800fc214 f   unrar:filestr.obj
 0001:000fb848       ??$uiMsg@AEAY0IAA@_WAEAY01$$CB_WAEAY0IAA@_W@@YAXW4UIMESSAGE_CODE@@AEAY0IAA@_WAEAY01$$CB_W1@Z 00000001800fc848 f i unrar:scantree.obj
 0001:000fb8e8       ??$uiMsgBase@AEAY01$$CB_WAEAY0IAA@_W@@YAXAEAVuiMsgStore@@AEAY01$$CB_WAEAY0IAA@_W@Z 00000001800fc8e8 f i unrar:scantree.obj
 0001:000fb910       ??$uiMsgBase@AEAY0IAA@_WAEAY01$$CB_WAEAY0IAA@_W@@YAXAEAVuiMsgStore@@AEAY0IAA@_WAEAY01$$CB_W1@Z 00000001800fc910 f i unrar:scantree.obj
 0001:000fb94c       ??0ScanTree@@QEAA@PEAVStringList@@W4RECURSE_MODE@@_NW4SCAN_DIRS@@@Z 00000001800fc94c f   unrar:scantree.obj
 0001:000fba40       ??1ScanTree@@QEAA@XZ       00000001800fca40 f   unrar:scantree.obj
 0001:000fbae4       ?Add@?$Array@I@@QEAAX_K@Z  00000001800fcae4 f i unrar:scantree.obj
 0001:000fbbb8       ?ExpandFolderMask@ScanTree@@AEAA_NXZ 00000001800fcbb8 f   unrar:scantree.obj
 0001:000fbe20       ?FindProc@ScanTree@@AEAA?AW4SCAN_CODE@@PEAUFindData@@@Z 00000001800fce20 f   unrar:scantree.obj
 0001:000fc554       ?GetFilteredMask@ScanTree@@AEAA_NXZ 00000001800fd554 f   unrar:scantree.obj
 0001:000fc898       ?GetNext@ScanTree@@QEAA?AW4SCAN_CODE@@PEAUFindData@@@Z 00000001800fd898 f   unrar:scantree.obj
 0001:000fc9bc       ?GetNextMask@ScanTree@@AEAA_NXZ 00000001800fd9bc f   unrar:scantree.obj
 0001:000fcb64       ?Push@?$Array@I@@QEAAXI@Z  00000001800fdb64 f i unrar:scantree.obj
 0001:000fcba0       ?ScanError@ScanTree@@AEAAXAEA_N@Z 00000001800fdba0 f   unrar:scantree.obj
 0001:000fcd44       ?CmpName@@YA_NPEB_W0H@Z    00000001800fdd44 f   unrar:match.obj
 0001:000fd234       ?FileCreate@@YA_NPEAVCommandData@@PEAVFile@@PEA_W_KPEA_N_JPEAVRarTime@@_N@Z 00000001800fe234 f   unrar:filcreat.obj
 0001:000fd3b4       ?GetAutoRenamedName@@YA_NPEA_W_K@Z 00000001800fe3b4 f   unrar:filcreat.obj
 0001:000fd4cc       ?UpdateExistingShortName@@YA_NPEB_W@Z 00000001800fe4cc f   unrar:filcreat.obj
 0001:000fd77c       ??$uiMsg@AEAY0IAA@_WAEAPEB_W@@YAXW4UIMESSAGE_CODE@@AEAY0IAA@_WAEAPEB_W@Z 00000001800fe77c f i unrar:extinfo.obj
 0001:000fd818       ??$uiMsg@AEAY0IAA@_WAEAY0IAC@_W@@YAXW4UIMESSAGE_CODE@@AEAY0IAA@_WAEAY0IAC@_W@Z 00000001800fe818 f i unrar:extinfo.obj
 0001:000fd8b0       ??$uiMsg@PEA_WAEAPEB_W@@YAXW4UIMESSAGE_CODE@@$$QEAPEA_WAEAPEB_W@Z 00000001800fe8b0 f i unrar:extinfo.obj
 0001:000fd958       ??$uiMsgBase@AEAPEA_WAEAPEB_W@@YAXAEAVuiMsgStore@@AEAPEA_WAEAPEB_W@Z 00000001800fe958 f i unrar:extinfo.obj
 0001:000fd994       ??$uiMsgBase@AEAY0IAA@_WAEAPEB_W@@YAXAEAVuiMsgStore@@AEAY0IAA@_WAEAPEB_W@Z 00000001800fe994 f i unrar:extinfo.obj
 0001:000fd9c8       ??$uiMsgBase@AEAY0IAA@_WAEAY0IAC@_W@@YAXAEAVuiMsgStore@@AEAY0IAA@_WAEAY0IAC@_W@Z 00000001800fe9c8 f i unrar:extinfo.obj
 0001:000fd9f0       ??$uiMsgBase@AEAY0IAC@_W$$V@@YAXAEAVuiMsgStore@@AEAY0IAC@_W@Z 00000001800fe9f0 f i unrar:extinfo.obj
 0001:000fdaf4       ?CreateReparsePoint@@YA_NPEAVCommandData@@PEB_WPEAUFileHeader@@@Z 00000001800feaf4 f   unrar:extinfo.obj
 0001:000fe220       ?ExtractACL20@@YAXAEAVArchive@@PEB_W@Z 00000001800ff220 f   unrar:extinfo.obj
 0001:000fe54c       ?ExtractACL@@YAXAEAVArchive@@PEB_W@Z 00000001800ff54c f   unrar:extinfo.obj
 0001:000fe710       ?ExtractHardlink@@YA_NPEAVCommandData@@PEA_W1_K@Z 00000001800ff710 f   unrar:extinfo.obj
 0001:000fe7fc       ?ExtractStreams20@@YAXAEAVArchive@@PEB_W@Z 00000001800ff7fc f   unrar:extinfo.obj
 0001:000fec48       ?ExtractStreams@@YAXAEAVArchive@@PEB_W_N@Z 00000001800ffc48 f   unrar:extinfo.obj
 0001:000fef20       ?ExtractSymlink@@YA_NPEAVCommandData@@AEAVComprDataIO@@AEAVArchive@@PEB_WAEA_N@Z 00000001800fff20 f   unrar:extinfo.obj
 0001:000fefc0       ?GetStreamNameNTFS@@YAXAEAVArchive@@PEA_W_K@Z 00000001800fffc0 f   unrar:extinfo.obj
 0001:000ff0bc       ?IsRelativeSymlinkSafe@@YA_NPEAVCommandData@@PEB_W11@Z 00000001801000bc f   unrar:extinfo.obj
 0001:000ff384       ?LinksToDirs@@YA_NPEB_W0AEAV?$basic_string@_WU?$char_traits@_W@std@@V?$allocator@_W@2@@std@@@Z 0000000180100384 f   unrar:extinfo.obj
 0001:000ff5c0       ?SetExtraInfo20@@YAXPEAVCommandData@@AEAVArchive@@PEA_W@Z 00000001801005c0 f   unrar:extinfo.obj
 0001:000ff624       ?SetExtraInfo@@YAXPEAVCommandData@@AEAVArchive@@PEA_W@Z 0000000180100624 f   unrar:extinfo.obj
 0001:000ff6cc       ?SetFileHeaderExtra@@YAXPEAVCommandData@@AEAVArchive@@PEA_W@Z 00000001801006cc f   unrar:extinfo.obj
 0001:000ff6d0       ?SetPrivilege@@YA_NPEB_W@Z 00000001801006d0 f   unrar:extinfo.obj
 0001:000ff7bc       ??0ThreadPool@@QEAA@I@Z    00000001801007bc f   unrar:threadpool.obj
 0001:000ff8c8       ??1ThreadPool@@QEAA@XZ     00000001801008c8 f   unrar:threadpool.obj
 0001:000ff980       ?AddTask@ThreadPool@@QEAAXP6AXPEAX@Z0@Z 0000000180100980 f   unrar:threadpool.obj
 0001:000ffa7c       ?CreateThreads@ThreadPool@@AEAAXXZ 0000000180100a7c f   unrar:threadpool.obj
 0001:000ffb5c       ?GetNumberOfCPU@@YAIXZ     0000000180100b5c f   unrar:threadpool.obj
 0001:000ffbb8       ?GetNumberOfThreads@@YAIXZ 0000000180100bb8 f   unrar:threadpool.obj
 0001:000ffbe8       ?GetQueuedTask@ThreadPool@@AEAA_NPEAUQueueEntry@1@@Z 0000000180100be8 f   unrar:threadpool.obj
 0001:000ffc88       ?PoolThread@ThreadPool@@CAKPEAX@Z 0000000180100c88 f   unrar:threadpool.obj
 0001:000ffc9c       ?PoolThreadLoop@ThreadPool@@AEAAXXZ 0000000180100c9c f   unrar:threadpool.obj
 0001:000ffd28       ?WaitDone@ThreadPool@@QEAAXXZ 0000000180100d28 f   unrar:threadpool.obj
 0001:000ffd80       ?Blake2Thread@@YAXPEAX@Z   0000000180100d80 f   unrar:blake2s.obj
 0001:000ffd88       ?Update@Blake2ThreadData@@QEAAXXZ 0000000180100d88 f   unrar:blake2s.obj
 0001:001019fc       ?blake2sp_final@@YAXPEAUblake2sp_state@@PEAE@Z 00000001801029fc f   unrar:blake2s.obj
 0001:00101b18       ?blake2sp_init@@YAXPEAUblake2sp_state@@@Z 0000000180102b18 f   unrar:blake2s.obj
 0001:00101bb4       ?blake2sp_update@@YAXPEAUblake2sp_state@@PEBE_K@Z 0000000180102bb4 f   unrar:blake2s.obj
 0001:00101de8       ?SHA1Transform@@YAXQEAI0QEBE_N@Z 0000000180102de8 f   unrar:sha1.obj
 0001:00103b30       ?sha1_done@@YAXPEAUsha1_context@@QEAI@Z 0000000180104b30 f   unrar:sha1.obj
 0001:00103c8c       ?sha1_init@@YAXPEAUsha1_context@@@Z 0000000180104c8c f   unrar:sha1.obj
 0001:00103cc0       ?sha1_process@@YAXPEAUsha1_context@@PEBE_K@Z 0000000180104cc0 f   unrar:sha1.obj
 0001:00103dc4       ?sha1_process_rar29@@YAXPEAUsha1_context@@PEBE_K@Z 0000000180104dc4 f   unrar:sha1.obj
 0001:00103f14       ??0Rijndael@@QEAA@XZ       0000000180104f14 f   unrar:rijndael.obj
 0001:00103f44       ?GenerateTables@Rijndael@@AEAAXXZ 0000000180104f44 f   unrar:rijndael.obj
 0001:001041e0       ?Init@Rijndael@@QEAAX_NPEBEI1@Z 00000001801051e0 f   unrar:rijndael.obj
 0001:00104334       ?blockDecrypt@Rijndael@@QEAAXPEBE_KPEAE@Z 0000000180105334 f   unrar:rijndael.obj
 0001:0010483c       ?blockDecryptSSE@Rijndael@@AEAAXPEBE_KPEAE@Z 000000018010583c f   unrar:rijndael.obj
 0001:001048e8       ?blockEncrypt@Rijndael@@QEAAXPEBE_KPEAE@Z 00000001801058e8 f   unrar:rijndael.obj
 0001:00104e80       ?blockEncryptSSE@Rijndael@@AEAAXPEBE_KPEAE@Z 0000000180105e80 f   unrar:rijndael.obj
 0001:00104f7c       ?keyEncToDec@Rijndael@@AEAAXXZ 0000000180105f7c f   unrar:rijndael.obj
 0001:001050a8       ?keySched@Rijndael@@AEAAXQEAY03E@Z 00000001801060a8 f   unrar:rijndael.obj
 0001:00105388       ?ToPercent@@YAH_J0@Z       0000000180106388 f   unrar:smallfn.obj
 0001:001053b0       ?ToPercentUnlim@@YAH_J0@Z  00000001801063b0 f   unrar:smallfn.obj
 0001:001053cc       ??0BitInput@@QEAA@_N@Z     00000001801063cc f   unrar:getbits.obj
 0001:0010541c       ??1BitInput@@QEAA@XZ       000000018010641c f   unrar:getbits.obj
 0001:0010543c       ?SetExternalBuffer@BitInput@@QEAAXPEAE@Z 000000018010643c f   unrar:getbits.obj
 0001:00105480       ?faddbits@BitInput@@QEAAXI@Z 0000000180106480 f   unrar:getbits.obj
 0001:001054a0       ?fgetbits@BitInput@@QEAAIXZ 00000001801064a0 f   unrar:getbits.obj
 0001:001054cc       ??0RarVM@@QEAA@XZ          00000001801064cc f   unrar:rarvm.obj
 0001:001054d8       ??1RarVM@@QEAA@XZ          00000001801064d8 f   unrar:rarvm.obj
 0001:001054e4       ?Execute@RarVM@@QEAAXPEAUVM_PreparedProgram@@@Z 00000001801064e4 f   unrar:rarvm.obj
 0001:0010557c       ?ExecuteStandardFilter@RarVM@@AEAA_NW4VM_StandardFilters@@@Z 000000018010657c f   unrar:rarvm.obj
 0001:00105c78       ?FilterItanium_GetBits@RarVM@@AEAAIPEAEII@Z 0000000180106c78 f   unrar:rarvm.obj
 0001:00105cec       ?FilterItanium_SetBits@RarVM@@AEAAXPEAEIII@Z 0000000180106cec f   unrar:rarvm.obj
 0001:00105d64       ?Init@RarVM@@QEAAXXZ       0000000180106d64 f   unrar:rarvm.obj
 0001:00105d90       ?Prepare@RarVM@@QEAAXPEAEIPEAUVM_PreparedProgram@@@Z 0000000180106d90 f   unrar:rarvm.obj
 0001:00105e30       ?ReadData@RarVM@@SAIAEAVBitInput@@@Z 0000000180106e30 f   unrar:rarvm.obj
 0001:00105f28       ?SetMemory@RarVM@@QEAAX_KPEAE0@Z 0000000180106f28 f   unrar:rarvm.obj
 0001:00106ff0       chm_close                  0000000180107ff0 f   chm:chm_lib.obj
 0001:001070d0       chm_enumerate              00000001801080d0 f   chm:chm_lib.obj
 0001:001072ec       chm_enumerate_dir          00000001801082ec f   chm:chm_lib.obj
 0001:001076b4       chm_open                   00000001801086b4 f   chm:chm_lib.obj
 0001:00107a7c       chm_resolve_object         0000000180108a7c f   chm:chm_lib.obj
 0001:00107cc8       chm_retrieve_object        0000000180108cc8 f   chm:chm_lib.obj
 0001:00107da8       chm_set_param              0000000180108da8 f   chm:chm_lib.obj
 0001:00107fe4       LZXdecompress              0000000180108fe4 f   chm:lzx.obj
 0001:00109150       LZXinit                    000000018010a150 f   chm:lzx.obj
 0001:00109278       LZXreset                   000000018010a278 f   chm:lzx.obj
 0001:001092ec       LZXteardown                000000018010a2ec f   chm:lzx.obj
 0001:001099d6       ddjvu_context_create       000000018010a9d6 f   libmupdf:libmupdf.dll
 0001:001099dc       ddjvu_context_release      000000018010a9dc f   libmupdf:libmupdf.dll
 0001:001099e2       ddjvu_message_peek         000000018010a9e2 f   libmupdf:libmupdf.dll
 0001:001099e8       ddjvu_message_wait         000000018010a9e8 f   libmupdf:libmupdf.dll
 0001:001099ee       ddjvu_message_pop          000000018010a9ee f   libmupdf:libmupdf.dll
 0001:001099f4       ddjvu_job_status           000000018010a9f4 f   libmupdf:libmupdf.dll
 0001:001099fa       ddjvu_job_release          000000018010a9fa f   libmupdf:libmupdf.dll
 0001:00109a00       ddjvu_document_create_by_filename_utf8 000000018010aa00 f   libmupdf:libmupdf.dll
 0001:00109a06       ddjvu_document_create_by_data 000000018010aa06 f   libmupdf:libmupdf.dll
 0001:00109a0c       ddjvu_document_job         000000018010aa0c f   libmupdf:libmupdf.dll
 0001:00109a12       ddjvu_stream_close         000000018010aa12 f   libmupdf:libmupdf.dll
 0001:00109a18       ddjvu_document_get_pagenum 000000018010aa18 f   libmupdf:libmupdf.dll
 0001:00109a1e       ddjvu_document_get_filenum 000000018010aa1e f   libmupdf:libmupdf.dll
 0001:00109a24       ddjvu_document_get_fileinfo_imp 000000018010aa24 f   libmupdf:libmupdf.dll
 0001:00109a2a       ddjvu_document_get_pageinfo_imp 000000018010aa2a f   libmupdf:libmupdf.dll
 0001:00109a30       ddjvu_page_create_by_pageno 000000018010aa30 f   libmupdf:libmupdf.dll
 0001:00109a36       ddjvu_page_job             000000018010aa36 f   libmupdf:libmupdf.dll
 0001:00109a3c       ddjvu_page_get_type        000000018010aa3c f   libmupdf:libmupdf.dll
 0001:00109a42       ddjvu_page_set_rotation    000000018010aa42 f   libmupdf:libmupdf.dll
 0001:00109a48       ddjvu_page_render          000000018010aa48 f   libmupdf:libmupdf.dll
 0001:00109a4e       ddjvu_format_create        000000018010aa4e f   libmupdf:libmupdf.dll
 0001:00109a54       ddjvu_format_set_row_order 000000018010aa54 f   libmupdf:libmupdf.dll
 0001:00109a5a       ddjvu_format_release       000000018010aa5a f   libmupdf:libmupdf.dll
 0001:00109a60       ddjvu_miniexp_release      000000018010aa60 f   libmupdf:libmupdf.dll
 0001:00109a66       ddjvu_document_get_outline 000000018010aa66 f   libmupdf:libmupdf.dll
 0001:00109a6c       ddjvu_document_get_pagetext 000000018010aa6c f   libmupdf:libmupdf.dll
 0001:00109a72       ddjvu_document_get_pageanno 000000018010aa72 f   libmupdf:libmupdf.dll
 0001:00109a78       ddjvu_anno_get_hyperlinks  000000018010aa78 f   libmupdf:libmupdf.dll
 0001:00109a7e       ?ddjvu_free@@YAXPEAX@Z     000000018010aa7e f   libmupdf:libmupdf.dll
 0001:00109a84       miniexp_symbol             000000018010aa84 f   libmupdf:libmupdf.dll
 0001:00109a8a       miniexp_cadr               000000018010aa8a f   libmupdf:libmupdf.dll
 0001:00109a90       miniexp_cddr               000000018010aa90 f   libmupdf:libmupdf.dll
 0001:00109a96       miniexp_caddr              000000018010aa96 f   libmupdf:libmupdf.dll
 0001:00109a9c       miniexp_stringp            000000018010aa9c f   libmupdf:libmupdf.dll
 0001:00109aa2       miniexp_to_str             000000018010aaa2 f   libmupdf:libmupdf.dll
 0001:00109aa8       minilisp_finish            000000018010aaa8 f   libmupdf:libmupdf.dll
 0001:00109aae       fz_pre_scale               000000018010aaae f   libmupdf:libmupdf.dll
 0001:00109ab4       fz_rotate                  000000018010aab4 f   libmupdf:libmupdf.dll
 0001:00109aba       fz_pre_translate           000000018010aaba f   libmupdf:libmupdf.dll
 0001:00109ac0       fz_invert_matrix           000000018010aac0 f   libmupdf:libmupdf.dll
 0001:00109ac6       fz_matrix_expansion        000000018010aac6 f   libmupdf:libmupdf.dll
 0001:00109acc       fz_intersect_rect          000000018010aacc f   libmupdf:libmupdf.dll
 0001:00109ad2       fz_round_rect              000000018010aad2 f   libmupdf:libmupdf.dll
 0001:00109ad8       fz_transform_rect          000000018010aad8 f   libmupdf:libmupdf.dll
 0001:00109ade       fz_rect_from_quad          000000018010aade f   libmupdf:libmupdf.dll
 0001:00109ae4       fz_throw                   000000018010aae4 f   libmupdf:libmupdf.dll
 0001:00109aea       fz_rethrow                 000000018010aaea f   libmupdf:libmupdf.dll
 0001:00109af0       fz_warn                    000000018010aaf0 f   libmupdf:libmupdf.dll
 0001:00109af6       fz_caught_message          000000018010aaf6 f   libmupdf:libmupdf.dll
 0001:00109afc       fz_report_error            000000018010aafc f   libmupdf:libmupdf.dll
 0001:00109b02       fz_clone_context           000000018010ab02 f   libmupdf:libmupdf.dll
 0001:00109b08       fz_drop_context            000000018010ab08 f   libmupdf:libmupdf.dll
 0001:00109b0e       fz_set_error_callback      000000018010ab0e f   libmupdf:libmupdf.dll
 0001:00109b14       fz_set_warning_callback    000000018010ab14 f   libmupdf:libmupdf.dll
 0001:00109b1a       fz_set_user_css            000000018010ab1a f   libmupdf:libmupdf.dll
 0001:00109b20       fz_set_use_document_css    000000018010ab20 f   libmupdf:libmupdf.dll
 0001:00109b26       fz_calloc                  000000018010ab26 f   libmupdf:libmupdf.dll
 0001:00109b2c       fz_free                    000000018010ab2c f   libmupdf:libmupdf.dll
 0001:00109b32       fz_malloc_no_throw         000000018010ab32 f   libmupdf:libmupdf.dll
 0001:00109b38       fz_strdup                  000000018010ab38 f   libmupdf:libmupdf.dll
 0001:00109b3e       fz_var_imp                 000000018010ab3e f   libmupdf:libmupdf.dll
 0001:00109b44       fz_push_try                000000018010ab44 f   libmupdf:libmupdf.dll
 0001:00109b4a       fz_do_try                  000000018010ab4a f   libmupdf:libmupdf.dll
 0001:00109b50       fz_do_always               000000018010ab50 f   libmupdf:libmupdf.dll
 0001:00109b56       fz_do_catch                000000018010ab56 f   libmupdf:libmupdf.dll
 0001:00109b5c       fz_new_context_imp         000000018010ab5c f   libmupdf:libmupdf.dll
 0001:00109b62       fz_drop_buffer             000000018010ab62 f   libmupdf:libmupdf.dll
 0001:00109b68       fz_new_buffer_from_data    000000018010ab68 f   libmupdf:libmupdf.dll
 0001:00109b6e       fz_new_buffer_from_copied_data 000000018010ab6e f   libmupdf:libmupdf.dll
 0001:00109b74       fz_buffer_extract          000000018010ab74 f   libmupdf:libmupdf.dll
 0001:00109b7a       fz_urldecode               000000018010ab7a f   libmupdf:libmupdf.dll
 0001:00109b80       fz_cleanname               000000018010ab80 f   libmupdf:libmupdf.dll
 0001:00109b86       fz_open_file_w             000000018010ab86 f   libmupdf:libmupdf.dll
 0001:00109b8c       fz_open_buffer             000000018010ab8c f   libmupdf:libmupdf.dll
 0001:00109b92       fz_drop_stream             000000018010ab92 f   libmupdf:libmupdf.dll
 0001:00109b98       fz_tell                    000000018010ab98 f   libmupdf:libmupdf.dll
 0001:00109b9e       fz_seek                    000000018010ab9e f   libmupdf:libmupdf.dll
 0001:00109ba4       fz_read_all                000000018010aba4 f   libmupdf:libmupdf.dll
 0001:00109baa       fz_new_stream              000000018010abaa f   libmupdf:libmupdf.dll
 0001:00109bb0       fz_md5_init                000000018010abb0 f   libmupdf:libmupdf.dll
 0001:00109bb6       fz_md5_update              000000018010abb6 f   libmupdf:libmupdf.dll
 0001:00109bbc       fz_md5_final               000000018010abbc f   libmupdf:libmupdf.dll
 0001:00109bc2       fz_colorspace_is_rgb       000000018010abc2 f   libmupdf:libmupdf.dll
 0001:00109bc8       fz_device_rgb              000000018010abc8 f   libmupdf:libmupdf.dll
 0001:00109bce       fz_device_bgr              000000018010abce f   libmupdf:libmupdf.dll
 0001:00109bd4       fz_new_pixmap              000000018010abd4 f   libmupdf:libmupdf.dll
 0001:00109bda       fz_new_pixmap_with_bbox    000000018010abda f   libmupdf:libmupdf.dll
 0001:00109be0       fz_drop_pixmap             000000018010abe0 f   libmupdf:libmupdf.dll
 0001:00109be6       fz_clear_pixmap_with_value 000000018010abe6 f   libmupdf:libmupdf.dll
 0001:00109bec       fz_get_pixmap_from_image   000000018010abec f   libmupdf:libmupdf.dll
 0001:00109bf2       fz_keep_image              000000018010abf2 f   libmupdf:libmupdf.dll
 0001:00109bf8       fz_close_device            000000018010abf8 f   libmupdf:libmupdf.dll
 0001:00109bfe       fz_drop_device             000000018010abfe f   libmupdf:libmupdf.dll
 0001:00109c04       fz_new_bbox_device         000000018010ac04 f   libmupdf:libmupdf.dll
 0001:00109c0a       fz_new_draw_device         000000018010ac0a f   libmupdf:libmupdf.dll
 0001:00109c10       fz_run_display_list        000000018010ac10 f   libmupdf:libmupdf.dll
 0001:00109c16       fz_drop_display_list       000000018010ac16 f   libmupdf:libmupdf.dll
 0001:00109c1c       fz_new_stext_page          000000018010ac1c f   libmupdf:libmupdf.dll
 0001:00109c22       fz_drop_stext_page         000000018010ac22 f   libmupdf:libmupdf.dll
 0001:00109c28       fz_new_stext_device        000000018010ac28 f   libmupdf:libmupdf.dll
 0001:00109c2e       fz_drop_link               000000018010ac2e f   libmupdf:libmupdf.dll
 0001:00109c34       fz_new_outline             000000018010ac34 f   libmupdf:libmupdf.dll
 0001:00109c3a       fz_drop_outline            000000018010ac3a f   libmupdf:libmupdf.dll
 0001:00109c40       fz_register_document_handlers 000000018010ac40 f   libmupdf:libmupdf.dll
 0001:00109c46       fz_open_document_with_stream 000000018010ac46 f   libmupdf:libmupdf.dll
 0001:00109c4c       fz_drop_document           000000018010ac4c f   libmupdf:libmupdf.dll
 0001:00109c52       fz_needs_password          000000018010ac52 f   libmupdf:libmupdf.dll
 0001:00109c58       fz_authenticate_password   000000018010ac58 f   libmupdf:libmupdf.dll
 0001:00109c5e       fz_load_outline            000000018010ac5e f   libmupdf:libmupdf.dll
 0001:00109c64       fz_layout_document         000000018010ac64 f   libmupdf:libmupdf.dll
 0001:00109c6a       fz_count_pages             000000018010ac6a f   libmupdf:libmupdf.dll
 0001:00109c70       fz_resolve_link_dest       000000018010ac70 f   libmupdf:libmupdf.dll
 0001:00109c76       fz_resolve_link            000000018010ac76 f   libmupdf:libmupdf.dll
 0001:00109c7c       fz_page_number_from_location 000000018010ac7c f   libmupdf:libmupdf.dll
 0001:00109c82       fz_load_page               000000018010ac82 f   libmupdf:libmupdf.dll
 0001:00109c88       fz_load_links              000000018010ac88 f   libmupdf:libmupdf.dll
 0001:00109c8e       fz_bound_page              000000018010ac8e f   libmupdf:libmupdf.dll
 0001:00109c94       fz_run_page_contents       000000018010ac94 f   libmupdf:libmupdf.dll
 0001:00109c9a       fz_drop_page               000000018010ac9a f   libmupdf:libmupdf.dll
 0001:00109ca0       fz_has_permission          000000018010aca0 f   libmupdf:libmupdf.dll
 0001:00109ca6       fz_lookup_metadata         000000018010aca6 f   libmupdf:libmupdf.dll
 0001:00109cac       fz_new_display_list_from_page 000000018010acac f   libmupdf:libmupdf.dll
 0001:00109cb2       fz_new_stext_page_from_page 000000018010acb2 f   libmupdf:libmupdf.dll
 0001:00109cb8       pdf_new_string             000000018010acb8 f   libmupdf:libmupdf.dll
 0001:00109cbe       pdf_new_array              000000018010acbe f   libmupdf:libmupdf.dll
 0001:00109cc4       pdf_new_dict               000000018010acc4 f   libmupdf:libmupdf.dll
 0001:00109cca       pdf_copy_dict              000000018010acca f   libmupdf:libmupdf.dll
 0001:00109cd0       pdf_drop_obj               000000018010acd0 f   libmupdf:libmupdf.dll
 0001:00109cd6       pdf_is_name                000000018010acd6 f   libmupdf:libmupdf.dll
 0001:00109cdc       pdf_is_array               000000018010acdc f   libmupdf:libmupdf.dll
 0001:00109ce2       pdf_is_indirect            000000018010ace2 f   libmupdf:libmupdf.dll
 0001:00109ce8       pdf_obj_num_is_stream      000000018010ace8 f   libmupdf:libmupdf.dll
 0001:00109cee       pdf_mark_obj               000000018010acee f   libmupdf:libmupdf.dll
 0001:00109cf4       pdf_unmark_obj             000000018010acf4 f   libmupdf:libmupdf.dll
 0001:00109cfa       pdf_to_bool                000000018010acfa f   libmupdf:libmupdf.dll
 0001:00109d00       pdf_to_int                 000000018010ad00 f   libmupdf:libmupdf.dll
 0001:00109d06       pdf_to_name                000000018010ad06 f   libmupdf:libmupdf.dll
 0001:00109d0c       pdf_to_str_buf             000000018010ad0c f   libmupdf:libmupdf.dll
 0001:00109d12       pdf_to_str_len             000000018010ad12 f   libmupdf:libmupdf.dll
 0001:00109d18       pdf_to_num                 000000018010ad18 f   libmupdf:libmupdf.dll
 0001:00109d1e       pdf_array_len              000000018010ad1e f   libmupdf:libmupdf.dll
 0001:00109d24       pdf_array_get              000000018010ad24 f   libmupdf:libmupdf.dll
 0001:00109d2a       pdf_array_push             000000018010ad2a f   libmupdf:libmupdf.dll
 0001:00109d30       pdf_dict_len               000000018010ad30 f   libmupdf:libmupdf.dll
 0001:00109d36       pdf_dict_get_key           000000018010ad36 f   libmupdf:libmupdf.dll
 0001:00109d3c       pdf_dict_get_val           000000018010ad3c f   libmupdf:libmupdf.dll
 0001:00109d42       pdf_dict_getp              000000018010ad42 f   libmupdf:libmupdf.dll
 0001:00109d48       pdf_dict_gets              000000018010ad48 f   libmupdf:libmupdf.dll
 0001:00109d4e       pdf_dict_getsa             000000018010ad4e f   libmupdf:libmupdf.dll
 0001:00109d54       pdf_dict_put               000000018010ad54 f   libmupdf:libmupdf.dll
 0001:00109d5a       pdf_dict_puts_drop         000000018010ad5a f   libmupdf:libmupdf.dll
 0001:00109d60       pdf_obj_parent_num         000000018010ad60 f   libmupdf:libmupdf.dll
 0001:00109d66       pdf_new_utf8_from_pdf_string_obj 000000018010ad66 f   libmupdf:libmupdf.dll
 0001:00109d6c       pdf_specifics              000000018010ad6c f   libmupdf:libmupdf.dll
 0001:00109d72       pdf_page_from_fz_page      000000018010ad72 f   libmupdf:libmupdf.dll
 0001:00109d78       pdf_save_document          000000018010ad78 f   libmupdf:libmupdf.dll
 0001:00109d7e       pdf_can_be_saved_incrementally 000000018010ad7e f   libmupdf:libmupdf.dll
 0001:00109d84       pdf_resolve_indirect       000000018010ad84 f   libmupdf:libmupdf.dll
 0001:00109d8a       pdf_load_stream_number     000000018010ad8a f   libmupdf:libmupdf.dll
 0001:00109d90       pdf_trailer                000000018010ad90 f   libmupdf:libmupdf.dll
 0001:00109d96       pdf_doc_was_linearized     000000018010ad96 f   libmupdf:libmupdf.dll
 0001:00109d9c       pdf_crypt_version          000000018010ad9c f   libmupdf:libmupdf.dll
 0001:00109da2       pdf_crypt_revision         000000018010ada2 f   libmupdf:libmupdf.dll
 0001:00109da8       pdf_crypt_key              000000018010ada8 f   libmupdf:libmupdf.dll
 0001:00109dae       pdf_xobject_resources      000000018010adae f   libmupdf:libmupdf.dll
 0001:00109db4       pdf_lookup_page_obj        000000018010adb4 f   libmupdf:libmupdf.dll
 0001:00109dba       pdf_drop_page_tree         000000018010adba f   libmupdf:libmupdf.dll
 0001:00109dc0       pdf_page_obj_transform     000000018010adc0 f   libmupdf:libmupdf.dll
 0001:00109dc6       pdf_page_resources         000000018010adc6 f   libmupdf:libmupdf.dll
 0001:00109dcc       pdf_run_page_with_usage    000000018010adcc f   libmupdf:libmupdf.dll
 0001:00109dd2       pdf_first_annot            000000018010add2 f   libmupdf:libmupdf.dll
 0001:00109dd8       pdf_next_annot             000000018010add8 f   libmupdf:libmupdf.dll
 0001:00109dde       pdf_annot_obj              000000018010adde f   libmupdf:libmupdf.dll
 0001:00109de4       pdf_bound_annot            000000018010ade4 f   libmupdf:libmupdf.dll
 0001:00109dea       pdf_annot_type             000000018010adea f   libmupdf:libmupdf.dll
 0001:00109df0       pdf_load_name_tree         000000018010adf0 f   libmupdf:libmupdf.dll
 0001:00109df6       pdf_annot_contents         000000018010adf6 f   libmupdf:libmupdf.dll
 0001:00109dfc       pdf_annot_field_flags      000000018010adfc f   libmupdf:libmupdf.dll
 0001:00109e02       pdf_annot_field_label      000000018010ae02 f   libmupdf:libmupdf.dll
 0001:00109e08       pdf_is_embedded_file       000000018010ae08 f   libmupdf:libmupdf.dll
 0001:00109e0e       pdf_get_embedded_file_params 000000018010ae0e f   libmupdf:libmupdf.dll
 0001:00109e14       pdf_load_embedded_file_contents 000000018010ae14 f   libmupdf:libmupdf.dll
 0001:00109e1a       pdf_annot_ap               000000018010ae1a f   libmupdf:libmupdf.dll
 0001:00109e20       pdf_annot_filespec         000000018010ae20 f   libmupdf:libmupdf.dll
 0001:00109e26       pdf_js_supported           000000018010ae26 f   libmupdf:libmupdf.dll
 0001:00109e2c       fz_convert_pixmap_samples  000000018010ae2c f   libmupdf:libmupdf.dll
 0001:00109e32       install_load_windows_font_funcs 000000018010ae32 f   libmupdf:libmupdf.dll
 0001:00109e38       fz_open_memory             000000018010ae38 f   libmupdf:libmupdf.dll
 0001:00109e3e       fz_read                    000000018010ae3e f   libmupdf:libmupdf.dll
 0001:00109e44       fz_drop_colorspace         000000018010ae44 f   libmupdf:libmupdf.dll
 0001:00109e4a       fz_device_gray             000000018010ae4a f   libmupdf:libmupdf.dll
 0001:00109e50       fz_device_cmyk             000000018010ae50 f   libmupdf:libmupdf.dll
 0001:00109e56       fz_open_dctd               000000018010ae56 f   libmupdf:libmupdf.dll
 0001:00109e5c       fz_load_jpx                000000018010ae5c f   libmupdf:libmupdf.dll
 0001:00109e62       fz_load_jpeg_info          000000018010ae62 f   libmupdf:libmupdf.dll
 0001:00109e68       fz_flush_warnings          000000018010ae68 f   libmupdf:libmupdf.dll
 0001:00109e6e       fz_malloc                  000000018010ae6e f   libmupdf:libmupdf.dll
 0001:00109e74       fz_new_pixmap_with_data    000000018010ae74 f   libmupdf:libmupdf.dll
 0001:00109e7a       fz_drop_image              000000018010ae7a f   libmupdf:libmupdf.dll
 0001:00109e80       fz_new_image_from_pixmap   000000018010ae80 f   libmupdf:libmupdf.dll
 0001:00109e86       fz_new_image_from_buffer   000000018010ae86 f   libmupdf:libmupdf.dll
 0001:00109e8c       fz_fill_image              000000018010ae8c f   libmupdf:libmupdf.dll
 0001:00109e92       pdf_new_text_string        000000018010ae92 f   libmupdf:libmupdf.dll
 0001:00109e98       pdf_dict_get               000000018010ae98 f   libmupdf:libmupdf.dll
 0001:00109e9e       pdf_dict_put_drop          000000018010ae9e f   libmupdf:libmupdf.dll
 0001:00109ea4       pdf_dict_puts              000000018010aea4 f   libmupdf:libmupdf.dll
 0001:00109eaa       pdf_drop_document          000000018010aeaa f   libmupdf:libmupdf.dll
 0001:00109eb0       pdf_create_document        000000018010aeb0 f   libmupdf:libmupdf.dll
 0001:00109eb6       pdf_page_write             000000018010aeb6 f   libmupdf:libmupdf.dll
 0001:00109ebc       pdf_add_page               000000018010aebc f   libmupdf:libmupdf.dll
 0001:00109ec2       pdf_insert_page            000000018010aec2 f   libmupdf:libmupdf.dll
 0001:00109ec8       pdf_add_image              000000018010aec8 f   libmupdf:libmupdf.dll
 0001:00109ece       ar_open_file_w             000000018010aece f   libmupdf:libmupdf.dll
 0001:00109ed4       ar_open_istream            000000018010aed4 f   libmupdf:libmupdf.dll
 0001:00109eda       ar_close                   000000018010aeda f   libmupdf:libmupdf.dll
 0001:00109ee0       ar_close_archive           000000018010aee0 f   libmupdf:libmupdf.dll
 0001:00109ee6       ar_parse_entry             000000018010aee6 f   libmupdf:libmupdf.dll
 0001:00109eec       ar_parse_entry_at          000000018010aeec f   libmupdf:libmupdf.dll
 0001:00109ef2       ar_at_eof                  000000018010aef2 f   libmupdf:libmupdf.dll
 0001:00109ef8       ar_entry_get_name          000000018010aef8 f   libmupdf:libmupdf.dll
 0001:00109efe       ar_entry_get_offset        000000018010aefe f   libmupdf:libmupdf.dll
 0001:00109f04       ar_entry_get_size          000000018010af04 f   libmupdf:libmupdf.dll
 0001:00109f0a       ar_entry_get_filetime      000000018010af0a f   libmupdf:libmupdf.dll
 0001:00109f10       ar_entry_uncompress        000000018010af10 f   libmupdf:libmupdf.dll
 0001:00109f16       ar_get_global_comment      000000018010af16 f   libmupdf:libmupdf.dll
 0001:00109f1c       ar_open_rar_archive        000000018010af1c f   libmupdf:libmupdf.dll
 0001:00109f22       ar_open_tar_archive        000000018010af22 f   libmupdf:libmupdf.dll
 0001:00109f28       ar_open_zip_archive        000000018010af28 f   libmupdf:libmupdf.dll
 0001:00109f2e       ar_open_7z_archive         000000018010af2e f   libmupdf:libmupdf.dll
 0001:00109f34       deflate                    000000018010af34 f   libmupdf:libmupdf.dll
 0001:00109f3a       deflateEnd                 000000018010af3a f   libmupdf:libmupdf.dll
 0001:00109f40       inflate                    000000018010af40 f   libmupdf:libmupdf.dll
 0001:00109f46       inflateEnd                 000000018010af46 f   libmupdf:libmupdf.dll
 0001:00109f4c       crc32                      000000018010af4c f   libmupdf:libmupdf.dll
 0001:00109f52       deflateInit2_              000000018010af52 f   libmupdf:libmupdf.dll
 0001:00109f58       inflateInit2_              000000018010af58 f   libmupdf:libmupdf.dll
 0001:00109f5e       WebPGetInfo                000000018010af5e f   libmupdf:libmupdf.dll
 0001:00109f64       WebPDecodeBGRAInto         000000018010af64 f   libmupdf:libmupdf.dll
 0001:00109f6a       heif_context_alloc         000000018010af6a f   libmupdf:libmupdf.dll
 0001:00109f70       heif_context_free          000000018010af70 f   libmupdf:libmupdf.dll
 0001:00109f76       heif_context_read_from_memory_without_copy 000000018010af76 f   libmupdf:libmupdf.dll
 0001:00109f7c       heif_context_get_primary_image_handle 000000018010af7c f   libmupdf:libmupdf.dll
 0001:00109f82       heif_image_handle_release  000000018010af82 f   libmupdf:libmupdf.dll
 0001:00109f88       heif_image_handle_get_width 000000018010af88 f   libmupdf:libmupdf.dll
 0001:00109f8e       heif_image_handle_get_height 000000018010af8e f   libmupdf:libmupdf.dll
 0001:00109f94       heif_decode_image          000000018010af94 f   libmupdf:libmupdf.dll
 0001:00109f9a       heif_image_get_plane_readonly 000000018010af9a f   libmupdf:libmupdf.dll
 0001:00109fa0       heif_image_release         000000018010afa0 f   libmupdf:libmupdf.dll
 0001:00109fa8       ??0bad_alloc@std@@QEAA@AEBV01@@Z 000000018010afa8 f i libcpmt:xthrow.obj
 0001:00109ff4       ??0bad_alloc@std@@QEAA@XZ  000000018010aff4 f i libcpmt:xthrow.obj
 0001:0010a01c       ??0bad_function_call@std@@QEAA@AEBV01@@Z 000000018010b01c f i libcpmt:xthrow.obj
 0001:0010a068       ??0bad_function_call@std@@QEAA@XZ 000000018010b068 f i libcpmt:xthrow.obj
 0001:0010a084       ??0exception@std@@QEAA@AEBV01@@Z 000000018010b084 f i libcpmt:xthrow.obj
 0001:0010a0c4       ??0exception@std@@QEAA@QEBD@Z 000000018010b0c4 f i libcpmt:xthrow.obj
 0001:0010a110       ??0exception@std@@QEAA@QEBDH@Z 000000018010b110 f i libcpmt:xthrow.obj
 0001:0010a12c       ??0exception@std@@QEAA@XZ  000000018010b12c f i libcpmt:xthrow.obj
 0001:0010a148       ??0invalid_argument@std@@QEAA@AEBV01@@Z 000000018010b148 f i libcpmt:xthrow.obj
 0001:0010a194       ??0invalid_argument@std@@QEAA@PEBD@Z 000000018010b194 f i libcpmt:xthrow.obj
 0001:0010a1ec       ??0length_error@std@@QEAA@AEBV01@@Z 000000018010b1ec f i libcpmt:xthrow.obj
 0001:0010a238       ??0length_error@std@@QEAA@PEBD@Z 000000018010b238 f i libcpmt:xthrow.obj
 0001:0010a290       ??0logic_error@std@@QEAA@AEBV01@@Z 000000018010b290 f i libcpmt:xthrow.obj
 0001:0010a2dc       ??0logic_error@std@@QEAA@PEBD@Z 000000018010b2dc f i libcpmt:xthrow.obj
 0001:0010a334       ??0out_of_range@std@@QEAA@AEBV01@@Z 000000018010b334 f i libcpmt:xthrow.obj
 0001:0010a380       ??0out_of_range@std@@QEAA@PEBD@Z 000000018010b380 f i libcpmt:xthrow.obj
 0001:0010a3d8       ??0overflow_error@std@@QEAA@AEBV01@@Z 000000018010b3d8 f i libcpmt:xthrow.obj
 0001:0010a424       ??0overflow_error@std@@QEAA@PEBD@Z 000000018010b424 f i libcpmt:xthrow.obj
 0001:0010a47c       ??0regex_error@std@@QEAA@AEBV01@@Z 000000018010b47c f i libcpmt:xthrow.obj
 0001:0010a4dc       ??0regex_error@std@@QEAA@W4error_type@regex_constants@1@@Z 000000018010b4dc f i libcpmt:xthrow.obj
 0001:0010a55c       ??0runtime_error@std@@QEAA@AEBV01@@Z 000000018010b55c f i libcpmt:xthrow.obj
 0001:0010a5a8       ??0runtime_error@std@@QEAA@PEBD@Z 000000018010b5a8 f i libcpmt:xthrow.obj
 0001:0010a600       ??1bad_alloc@std@@UEAA@XZ  000000018010b600 f i libcpmt:xthrow.obj
 0001:0010a618       ??1bad_function_call@std@@UEAA@XZ 000000018010b618 f i libcpmt:xthrow.obj
 0001:0010a630       ??1exception@std@@UEAA@XZ  000000018010b630 f i libcpmt:xthrow.obj
 0001:0010a648       ??1invalid_argument@std@@UEAA@XZ 000000018010b648 f i libcpmt:xthrow.obj
 0001:0010a660       ??1length_error@std@@UEAA@XZ 000000018010b660 f i libcpmt:xthrow.obj
 0001:0010a678       ??1logic_error@std@@UEAA@XZ 000000018010b678 f i libcpmt:xthrow.obj
 0001:0010a690       ??1out_of_range@std@@UEAA@XZ 000000018010b690 f i libcpmt:xthrow.obj
 0001:0010a6a8       ??1overflow_error@std@@UEAA@XZ 000000018010b6a8 f i libcpmt:xthrow.obj
 0001:0010a6c0       ??1regex_error@std@@UEAA@XZ 000000018010b6c0 f i libcpmt:xthrow.obj
 0001:0010a6d8       ??1runtime_error@std@@UEAA@XZ 000000018010b6d8 f i libcpmt:xthrow.obj
 0001:0010a6f0       ??_Ebad_alloc@std@@UEAAPEAXI@Z 000000018010b6f0 f i libcpmt:xthrow.obj
 0001:0010a6f0       ??_Gbad_alloc@std@@UEAAPEAXI@Z 000000018010b6f0 f i libcpmt:xthrow.obj
 0001:0010a744       ??_Ebad_function_call@std@@UEAAPEAXI@Z 000000018010b744 f i libcpmt:xthrow.obj
 0001:0010a744       ??_Gbad_function_call@std@@UEAAPEAXI@Z 000000018010b744 f i libcpmt:xthrow.obj
 0001:0010a798       ??_Eexception@std@@UEAAPEAXI@Z 000000018010b798 f i libcpmt:xthrow.obj
 0001:0010a798       ??_Gexception@std@@UEAAPEAXI@Z 000000018010b798 f i libcpmt:xthrow.obj
 0001:0010a7ec       ??_Einvalid_argument@std@@UEAAPEAXI@Z 000000018010b7ec f i libcpmt:xthrow.obj
 0001:0010a7ec       ??_Ginvalid_argument@std@@UEAAPEAXI@Z 000000018010b7ec f i libcpmt:xthrow.obj
 0001:0010a840       ??_Elength_error@std@@UEAAPEAXI@Z 000000018010b840 f i libcpmt:xthrow.obj
 0001:0010a840       ??_Glength_error@std@@UEAAPEAXI@Z 000000018010b840 f i libcpmt:xthrow.obj
 0001:0010a894       ??_Elogic_error@std@@UEAAPEAXI@Z 000000018010b894 f i libcpmt:xthrow.obj
 0001:0010a894       ??_Glogic_error@std@@UEAAPEAXI@Z 000000018010b894 f i libcpmt:xthrow.obj
 0001:0010a8e8       ??_Eout_of_range@std@@UEAAPEAXI@Z 000000018010b8e8 f i libcpmt:xthrow.obj
 0001:0010a8e8       ??_Gout_of_range@std@@UEAAPEAXI@Z 000000018010b8e8 f i libcpmt:xthrow.obj
 0001:0010a93c       ??_Eoverflow_error@std@@UEAAPEAXI@Z 000000018010b93c f i libcpmt:xthrow.obj
 0001:0010a93c       ??_Goverflow_error@std@@UEAAPEAXI@Z 000000018010b93c f i libcpmt:xthrow.obj
 0001:0010a990       ??_Eregex_error@std@@UEAAPEAXI@Z 000000018010b990 f i libcpmt:xthrow.obj
 0001:0010a990       ??_Gregex_error@std@@UEAAPEAXI@Z 000000018010b990 f i libcpmt:xthrow.obj
 0001:0010a9e4       ??_Eruntime_error@std@@UEAAPEAXI@Z 000000018010b9e4 f i libcpmt:xthrow.obj
 0001:0010a9e4       ??_Gruntime_error@std@@UEAAPEAXI@Z 000000018010b9e4 f i libcpmt:xthrow.obj
 0001:0010aa38       ?_Stringify@regex_error@std@@CAPEBDW4error_type@regex_constants@2@@Z 000000018010ba38 f i libcpmt:xthrow.obj
 0001:0010ab38       ?_Xbad_alloc@std@@YAXXZ    000000018010bb38 f   libcpmt:xthrow.obj
 0001:0010ab60       ?_Xbad_function_call@std@@YAXXZ 000000018010bb60 f   libcpmt:xthrow.obj
 0001:0010ab88       ?_Xinvalid_argument@std@@YAXPEBD@Z 000000018010bb88 f   libcpmt:xthrow.obj
 0001:0010abb4       ?_Xlength_error@std@@YAXPEBD@Z 000000018010bbb4 f   libcpmt:xthrow.obj
 0001:0010abe0       ?_Xout_of_range@std@@YAXPEBD@Z 000000018010bbe0 f   libcpmt:xthrow.obj
 0001:0010ac0c       ?_Xoverflow_error@std@@YAXPEBD@Z 000000018010bc0c f   libcpmt:xthrow.obj
 0001:0010ac38       ?_Xregex_error@std@@YAXW4error_type@regex_constants@1@@Z 000000018010bc38 f   libcpmt:xthrow.obj
 0001:0010ac64       ?_Xruntime_error@std@@YAXPEBD@Z 000000018010bc64 f   libcpmt:xthrow.obj
 0001:0010ac90       ?what@bad_function_call@std@@UEBAPEBDXZ 000000018010bc90 f i libcpmt:xthrow.obj
 0001:0010ac9c       ?what@exception@std@@UEBAPEBDXZ 000000018010bc9c f i libcpmt:xthrow.obj
 0001:0010acb4       ??2@YAPEAX_K@Z             000000018010bcb4 f   LIBCMT:new_scalar.obj
 0001:0010ad00       ??3@YAXPEAX_K@Z            000000018010bd00 f   LIBCMT:delete_scalar_size.obj
 0001:0010ad08       __GSHandlerCheck           000000018010bd08 f   LIBCMT:gshandler.obj
 0001:0010ad2c       __GSHandlerCheckCommon     000000018010bd2c f   LIBCMT:gshandler.obj
 0001:0010adb0       __security_check_cookie    000000018010bdb0 f   LIBCMT:amdsecgs.obj
 0001:0010addc       ?configure_argv@__scrt_narrow_argv_policy@@SAHXZ 000000018010bddc f i LIBCMT:utility.obj
 0001:0010ae54       ?initialize_environment@__scrt_narrow_environment_policy@@SAHXZ 000000018010be54 f i LIBCMT:utility.obj
 0001:0010ae98       NtCurrentTeb               000000018010be98 f i LIBCMT:utility.obj
 0001:0010aea4       __scrt_acquire_startup_lock 000000018010bea4 f   LIBCMT:utility.obj
 0001:0010aeec       __scrt_dllmain_after_initialize_c 000000018010beec f   LIBCMT:utility.obj
 0001:0010af30       __scrt_dllmain_before_initialize_c 000000018010bf30 f   LIBCMT:utility.obj
 0001:0010af4c       __scrt_dllmain_crt_thread_attach 000000018010bf4c f   LIBCMT:utility.obj
 0001:0010af80       __scrt_dllmain_crt_thread_detach 000000018010bf80 f   LIBCMT:utility.obj
 0001:0010af9c       __scrt_dllmain_exception_filter 000000018010bf9c f   LIBCMT:utility.obj
 0001:0010b014       __scrt_dllmain_uninitialize_c 000000018010c014 f   LIBCMT:utility.obj
 0001:0010b050       __scrt_dllmain_uninitialize_critical 000000018010c050 f   LIBCMT:utility.obj
 0001:0010b06c       __scrt_initialize_crt      000000018010c06c f   LIBCMT:utility.obj
 0001:0010b0b4       __scrt_initialize_onexit_tables 000000018010c0b4 f   LIBCMT:utility.obj
 0001:0010b164       __scrt_is_nonwritable_in_current_image 000000018010c164 f   LIBCMT:utility.obj
 0001:0010b224       __scrt_release_startup_lock 000000018010c224 f   LIBCMT:utility.obj
 0001:0010b254       __scrt_uninitialize_crt    000000018010c254 f   LIBCMT:utility.obj
 0001:0010b288       _onexit                    000000018010c288 f   LIBCMT:utility.obj
 0001:0010b2d0       at_quick_exit              000000018010c2d0 f   LIBCMT:utility.obj
 0001:0010b2f4       atexit                     000000018010c2f4 f   LIBCMT:utility.obj
 0001:0010b310       __raise_securityfailure    000000018010c310 f   LIBCMT:gs_report.obj
 0001:0010b354       __report_gsfailure         000000018010c354 f   LIBCMT:gs_report.obj
 0001:0010b45c       __report_rangecheckfailure 000000018010c45c f   LIBCMT:gs_report.obj
 0001:0010b478       __report_securityfailure   000000018010c478 f   LIBCMT:gs_report.obj
 0001:0010b53c       __report_securityfailureEx 000000018010c53c f   LIBCMT:gs_report.obj
 0001:0010b7a8       _Init_thread_abort         000000018010c7a8 f   LIBCMT:thread_safe_statics.obj
 0001:0010b7f0       _Init_thread_footer        000000018010c7f0 f   LIBCMT:thread_safe_statics.obj
 0001:0010b874       _Init_thread_header        000000018010c874 f   LIBCMT:thread_safe_statics.obj
 0001:0010b90c       _Init_thread_lock          000000018010c90c f   LIBCMT:thread_safe_statics.obj
 0001:0010b920       _Init_thread_notify        000000018010c920 f   LIBCMT:thread_safe_statics.obj
 0001:0010b934       _Init_thread_unlock        000000018010c934 f   LIBCMT:thread_safe_statics.obj
 0001:0010b948       _Init_thread_wait_v2       000000018010c948 f   LIBCMT:thread_safe_statics.obj
 0001:0010bd60       _CRT_INIT                  000000018010cd60 f   LIBCMT:dll_dllmain.obj
 0001:0010bd68       _DllMainCRTStartup         000000018010cd68 f   LIBCMT:dll_dllmain.obj
 0001:0010bdd0       __chkstk                   000000018010cdd0 f   LIBCMT:chkstk.obj
 0001:0010bdd0       _alloca_probe              000000018010cdd0 f   LIBCMT:chkstk.obj
 0001:0010be38       ??_U@YAPEAX_K@Z            000000018010ce38 f   LIBCMT:new_array.obj
 0001:0010be40       ??_V@YAXPEAX@Z             000000018010ce40 f   LIBCMT:delete_array.obj
 0001:0010be48       __GSHandlerCheck_EH4       000000018010ce48 f   LIBCMT:gshandlereh4.obj
 0001:0010bee8       ??1type_info@@UEAA@XZ      000000018010cee8 f   LIBCMT:std_type_info_static.obj
 0001:0010bef8       ??_Etype_info@@UEAAPEAXI@Z 000000018010cef8 f i LIBCMT:std_type_info_static.obj
 0001:0010bef8       ??_Gtype_info@@UEAAPEAXI@Z 000000018010cef8 f i LIBCMT:std_type_info_static.obj
 0001:0010bf30       ??_V@YAXPEAX_K@Z           000000018010cf30 f   LIBCMT:delete_array_size.obj
 0001:0010bf38       ??0bad_alloc@std@@AEAA@QEBD@Z 000000018010cf38 f i LIBCMT:throw_bad_alloc.obj
 0001:0010bf54       ??0bad_array_new_length@std@@QEAA@AEBV01@@Z 000000018010cf54 f i LIBCMT:throw_bad_alloc.obj
 0001:0010bfa0       ??0bad_array_new_length@std@@QEAA@XZ 000000018010cfa0 f i LIBCMT:throw_bad_alloc.obj
 0001:0010bfc8       ??1bad_array_new_length@std@@UEAA@XZ 000000018010cfc8 f i LIBCMT:throw_bad_alloc.obj
 0001:0010bfe0       ??_Ebad_array_new_length@std@@UEAAPEAXI@Z 000000018010cfe0 f i LIBCMT:throw_bad_alloc.obj
 0001:0010bfe0       ??_Gbad_array_new_length@std@@UEAAPEAXI@Z 000000018010cfe0 f i LIBCMT:throw_bad_alloc.obj
 0001:0010c034       ?__scrt_throw_std_bad_alloc@@YAXXZ 000000018010d034 f   LIBCMT:throw_bad_alloc.obj
 0001:0010c05c       ?__scrt_throw_std_bad_array_new_length@@YAXXZ 000000018010d05c f   LIBCMT:throw_bad_alloc.obj
 0001:0010c084       ??3@YAXPEAX@Z              000000018010d084 f   LIBCMT:delete_scalar.obj
 0001:0010c08c       __isa_available_init       000000018010d08c f   LIBCMT:cpu_disp.obj
 0001:0010c408       _get_startup_argv_mode     000000018010d408 f   LIBCMT:argv_mode.obj
 0001:0010c410       __scrt_is_ucrt_dll_in_use  000000018010d410 f   LIBCMT:ucrt_detection.obj
 0001:0010c420       __crt_debugger_hook        000000018010d420 f   LIBCMT:utility_desktop.obj
 0001:0010c42c       __scrt_fastfail            000000018010d42c f   LIBCMT:utility_desktop.obj
 0001:0010c5c8       __scrt_get_show_window_mode 000000018010d5c8 f   LIBCMT:utility_desktop.obj
 0001:0010c610       __scrt_initialize_mta      000000018010d610 f   LIBCMT:utility_desktop.obj
 0001:0010c618       __scrt_initialize_winrt    000000018010d618 f   LIBCMT:utility_desktop.obj
 0001:0010c61c       __scrt_is_managed_app      000000018010d61c f   LIBCMT:utility_desktop.obj
 0001:0010c684       __scrt_set_unhandled_exception_filter 000000018010d684 f   LIBCMT:utility_desktop.obj
 0001:0010c698       __scrt_exe_initialize_mta  000000018010d698 f   LIBCMT:utility_desktop.obj
 0001:0010c698       __scrt_stub_for_initialize_mta 000000018010d698 f   LIBCMT:utility_desktop.obj
 0001:0010c69c       __scrt_unhandled_exception_filter 000000018010d69c f   LIBCMT:utility_desktop.obj
 0001:0010c710       _guard_check_icall_nop     000000018010d710 f i LIBCMT:guard_support.obj
 0001:0010c714       ReadNoFence64              000000018010d714 f i LIBCMT:guard_support.obj
 0001:0010c718       ReadPointerNoFence         000000018010d718 f i LIBCMT:guard_support.obj
 0001:0010c71c       __castguard_check_failure_debugbreak 000000018010d71c f i LIBCMT:guard_support.obj
 0001:0010c740       __castguard_check_failure_fastfail 000000018010d740 f i LIBCMT:guard_support.obj
 0001:0010c76c       __castguard_check_failure_nop 000000018010d76c f i LIBCMT:guard_support.obj
 0001:0010c770       __castguard_check_failure_os_handled 000000018010d770 f i LIBCMT:guard_support.obj
 0001:0010c7cc       __castguard_check_failure_user_handled 000000018010d7cc f i LIBCMT:guard_support.obj
 0001:0010c858       __castguard_set_user_handler 000000018010d858 f i LIBCMT:guard_support.obj
 0001:0010c868       __castguard_slow_path_check_debugbreak 000000018010d868 f i LIBCMT:guard_support.obj
 0001:0010c8ac       __castguard_slow_path_check_fastfail 000000018010d8ac f i LIBCMT:guard_support.obj
 0001:0010c8f4       __castguard_slow_path_check_nop 000000018010d8f4 f i LIBCMT:guard_support.obj
 0001:0010c8f8       __castguard_slow_path_check_os_handled 000000018010d8f8 f i LIBCMT:guard_support.obj
 0001:0010c958       __castguard_slow_path_check_user_handled 000000018010d958 f i LIBCMT:guard_support.obj
 0001:0010c9dc       _guard_icall_checks_enforced 000000018010d9dc f i LIBCMT:guard_support.obj
 0001:0010c9f8       _guard_rf_checks_enforced  000000018010d9f8 f i LIBCMT:guard_support.obj
 0001:0010ca84       __security_init_cookie     000000018010da84 f   LIBCMT:gs_support.obj
 0001:0010cb5c       ?__scrt_initialize_type_info@@YAXXZ 000000018010db5c f   LIBCMT:tncleanup.obj
 0001:0010cb70       ?__scrt_uninitialize_type_info@@YAXXZ 000000018010db70 f   LIBCMT:tncleanup.obj
 0001:0010cb80       __scrt_initialize_default_local_stdio_options 000000018010db80 f   LIBCMT:default_local_stdio_options.obj
 0001:0010cba4       __scrt_get_dyn_tls_init_callback 000000018010dba4 f   LIBCMT:dyn_tls_init.obj
 0001:0010cbb0       _RTC_Initialize            000000018010dbb0 f   LIBCMT:initsect.obj
 0001:0010cbfc       _RTC_Terminate             000000018010dbfc f   LIBCMT:initsect.obj
 0001:0010cc50       SetSuspendState            000000018010dc50 f   PowrProf:POWRPROF.dll
 0001:0010cc60       ?_com_dispatch_method@@YAJPEAUIDispatch@@JGGPEAXPEB_WZZ 000000018010dc60 f   comsuppw:comsupp.obj
 0001:0010ccd0       ?_com_dispatch_propget@@YAJPEAUIDispatch@@JGPEAX@Z 000000018010dcd0 f   comsuppw:comsupp.obj
 0001:0010cd10       ?_com_dispatch_propput@@YAJPEAUIDispatch@@JGZZ 000000018010dd10 f   comsuppw:comsupp.obj
 0001:0010cdc0       ?_com_issue_error@@YAXJ@Z  000000018010ddc0 f   comsuppw:comsupp.obj
 0001:0010cde0       ?_com_issue_errorex@@YAXJPEAUIUnknown@@AEBU_GUID@@@Z 000000018010dde0 f   comsuppw:comsupp.obj
 0001:0010cec0       ?_set_com_error_handler@@YAXP6AXJPEAUIErrorInfo@@@Z@Z 000000018010dec0 f   comsuppw:comsupp.obj
 0001:0010ced0       ??0_variant_t@@QEAA@JG@Z   000000018010ded0 f i comsuppw:comutil.obj
 0001:0010cf50       ??1_variant_t@@QEAA@XZ     000000018010df50 f i comsuppw:comutil.obj
 0001:0010cf60       ?ConvertBSTRToString@_com_util@@YAPEADPEA_W@Z 000000018010df60 f   comsuppw:comutil.obj
 0001:0010d0c0       ?ConvertStringToBSTR@_com_util@@YAPEA_WPEBD@Z 000000018010e0c0 f   comsuppw:comutil.obj
 0001:0010d2c0       ?HRESULT_FROM_WIN32@@YAJK@Z 000000018010e2c0 f i comsuppw:comutil.obj
 0001:0010d2e0       ??0_com_error@@QEAA@AEBV0@@Z 000000018010e2e0 f i comsuppw:comraise.obj
 0001:0010d340       ??0_com_error@@QEAA@JPEAUIErrorInfo@@_N@Z 000000018010e340 f i comsuppw:comraise.obj
 0001:0010d3a0       ??1_com_error@@UEAA@XZ     000000018010e3a0 f i comsuppw:comraise.obj
 0001:0010d400       ??_E_com_error@@UEAAPEAXI@Z 000000018010e400 f i comsuppw:comraise.obj
 0001:0010d400       ??_G_com_error@@UEAAPEAXI@Z 000000018010e400 f i comsuppw:comraise.obj
 0001:0010d480       ?_com_raise_error@@YAXJPEAUIErrorInfo@@@Z 000000018010e480 f   comsuppw:comraise.obj
 0001:0010d4c0       ?_com_dispatch_raw_method@@YAJPEAUIDispatch@@JGGPEAXPEB_WZZ 000000018010e4c0 f   comsuppw:invkprxy.obj
 0001:0010d520       ?_com_dispatch_raw_propget@@YAJPEAUIDispatch@@JGPEAX@Z 000000018010e520 f   comsuppw:invkprxy.obj
 0001:0010d560       ?_com_dispatch_raw_propput@@YAJPEAUIDispatch@@JGZZ 000000018010e560 f   comsuppw:invkprxy.obj
 0001:0010d610       ?_com_invoke_helper@@YAJPEAUIDispatch@@JGGPEAXPEB_WPEADPEAPEAUIErrorInfo@@@Z 000000018010e610 f   comsuppw:invkprxy.obj
 0001:0010df60       ?WCodeToHRESULT@_com_error@@SAJG@Z 000000018010ef60 f i comsuppw:invkerr.obj
 0001:0010df80       ?_com_handle_excepinfo@@YAJAEAUtagEXCEPINFO@@PEAPEAUIErrorInfo@@@Z 000000018010ef80 f   comsuppw:invkerr.obj
 0001:0010e150       ??$__crt_interlocked_exchange_pointer@$$A6AXXZP6AXXZ@@YAP6AXXZPEDS6AXXZQ6AXXZ@Z 000000018010f150 f i libvcruntime:purevirt.obj
 0001:0010e158       ??$__crt_interlocked_read_pointer@$$A6AXXZ@@YAP6AXXZPEDS6AXXZ@Z 000000018010f158 f i libvcruntime:purevirt.obj
 0001:0010e160       ?__crt_interlocked_read_64@@YA_JPED_J@Z 000000018010f160 f i libvcruntime:purevirt.obj
 0001:0010e168       _get_purecall_handler      000000018010f168 f   libvcruntime:purevirt.obj
 0001:0010e174       _purecall                  000000018010f174 f   libvcruntime:purevirt.obj
 0001:0010e194       _set_purecall_handler      000000018010f194 f   libvcruntime:purevirt.obj
 0001:0010e1a4       strstr                     000000018010f1a4 f   libvcruntime:strstr.obj
 0001:0010e40c       wcschr                     000000018010f40c f   libvcruntime:wcschr.obj
 0001:0010e4b0       strchr                     000000018010f4b0 f   libvcruntime:strchr.obj
 0001:0010e54c       strrchr                    000000018010f54c f   libvcruntime:strrchr.obj
 0001:0010e6d4       wcsstr                     000000018010f6d4 f   libvcruntime:wcsstr.obj
 0001:0010e968       __C_specific_handler       000000018010f968 f   libvcruntime:riscchandler.obj
 0001:0010ec04       ??$?0AEAViterator@TryBlockMap4@FH4@@AEAV012@$0A@@?$pair@Viterator@TryBlockMap4@FH4@@V123@@std@@QEAA@AEAViterator@TryBlockMap4@FH4@@0@Z 000000018010fc04 f i libvcruntime:risctrnsctrl.obj
 0001:0010ec20       ??$?0AEAViterator@TryBlockMap@__FrameHandler3@@AEAV012@$0A@@?$pair@Viterator@TryBlockMap@__FrameHandler3@@V123@@std@@QEAA@AEAViterator@TryBlockMap@__FrameHandler3@@0@Z 000000018010fc20 f i libvcruntime:risctrnsctrl.obj
 0001:0010ee08       ??$_CallSETranslator@V__FrameHandler3@@@@YAHPEAUEHExceptionRecord@@PEA_KPEAU_CONTEXT@@PEAU_xDISPATCHER_CONTEXT@@PEBU_s_FuncInfo@@K1H@Z 000000018010fe08 f i libvcruntime:risctrnsctrl.obj
 0001:0010ee70       ??$_CallSETranslator@V__FrameHandler4@@@@YAHPEAUEHExceptionRecord@@PEA_KPEAU_CONTEXT@@PEAU_xDISPATCHER_CONTEXT@@PEAUFuncInfo4@FH4@@K1H@Z 000000018010fe70 f i libvcruntime:risctrnsctrl.obj
 0001:0010eed8       ??$forward@AEAViterator@TryBlockMap4@FH4@@@std@@YAAEAViterator@TryBlockMap4@FH4@@AEAV123@@Z 000000018010fed8 f i libvcruntime:risctrnsctrl.obj
 0001:0010eedc       ??$forward@AEAViterator@TryBlockMap@__FrameHandler3@@@std@@YAAEAViterator@TryBlockMap@__FrameHandler3@@AEAV123@@Z 000000018010fedc f i libvcruntime:risctrnsctrl.obj
 0001:0010eee0       ??0FuncInfo4@FH4@@QEAA@XZ  000000018010fee0 f i libvcruntime:risctrnsctrl.obj
 0001:0010eef8       ??0FuncInfoHeader@FH4@@QEAA@XZ 000000018010fef8 f i libvcruntime:risctrnsctrl.obj
 0001:0010ef00       ??0iterator@TryBlockMap4@FH4@@QEAA@AEAV12@I@Z 000000018010ff00 f i libvcruntime:risctrnsctrl.obj
 0001:0010ef10       ??0iterator@TryBlockMap@__FrameHandler3@@QEAA@AEAV12@I@Z 000000018010ff10 f i libvcruntime:risctrnsctrl.obj
 0001:0010ef20       ??4iterator@TryBlockMap4@FH4@@QEAAAEAV012@AEBV012@@Z 000000018010ff20 f i libvcruntime:risctrnsctrl.obj
 0001:0010ef2c       ??9iterator@TryBlockMap4@FH4@@QEBA_NAEBV012@@Z 000000018010ff2c f i libvcruntime:risctrnsctrl.obj
 0001:0010ef38       ??Diterator@TryBlockMap4@FH4@@QEAA?AUTryBlockMapEntry4@2@XZ 000000018010ff38 f i libvcruntime:risctrnsctrl.obj
 0001:0010ef4c       ??Eiterator@TryBlockMap4@FH4@@QEAAAEAV012@XZ 000000018010ff4c f i libvcruntime:risctrnsctrl.obj
 0001:0010f010       ?CatchTryBlock@__FrameHandler3@@SAPEBU_s_TryBlockMapEntry@@PEBU_s_FuncInfo@@H@Z 0000000180110010 f   libvcruntime:risctrnsctrl.obj
 0001:0010f08c       ?DecompFuncInfo@FH4@@YA_JPEAEAEAUFuncInfo4@1@_KH@Z 000000018011008c f i libvcruntime:risctrnsctrl.obj
 0001:0010f0a4       ?DecompFuncInfo@FH4@@YA_JPEAEAEAUFuncInfo4@1@_KH_N@Z 00000001801100a4 f i libvcruntime:risctrnsctrl.obj
 0001:0010f228       ?DecompTryBlock@TryBlockMap4@FH4@@AEAAXXZ 0000000180110228 f i libvcruntime:risctrnsctrl.obj
 0001:0010f2e0       ?ExecutionInCatch@__FrameHandler3@@SA_NPEAU_xDISPATCHER_CONTEXT@@PEBU_s_FuncInfo@@@Z 00000001801102e0 f   libvcruntime:risctrnsctrl.obj
 0001:0010f314       ?ExecutionInCatch@__FrameHandler4@@SA_NPEAU_xDISPATCHER_CONTEXT@@PEAUFuncInfo4@FH4@@@Z 0000000180110314 f   libvcruntime:risctrnsctrl.obj
 0001:0010f31c       ?FrameUnwindToEmptyState@__FrameHandler3@@SAXPEA_KPEAU_xDISPATCHER_CONTEXT@@PEBU_s_FuncInfo@@@Z 000000018011031c f   libvcruntime:risctrnsctrl.obj
 0001:0010f39c       ?FrameUnwindToEmptyState@__FrameHandler4@@SAXPEA_KPEAU_xDISPATCHER_CONTEXT@@PEAUFuncInfo4@FH4@@@Z 000000018011039c f   libvcruntime:risctrnsctrl.obj
 0001:0010f3dc       ?GetEstablisherFrame@__FrameHandler3@@SAPEA_KPEA_KPEAU_xDISPATCHER_CONTEXT@@PEBU_s_FuncInfo@@0@Z 00000001801103dc f   libvcruntime:risctrnsctrl.obj
 0001:0010f4e0       ?GetEstablisherFrame@__FrameHandler4@@SAPEA_KPEA_KPEAU_xDISPATCHER_CONTEXT@@PEAUFuncInfo4@FH4@@0@Z 00000001801104e0 f   libvcruntime:risctrnsctrl.obj
 0001:0010f50c       ?GetRangeOfTrysToCheck@__FrameHandler3@@SA?AU?$pair@Viterator@TryBlockMap@__FrameHandler3@@V123@@std@@AEAVTryBlockMap@1@HPEAU_xDISPATCHER_CONTEXT@@PEBU_s_FuncInfo@@H@Z 000000018011050c f   libvcruntime:risctrnsctrl.obj
 0001:0010f68c       ?GetRangeOfTrysToCheck@__FrameHandler4@@SA?AU?$pair@Viterator@TryBlockMap4@FH4@@V123@@std@@AEAVTryBlockMap4@FH4@@HPEAU_xDISPATCHER_CONTEXT@@PEAUFuncInfo4@5@H@Z 000000018011068c f   libvcruntime:risctrnsctrl.obj
 0001:0010f850       ?ReadInt@FH4@@YAHPEAPEAE@Z 0000000180110850 f i libvcruntime:risctrnsctrl.obj
 0001:0010f860       ?ReadUnsigned@FH4@@YAIPEAPEAE@Z 0000000180110860 f i libvcruntime:risctrnsctrl.obj
 0001:0010f89c       ?UnwindNestedFrames@__FrameHandler3@@SAXPEA_KPEAUEHExceptionRecord@@PEAU_CONTEXT@@0PEAXPEBU_s_FuncInfo@@HHPEBU_s_HandlerType@@PEAU_xDISPATCHER_CONTEXT@@E@Z 000000018011089c f   libvcruntime:risctrnsctrl.obj
 0001:0010f9e0       ?UnwindNestedFrames@__FrameHandler4@@SAXPEA_KPEAUEHExceptionRecord@@PEAU_CONTEXT@@0PEAXPEAUFuncInfo4@FH4@@HHPEAUHandlerType4@5@PEAU_xDISPATCHER_CONTEXT@@E@Z 00000001801109e0 f   libvcruntime:risctrnsctrl.obj
 0001:0010fb48       ?begin@TryBlockMap4@FH4@@QEAA?AViterator@12@XZ 0000000180110b48 f i libvcruntime:risctrnsctrl.obj
 0001:0010fb58       ?end@TryBlockMap4@FH4@@QEAA?AViterator@12@XZ 0000000180110b58 f i libvcruntime:risctrnsctrl.obj
 0001:0010fb68       ?imageRelToByteBuffer@FH4@@YAPEAE_KH@Z 0000000180110b68 f i libvcruntime:risctrnsctrl.obj
 0001:0010fb70       ?incrementToSentinel@iterator@TryBlockMap4@FH4@@QEAAXXZ 0000000180110b70 f i libvcruntime:risctrnsctrl.obj
 0001:0010fb74       ?setBuffer@TryBlockMap4@FH4@@QEAAXViterator@12@@Z 0000000180110b74 f i libvcruntime:risctrnsctrl.obj
 0001:0010fda8       _CreateFrameInfo           0000000180110da8 f   libvcruntime:risctrnsctrl.obj
 0001:0010fdf0       _FindAndUnlinkFrame        0000000180110df0 f   libvcruntime:risctrnsctrl.obj
 0001:0010fe58       _GetImageBase              0000000180110e58 f   libvcruntime:risctrnsctrl.obj
 0001:0010fe70       _GetThrowImageBase         0000000180110e70 f   libvcruntime:risctrnsctrl.obj
 0001:0010fe88       _SetImageBase              0000000180110e88 f   libvcruntime:risctrnsctrl.obj
 0001:0010fea8       _SetThrowImageBase         0000000180110ea8 f   libvcruntime:risctrnsctrl.obj
 0001:0010fec8       __CxxFrameHandler          0000000180110ec8 f   libvcruntime:risctrnsctrl.obj
 0001:0010fed0       __CxxFrameHandler2         0000000180110ed0 f   libvcruntime:risctrnsctrl.obj
 0001:0010fed8       __CxxFrameHandler3         0000000180110ed8 f   libvcruntime:risctrnsctrl.obj
 0001:0010ff80       __CxxFrameHandler4         0000000180110f80 f   libvcruntime:risctrnsctrl.obj
 0001:00110070       _CxxThrowException         0000000180111070 f   libvcruntime:throw.obj
 0001:00110140       wcsrchr                    0000000180111140 f   libvcruntime:wcsrchr.obj
 0001:0011021c       ??$?RD@__crt_public_free_policy@@QEBAXQEBD@Z 000000018011121c f i libvcruntime:std_exception.obj
 0001:00110228       ??0?$__crt_unique_heap_ptr@DU__crt_public_free_policy@@@@QEAA@QEAD@Z 0000000180111228 f i libvcruntime:std_exception.obj
 0001:00110230       ??1?$__crt_unique_heap_ptr@DU__crt_public_free_policy@@@@QEAA@XZ 0000000180111230 f i libvcruntime:std_exception.obj
 0001:00110254       ??B?$__crt_unique_heap_ptr@DU__crt_public_free_policy@@@@QEBA_NXZ 0000000180111254 f i libvcruntime:std_exception.obj
 0001:00110260       ?detach@?$__crt_unique_heap_ptr@DU__crt_public_free_policy@@@@QEAAPEADXZ 0000000180111260 f i libvcruntime:std_exception.obj
 0001:0011026c       ?get@?$__crt_unique_heap_ptr@DU__crt_public_free_policy@@@@QEBAPEADXZ 000000018011126c f i libvcruntime:std_exception.obj
 0001:00110270       ?is_valid@?$__crt_unique_heap_ptr@DU__crt_public_free_policy@@@@QEBA_NXZ 0000000180111270 f i libvcruntime:std_exception.obj
 0001:0011027c       ?release@?$__crt_unique_heap_ptr@DU__crt_public_free_policy@@@@QEAAXXZ 000000018011127c f i libvcruntime:std_exception.obj
 0001:001102a0       __std_exception_copy       00000001801112a0 f   libvcruntime:std_exception.obj
 0001:00110350       __std_exception_destroy    0000000180111350 f   libvcruntime:std_exception.obj
 0001:00110380       __vcrt_initialize          0000000180111380 f   libvcruntime:initialization.obj
 0001:001103b4       __vcrt_thread_attach       00000001801113b4 f   libvcruntime:initialization.obj
 0001:001103d0       __vcrt_thread_detach       00000001801113d0 f   libvcruntime:initialization.obj
 0001:001103e4       __vcrt_uninitialize        00000001801113e4 f   libvcruntime:initialization.obj
 0001:00110404       __vcrt_uninitialize_critical 0000000180111404 f   libvcruntime:initialization.obj
 0001:00110420       __DestructExceptionObject  0000000180111420 f   libvcruntime:ehhelpers.obj
 0001:001104a8       ?_CallMemberFunction0@@YAXQEAX0@Z 00000001801114a8 f i libvcruntime:ehhelpers.obj
 0001:0011051c       ?raw_name@type_info@@QEBAPEBDXZ 000000018011151c f i libvcruntime:ehhelpers.obj
 0001:00110524       _IsExceptionObjectToBeDestroyed 0000000180111524 f   libvcruntime:ehhelpers.obj
 0001:00110560       _SetWinRTOutOfMemoryExceptionCallback 0000000180111560 f   libvcruntime:ehhelpers.obj
 0001:0011056c       __AdjustPointer            000000018011156c f   libvcruntime:ehhelpers.obj
 0001:00110598       __FrameUnwindFilter        0000000180111598 f   libvcruntime:ehhelpers.obj
 0001:00110618       __GetPlatformExceptionInfo 0000000180111618 f   libvcruntime:ehhelpers.obj
 0001:0011068c       __current_exception        000000018011168c f   libvcruntime:ehhelpers.obj
 0001:001106a4       __current_exception_context 00000001801116a4 f   libvcruntime:ehhelpers.obj
 0001:001106bc       __processing_throw         00000001801116bc f   libvcruntime:ehhelpers.obj
 0001:001106d4       __std_terminate            00000001801116d4 f   libvcruntime:ehhelpers.obj
 0001:001106e0       _is_exception_typeof       00000001801116e0 f   libvcruntime:ehhelpers.obj
 0001:001107c0       ??$?RD@__crt_internal_free_policy@@QEBAXQEBD@Z 00000001801117c0 f i libvcruntime:std_type_info.obj
 0001:001107cc       ??$?RX@__crt_internal_free_policy@@QEBAXQEBX@Z 00000001801117cc f i libvcruntime:std_type_info.obj
 0001:001107d8       ??$__crt_interlocked_compare_exchange_pointer@$$CBDPEAD$$T@@YAPEBDPEDSEBDQEAD$$T@Z 00000001801117d8 f i libvcruntime:std_type_info.obj
 0001:001107e4       ??$__crt_interlocked_read_pointer@$$CBD@@YAPEBDPEDSEBD@Z 00000001801117e4 f i libvcruntime:std_type_info.obj
 0001:001107ec       ??0?$__crt_unique_heap_ptr@DU__crt_internal_free_policy@@@@QEAA@QEAD@Z 00000001801117ec f i libvcruntime:std_type_info.obj
 0001:001107f4       ??0?$__crt_unique_heap_ptr@XU__crt_internal_free_policy@@@@QEAA@QEAX@Z 00000001801117f4 f i libvcruntime:std_type_info.obj
 0001:001107fc       ??1?$__crt_unique_heap_ptr@DU__crt_internal_free_policy@@@@QEAA@XZ 00000001801117fc f i libvcruntime:std_type_info.obj
 0001:00110820       ??1?$__crt_unique_heap_ptr@XU__crt_internal_free_policy@@@@QEAA@XZ 0000000180111820 f i libvcruntime:std_type_info.obj
 0001:00110844       ??B?$__crt_unique_heap_ptr@DU__crt_internal_free_policy@@@@QEBA_NXZ 0000000180111844 f i libvcruntime:std_type_info.obj
 0001:00110850       ??B?$__crt_unique_heap_ptr@XU__crt_internal_free_policy@@@@QEBA_NXZ 0000000180111850 f i libvcruntime:std_type_info.obj
 0001:00110874       ?detach@?$__crt_unique_heap_ptr@XU__crt_internal_free_policy@@@@QEAAPEAXXZ 0000000180111874 f i libvcruntime:std_type_info.obj
 0001:00110880       ?get@?$__crt_unique_heap_ptr@DU__crt_internal_free_policy@@@@QEBAPEADXZ 0000000180111880 f i libvcruntime:std_type_info.obj
 0001:00110884       ?get@?$__crt_unique_heap_ptr@XU__crt_internal_free_policy@@@@QEBAPEAXXZ 0000000180111884 f i libvcruntime:std_type_info.obj
 0001:00110888       ?is_valid@?$__crt_unique_heap_ptr@DU__crt_internal_free_policy@@@@QEBA_NXZ 0000000180111888 f i libvcruntime:std_type_info.obj
 0001:00110894       ?is_valid@?$__crt_unique_heap_ptr@XU__crt_internal_free_policy@@@@QEBA_NXZ 0000000180111894 f i libvcruntime:std_type_info.obj
 0001:001108a0       ?release@?$__crt_unique_heap_ptr@DU__crt_internal_free_policy@@@@QEAAXXZ 00000001801118a0 f i libvcruntime:std_type_info.obj
 0001:001108c4       ?release@?$__crt_unique_heap_ptr@XU__crt_internal_free_policy@@@@QEAAXXZ 00000001801118c4 f i libvcruntime:std_type_info.obj
 0001:001108e8       __std_type_info_compare    00000001801118e8 f   libvcruntime:std_type_info.obj
 0001:00110918       __std_type_info_destroy_list 0000000180111918 f   libvcruntime:std_type_info.obj
 0001:0011094c       __std_type_info_hash       000000018011194c f   libvcruntime:std_type_info.obj
 0001:00110994       __std_type_info_name       0000000180111994 f   libvcruntime:std_type_info.obj
 0001:00110b30       _NLG_Notify                0000000180111b30 f   libvcruntime:notify.obj
 0001:00110b60       __NLG_Dispatch2            0000000180111b60 f   libvcruntime:notify.obj
 0001:00110b70       __NLG_Return2              0000000180111b70 f   libvcruntime:notify.obj
 0001:00110b7c       __except_validate_context_record 0000000180111b7c f   libvcruntime:jbcxrval.obj
 0001:00110bc0       __except_validate_jump_buffer 0000000180111bc0 f   libvcruntime:jbcxrval.obj
 0001:00110c10       __except_validate_jump_buffer_common 0000000180111c10 f i libvcruntime:jbcxrval.obj
 0001:00110c84       ??$?RU__vcrt_ptd@@@__crt_internal_free_policy@@QEBAXQEBU__vcrt_ptd@@@Z 0000000180111c84 f i libvcruntime:per_thread_data.obj
 0001:00110c90       ??0?$__crt_unique_heap_ptr@U__vcrt_ptd@@U__crt_internal_free_policy@@@@QEAA@QEAU__vcrt_ptd@@@Z 0000000180111c90 f i libvcruntime:per_thread_data.obj
 0001:00110cb8       ??1?$__crt_unique_heap_ptr@U__vcrt_ptd@@U__crt_internal_free_policy@@@@QEAA@XZ 0000000180111cb8 f i libvcruntime:per_thread_data.obj
 0001:00110ce8       ??B?$__crt_unique_heap_ptr@U__vcrt_ptd@@U__crt_internal_free_policy@@@@QEBA_NXZ 0000000180111ce8 f i libvcruntime:per_thread_data.obj
 0001:00110cf4       ?detach@?$__crt_unique_heap_ptr@U__vcrt_ptd@@U__crt_internal_free_policy@@@@QEAAPEAU__vcrt_ptd@@XZ 0000000180111cf4 f i libvcruntime:per_thread_data.obj
 0001:00110d00       ?get@?$__crt_unique_heap_ptr@U__vcrt_ptd@@U__crt_internal_free_policy@@@@QEBAPEAU__vcrt_ptd@@XZ 0000000180111d00 f i libvcruntime:per_thread_data.obj
 0001:00110d04       ?is_valid@?$__crt_unique_heap_ptr@U__vcrt_ptd@@U__crt_internal_free_policy@@@@QEBA_NXZ 0000000180111d04 f i libvcruntime:per_thread_data.obj
 0001:00110d10       ?release@?$__crt_unique_heap_ptr@U__vcrt_ptd@@U__crt_internal_free_policy@@@@QEAAXXZ 0000000180111d10 f i libvcruntime:per_thread_data.obj
 0001:00110d68       __vcrt_freefls             0000000180111d68 f   libvcruntime:per_thread_data.obj
 0001:00110d90       __vcrt_freeptd_for_this_thread 0000000180111d90 f   libvcruntime:per_thread_data.obj
 0001:00110de8       __vcrt_getptd              0000000180111de8 f   libvcruntime:per_thread_data.obj
 0001:00110e08       __vcrt_getptd_noexit       0000000180111e08 f   libvcruntime:per_thread_data.obj
 0001:00110ef8       __vcrt_getptd_noinit       0000000180111ef8 f   libvcruntime:per_thread_data.obj
 0001:00110f58       __vcrt_initialize_ptd      0000000180111f58 f   libvcruntime:per_thread_data.obj
 0001:00110fb0       __vcrt_uninitialize_ptd    0000000180111fb0 f   libvcruntime:per_thread_data.obj
 0001:00110fdc       ?GetCurrentState@__FrameHandler3@@SAHPEA_KPEAU_xDISPATCHER_CONTEXT@@PEBU_s_FuncInfo@@@Z 0000000180111fdc f   libvcruntime:ehstate.obj
 0001:0011100c       ?GetUnwindTryBlock@__FrameHandler3@@SAHPEA_KPEAU_xDISPATCHER_CONTEXT@@PEBU_s_FuncInfo@@@Z 000000018011200c f   libvcruntime:ehstate.obj
 0001:00111040       ?SetState@__FrameHandler3@@SAXPEA_KPEBU_s_FuncInfo@@H@Z 0000000180112040 f   libvcruntime:ehstate.obj
 0001:00111050       ?SetUnwindTryBlock@__FrameHandler3@@SAXPEA_KPEAU_xDISPATCHER_CONTEXT@@PEBU_s_FuncInfo@@H@Z 0000000180112050 f   libvcruntime:ehstate.obj
 0001:0011109c       ?StateFromControlPc@__FrameHandler3@@SAHPEBU_s_FuncInfo@@PEAU_xDISPATCHER_CONTEXT@@@Z 000000018011209c f   libvcruntime:ehstate.obj
 0001:001110a8       ?StateFromControlPc@__FrameHandler4@@SAHPEAUFuncInfo4@FH4@@PEAU_xDISPATCHER_CONTEXT@@@Z 00000001801120a8 f   libvcruntime:ehstate.obj
 0001:001110b4       ?StateFromIp@__FrameHandler3@@SAHPEBU_s_FuncInfo@@PEAU_xDISPATCHER_CONTEXT@@_K@Z 00000001801120b4 f   libvcruntime:ehstate.obj
 0001:00111134       ?StateFromIp@__FrameHandler4@@SAHPEAUFuncInfo4@FH4@@PEAU_xDISPATCHER_CONTEXT@@_K@Z 0000000180112134 f   libvcruntime:ehstate.obj
 0001:0011125c       ?__FuncRelToRealOffset@@YA_KPEAU_xDISPATCHER_CONTEXT@@I@Z 000000018011225c f i libvcruntime:ehstate.obj
 0001:00111270       ?__RVAtoRealOffset@@YA_KPEAU_xDISPATCHER_CONTEXT@@H@Z 0000000180112270 f i libvcruntime:ehstate.obj
 0001:00112e7c       ??$TypeMatchHelper@V__FrameHandler3@@@@YAHPEBU_s_HandlerType@@PEBU_s_CatchableType@@PEBU_s_ThrowInfo@@@Z 0000000180113e7c f i libvcruntime:frame.obj
 0001:00113008       ??$TypeMatchHelper@V__FrameHandler4@@@@YAHPEAUHandlerType4@FH4@@PEBU_s_CatchableType@@PEBU_s_ThrowInfo@@@Z 0000000180114008 f i libvcruntime:frame.obj
 0001:001131a8       ??$__InternalCxxFrameHandler@V__FrameHandler3@@@@YA?AW4_EXCEPTION_DISPOSITION@@PEAUEHExceptionRecord@@PEA_KPEAU_CONTEXT@@PEAU_xDISPATCHER_CONTEXT@@PEBU_s_FuncInfo@@H1E@Z 00000001801141a8 f i libvcruntime:frame.obj
 0001:0011346c       ??$__InternalCxxFrameHandler@V__FrameHandler4@@@@YA?AW4_EXCEPTION_DISPOSITION@@PEAUEHExceptionRecord@@PEA_KPEAU_CONTEXT@@PEAU_xDISPATCHER_CONTEXT@@PEAUFuncInfo4@FH4@@H1E@Z 000000018011446c f i libvcruntime:frame.obj
 0001:001137a8       ??$__InternalCxxFrameHandlerWrapper@V__FrameHandler3@@@@YA?AW4_EXCEPTION_DISPOSITION@@PEAUEHExceptionRecord@@PEA_KPEAU_CONTEXT@@PEAU_xDISPATCHER_CONTEXT@@PEBU_s_FuncInfo@@H1E@Z 00000001801147a8 f i libvcruntime:frame.obj
 0001:001137b0       ??$__InternalCxxFrameHandlerWrapper@V__FrameHandler4@@@@YA?AW4_EXCEPTION_DISPOSITION@@PEAUEHExceptionRecord@@PEA_KPEAU_CONTEXT@@PEAU_xDISPATCHER_CONTEXT@@PEAUFuncInfo4@FH4@@H1E@Z 00000001801147b0 f i libvcruntime:frame.obj
 0001:00113810       ??0HandlerMap4@FH4@@QEAA@PEBUTryBlockMapEntry4@1@_KH@Z 0000000180114810 f i libvcruntime:frame.obj
 0001:001138b4       ??0HandlerMap@__FrameHandler3@@QEAA@PEBU_s_TryBlockMapEntry@@_KI@Z 00000001801148b4 f i libvcruntime:frame.obj
 0001:001138d0       ??0HandlerType4@FH4@@QEAA@XZ 00000001801148d0 f i libvcruntime:frame.obj
 0001:001138ec       ??0TryBlockMap4@FH4@@QEAA@PEBUFuncInfo4@1@_K@Z 00000001801148ec f i libvcruntime:frame.obj
 0001:00113a0c       ??0TryBlockMap@__FrameHandler3@@QEAA@PEBU_s_FuncInfo@@_K@Z 0000000180114a0c f i libvcruntime:frame.obj
 0001:00113a1c       ??0UWMap4@FH4@@QEAA@PEBUFuncInfo4@1@_K@Z 0000000180114a1c f i libvcruntime:frame.obj
 0001:00113a7c       ??0bad_exception@std@@QEAA@AEBV01@@Z 0000000180114a7c f i libvcruntime:frame.obj
 0001:00113ac8       ??0bad_exception@std@@QEAA@XZ 0000000180114ac8 f i libvcruntime:frame.obj
 0001:00113af0       ??0iterator@HandlerMap4@FH4@@QEAA@AEAV12@I@Z 0000000180114af0 f i libvcruntime:frame.obj
 0001:00113b00       ??0iterator@HandlerMap@__FrameHandler3@@QEAA@AEAV12@I@Z 0000000180114b00 f i libvcruntime:frame.obj
 0001:00113b10       ??0iterator@UWMap4@FH4@@QEAA@AEAV12@PEAE@Z 0000000180114b10 f i libvcruntime:frame.obj
 0001:00113b20       ??1bad_exception@std@@UEAA@XZ 0000000180114b20 f i libvcruntime:frame.obj
 0001:00113b38       ??4iterator@UWMap4@FH4@@QEAAAEAV012@AEBV012@@Z 0000000180114b38 f i libvcruntime:frame.obj
 0001:00113b60       ??8iterator@HandlerMap4@FH4@@QEBA_NAEBV012@@Z 0000000180114b60 f i libvcruntime:frame.obj
 0001:00113b6c       ??8iterator@HandlerMap@__FrameHandler3@@QEBA_NAEBV012@@Z 0000000180114b6c f i libvcruntime:frame.obj
 0001:00113b78       ??8type_info@@QEBA_NAEBV0@@Z 0000000180114b78 f i libvcruntime:frame.obj
 0001:00113b9c       ??9iterator@HandlerMap4@FH4@@QEBA_NAEBV012@@Z 0000000180114b9c f i libvcruntime:frame.obj
 0001:00113ba8       ??9iterator@HandlerMap@__FrameHandler3@@QEBA_NAEBV012@@Z 0000000180114ba8 f i libvcruntime:frame.obj
 0001:00113bb4       ??Diterator@HandlerMap4@FH4@@QEAA?AUHandlerType4@2@XZ 0000000180114bb4 f i libvcruntime:frame.obj
 0001:00113bdc       ??Diterator@HandlerMap@__FrameHandler3@@QEAA?BU_s_HandlerType@@XZ 0000000180114bdc f i libvcruntime:frame.obj
 0001:00113c08       ??Diterator@TryBlockMap@__FrameHandler3@@QEAA?BU_s_TryBlockMapEntry@@XZ 0000000180114c08 f i libvcruntime:frame.obj
 0001:00113c40       ??Diterator@UWMap4@FH4@@QEAA?AUUnwindMapEntry4@2@XZ 0000000180114c40 f i libvcruntime:frame.obj
 0001:00113ca8       ??Eiterator@HandlerMap4@FH4@@QEAAAEAV012@XZ 0000000180114ca8 f i libvcruntime:frame.obj
 0001:00113ccc       ??Eiterator@HandlerMap@__FrameHandler3@@QEAAAEAV012@XZ 0000000180114ccc f i libvcruntime:frame.obj
 0001:00113cd4       ??Eiterator@TryBlockMap@__FrameHandler3@@QEAAAEAV012@XZ 0000000180114cd4 f i libvcruntime:frame.obj
 0001:00113cdc       ??Eiterator@UWMap4@FH4@@QEAAAEAV012@XZ 0000000180114cdc f i libvcruntime:frame.obj
 0001:00113d04       ??Giterator@UWMap4@FH4@@QEBA_JAEBV012@@Z 0000000180114d04 f i libvcruntime:frame.obj
 0001:00113d10       ??Miterator@TryBlockMap4@FH4@@QEBA_NAEBV012@@Z 0000000180114d10 f i libvcruntime:frame.obj
 0001:00113d1c       ??Miterator@TryBlockMap@__FrameHandler3@@QEBA_NAEBV012@@Z 0000000180114d1c f i libvcruntime:frame.obj
 0001:00113d28       ??Oiterator@UWMap4@FH4@@QEBA_NAEBV012@@Z 0000000180114d28 f i libvcruntime:frame.obj
 0001:00113d38       ??Piterator@UWMap4@FH4@@QEBA_NAEBV012@@Z 0000000180114d38 f i libvcruntime:frame.obj
 0001:00113d48       ??_Ebad_exception@std@@UEAAPEAXI@Z 0000000180114d48 f i libvcruntime:frame.obj
 0001:00113d48       ??_Gbad_exception@std@@UEAAPEAXI@Z 0000000180114d48 f i libvcruntime:frame.obj
 0001:00113d9c       ?BuildCatchObject@__FrameHandler3@@SAXPEAUEHExceptionRecord@@PEAXPEBU_s_HandlerType@@PEBU_s_CatchableType@@@Z 0000000180114d9c f   libvcruntime:frame.obj
 0001:00113da4       ?BuildCatchObject@__FrameHandler4@@SAXPEAUEHExceptionRecord@@PEAXPEAUHandlerType4@FH4@@PEBU_s_CatchableType@@@Z 0000000180114da4 f   libvcruntime:frame.obj
 0001:00113dac       ?BuildCatchObjectHelper@__FrameHandler3@@SAHPEAUEHExceptionRecord@@PEAXPEBU_s_HandlerType@@PEBU_s_CatchableType@@@Z 0000000180114dac f   libvcruntime:frame.obj
 0001:00113db4       ?BuildCatchObjectHelper@__FrameHandler4@@SAHPEAUEHExceptionRecord@@PEAXPEAUHandlerType4@FH4@@PEBU_s_CatchableType@@@Z 0000000180114db4 f   libvcruntime:frame.obj
 0001:00113dbc       ?CxxCallCatchBlock@__FrameHandler3@@SAPEAXPEAU_EXCEPTION_RECORD@@@Z 0000000180114dbc f   libvcruntime:frame.obj
 0001:00114020       ?CxxCallCatchBlock@__FrameHandler4@@SAPEAXPEAU_EXCEPTION_RECORD@@@Z 0000000180115020 f   libvcruntime:frame.obj
 0001:00114300       ?DecompHandler@HandlerMap4@FH4@@AEAAXXZ 0000000180115300 f i libvcruntime:frame.obj
 0001:001145dc       ?FrameUnwindToState@__FrameHandler3@@SAXPEA_KPEAU_xDISPATCHER_CONTEXT@@PEBU_s_FuncInfo@@H@Z 00000001801155dc f   libvcruntime:frame.obj
 0001:001147c8       ?FrameUnwindToState@__FrameHandler4@@SAXPEA_KPEAU_xDISPATCHER_CONTEXT@@PEAUFuncInfo4@FH4@@H@Z 00000001801157c8 f   libvcruntime:frame.obj
 0001:00114b90       ?GetHandlerSearchState@__FrameHandler3@@SAHPEA_KPEAU_xDISPATCHER_CONTEXT@@PEBU_s_FuncInfo@@@Z 0000000180115b90 f i libvcruntime:frame.obj
 0001:00114c4c       ?GetHandlerSearchState@__FrameHandler4@@SAHPEA_KPEAU_xDISPATCHER_CONTEXT@@PEAUFuncInfo4@FH4@@@Z 0000000180115c4c f i libvcruntime:frame.obj
 0001:00114cc8       ?GetMaxState@__FrameHandler3@@SAHPEAU_xDISPATCHER_CONTEXT@@PEBU_s_FuncInfo@@@Z 0000000180115cc8 f i libvcruntime:frame.obj
 0001:00114ccc       ?GetMaxState@__FrameHandler4@@SAHPEAU_xDISPATCHER_CONTEXT@@PEAUFuncInfo4@FH4@@@Z 0000000180115ccc f i libvcruntime:frame.obj
 0001:00114ee8       ?ReadEntry@UWMap4@FH4@@AEAAXPEAPEAE@Z 0000000180115ee8 f i libvcruntime:frame.obj
 0001:00114fac       ?TypeMatch@__FrameHandler3@@SAHPEBU_s_HandlerType@@PEBU_s_CatchableType@@PEBU_s_ThrowInfo@@@Z 0000000180115fac f   libvcruntime:frame.obj
 0001:00114fb4       ?TypeMatch@__FrameHandler4@@SAHPEAUHandlerType4@FH4@@PEBU_s_CatchableType@@PEBU_s_ThrowInfo@@@Z 0000000180115fb4 f   libvcruntime:frame.obj
 0001:00114fbc       ?WalkBack@UWMap4@FH4@@AEAAXPEAPEAE@Z 0000000180115fbc f i libvcruntime:frame.obj
 0001:00115000       ?WalkBack@iterator@UWMap4@FH4@@QEAAXXZ 0000000180116000 f i libvcruntime:frame.obj
 0001:0011504c       ?WalkForward@UWMap4@FH4@@AEAAXPEAPEAE@Z 000000018011604c f i libvcruntime:frame.obj
 0001:00115054       ?_CallMemberFunction1@@YAXQEAX00@Z 0000000180116054 f i libvcruntime:frame.obj
 0001:00115060       ?_CallMemberFunction2@@YAXQEAX00H@Z 0000000180116060 f i libvcruntime:frame.obj
 0001:00115090       ?begin@HandlerMap4@FH4@@QEAA?AViterator@12@XZ 0000000180116090 f i libvcruntime:frame.obj
 0001:001150a0       ?begin@HandlerMap@__FrameHandler3@@QEAA?AViterator@12@XZ 00000001801160a0 f i libvcruntime:frame.obj
 0001:001150b0       ?begin@UWMap4@FH4@@QEAA?AViterator@12@XZ 00000001801160b0 f i libvcruntime:frame.obj
 0001:001150c4       ?end@HandlerMap4@FH4@@QEAA?AViterator@12@XZ 00000001801160c4 f i libvcruntime:frame.obj
 0001:001150d4       ?end@HandlerMap@__FrameHandler3@@QEAA?AViterator@12@XZ 00000001801160d4 f i libvcruntime:frame.obj
 0001:001150e4       ?getESTypes@__FrameHandler3@@SAPEBU_s_ESTypeList@@PEBU_s_FuncInfo@@@Z 00000001801160e4 f i libvcruntime:frame.obj
 0001:00115118       ?getESTypes@__FrameHandler4@@SAPEBU_s_ESTypeList@@PEAUFuncInfo4@FH4@@@Z 0000000180116118 f i libvcruntime:frame.obj
 0001:0011511c       ?getLastEntry@HandlerMap4@FH4@@QEAAPEAUHandlerType4@2@XZ 000000018011611c f i libvcruntime:frame.obj
 0001:00115180       ?getLastEntry@HandlerMap@__FrameHandler3@@QEAAPEBU_s_HandlerType@@XZ 0000000180116180 f i libvcruntime:frame.obj
 0001:00115198       ?getMagicNum@__FrameHandler3@@SAIPEBU_s_FuncInfo@@@Z 0000000180116198 f i libvcruntime:frame.obj
 0001:001151a4       ?getMagicNum@__FrameHandler4@@SAIPEAUFuncInfo4@FH4@@@Z 00000001801161a4 f i libvcruntime:frame.obj
 0001:001151ac       ?getNumTryBlocks@TryBlockMap4@FH4@@QEAAIXZ 00000001801161ac f i libvcruntime:frame.obj
 0001:001151b0       ?getNumTryBlocks@TryBlockMap@__FrameHandler3@@QEAAIXZ 00000001801161b0 f i libvcruntime:frame.obj
 0001:001151b8       ?getStartStop@UWMap4@FH4@@QEAAXHHAEAViterator@12@0@Z 00000001801161b8 f i libvcruntime:frame.obj
 0001:001152bc       ?getStateFromIterators@UWMap4@FH4@@SAHAEBViterator@12@H0H0@Z 00000001801162bc f i libvcruntime:frame.obj
 0001:00115398       ?isEHs@__FrameHandler3@@SA_NPEBU_s_FuncInfo@@@Z 0000000180116398 f i libvcruntime:frame.obj
 0001:001153a0       ?isEHs@__FrameHandler4@@SA_NPEAUFuncInfo4@FH4@@@Z 00000001801163a0 f i libvcruntime:frame.obj
 0001:001153ac       ?isNoExcept@__FrameHandler3@@SA_NPEBU_s_FuncInfo@@@Z 00000001801163ac f i libvcruntime:frame.obj
 0001:001153b8       ?isNoExcept@__FrameHandler4@@SA_NPEAUFuncInfo4@FH4@@@Z 00000001801163b8 f i libvcruntime:frame.obj
 0001:001153c4       ?reset@HandlerType4@FH4@@QEAAXXZ 00000001801163c4 f i libvcruntime:frame.obj
 0001:001153e0       ?resetBuffer@HandlerMap4@FH4@@QEAAXXZ 00000001801163e0 f i libvcruntime:frame.obj
 0001:001153f0       ?setBuffer@HandlerMap4@FH4@@QEAAXI@Z 00000001801163f0 f i libvcruntime:frame.obj
 0001:00115438       __BuildCatchObject         0000000180116438 f   libvcruntime:frame.obj
 0001:00115440       __BuildCatchObjectHelper   0000000180116440 f   libvcruntime:frame.obj
 0001:00115448       __TypeMatch                0000000180116448 f   libvcruntime:frame.obj
 0001:00115450       __vcrt_EncodePointer       0000000180116450 f i libvcruntime:frame.obj
 0001:00115458       __vcrt_initialize_locks    0000000180116458 f   libvcruntime:locks.obj
 0001:001154b0       __vcrt_lock                00000001801164b0 f   libvcruntime:locks.obj
 0001:001154d0       __vcrt_uninitialize_locks  00000001801164d0 f   libvcruntime:locks.obj
 0001:00115514       __vcrt_unlock              0000000180116514 f   libvcruntime:locks.obj
 0001:00115534       ??$?0$00@DName@@QEAA@PEBDU?$StringLifeSelector@$00@@@Z 0000000180116534 f i libvcruntime:undname.obj
 0001:00115584       ??$?0$00@pcharNode@@QEAA@PEBDHU?$StringLifeSelector@$00@@@Z 0000000180116584 f i libvcruntime:undname.obj
 0001:001155a0       ??$?0$01@DName@@QEAA@PEBDU?$StringLifeSelector@$01@@@Z 00000001801165a0 f i libvcruntime:undname.obj
 0001:001155f0       ??$?0$01@pcharNode@@QEAA@PEBDHU?$StringLifeSelector@$01@@@Z 00000001801165f0 f i libvcruntime:undname.obj
 0001:00115680       ??$?0$0A@@DName@@QEAA@PEBDU?$StringLifeSelector@$0A@@@@Z 0000000180116680 f i libvcruntime:undname.obj
 0001:001156d0       ??$?0$0A@@pcharNode@@QEAA@PEBDHU?$StringLifeSelector@$0A@@@@Z 00000001801166d0 f i libvcruntime:undname.obj
 0001:00115760       ??$?0_K$0A@@?$optional@_K@std@@QEAA@$$QEA_K@Z 0000000180116760 f i libvcruntime:undname.obj
 0001:00115774       ??$?0_K@?$_Optional_construct_base@_K@std@@QEAA@Uin_place_t@1@$$QEA_K@Z 0000000180116774 f i libvcruntime:undname.obj
 0001:00115788       ??$?0_K@?$_Optional_destruct_base@_K$00@std@@QEAA@Uin_place_t@1@$$QEA_K@Z 0000000180116788 f i libvcruntime:undname.obj
 0001:0011579c       ??$append@VDNameNode@@@DName@@AEAAXPEBVDNameNode@@@Z 000000018011679c f i libvcruntime:undname.obj
 0001:00115818       ??$append@VDNameStatusNode@@@DName@@AEAAXPEBVDNameStatusNode@@@Z 0000000180116818 f i libvcruntime:undname.obj
 0001:00115894       ??$append@VcharNode@@@DName@@AEAAXPEBVcharNode@@@Z 0000000180116894 f i libvcruntime:undname.obj
 0001:00115910       ??$append@VpDNameNode@@@DName@@AEAAXPEBVpDNameNode@@@Z 0000000180116910 f i libvcruntime:undname.obj
 0001:0011598c       ??$append@VpcharNode@@@DName@@AEAAXPEBVpcharNode@@@Z 000000018011698c f i libvcruntime:undname.obj
 0001:00115a08       ??$doPchar@$00@DName@@AEAAXPEBDH@Z 0000000180116a08 f i libvcruntime:undname.obj
 0001:00115ac4       ??$doPchar@$01@DName@@AEAAXPEBDH@Z 0000000180116ac4 f i libvcruntime:undname.obj
 0001:00115b80       ??$doPchar@$0A@@DName@@AEAAXPEBDH@Z 0000000180116b80 f i libvcruntime:undname.obj
 0001:00115c3c       ??$forward@_K@std@@YA$$QEA_KAEA_K@Z 0000000180116c3c f i libvcruntime:undname.obj
 0001:00115da0       ??0?$_Optional_construct_base@_K@std@@QEAA@XZ 0000000180116da0 f i libvcruntime:undname.obj
 0001:00115dac       ??0?$_Optional_destruct_base@_K$00@std@@QEAA@XZ 0000000180116dac f i libvcruntime:undname.obj
 0001:00115db8       ??0?$optional@_K@std@@QEAA@XZ 0000000180116db8 f i libvcruntime:undname.obj
 0001:00115dc4       ??0Block@_HeapManager@@QEAA@XZ 0000000180116dc4 f i libvcruntime:undname.obj
 0001:00115dd0       ??0DName@@QEAA@AEAPEBDD@Z  0000000180116dd0 f   libvcruntime:undname.obj
 0001:00115eb0       ??0DName@@QEAA@AEBUStringLiteral@@@Z 0000000180116eb0 f   libvcruntime:undname.obj
 0001:00115ee8       ??0DName@@QEAA@AEBV0@@Z    0000000180116ee8 f i libvcruntime:undname.obj
 0001:00115efc       ??0DName@@QEAA@D@Z         0000000180116efc f   libvcruntime:undname.obj
 0001:00115f24       ??0DName@@QEAA@PEAV0@@Z    0000000180116f24 f   libvcruntime:undname.obj
 0001:00115fc8       ??0DName@@QEAA@W4DNameStatus@@@Z 0000000180116fc8 f   libvcruntime:undname.obj
 0001:00116004       ??0DName@@QEAA@XZ          0000000180117004 f i libvcruntime:undname.obj
 0001:00116014       ??0DName@@QEAA@_J@Z        0000000180117014 f   libvcruntime:undname.obj
 0001:001160e0       ??0DName@@QEAA@_K@Z        00000001801170e0 f   libvcruntime:undname.obj
 0001:0011618c       ??0DNameNode@@IEAA@XZ      000000018011718c f i libvcruntime:undname.obj
 0001:001161a0       ??0Replicator@@QEAA@XZ     00000001801171a0 f i libvcruntime:undname.obj
 0001:001161dc       ??0UnDecorator@@QEAA@PEBDP6APEADJ@ZK@Z 00000001801171dc f i libvcruntime:undname.obj
 0001:001162b0       ??0_Nontrivial_dummy_type@std@@QEAA@XZ 00000001801172b0 f i libvcruntime:undname.obj
 0001:001162b4       ??0charNode@@QEAA@D@Z      00000001801172b4 f i libvcruntime:undname.obj
 0001:001162cc       ??0pDNameNode@@QEAA@PEAVDName@@@Z 00000001801172cc f   libvcruntime:undname.obj
 0001:001162fc       ??0pairNode@@QEAA@PEBVDNameNode@@0@Z 00000001801172fc f i libvcruntime:undname.obj
 0001:00116324       ??2@YAPEAX_KAEAV_HeapManager@@H@Z 0000000180117324 f   libvcruntime:undname.obj
 0001:00116358       ??4DName@@QEAAAEAV0@AEBUStringLiteral@@@Z 0000000180117358 f   libvcruntime:undname.obj
 0001:00116388       ??4DName@@QEAAAEAV0@AEBV0@@Z 0000000180117388 f   libvcruntime:undname.obj
 0001:0011639c       ??4DName@@QEAAAEAV0@D@Z    000000018011739c f i libvcruntime:undname.obj
 0001:001163c4       ??4DName@@QEAAAEAV0@PEAV0@@Z 00000001801173c4 f   libvcruntime:undname.obj
 0001:00116458       ??4DName@@QEAAAEAV0@W4DNameStatus@@@Z 0000000180117458 f   libvcruntime:undname.obj
 0001:00116480       ??AReplicator@@QEBA?AVDName@@H@Z 0000000180117480 f   libvcruntime:undname.obj
 0001:001164d0       ??B?$optional@_K@std@@QEBA_NXZ 00000001801174d0 f i libvcruntime:undname.obj
 0001:001164d4       ??D?$_Optional_construct_base@_K@std@@QEGAAAEA_KXZ 00000001801174d4 f i libvcruntime:undname.obj
 0001:001164d8       ??H@YA?AVDName@@AEBUStringLiteral@@AEBV0@@Z 00000001801174d8 f i libvcruntime:undname.obj
 0001:0011651c       ??H@YA?AVDName@@DAEBV0@@Z  000000018011751c f i libvcruntime:undname.obj
 0001:00116570       ??H@YA?AVDName@@W4DNameStatus@@AEBV0@@Z 0000000180117570 f i libvcruntime:undname.obj
 0001:001165b4       ??HDName@@QEBA?AV0@AEBUStringLiteral@@@Z 00000001801175b4 f   libvcruntime:undname.obj
 0001:001165e8       ??HDName@@QEBA?AV0@AEBV0@@Z 00000001801175e8 f   libvcruntime:undname.obj
 0001:0011661c       ??HDName@@QEBA?AV0@D@Z     000000018011761c f   libvcruntime:undname.obj
 0001:00116650       ??HDName@@QEBA?AV0@PEAV0@@Z 0000000180117650 f   libvcruntime:undname.obj
 0001:00116684       ??HDName@@QEBA?AV0@W4DNameStatus@@@Z 0000000180117684 f   libvcruntime:undname.obj
 0001:001166b8       ??HStringLiteral@@QEBA?AU0@H@Z 00000001801176b8 f i libvcruntime:undname.obj
 0001:001166d4       ??YDName@@QEAAAEAV0@AEBUStringLiteral@@@Z 00000001801176d4 f   libvcruntime:undname.obj
 0001:00116774       ??YDName@@QEAAAEAV0@AEBV0@@Z 0000000180117774 f   libvcruntime:undname.obj
 0001:00116854       ??YDName@@QEAAAEAV0@D@Z    0000000180117854 f   libvcruntime:undname.obj
 0001:001168dc       ??YDName@@QEAAAEAV0@PEAV0@@Z 00000001801178dc f   libvcruntime:undname.obj
 0001:00116994       ??YDName@@QEAAAEAV0@W4DNameStatus@@@Z 0000000180117994 f   libvcruntime:undname.obj
 0001:00116a1c       ??YReplicator@@QEAAAEAV0@AEBVDName@@@Z 0000000180117a1c f   libvcruntime:undname.obj
 0001:00116a8c       ??_5DName@@QEAAAEAV0@AEBV0@@Z 0000000180117a8c f   libvcruntime:undname.obj
 0001:00116aac       ??__K_l@@YA?AUStringLiteral@@PEBD_K@Z 0000000180117aac f i libvcruntime:undname.obj
 0001:00116abc       ?Constructor@_HeapManager@@QEAAXP6APEAX_K@ZP6AXPEAX@Z@Z 0000000180117abc f i libvcruntime:undname.obj
 0001:00116ad8       ?Destructor@_HeapManager@@QEAAXXZ 0000000180117ad8 f i libvcruntime:undname.obj
 0001:00116b34       ?UScore@UnDecorator@@SA?AUStringLiteral@@W4Tokens@@@Z 0000000180117b34 f   libvcruntime:undname.obj
 0001:00116b94       ?composeDeclaration@UnDecorator@@CA?AVDName@@AEBV2@@Z 0000000180117b94 f i libvcruntime:undname.obj
 0001:00117f48       ?doAccessSpecifiers@UnDecorator@@SAHXZ 0000000180118f48 f i libvcruntime:undname.obj
 0001:00117f5c       ?doAllocationLanguage@UnDecorator@@SAHXZ 0000000180118f5c f i libvcruntime:undname.obj
 0001:00117f70       ?doAllocationModel@UnDecorator@@SAHXZ 0000000180118f70 f i libvcruntime:undname.obj
 0001:00117f84       ?doEcsu@UnDecorator@@SAHXZ 0000000180118f84 f i libvcruntime:undname.obj
 0001:00117f98       ?doEllipsis@UnDecorator@@SAHXZ 0000000180118f98 f i libvcruntime:undname.obj
 0001:00117fac       ?doFunctionReturns@UnDecorator@@SAHXZ 0000000180118fac f i libvcruntime:undname.obj
 0001:00117fc0       ?doMSKeywords@UnDecorator@@SAHXZ 0000000180118fc0 f i libvcruntime:undname.obj
 0001:00117fd4       ?doMemberTypes@UnDecorator@@SAHXZ 0000000180118fd4 f i libvcruntime:undname.obj
 0001:00117fe8       ?doNameOnly@UnDecorator@@SAHXZ 0000000180118fe8 f i libvcruntime:undname.obj
 0001:00117ff8       ?doNoIdentCharCheck@UnDecorator@@SAHXZ 0000000180118ff8 f i libvcruntime:undname.obj
 0001:00118008       ?doPchar@DName@@AEAAXD@Z   0000000180119008 f   libvcruntime:undname.obj
 0001:0011806c       ?doPtr64@UnDecorator@@SAHXZ 000000018011906c f i libvcruntime:undname.obj
 0001:00118080       ?doRestrictionSpec@UnDecorator@@SAHXZ 0000000180119080 f i libvcruntime:undname.obj
 0001:00118094       ?doThisTypes@UnDecorator@@SAHXZ 0000000180119094 f i libvcruntime:undname.obj
 0001:001180ac       ?doThrowTypes@UnDecorator@@SAHXZ 00000001801190ac f i libvcruntime:undname.obj
 0001:001180c0       ?doTypeOnly@UnDecorator@@SAHXZ 00000001801190c0 f i libvcruntime:undname.obj
 0001:001180d0       ?doUnderScore@UnDecorator@@SAHXZ 00000001801190d0 f i libvcruntime:undname.obj
 0001:001180e0       ?getAddressOf@UnDecorator@@CA?AVDName@@XZ 00000001801190e0 f   libvcruntime:undname.obj
 0001:00118194       ?getArgumentList@UnDecorator@@CA?AVDName@@XZ 0000000180119194 f   libvcruntime:undname.obj
 0001:0011838c       ?getArgumentTypes@UnDecorator@@CA?AVDName@@XZ 000000018011938c f   libvcruntime:undname.obj
 0001:0011852c       ?getArrayAccess@UnDecorator@@CA?AVDName@@XZ 000000018011952c f   libvcruntime:undname.obj
 0001:001185ec       ?getArrayObject@UnDecorator@@CA?AVDName@@XZ 00000001801195ec f   libvcruntime:undname.obj
 0001:001186f0       ?getArrayType@UnDecorator@@CA?AVDName@@AEBV2@@Z 00000001801196f0 f i libvcruntime:undname.obj
 0001:001189e4       ?getBasedType@UnDecorator@@CA?AVDName@@XZ 00000001801199e4 f   libvcruntime:undname.obj
 0001:00118b18       ?getBasicDataType@UnDecorator@@CA?AVDName@@AEBV2@@Z 0000000180119b18 f   libvcruntime:undname.obj
 0001:0011929c       ?getCHPEName@UnDecorator@@QEAAPEADPEADH@Z 000000018011a29c f i libvcruntime:undname.obj
 0001:00119400       ?getCallIndex@UnDecorator@@CA?AVDName@@XZ 000000018011a400 f i libvcruntime:undname.obj
 0001:00119420       ?getCallingConvention@UnDecorator@@CA?AVDName@@XZ 000000018011a420 f   libvcruntime:undname.obj
 0001:00119588       ?getDataIndirectType@UnDecorator@@CA?AVDName@@AEBV2@W4IndirectionKind@@0H@Z 000000018011a588 f   libvcruntime:undname.obj
 0001:0011a2e8       ?getDataIndirectType@UnDecorator@@CA?AVDName@@XZ 000000018011b2e8 f i libvcruntime:undname.obj
 0001:0011a330       ?getDataType@UnDecorator@@CA?AVDName@@PEAV2@@Z 000000018011b330 f   libvcruntime:undname.obj
 0001:0011a488       ?getDecoratedName@UnDecorator@@CA?AVDName@@XZ 000000018011b488 f   libvcruntime:undname.obj
 0001:0011a828       ?getDimension@UnDecorator@@CA?AVDName@@_N@Z 000000018011b828 f   libvcruntime:undname.obj
 0001:0011a9c4       ?getDispatchTarget@UnDecorator@@CA?AVDName@@XZ 000000018011b9c4 f   libvcruntime:undname.obj
 0001:0011aa38       ?getDisplacement@UnDecorator@@CA?AVDName@@XZ 000000018011ba38 f i libvcruntime:undname.obj
 0001:0011aa58       ?getECSUDataType@UnDecorator@@CA?AVDName@@XZ 000000018011ba58 f   libvcruntime:undname.obj
 0001:0011acd0       ?getECSUName@UnDecorator@@CA?AVDName@@XZ 000000018011bcd0 f i libvcruntime:undname.obj
 0001:0011acec       ?getEnumType@UnDecorator@@CA?AVDName@@XZ 000000018011bcec f i libvcruntime:undname.obj
 0001:0011ae5c       ?getExtendedDataIndirectType@UnDecorator@@CA?AVDName@@AEAW4IndirectionKind@@AEA_NH@Z 000000018011be5c f   libvcruntime:undname.obj
 0001:0011b168       ?getExternalDataType@UnDecorator@@CA?AVDName@@AEBV2@@Z 000000018011c168 f i libvcruntime:undname.obj
 0001:0011b258       ?getFloatingPoint@UnDecorator@@CA?AVDName@@H@Z 000000018011c258 f   libvcruntime:undname.obj
 0001:0011b418       ?getFunctionIndirectType@UnDecorator@@CA?AVDName@@AEBV2@@Z 000000018011c418 f   libvcruntime:undname.obj
 0001:0011ba9c       ?getGuardNumber@UnDecorator@@CA?AVDName@@XZ 000000018011ca9c f i libvcruntime:undname.obj
 0001:0011babc       ?getLastChar@DName@@QEBADXZ 000000018011cabc f i libvcruntime:undname.obj
 0001:0011badc       ?getLastChar@DNameStatusNode@@UEBADXZ 000000018011cadc f i libvcruntime:undname.obj
 0001:0011baec       ?getLastChar@charNode@@UEBADXZ 000000018011caec f i libvcruntime:undname.obj
 0001:0011baf0       ?getLastChar@pDNameNode@@UEBADXZ 000000018011caf0 f i libvcruntime:undname.obj
 0001:0011bb24       ?getLastChar@pairNode@@UEBADXZ 000000018011cb24 f i libvcruntime:undname.obj
 0001:0011bb68       ?getLastChar@pcharNode@@UEBADXZ 000000018011cb68 f i libvcruntime:undname.obj
 0001:0011bb84       ?getLexicalFrame@UnDecorator@@CA?AVDName@@XZ 000000018011cb84 f i libvcruntime:undname.obj
 0001:0011bc00       ?getMemberAccess@UnDecorator@@CA?AVDName@@XZ 000000018011cc00 f   libvcruntime:undname.obj
 0001:0011bcb8       ?getMemoryWithBuffer@_HeapManager@@QEAAPEAX_K@Z 000000018011ccb8 f   libvcruntime:undname.obj
 0001:0011bd6c       ?getMemoryWithoutBuffer@_HeapManager@@QEAAPEAX_K@Z 000000018011cd6c f   libvcruntime:undname.obj
 0001:0011bd84       ?getNoexcept@UnDecorator@@CA?AVDName@@XZ 000000018011cd84 f   libvcruntime:undname.obj
 0001:0011be00       ?getNumberOfDimensions@UnDecorator@@CAHXZ 000000018011ce00 f   libvcruntime:undname.obj
 0001:0011be70       ?getOperatorName@UnDecorator@@CA?AVDName@@_NPEA_N@Z 000000018011ce70 f i libvcruntime:undname.obj
 0001:0011ca74       ?getPointerToMember@UnDecorator@@CA?AVDName@@XZ 000000018011da74 f   libvcruntime:undname.obj
 0001:0011cba8       ?getPointerType@UnDecorator@@CA?AVDName@@AEBV2@0@Z 000000018011dba8 f i libvcruntime:undname.obj
 0001:0011cbcc       ?getPointerTypeArray@UnDecorator@@CA?AVDName@@AEBV2@0@Z 000000018011dbcc f i libvcruntime:undname.obj
 0001:0011cbec       ?getPrimaryDataType@UnDecorator@@CA?AVDName@@AEBV2@@Z 000000018011dbec f   libvcruntime:undname.obj
 0001:0011cf54       ?getPtrRefDataType@UnDecorator@@CA?AVDName@@AEBV2@H@Z 000000018011df54 f   libvcruntime:undname.obj
 0001:0011d194       ?getPtrRefType@UnDecorator@@CA?AVDName@@AEBV2@0W4IndirectionKind@@@Z 000000018011e194 f   libvcruntime:undname.obj
 0001:0011d3f4       ?getReferenceType@UnDecorator@@CA?AVDName@@AEBV2@0W4IndirectionKind@@@Z 000000018011e3f4 f i libvcruntime:undname.obj
 0001:0011d410       ?getRestrictionSpec@UnDecorator@@CA?AVDName@@XZ 000000018011e410 f   libvcruntime:undname.obj
 0001:0011d660       ?getReturnType@UnDecorator@@CA?AVDName@@PEAV2@@Z 000000018011e660 f   libvcruntime:undname.obj
 0001:0011d6a4       ?getScope@UnDecorator@@CA?AVDName@@XZ 000000018011e6a4 f   libvcruntime:undname.obj
 0001:0011dc88       ?getScopedName@UnDecorator@@CA?AVDName@@XZ 000000018011ec88 f   libvcruntime:undname.obj
 0001:0011de18       ?getSignedDimension@UnDecorator@@CA?AVDName@@XZ 000000018011ee18 f   libvcruntime:undname.obj
 0001:0011dec0       ?getStorageConvention@UnDecorator@@CA?AVDName@@XZ 000000018011eec0 f i libvcruntime:undname.obj
 0001:0011df08       ?getString@DName@@QEBAPEADPEAD0@Z 000000018011ef08 f i libvcruntime:undname.obj
 0001:0011df28       ?getString@DName@@QEBAPEADPEADH@Z 000000018011ef28 f i libvcruntime:undname.obj
 0001:0011dfe0       ?getString@DNameStatusNode@@UEBAPEADPEAD0@Z 000000018011efe0 f i libvcruntime:undname.obj
 0001:0011e038       ?getString@charNode@@UEBAPEADPEAD0@Z 000000018011f038 f i libvcruntime:undname.obj
 0001:0011e050       ?getString@pDNameNode@@UEBAPEADPEAD0@Z 000000018011f050 f i libvcruntime:undname.obj
 0001:0011e088       ?getString@pairNode@@UEBAPEADPEAD0@Z 000000018011f088 f i libvcruntime:undname.obj
 0001:0011e0e8       ?getString@pcharNode@@UEBAPEADPEAD0@Z 000000018011f0e8 f i libvcruntime:undname.obj
 0001:0011e12c       ?getStringEncoding@UnDecorator@@CA?AVDName@@W4PrefixKind@@H@Z 000000018011f12c f   libvcruntime:undname.obj
 0001:0011e27c       ?getStringHelper@@YAPEADPEADPEBD1H@Z 000000018011f27c f i libvcruntime:undname.obj
 0001:0011e2b4       ?getStringObject@UnDecorator@@CA?AVDName@@XZ 000000018011f2b4 f   libvcruntime:undname.obj
 0001:0011e368       ?getSymbolName@UnDecorator@@CA?AVDName@@XZ 000000018011f368 f i libvcruntime:undname.obj
 0001:0011e3c8       ?getTemplateArgumentList@UnDecorator@@CA?AVDName@@XZ 000000018011f3c8 f   libvcruntime:undname.obj
 0001:0011e66c       ?getTemplateName@UnDecorator@@CA?AVDName@@_N@Z 000000018011f66c f   libvcruntime:undname.obj
 0001:0011e9c4       ?getTemplateNonTypeArgument@UnDecorator@@CA?AVDName@@XZ 000000018011f9c4 f   libvcruntime:undname.obj
 0001:0011f068       ?getTemplateTypeArgument@UnDecorator@@CA?AVDName@@XZ 0000000180120068 f   libvcruntime:undname.obj
 0001:0011f22c       ?getThisType@UnDecorator@@CA?AVDName@@XZ 000000018012022c f i libvcruntime:undname.obj
 0001:0011f27c       ?getThrowTypes@UnDecorator@@CA?AVDName@@XZ 000000018012027c f   libvcruntime:undname.obj
 0001:0011f2a8       ?getTypeEncoding@UnDecorator@@CAHXZ 00000001801202a8 f i libvcruntime:undname.obj
 0001:0011f74c       ?getUndecoratedName@UnDecorator@@QEAAPEADPEADH@Z 000000018012074c f i libvcruntime:undname.obj
 0001:0011f904       ?getUnionObject@UnDecorator@@CA?AVDName@@XZ 0000000180120904 f   libvcruntime:undname.obj
 0001:0011fa10       ?getVCallThunkType@UnDecorator@@CA?AVDName@@XZ 0000000180120a10 f i libvcruntime:undname.obj
 0001:0011faa4       ?getValue@UnDecorator@@CA?AV?$optional@_K@std@@XZ 0000000180120aa4 f   libvcruntime:undname.obj
 0001:0011faf8       ?getValueObject@UnDecorator@@CA?AVDName@@XZ 0000000180120af8 f   libvcruntime:undname.obj
 0001:0011fcdc       ?getVbTableType@UnDecorator@@CA?AVDName@@AEBV2@@Z 0000000180120cdc f i libvcruntime:undname.obj
 0001:0011fcf8       ?getVdispMapType@UnDecorator@@CA?AVDName@@AEBV2@@Z 0000000180120cf8 f i libvcruntime:undname.obj
 0001:0011fd94       ?getVfTableType@UnDecorator@@CA?AVDName@@AEBV2@@Z 0000000180120d94 f i libvcruntime:undname.obj
 0001:00120020       ?getZName@UnDecorator@@CA?AVDName@@_N0@Z 0000000180121020 f   libvcruntime:undname.obj
 0001:001203ac       ?get_current_character_and_increment_buffer@UnDecorator@@CADXZ 00000001801213ac f i libvcruntime:undname.obj
 0001:001203cc       ?haveTemplateParameters@UnDecorator@@SAHXZ 00000001801213cc f i libvcruntime:undname.obj
 0001:001203dc       ?increment_buffer@UnDecorator@@CA_N_K@Z 00000001801213dc f i libvcruntime:undname.obj
 0001:00120414       ?increment_buffer_no_check@UnDecorator@@CAXXZ 0000000180121414 f i libvcruntime:undname.obj
 0001:00120420       ?increment_buffer_no_check@UnDecorator@@CAX_K@Z 0000000180121420 f i libvcruntime:undname.obj
 0001:0012042c       ?isArray@DName@@QEBAHXZ    000000018012142c f i libvcruntime:undname.obj
 0001:00120438       ?isComArray@DName@@QEBAHXZ 0000000180121438 f i libvcruntime:undname.obj
 0001:00120444       ?isEmpty@DName@@QEBAHXZ    0000000180121444 f i libvcruntime:undname.obj
 0001:00120450       ?isFull@Replicator@@QEBAHXZ 0000000180121450 f i libvcruntime:undname.obj
 0001:0012045c       ?isNoTE@DName@@QEBAHXZ     000000018012145c f i libvcruntime:undname.obj
 0001:00120468       ?isPinPtr@DName@@QEBAHXZ   0000000180121468 f i libvcruntime:undname.obj
 0001:00120474       ?isPtrRef@DName@@QEBAHXZ   0000000180121474 f i libvcruntime:undname.obj
 0001:00120480       ?isUDC@DName@@QEBAHXZ      0000000180121480 f i libvcruntime:undname.obj
 0001:0012049c       ?isUDTThunk@DName@@QEBAHXZ 000000018012149c f i libvcruntime:undname.obj
 0001:001204b8       ?isVCallThunk@DName@@QEBAHXZ 00000001801214b8 f i libvcruntime:undname.obj
 0001:001204c4       ?isValid@DName@@QEBAHXZ    00000001801214c4 f i libvcruntime:undname.obj
 0001:001204d0       ?length@DName@@QEBAHXZ     00000001801214d0 f i libvcruntime:undname.obj
 0001:001204f0       ?length@DNameStatusNode@@UEBAHXZ 00000001801214f0 f i libvcruntime:undname.obj
 0001:001204f4       ?length@charNode@@UEBAHXZ  00000001801214f4 f i libvcruntime:undname.obj
 0001:001204fc       ?length@pDNameNode@@UEBAHXZ 00000001801214fc f i libvcruntime:undname.obj
 0001:00120530       ?length@pairNode@@UEBAHXZ  0000000180121530 f i libvcruntime:undname.obj
 0001:00120588       ?length@pcharNode@@UEBAHXZ 0000000180121588 f i libvcruntime:undname.obj
 0001:0012058c       ?make@DNameStatusNode@@SAPEBV1@W4DNameStatus@@@Z 000000018012158c f i libvcruntime:undname.obj
 0001:001205b4       ?parseDecoratedName@UnDecorator@@CA?AVDName@@XZ 00000001801215b4 f   libvcruntime:undname.obj
 0001:00120710       ?raw_length@DNameStatusNode@@UEBAHXZ 0000000180121710 f i libvcruntime:undname.obj
 0001:00120714       ?raw_length@charNode@@UEBAHXZ 0000000180121714 f i libvcruntime:undname.obj
 0001:0012071c       ?raw_length@pDNameNode@@UEBAHXZ 000000018012171c f i libvcruntime:undname.obj
 0001:00120720       ?raw_length@pairNode@@UEBAHXZ 0000000180121720 f i libvcruntime:undname.obj
 0001:00120724       ?raw_length@pcharNode@@UEBAHXZ 0000000180121724 f i libvcruntime:undname.obj
 0001:00120728       ?setIsArray@DName@@QEAAXXZ 0000000180121728 f i libvcruntime:undname.obj
 0001:00120730       ?setIsComArray@DName@@QEAAXXZ 0000000180121730 f i libvcruntime:undname.obj
 0001:00120738       ?setIsNoTE@DName@@QEAAXXZ  0000000180121738 f i libvcruntime:undname.obj
 0001:00120740       ?setIsPinPtr@DName@@QEAAXXZ 0000000180121740 f i libvcruntime:undname.obj
 0001:00120748       ?setIsUDC@DName@@QEAAXXZ   0000000180121748 f i libvcruntime:undname.obj
 0001:00120758       ?setIsVCallThunk@DName@@QEAAXXZ 0000000180121758 f i libvcruntime:undname.obj
 0001:00120760       ?setPtrRef@DName@@QEAAAEAV1@XZ 0000000180121760 f i libvcruntime:undname.obj
 0001:0012076c       ?status@DName@@QEBA?AW4DNameStatus@@XZ 000000018012176c f i libvcruntime:undname.obj
 0001:001207e4       __unDName                  00000001801217e4 f   libvcruntime:undname.obj
 0001:00120814       __unDNameEx                0000000180121814 f   libvcruntime:undname.obj
 0001:0012093c       unDNameGenerateCHPE        000000018012193c f   libvcruntime:undname.obj
 0001:00120ad8       ??$__crt_interlocked_exchange_pointer@UHINSTANCE__@@PEAU1@@@YAPEAUHINSTANCE__@@PEDSEAU0@QEAU0@@Z 0000000180121ad8 f i libvcruntime:winapi_downlevel.obj
 0001:00120ae0       ??$__crt_interlocked_exchange_pointer@UHINSTANCE__@@PEAX@@YAPEAUHINSTANCE__@@PEDSEAU0@QEAX@Z 0000000180121ae0 f i libvcruntime:winapi_downlevel.obj
 0001:00120ae8       ??$__crt_interlocked_exchange_pointer@XPEAX@@YAPEAXPEDSEAXQEAX@Z 0000000180121ae8 f i libvcruntime:winapi_downlevel.obj
 0001:00120af0       ??$__crt_interlocked_read_pointer@UHINSTANCE__@@@@YAPEAUHINSTANCE__@@PEDSEAU0@@Z 0000000180121af0 f i libvcruntime:winapi_downlevel.obj
 0001:00120af8       ??$__crt_interlocked_read_pointer@X@@YAPEAXPEDSEAX@Z 0000000180121af8 f i libvcruntime:winapi_downlevel.obj
 0001:00121180       __vcrt_FlsAlloc            0000000180122180 f   libvcruntime:winapi_downlevel.obj
 0001:001211d8       __vcrt_FlsFree             00000001801221d8 f   libvcruntime:winapi_downlevel.obj
 0001:00121230       __vcrt_FlsGetValue         0000000180122230 f   libvcruntime:winapi_downlevel.obj
 0001:00121288       __vcrt_FlsSetValue         0000000180122288 f   libvcruntime:winapi_downlevel.obj
 0001:001212f0       __vcrt_InitializeCriticalSectionEx 00000001801222f0 f   libvcruntime:winapi_downlevel.obj
 0001:001213c0       _CallSettingFrame          00000001801223c0 f   libvcruntime:handlers.obj
 0001:00121410       _CallSettingFrame_LookupContinuationIndex 0000000180122410 f   libvcruntime:handlers.obj
 0001:00121450       _CallSettingFrame_NotifyContinuationAddr 0000000180122450 f   libvcruntime:handlers.obj
 0001:00121480       _CallSettingFrameEncoded   0000000180122480 f   libvcruntime:handlers.obj
 0001:001214d8       free                       00000001801224d8 f   libucrt:free.obj
 0001:00121768       __acrt_locale_changed      0000000180122768 f i libucrt:_ctype.obj
 0001:00121778       __acrt_locale_get_ctype_array_value 0000000180122778 f i libucrt:_ctype.obj
 0001:001217a0       __isascii                  00000001801227a0 f   libucrt:_ctype.obj
 0001:001217b0       __iscsym                   00000001801227b0 f   libucrt:_ctype.obj
 0001:00121850       __iscsymf                  0000000180122850 f   libucrt:_ctype.obj
 0001:00121930       __toascii                  0000000180122930 f   libucrt:_ctype.obj
 0001:00121940       _isalnum_l                 0000000180122940 f   libucrt:_ctype.obj
 0001:00121a80       _isalpha_l                 0000000180122a80 f   libucrt:_ctype.obj
 0001:00121bc0       _isblank_l                 0000000180122bc0 f   libucrt:_ctype.obj
 0001:00121cf0       _iscntrl_l                 0000000180122cf0 f   libucrt:_ctype.obj
 0001:00121e20       _iscsym_l                  0000000180122e20 f   libucrt:_ctype.obj
 0001:00121f30       _iscsymf_l                 0000000180122f30 f   libucrt:_ctype.obj
 0001:00122040       _isdigit_l                 0000000180123040 f   libucrt:_ctype.obj
 0001:00122170       _isgraph_l                 0000000180123170 f   libucrt:_ctype.obj
 0001:001222b0       _islower_l                 00000001801232b0 f   libucrt:_ctype.obj
 0001:001223e0       _isprint_l                 00000001801233e0 f   libucrt:_ctype.obj
 0001:00122520       _ispunct_l                 0000000180123520 f   libucrt:_ctype.obj
 0001:00122650       _isspace_l                 0000000180123650 f   libucrt:_ctype.obj
 0001:00122780       _isupper_l                 0000000180123780 f   libucrt:_ctype.obj
 0001:001228b0       _isxdigit_l                00000001801238b0 f   libucrt:_ctype.obj
 0001:001229f0       isalnum                    00000001801239f0 f   libucrt:_ctype.obj
 0001:00122ad0       isalpha                    0000000180123ad0 f   libucrt:_ctype.obj
 0001:00122bb0       isblank                    0000000180123bb0 f   libucrt:_ctype.obj
 0001:00122ca0       iscntrl                    0000000180123ca0 f   libucrt:_ctype.obj
 0001:00122d70       isdigit                    0000000180123d70 f   libucrt:_ctype.obj
 0001:00122e40       isgraph                    0000000180123e40 f   libucrt:_ctype.obj
 0001:00122f20       islower                    0000000180123f20 f   libucrt:_ctype.obj
 0001:00122ff0       isprint                    0000000180123ff0 f   libucrt:_ctype.obj
 0001:001230d0       ispunct                    00000001801240d0 f   libucrt:_ctype.obj
 0001:001231a0       isspace                    00000001801241a0 f   libucrt:_ctype.obj
 0001:00123270       isupper                    0000000180124270 f   libucrt:_ctype.obj
 0001:00123340       isxdigit                   0000000180124340 f   libucrt:_ctype.obj
 0001:00123430       strlen                     0000000180124430 f   libucrt:strlen.obj
 0001:00123508       ??$?0AEBV?$stream_output_adapter@D@__crt_stdio_output@@AEB_KAEBQEBDAEAV__crt_cached_ptd_host@@AEBQEAD@?$format_validation_base@DV?$stream_output_adapter@D@__crt_stdio_output@@@__crt_stdio_output@@IEAA@AEBV?$stream_output_adapter@D@1@AEB_KAEBQEBDAEAV__crt_cached_ptd_host@@AEBQEAD@Z 0000000180124508 f i libucrt:output.obj
 0001:00123594       ??$?0AEBV?$stream_output_adapter@D@__crt_stdio_output@@AEB_KAEBQEBDAEAV__crt_cached_ptd_host@@AEBQEAD@?$positional_parameter_base@DV?$stream_output_adapter@D@__crt_stdio_output@@@__crt_stdio_output@@IEAA@AEBV?$stream_output_adapter@D@1@AEB_KAEBQEBDAEAV__crt_cached_ptd_host@@AEBQEAD@Z 0000000180124594 f i libucrt:output.obj
 0001:00123644       ??$?0AEBV?$stream_output_adapter@D@__crt_stdio_output@@AEB_KAEBQEBDAEAV__crt_cached_ptd_host@@AEBQEAD@?$standard_base@DV?$stream_output_adapter@D@__crt_stdio_output@@@__crt_stdio_output@@IEAA@AEBV?$stream_output_adapter@D@1@AEB_KAEBQEBDAEAV__crt_cached_ptd_host@@AEBQEAD@Z 0000000180124644 f i libucrt:output.obj
 0001:001236d0       ??$?0AEBV?$stream_output_adapter@_W@__crt_stdio_output@@AEB_KAEBQEB_WAEAV__crt_cached_ptd_host@@AEBQEAD@?$format_validation_base@_WV?$stream_output_adapter@_W@__crt_stdio_output@@@__crt_stdio_output@@IEAA@AEBV?$stream_output_adapter@_W@1@AEB_KAEBQEB_WAEAV__crt_cached_ptd_host@@AEBQEAD@Z 00000001801246d0 f i libucrt:output.obj
 0001:00123764       ??$?0AEBV?$stream_output_adapter@_W@__crt_stdio_output@@AEB_KAEBQEB_WAEAV__crt_cached_ptd_host@@AEBQEAD@?$positional_parameter_base@_WV?$stream_output_adapter@_W@__crt_stdio_output@@@__crt_stdio_output@@IEAA@AEBV?$stream_output_adapter@_W@1@AEB_KAEBQEB_WAEAV__crt_cached_ptd_host@@AEBQEAD@Z 0000000180124764 f i libucrt:output.obj
 0001:0012381c       ??$?0AEBV?$stream_output_adapter@_W@__crt_stdio_output@@AEB_KAEBQEB_WAEAV__crt_cached_ptd_host@@AEBQEAD@?$standard_base@_WV?$stream_output_adapter@_W@__crt_stdio_output@@@__crt_stdio_output@@IEAA@AEBV?$stream_output_adapter@_W@1@AEB_KAEBQEB_WAEAV__crt_cached_ptd_host@@AEBQEAD@Z 000000018012481c f i libucrt:output.obj
 0001:001238b0       ??$?0AEBV?$string_output_adapter@D@__crt_stdio_output@@AEB_KAEBQEBDAEAV__crt_cached_ptd_host@@AEBQEAD@?$format_validation_base@DV?$string_output_adapter@D@__crt_stdio_output@@@__crt_stdio_output@@IEAA@AEBV?$string_output_adapter@D@1@AEB_KAEBQEBDAEAV__crt_cached_ptd_host@@AEBQEAD@Z 00000001801248b0 f i libucrt:output.obj
 0001:0012393c       ??$?0AEBV?$string_output_adapter@D@__crt_stdio_output@@AEB_KAEBQEBDAEAV__crt_cached_ptd_host@@AEBQEAD@?$positional_parameter_base@DV?$string_output_adapter@D@__crt_stdio_output@@@__crt_stdio_output@@IEAA@AEBV?$string_output_adapter@D@1@AEB_KAEBQEBDAEAV__crt_cached_ptd_host@@AEBQEAD@Z 000000018012493c f i libucrt:output.obj
 0001:001239ec       ??$?0AEBV?$string_output_adapter@D@__crt_stdio_output@@AEB_KAEBQEBDAEAV__crt_cached_ptd_host@@AEBQEAD@?$standard_base@DV?$string_output_adapter@D@__crt_stdio_output@@@__crt_stdio_output@@IEAA@AEBV?$string_output_adapter@D@1@AEB_KAEBQEBDAEAV__crt_cached_ptd_host@@AEBQEAD@Z 00000001801249ec f i libucrt:output.obj
 0001:00123a78       ??$?0AEBV?$string_output_adapter@_W@__crt_stdio_output@@AEB_KAEBQEB_WAEAV__crt_cached_ptd_host@@AEBQEAD@?$format_validation_base@_WV?$string_output_adapter@_W@__crt_stdio_output@@@__crt_stdio_output@@IEAA@AEBV?$string_output_adapter@_W@1@AEB_KAEBQEB_WAEAV__crt_cached_ptd_host@@AEBQEAD@Z 0000000180124a78 f i libucrt:output.obj
 0001:00123b0c       ??$?0AEBV?$string_output_adapter@_W@__crt_stdio_output@@AEB_KAEBQEB_WAEAV__crt_cached_ptd_host@@AEBQEAD@?$positional_parameter_base@_WV?$string_output_adapter@_W@__crt_stdio_output@@@__crt_stdio_output@@IEAA@AEBV?$string_output_adapter@_W@1@AEB_KAEBQEB_WAEAV__crt_cached_ptd_host@@AEBQEAD@Z 0000000180124b0c f i libucrt:output.obj
 0001:00123bc4       ??$?0AEBV?$string_output_adapter@_W@__crt_stdio_output@@AEB_KAEBQEB_WAEAV__crt_cached_ptd_host@@AEBQEAD@?$standard_base@_WV?$string_output_adapter@_W@__crt_stdio_output@@@__crt_stdio_output@@IEAA@AEBV?$string_output_adapter@_W@1@AEB_KAEBQEB_WAEAV__crt_cached_ptd_host@@AEBQEAD@Z 0000000180124bc4 f i libucrt:output.obj
 0001:00123f58       ??$__crt_interlocked_read@J@@YAJPEDJ@Z 0000000180124f58 f i libucrt:output.obj
 0001:00123f5c       ??$_tcstol_internal@DPEAPEAD$0A@@@YAJAEAV__crt_cached_ptd_host@@QEBDQEAPEADH@Z 0000000180124f5c f i libucrt:output.obj
 0001:00123f98       ??$_tcstol_internal@_WPEAPEA_W$0A@@@YAJAEAV__crt_cached_ptd_host@@QEB_WQEAPEA_WH@Z 0000000180124f98 f i libucrt:output.obj
 0001:00125534       ??$count@D@formatting_buffer@__crt_stdio_output@@QEBA_KXZ 0000000180126534 f i libucrt:output.obj
 0001:00125558       ??$count@_W@formatting_buffer@__crt_stdio_output@@QEBA_KXZ 0000000180126558 f i libucrt:output.obj
 0001:0012557c       ??$data@D@formatting_buffer@__crt_stdio_output@@QEAAPEADXZ 000000018012657c f i libucrt:output.obj
 0001:00125590       ??$data@_W@formatting_buffer@__crt_stdio_output@@QEAAPEA_WXZ 0000000180126590 f i libucrt:output.obj
 0001:001255a4       ??$ensure_buffer_is_big_enough@D@formatting_buffer@__crt_stdio_output@@QEAA_N_KAEAV__crt_cached_ptd_host@@@Z 00000001801265a4 f i libucrt:output.obj
 0001:00125678       ??$ensure_buffer_is_big_enough@_W@formatting_buffer@__crt_stdio_output@@QEAA_N_KAEAV__crt_cached_ptd_host@@@Z 0000000180126678 f i libucrt:output.obj
 0001:00125750       ??$extract_argument_from_va_list@C_J@?$positional_parameter_base@DV?$stream_output_adapter@D@__crt_stdio_output@@@__crt_stdio_output@@IEAA_NAEA_J@Z 0000000180126750 f i libucrt:output.obj
 0001:0012589c       ??$extract_argument_from_va_list@C_J@?$positional_parameter_base@DV?$string_output_adapter@D@__crt_stdio_output@@@__crt_stdio_output@@IEAA_NAEA_J@Z 000000018012689c f i libucrt:output.obj
 0001:001259e8       ??$extract_argument_from_va_list@C_J@?$positional_parameter_base@_WV?$stream_output_adapter@_W@__crt_stdio_output@@@__crt_stdio_output@@IEAA_NAEA_J@Z 00000001801269e8 f i libucrt:output.obj
 0001:00125b38       ??$extract_argument_from_va_list@C_J@?$positional_parameter_base@_WV?$string_output_adapter@_W@__crt_stdio_output@@@__crt_stdio_output@@IEAA_NAEA_J@Z 0000000180126b38 f i libucrt:output.obj
 0001:00125c88       ??$extract_argument_from_va_list@C_J@?$standard_base@DV?$stream_output_adapter@D@__crt_stdio_output@@@__crt_stdio_output@@IEAA_NAEA_J@Z 0000000180126c88 f i libucrt:output.obj
 0001:00125ca4       ??$extract_argument_from_va_list@C_J@?$standard_base@DV?$string_output_adapter@D@__crt_stdio_output@@@__crt_stdio_output@@IEAA_NAEA_J@Z 0000000180126ca4 f i libucrt:output.obj
 0001:00125cc0       ??$extract_argument_from_va_list@C_J@?$standard_base@_WV?$stream_output_adapter@_W@__crt_stdio_output@@@__crt_stdio_output@@IEAA_NAEA_J@Z 0000000180126cc0 f i libucrt:output.obj
 0001:00125cdc       ??$extract_argument_from_va_list@C_J@?$standard_base@_WV?$string_output_adapter@_W@__crt_stdio_output@@@__crt_stdio_output@@IEAA_NAEA_J@Z 0000000180126cdc f i libucrt:output.obj
 0001:00125cf8       ??$extract_argument_from_va_list@E_J@?$positional_parameter_base@DV?$stream_output_adapter@D@__crt_stdio_output@@@__crt_stdio_output@@IEAA_NAEA_J@Z 0000000180126cf8 f i libucrt:output.obj
 0001:00125e44       ??$extract_argument_from_va_list@E_J@?$positional_parameter_base@DV?$string_output_adapter@D@__crt_stdio_output@@@__crt_stdio_output@@IEAA_NAEA_J@Z 0000000180126e44 f i libucrt:output.obj
 0001:00125f90       ??$extract_argument_from_va_list@E_J@?$positional_parameter_base@_WV?$stream_output_adapter@_W@__crt_stdio_output@@@__crt_stdio_output@@IEAA_NAEA_J@Z 0000000180126f90 f i libucrt:output.obj
 0001:001260dc       ??$extract_argument_from_va_list@E_J@?$positional_parameter_base@_WV?$string_output_adapter@_W@__crt_stdio_output@@@__crt_stdio_output@@IEAA_NAEA_J@Z 00000001801270dc f i libucrt:output.obj
 0001:00126228       ??$extract_argument_from_va_list@E_J@?$standard_base@DV?$stream_output_adapter@D@__crt_stdio_output@@@__crt_stdio_output@@IEAA_NAEA_J@Z 0000000180127228 f i libucrt:output.obj
 0001:00126244       ??$extract_argument_from_va_list@E_J@?$standard_base@DV?$string_output_adapter@D@__crt_stdio_output@@@__crt_stdio_output@@IEAA_NAEA_J@Z 0000000180127244 f i libucrt:output.obj
 0001:00126260       ??$extract_argument_from_va_list@E_J@?$standard_base@_WV?$stream_output_adapter@_W@__crt_stdio_output@@@__crt_stdio_output@@IEAA_NAEA_J@Z 0000000180127260 f i libucrt:output.obj
 0001:0012627c       ??$extract_argument_from_va_list@E_J@?$standard_base@_WV?$string_output_adapter@_W@__crt_stdio_output@@@__crt_stdio_output@@IEAA_NAEA_J@Z 000000018012727c f i libucrt:output.obj
 0001:00126298       ??$extract_argument_from_va_list@F_J@?$positional_parameter_base@DV?$stream_output_adapter@D@__crt_stdio_output@@@__crt_stdio_output@@IEAA_NAEA_J@Z 0000000180127298 f i libucrt:output.obj
 0001:001263e4       ??$extract_argument_from_va_list@F_J@?$positional_parameter_base@DV?$string_output_adapter@D@__crt_stdio_output@@@__crt_stdio_output@@IEAA_NAEA_J@Z 00000001801273e4 f i libucrt:output.obj
 0001:00126530       ??$extract_argument_from_va_list@F_J@?$positional_parameter_base@_WV?$stream_output_adapter@_W@__crt_stdio_output@@@__crt_stdio_output@@IEAA_NAEA_J@Z 0000000180127530 f i libucrt:output.obj
 0001:00126680       ??$extract_argument_from_va_list@F_J@?$positional_parameter_base@_WV?$string_output_adapter@_W@__crt_stdio_output@@@__crt_stdio_output@@IEAA_NAEA_J@Z 0000000180127680 f i libucrt:output.obj
 0001:001267d0       ??$extract_argument_from_va_list@F_J@?$standard_base@DV?$stream_output_adapter@D@__crt_stdio_output@@@__crt_stdio_output@@IEAA_NAEA_J@Z 00000001801277d0 f i libucrt:output.obj
 0001:001267ec       ??$extract_argument_from_va_list@F_J@?$standard_base@DV?$string_output_adapter@D@__crt_stdio_output@@@__crt_stdio_output@@IEAA_NAEA_J@Z 00000001801277ec f i libucrt:output.obj
 0001:00126808       ??$extract_argument_from_va_list@F_J@?$standard_base@_WV?$stream_output_adapter@_W@__crt_stdio_output@@@__crt_stdio_output@@IEAA_NAEA_J@Z 0000000180127808 f i libucrt:output.obj
 0001:00126824       ??$extract_argument_from_va_list@F_J@?$standard_base@_WV?$string_output_adapter@_W@__crt_stdio_output@@@__crt_stdio_output@@IEAA_NAEA_J@Z 0000000180127824 f i libucrt:output.obj
 0001:00126840       ??$extract_argument_from_va_list@GD@?$positional_parameter_base@DV?$stream_output_adapter@D@__crt_stdio_output@@@__crt_stdio_output@@IEAA_NAEAD@Z 0000000180127840 f i libucrt:output.obj
 0001:00126988       ??$extract_argument_from_va_list@GD@?$positional_parameter_base@DV?$string_output_adapter@D@__crt_stdio_output@@@__crt_stdio_output@@IEAA_NAEAD@Z 0000000180127988 f i libucrt:output.obj
 0001:00126ad0       ??$extract_argument_from_va_list@GD@?$standard_base@DV?$stream_output_adapter@D@__crt_stdio_output@@@__crt_stdio_output@@IEAA_NAEAD@Z 0000000180127ad0 f i libucrt:output.obj
 0001:00126aec       ??$extract_argument_from_va_list@GD@?$standard_base@DV?$string_output_adapter@D@__crt_stdio_output@@@__crt_stdio_output@@IEAA_NAEAD@Z 0000000180127aec f i libucrt:output.obj
 0001:00126b08       ??$extract_argument_from_va_list@G_J@?$positional_parameter_base@DV?$stream_output_adapter@D@__crt_stdio_output@@@__crt_stdio_output@@IEAA_NAEA_J@Z 0000000180127b08 f i libucrt:output.obj
 0001:00126c54       ??$extract_argument_from_va_list@G_J@?$positional_parameter_base@DV?$string_output_adapter@D@__crt_stdio_output@@@__crt_stdio_output@@IEAA_NAEA_J@Z 0000000180127c54 f i libucrt:output.obj
 0001:00126da0       ??$extract_argument_from_va_list@G_J@?$positional_parameter_base@_WV?$stream_output_adapter@_W@__crt_stdio_output@@@__crt_stdio_output@@IEAA_NAEA_J@Z 0000000180127da0 f i libucrt:output.obj
 0001:00126eec       ??$extract_argument_from_va_list@G_J@?$positional_parameter_base@_WV?$string_output_adapter@_W@__crt_stdio_output@@@__crt_stdio_output@@IEAA_NAEA_J@Z 0000000180127eec f i libucrt:output.obj
 0001:00127038       ??$extract_argument_from_va_list@G_J@?$standard_base@DV?$stream_output_adapter@D@__crt_stdio_output@@@__crt_stdio_output@@IEAA_NAEA_J@Z 0000000180128038 f i libucrt:output.obj
 0001:00127054       ??$extract_argument_from_va_list@G_J@?$standard_base@DV?$string_output_adapter@D@__crt_stdio_output@@@__crt_stdio_output@@IEAA_NAEA_J@Z 0000000180128054 f i libucrt:output.obj
 0001:00127070       ??$extract_argument_from_va_list@G_J@?$standard_base@_WV?$stream_output_adapter@_W@__crt_stdio_output@@@__crt_stdio_output@@IEAA_NAEA_J@Z 0000000180128070 f i libucrt:output.obj
 0001:0012708c       ??$extract_argument_from_va_list@G_J@?$standard_base@_WV?$string_output_adapter@_W@__crt_stdio_output@@@__crt_stdio_output@@IEAA_NAEA_J@Z 000000018012808c f i libucrt:output.obj
 0001:001270a8       ??$extract_argument_from_va_list@H_J@?$positional_parameter_base@DV?$stream_output_adapter@D@__crt_stdio_output@@@__crt_stdio_output@@IEAA_NAEA_J@Z 00000001801280a8 f i libucrt:output.obj
 0001:001271f0       ??$extract_argument_from_va_list@H_J@?$positional_parameter_base@DV?$string_output_adapter@D@__crt_stdio_output@@@__crt_stdio_output@@IEAA_NAEA_J@Z 00000001801281f0 f i libucrt:output.obj
 0001:00127338       ??$extract_argument_from_va_list@H_J@?$positional_parameter_base@_WV?$stream_output_adapter@_W@__crt_stdio_output@@@__crt_stdio_output@@IEAA_NAEA_J@Z 0000000180128338 f i libucrt:output.obj
 0001:00127484       ??$extract_argument_from_va_list@H_J@?$positional_parameter_base@_WV?$string_output_adapter@_W@__crt_stdio_output@@@__crt_stdio_output@@IEAA_NAEA_J@Z 0000000180128484 f i libucrt:output.obj
 0001:001275d0       ??$extract_argument_from_va_list@H_J@?$standard_base@DV?$stream_output_adapter@D@__crt_stdio_output@@@__crt_stdio_output@@IEAA_NAEA_J@Z 00000001801285d0 f i libucrt:output.obj
 0001:001275ec       ??$extract_argument_from_va_list@H_J@?$standard_base@DV?$string_output_adapter@D@__crt_stdio_output@@@__crt_stdio_output@@IEAA_NAEA_J@Z 00000001801285ec f i libucrt:output.obj
 0001:00127608       ??$extract_argument_from_va_list@H_J@?$standard_base@_WV?$stream_output_adapter@_W@__crt_stdio_output@@@__crt_stdio_output@@IEAA_NAEA_J@Z 0000000180128608 f i libucrt:output.obj
 0001:00127624       ??$extract_argument_from_va_list@H_J@?$standard_base@_WV?$string_output_adapter@_W@__crt_stdio_output@@@__crt_stdio_output@@IEAA_NAEA_J@Z 0000000180128624 f i libucrt:output.obj
 0001:00127640       ??$extract_argument_from_va_list@I_J@?$positional_parameter_base@DV?$stream_output_adapter@D@__crt_stdio_output@@@__crt_stdio_output@@IEAA_NAEA_J@Z 0000000180128640 f i libucrt:output.obj
 0001:00127788       ??$extract_argument_from_va_list@I_J@?$positional_parameter_base@DV?$string_output_adapter@D@__crt_stdio_output@@@__crt_stdio_output@@IEAA_NAEA_J@Z 0000000180128788 f i libucrt:output.obj
 0001:001278d0       ??$extract_argument_from_va_list@I_J@?$positional_parameter_base@_WV?$stream_output_adapter@_W@__crt_stdio_output@@@__crt_stdio_output@@IEAA_NAEA_J@Z 00000001801288d0 f i libucrt:output.obj
 0001:00127a1c       ??$extract_argument_from_va_list@I_J@?$positional_parameter_base@_WV?$string_output_adapter@_W@__crt_stdio_output@@@__crt_stdio_output@@IEAA_NAEA_J@Z 0000000180128a1c f i libucrt:output.obj
 0001:00127b68       ??$extract_argument_from_va_list@I_J@?$standard_base@DV?$stream_output_adapter@D@__crt_stdio_output@@@__crt_stdio_output@@IEAA_NAEA_J@Z 0000000180128b68 f i libucrt:output.obj
 0001:00127b84       ??$extract_argument_from_va_list@I_J@?$standard_base@DV?$string_output_adapter@D@__crt_stdio_output@@@__crt_stdio_output@@IEAA_NAEA_J@Z 0000000180128b84 f i libucrt:output.obj
 0001:00127ba0       ??$extract_argument_from_va_list@I_J@?$standard_base@_WV?$stream_output_adapter@_W@__crt_stdio_output@@@__crt_stdio_output@@IEAA_NAEA_J@Z 0000000180128ba0 f i libucrt:output.obj
 0001:00127bbc       ??$extract_argument_from_va_list@I_J@?$standard_base@_WV?$string_output_adapter@_W@__crt_stdio_output@@@__crt_stdio_output@@IEAA_NAEA_J@Z 0000000180128bbc f i libucrt:output.obj
 0001:00127bd8       ??$extract_argument_from_va_list@PEADPEAD@?$positional_parameter_base@DV?$stream_output_adapter@D@__crt_stdio_output@@@__crt_stdio_output@@IEAA_NAEAPEAD@Z 0000000180128bd8 f i libucrt:output.obj
 0001:00127d20       ??$extract_argument_from_va_list@PEADPEAD@?$positional_parameter_base@DV?$string_output_adapter@D@__crt_stdio_output@@@__crt_stdio_output@@IEAA_NAEAPEAD@Z 0000000180128d20 f i libucrt:output.obj
 0001:00127e68       ??$extract_argument_from_va_list@PEADPEAD@?$positional_parameter_base@_WV?$stream_output_adapter@_W@__crt_stdio_output@@@__crt_stdio_output@@IEAA_NAEAPEAD@Z 0000000180128e68 f i libucrt:output.obj
 0001:00127fb4       ??$extract_argument_from_va_list@PEADPEAD@?$positional_parameter_base@_WV?$string_output_adapter@_W@__crt_stdio_output@@@__crt_stdio_output@@IEAA_NAEAPEAD@Z 0000000180128fb4 f i libucrt:output.obj
 0001:00128100       ??$extract_argument_from_va_list@PEADPEAD@?$standard_base@DV?$stream_output_adapter@D@__crt_stdio_output@@@__crt_stdio_output@@IEAA_NAEAPEAD@Z 0000000180129100 f i libucrt:output.obj
 0001:0012811c       ??$extract_argument_from_va_list@PEADPEAD@?$standard_base@DV?$string_output_adapter@D@__crt_stdio_output@@@__crt_stdio_output@@IEAA_NAEAPEAD@Z 000000018012911c f i libucrt:output.obj
 0001:00128138       ??$extract_argument_from_va_list@PEADPEAD@?$standard_base@_WV?$stream_output_adapter@_W@__crt_stdio_output@@@__crt_stdio_output@@IEAA_NAEAPEAD@Z 0000000180129138 f i libucrt:output.obj
 0001:00128154       ??$extract_argument_from_va_list@PEADPEAD@?$standard_base@_WV?$string_output_adapter@_W@__crt_stdio_output@@@__crt_stdio_output@@IEAA_NAEAPEAD@Z 0000000180129154 f i libucrt:output.obj
 0001:00128170       ??$extract_argument_from_va_list@PEAUansi_string@?1??type_case_Z@?$output_processor@DV?$stream_output_adapter@D@__crt_stdio_output@@V?$format_validation_base@DV?$stream_output_adapter@D@__crt_stdio_output@@@2@@__crt_stdio_output@@AEAA_NXZ@PEAU1?1??234@AEAA_NXZ@@?$standard_base@DV?$stream_output_adapter@D@__crt_stdio_output@@@__crt_stdio_output@@IEAA_NAEAPEAUansi_string@?1??type_case_Z@?$output_processor@DV?$stream_output_adapter@D@__crt_stdio_output@@V?$format_validation_base@DV?$stream_output_adapter@D@__crt_stdio_output@@@2@@1@AEAA_NXZ@@Z 0000000180129170 f i libucrt:output.obj
 0001:0012818c       ??$extract_argument_from_va_list@PEAUansi_string@?1??type_case_Z@?$output_processor@DV?$stream_output_adapter@D@__crt_stdio_output@@V?$positional_parameter_base@DV?$stream_output_adapter@D@__crt_stdio_output@@@2@@__crt_stdio_output@@AEAA_NXZ@PEAU1?1??234@AEAA_NXZ@@?$positional_parameter_base@DV?$stream_output_adapter@D@__crt_stdio_output@@@__crt_stdio_output@@IEAA_NAEAPEAUansi_string@?1??type_case_Z@?$output_processor@DV?$stream_output_adapter@D@__crt_stdio_output@@V?$positional_parameter_base@DV?$stream_output_adapter@D@__crt_stdio_output@@@2@@1@AEAA_NXZ@@Z 000000018012918c f i libucrt:output.obj
 0001:001282d4       ??$extract_argument_from_va_list@PEAUansi_string@?1??type_case_Z@?$output_processor@DV?$stream_output_adapter@D@__crt_stdio_output@@V?$positional_parameter_base@DV?$stream_output_adapter@D@__crt_stdio_output@@@2@@__crt_stdio_output@@AEAA_NXZ@PEAU1?1??234@AEAA_NXZ@@?$standard_base@DV?$stream_output_adapter@D@__crt_stdio_output@@@__crt_stdio_output@@IEAA_NAEAPEAUansi_string@?1??type_case_Z@?$output_processor@DV?$stream_output_adapter@D@__crt_stdio_output@@V?$positional_parameter_base@DV?$stream_output_adapter@D@__crt_stdio_output@@@2@@1@AEAA_NXZ@@Z 00000001801292d4 f i libucrt:output.obj
 0001:001282f0       ??$extract_argument_from_va_list@PEAUansi_string@?1??type_case_Z@?$output_processor@DV?$stream_output_adapter@D@__crt_stdio_output@@V?$standard_base@DV?$stream_output_adapter@D@__crt_stdio_output@@@2@@__crt_stdio_output@@AEAA_NXZ@PEAU1?1??234@AEAA_NXZ@@?$standard_base@DV?$stream_output_adapter@D@__crt_stdio_output@@@__crt_stdio_output@@IEAA_NAEAPEAUansi_string@?1??type_case_Z@?$output_processor@DV?$stream_output_adapter@D@__crt_stdio_output@@V?$standard_base@DV?$stream_output_adapter@D@__crt_stdio_output@@@2@@1@AEAA_NXZ@@Z 00000001801292f0 f i libucrt:output.obj
 0001:0012830c       ??$extract_argument_from_va_list@PEAUansi_string@?1??type_case_Z@?$output_processor@DV?$string_output_adapter@D@__crt_stdio_output@@V?$format_validation_base@DV?$string_output_adapter@D@__crt_stdio_output@@@2@@__crt_stdio_output@@AEAA_NXZ@PEAU1?1??234@AEAA_NXZ@@?$standard_base@DV?$string_output_adapter@D@__crt_stdio_output@@@__crt_stdio_output@@IEAA_NAEAPEAUansi_string@?1??type_case_Z@?$output_processor@DV?$string_output_adapter@D@__crt_stdio_output@@V?$format_validation_base@DV?$string_output_adapter@D@__crt_stdio_output@@@2@@1@AEAA_NXZ@@Z 000000018012930c f i libucrt:output.obj
 0001:00128328       ??$extract_argument_from_va_list@PEAUansi_string@?1??type_case_Z@?$output_processor@DV?$string_output_adapter@D@__crt_stdio_output@@V?$positional_parameter_base@DV?$string_output_adapter@D@__crt_stdio_output@@@2@@__crt_stdio_output@@AEAA_NXZ@PEAU1?1??234@AEAA_NXZ@@?$positional_parameter_base@DV?$string_output_adapter@D@__crt_stdio_output@@@__crt_stdio_output@@IEAA_NAEAPEAUansi_string@?1??type_case_Z@?$output_processor@DV?$string_output_adapter@D@__crt_stdio_output@@V?$positional_parameter_base@DV?$string_output_adapter@D@__crt_stdio_output@@@2@@1@AEAA_NXZ@@Z 0000000180129328 f i libucrt:output.obj
 0001:00128470       ??$extract_argument_from_va_list@PEAUansi_string@?1??type_case_Z@?$output_processor@DV?$string_output_adapter@D@__crt_stdio_output@@V?$positional_parameter_base@DV?$string_output_adapter@D@__crt_stdio_output@@@2@@__crt_stdio_output@@AEAA_NXZ@PEAU1?1??234@AEAA_NXZ@@?$standard_base@DV?$string_output_adapter@D@__crt_stdio_output@@@__crt_stdio_output@@IEAA_NAEAPEAUansi_string@?1??type_case_Z@?$output_processor@DV?$string_output_adapter@D@__crt_stdio_output@@V?$positional_parameter_base@DV?$string_output_adapter@D@__crt_stdio_output@@@2@@1@AEAA_NXZ@@Z 0000000180129470 f i libucrt:output.obj
 0001:0012848c       ??$extract_argument_from_va_list@PEAUansi_string@?1??type_case_Z@?$output_processor@DV?$string_output_adapter@D@__crt_stdio_output@@V?$standard_base@DV?$string_output_adapter@D@__crt_stdio_output@@@2@@__crt_stdio_output@@AEAA_NXZ@PEAU1?1??234@AEAA_NXZ@@?$standard_base@DV?$string_output_adapter@D@__crt_stdio_output@@@__crt_stdio_output@@IEAA_NAEAPEAUansi_string@?1??type_case_Z@?$output_processor@DV?$string_output_adapter@D@__crt_stdio_output@@V?$standard_base@DV?$string_output_adapter@D@__crt_stdio_output@@@2@@1@AEAA_NXZ@@Z 000000018012948c f i libucrt:output.obj
