 plugin-test

 Timestamp is 674c1d58 (Sun Dec  1 13:54:56 2024)

 Preferred load address is 0000000140000000

 Start         Length     Name                   Class
 0001:00000000 0000ddb0H .text$di                CODE
 0001:0000ddb0 000c9a40H .text$mn                CODE
 0001:000d77f0 00001040H .text$mn$00             CODE
 0001:000d8830 00001e50H .text$mn$21             CODE
 0001:000da680 00002240H .text$x                 CODE
 0001:000dc8c0 0000101bH .text$yd                CODE
 0002:00000000 00000110H .CRT$XCA                DATA
 0002:00000110 00000110H .CRT$XCAA               DATA
 0002:00000220 00000110H .CRT$XCU                DATA
 0002:00000330 00000110H .CRT$XCZ                DATA
 0002:00000440 00000110H .CRT$XIA                DATA
 0002:00000550 00000110H .CRT$XIAA               DATA
 0002:00000660 00000110H .CRT$XIAC               DATA
 0002:00000770 00000140H .CRT$XIC                DATA
 0002:000008b0 00000110H .CRT$XIZ                DATA
 0002:000009c0 00000008H .CRT$XLA                DATA
 0002:000009c8 00000008H .CRT$XLZ                DATA
 0002:000009d0 00000110H .CRT$XPA                DATA
 0002:00000ae0 00000120H .CRT$XPX                DATA
 0002:00000c00 00000110H .CRT$XPXA               DATA
 0002:00000d10 00000110H .CRT$XPZ                DATA
 0002:00000e20 00000110H .CRT$XTA                DATA
 0002:00000f30 00000110H .CRT$XTZ                DATA
 0002:00001040 000195d0H .rdata                  DATA
 0002:0001a610 000002f0H .rdata$00               DATA
 0002:0001a900 00000200H .rdata$CastGuardVftablesA DATA
 0002:0001ab00 000001a0H .rdata$CastGuardVftablesC DATA
 0002:0001aca0 00000130H .rdata$T                DATA
 0002:0001add0 00000740H .rdata$r                DATA
 0002:0001b510 00000188H .rdata$zzzdbg           DATA
 0002:0001b698 00000110H .rtc$IAA                DATA
 0002:0001b7a8 00000110H .rtc$IZZ                DATA
 0002:0001b8b8 00000110H .rtc$TAA                DATA
 0002:0001b9c8 00000110H .rtc$TZZ                DATA
 0002:0001bad8 0000b8f8H .xdata                  DATA
 0002:000273d0 00000275H .xdata$x                DATA
 0002:00027645 00000000H .edata                  DATA
 0003:00000000 00000fd0H .data                   DATA
 0003:00000fd0 000001d0H .data$r                 DATA
 0003:000011a0 00000230H .data$rs                DATA
 0003:000013d0 000022d1H .bss                    DATA
 0004:00000000 0000981cH .pdata                  DATA
 0005:00000000 00000ed0H .idata$5                DATA
 0005:00000ed0 000000f0H .idata$2                DATA
 0005:00000fc0 00000018H .idata$3                DATA
 0005:00000fd8 00000ed0H .idata$4                DATA
 0005:00001ea8 000017e2H .idata$6                DATA
 0006:00000000 00000108H .tls                    DATA
 0006:00000108 00000109H .tls$                   DATA
 0006:00000211 00000101H .tls$ZZZ                DATA
 0007:00000000 00000175H .00cfg                  DATA
 0008:00000000 00000170H .rsrc$01                DATA
 0008:00000170 000002ccH .rsrc$02                DATA

  Address         Publics by Value              Rva+Base               Lib:Object

 0000:00000000       __AbsoluteZero             0000000000000000     <absolute>
 0000:00000000       ___safe_se_handler_count   0000000000000000     <absolute>
 0000:00000000       ___safe_se_handler_table   0000000000000000     <absolute>
 0000:00000000       __arm64x_extra_rfe_table   0000000000000000     <absolute>
 0000:00000000       __arm64x_extra_rfe_table_size 0000000000000000     <absolute>
 0000:00000000       __arm64x_native_entrypoint 0000000000000000     <absolute>
 0000:00000000       __arm64x_redirection_metadata 0000000000000000     <absolute>
 0000:00000000       __arm64x_redirection_metadata_count 0000000000000000     <absolute>
 0000:00000000       __dynamic_value_reloc_table 0000000000000000     <absolute>
 0000:00000000       __enclave_config           0000000000000000     <absolute>
 0000:00000000       __guard_check_icall_a64n_fptr 0000000000000000     <absolute>
 0000:00000000       __guard_eh_cont_count      0000000000000000     <absolute>
 0000:00000000       __guard_eh_cont_table      0000000000000000     <absolute>
 0000:00000000       __guard_fids_count         0000000000000000     <absolute>
 0000:00000000       __guard_fids_table         0000000000000000     <absolute>
 0000:00000000       __guard_iat_count          0000000000000000     <absolute>
 0000:00000000       __guard_iat_table          0000000000000000     <absolute>
 0000:00000000       __guard_longjmp_count      0000000000000000     <absolute>
 0000:00000000       __guard_longjmp_table      0000000000000000     <absolute>
 0000:00000000       __hybrid_auxiliary_delayload_iat 0000000000000000     <absolute>
 0000:00000000       __hybrid_auxiliary_delayload_iat_copy 0000000000000000     <absolute>
 0000:00000000       __hybrid_auxiliary_iat     0000000000000000     <absolute>
 0000:00000000       __hybrid_auxiliary_iat_copy 0000000000000000     <absolute>
 0000:00000000       __hybrid_code_map          0000000000000000     <absolute>
 0000:00000000       __hybrid_code_map_count    0000000000000000     <absolute>
 0000:00000000       __hybrid_image_info_bitfield 0000000000000000     <absolute>
 0000:00000000       __volatile_metadata        0000000000000000     <absolute>
 0000:00000000       __x64_code_ranges_to_entry_points 0000000000000000     <absolute>
 0000:00000000       __x64_code_ranges_to_entry_points_count 0000000000000000     <absolute>
 0000:00000100       __guard_flags              0000000000000100     <absolute>
 0000:00000000       __ImageBase                0000000140000000     <linker-defined>
 0001:0000ddb0       ?_uploadDebugReport@@YAXPEBD_N1@Z 000000014000edb0 f   CrashHandlerNoOp.obj
 0001:0000ddf0       ??_H@YAXPEAX_K1P6APEAX0@Z@Z 000000014000edf0 f i CrashHandlerNoOp.obj
 0001:0000de70       ?__empty_global_delete@@YAXPEAX@Z 000000014000ee70 f i CrashHandlerNoOp.obj
 0001:0000de80       ?__empty_global_delete@@YAXPEAXW4align_val_t@std@@@Z 000000014000ee80 f i CrashHandlerNoOp.obj
 0001:0000de90       ?__empty_global_delete@@YAXPEAX_K@Z 000000014000ee90 f i CrashHandlerNoOp.obj
 0001:0000dea0       ?__empty_global_delete@@YAXPEAX_KW4align_val_t@std@@@Z 000000014000eea0 f i CrashHandlerNoOp.obj
 0001:0000dec0       WinMain                    000000014000eec0 f   plugin-test.obj
 0001:0000e1a0       ?PluginParentWndProc@@YA_JPEAUHWND__@@I_K_J@Z 000000014000f1a0 f   plugin-test.obj
 0001:0000e5e0       ?GetSumatraExePath@@YAPEA_WXZ 000000014000f5e0 f   plugin-test.obj
 0001:0000e810       ??0StrVec@@QEAA@XZ         000000014000f810 f i plugin-test.obj
 0001:0000e86a       IsDebuggerPresent          000000014000f86a f   kernel32:KERNEL32.dll
 0001:0000e870       DebugBreak                 000000014000f870 f   kernel32:KERNEL32.dll
 0001:0000e876       GetCommandLineW            000000014000f876 f   kernel32:KERNEL32.dll
 0001:0000e87c       GetMessageW                000000014000f87c f   user32:USER32.dll
 0001:0000e882       TranslateMessage           000000014000f882 f   user32:USER32.dll
 0001:0000e888       DispatchMessageW           000000014000f888 f   user32:USER32.dll
 0001:0000e88e       DefWindowProcW             000000014000f88e f   user32:USER32.dll
 0001:0000e894       PostQuitMessage            000000014000f894 f   user32:USER32.dll
 0001:0000e89a       RegisterClassW             000000014000f89a f   user32:USER32.dll
 0001:0000e8a0       CreateWindowExW            000000014000f8a0 f   user32:USER32.dll
 0001:0000e8a6       ShowWindow                 000000014000f8a6 f   user32:USER32.dll
 0001:0000e8ac       MoveWindow                 000000014000f8ac f   user32:USER32.dll
 0001:0000e8b2       DrawTextW                  000000014000f8b2 f   user32:USER32.dll
 0001:0000e8b8       UpdateWindow               000000014000f8b8 f   user32:USER32.dll
 0001:0000e8be       BeginPaint                 000000014000f8be f   user32:USER32.dll
 0001:0000e8c4       EndPaint                   000000014000f8c4 f   user32:USER32.dll
 0001:0000e8ca       InvalidateRect             000000014000f8ca f   user32:USER32.dll
 0001:0000e8d0       FillRect                   000000014000f8d0 f   user32:USER32.dll
 0001:0000e8d6       FindWindowExW              000000014000f8d6 f   user32:USER32.dll
 0001:0000e8dc       LoadCursorW                000000014000f8dc f   user32:USER32.dll
 0001:0000e8e2       CreateFontIndirectW        000000014000f8e2 f   gdi32:GDI32.dll
 0001:0000e8e8       CreateSolidBrush           000000014000f8e8 f   gdi32:GDI32.dll
 0001:0000e8ee       DeleteObject               000000014000f8ee f   gdi32:GDI32.dll
 0001:0000e8f4       SelectObject               000000014000f8f4 f   gdi32:GDI32.dll
 0001:0000e8fa       SetBkMode                  000000014000f8fa f   gdi32:GDI32.dll
 0001:0000e900       SetTextColor               000000014000f900 f   gdi32:GDI32.dll
 0001:0000e906       ShellExecuteW              000000014000f906 f   shell32:SHELL32.dll
 0001:0000e910       ??0Point@@QEAA@HH@Z        000000014000f910 f   utils:GeomUtil.obj
 0001:0000e950       ?IsEmpty@Point@@QEBA_NXZ   000000014000f950 f   utils:GeomUtil.obj
 0001:0000e990       ?Eq@Point@@QEBA_NHH@Z      000000014000f990 f   utils:GeomUtil.obj
 0001:0000e9e0       ??8Point@@QEBA_NAEBU0@@Z   000000014000f9e0 f   utils:GeomUtil.obj
 0001:0000ea30       ??9Point@@QEBA_NAEBU0@@Z   000000014000fa30 f   utils:GeomUtil.obj
 0001:0000ea80       ??0PointF@@QEAA@MM@Z       000000014000fa80 f   utils:GeomUtil.obj
 0001:0000eac0       ?IsEmpty@PointF@@QEBA_NXZ  000000014000fac0 f   utils:GeomUtil.obj
 0001:0000eb20       ??8PointF@@QEBA_NAEBU0@@Z  000000014000fb20 f   utils:GeomUtil.obj
 0001:0000eb80       ??9PointF@@QEBA_NAEBU0@@Z  000000014000fb80 f   utils:GeomUtil.obj
 0001:0000ebd0       ??0Size@@QEAA@HH@Z         000000014000fbd0 f   utils:GeomUtil.obj
 0001:0000ec10       ?IsEmpty@Size@@QEBA_NXZ    000000014000fc10 f   utils:GeomUtil.obj
 0001:0000ec50       ?Equals@Size@@QEBA_NAEBU1@@Z 000000014000fc50 f   utils:GeomUtil.obj
 0001:0000eca0       ??8Size@@QEBA_NAEBU0@@Z    000000014000fca0 f   utils:GeomUtil.obj
 0001:0000ecf0       ??9Size@@QEBA_NAEBU0@@Z    000000014000fcf0 f   utils:GeomUtil.obj
 0001:0000ed40       ??0SizeF@@QEAA@MM@Z        000000014000fd40 f   utils:GeomUtil.obj
 0001:0000ed80       ?IsEmpty@SizeF@@QEBA_NXZ   000000014000fd80 f   utils:GeomUtil.obj
 0001:0000ede0       ??8SizeF@@QEBA_NAEBU0@@Z   000000014000fde0 f   utils:GeomUtil.obj
 0001:0000ee40       ??9SizeF@@QEBA_NAEBU0@@Z   000000014000fe40 f   utils:GeomUtil.obj
 0001:0000ee90       ??0Rect@@QEAA@UtagRECT@@@Z 000000014000fe90 f   utils:GeomUtil.obj
 0001:0000ef30       ??0Rect@@QEAA@VRectF@Gdiplus@@@Z 000000014000ff30 f   utils:GeomUtil.obj
 0001:0000efc0       ??0Rect@@QEAA@HHHH@Z       000000014000ffc0 f   utils:GeomUtil.obj
 0001:0000f010       ??0Rect@@QEAA@UPoint@@0@Z  0000000140010010 f   utils:GeomUtil.obj
 0001:0000f070       ?EqSize@Rect@@QEBA_NHH@Z   0000000140010070 f   utils:GeomUtil.obj
 0001:0000f0c0       ?Right@Rect@@QEBAHXZ       00000001400100c0 f   utils:GeomUtil.obj
 0001:0000f0e0       ?Bottom@Rect@@QEBAHXZ      00000001400100e0 f   utils:GeomUtil.obj
 0001:0000f100       ?FromXY@Rect@@SA?AU1@HHHH@Z 0000000140010100 f   utils:GeomUtil.obj
 0001:0000f190       ?FromXY@Rect@@SA?AU1@UPoint@@0@Z 0000000140010190 f   utils:GeomUtil.obj
 0001:0000f1e0       ?IsZero@Rect@@QEBA_NXZ     00000001400101e0 f   utils:GeomUtil.obj
 0001:0000f240       ?IsEmpty@Rect@@QEBA_NXZ    0000000140010240 f   utils:GeomUtil.obj
 0001:0000f280       ?Contains@Rect@@QEBA_NHH@Z 0000000140010280 f   utils:GeomUtil.obj
 0001:0000f2f0       ?Contains@Rect@@QEBA_NUPoint@@@Z 00000001400102f0 f   utils:GeomUtil.obj
 0001:0000f320       ?Intersect@Rect@@QEBA?AU1@U1@@Z 0000000140010320 f   utils:GeomUtil.obj
 0001:0000f450       ?Union@Rect@@QEBA?AU1@U1@@Z 0000000140010450 f   utils:GeomUtil.obj
 0001:0000f5d0       ?Offset@Rect@@QEAAXHH@Z    00000001400105d0 f   utils:GeomUtil.obj
 0001:0000f610       ?Inflate@Rect@@QEAAXHH@Z   0000000140010610 f   utils:GeomUtil.obj
 0001:0000f680       ?SubTB@Rect@@QEAAXHH@Z     0000000140010680 f   utils:GeomUtil.obj
 0001:0000f6e0       ?SubLR@Rect@@QEAAXHH@Z     00000001400106e0 f   utils:GeomUtil.obj
 0001:0000f740       ?TL@Rect@@QEBA?AUPoint@@XZ 0000000140010740 f   utils:GeomUtil.obj
 0001:0000f780       ?BR@Rect@@QEBA?AUPoint@@XZ 0000000140010780 f   utils:GeomUtil.obj
 0001:0000f7d0       ?Size@Rect@@QEBA?AU0@XZ    00000001400107d0 f   utils:GeomUtil.obj
 0001:0000f810       ?SetSize@Rect@@QEAAXAEBUSize@@@Z 0000000140010810 f   utils:GeomUtil.obj
 0001:0000f840       ?SetPos@Rect@@QEAAXAEBUPoint@@@Z 0000000140010840 f   utils:GeomUtil.obj
 0001:0000f870       ?Equals@Rect@@QEBA_NAEBU1@@Z 0000000140010870 f   utils:GeomUtil.obj
 0001:0000f8f0       ??8Rect@@QEBA_NAEBU0@@Z    00000001400108f0 f   utils:GeomUtil.obj
 0001:0000f970       ??9Rect@@QEBA_NAEBU0@@Z    0000000140010970 f   utils:GeomUtil.obj
 0001:0000f9c0       ??0RectF@@QEAA@UtagRECT@@@Z 00000001400109c0 f   utils:GeomUtil.obj
 0001:0000fa70       ??0RectF@@QEAA@V0Gdiplus@@@Z 0000000140010a70 f   utils:GeomUtil.obj
 0001:0000fb10       ??0RectF@@QEAA@MMMM@Z      0000000140010b10 f   utils:GeomUtil.obj
 0001:0000fb80       ??0RectF@@QEAA@UPointF@@USizeF@@@Z 0000000140010b80 f   utils:GeomUtil.obj
 0001:0000fbe0       ??0RectF@@QEAA@UPointF@@0@Z 0000000140010be0 f   utils:GeomUtil.obj
 0001:0000fc50       ?EqSize@RectF@@QEBA_NMM@Z  0000000140010c50 f   utils:GeomUtil.obj
 0001:0000fcb0       ?Right@RectF@@QEBAMXZ      0000000140010cb0 f   utils:GeomUtil.obj
 0001:0000fcd0       ?Bottom@RectF@@QEBAMXZ     0000000140010cd0 f   utils:GeomUtil.obj
 0001:0000fcf0       ?FromXY@RectF@@SA?AU1@MMMM@Z 0000000140010cf0 f   utils:GeomUtil.obj
 0001:0000fd90       ?FromXY@RectF@@SA?AU1@UPointF@@0@Z 0000000140010d90 f   utils:GeomUtil.obj
 0001:0000fde0       ?Round@RectF@@QEBA?AURect@@XZ 0000000140010de0 f   utils:GeomUtil.obj
 0001:0000fec0       ?IsEmpty@RectF@@QEBA_NXZ   0000000140010ec0 f   utils:GeomUtil.obj
 0001:0000ff20       ?Contains@RectF@@QEBA_NUPointF@@@Z 0000000140010f20 f   utils:GeomUtil.obj
 0001:0000ffb0       ?Intersect@RectF@@QEBA?AU1@U1@@Z 0000000140010fb0 f   utils:GeomUtil.obj
 0001:00010120       ?Union@RectF@@QEAA?AU1@U1@@Z 0000000140011120 f   utils:GeomUtil.obj
 0001:000102e0       ?Offset@RectF@@QEAAXMM@Z   00000001400112e0 f   utils:GeomUtil.obj
 0001:00010330       ?Inflate@RectF@@QEAAXMM@Z  0000000140011330 f   utils:GeomUtil.obj
 0001:000103d0       ?TL@RectF@@QEBA?AUPointF@@XZ 00000001400113d0 f   utils:GeomUtil.obj
 0001:00010410       ?BR@RectF@@QEBA?AUPointF@@XZ 0000000140011410 f   utils:GeomUtil.obj
 0001:00010470       ?Size@RectF@@QEBA?AUSizeF@@XZ 0000000140011470 f   utils:GeomUtil.obj
 0001:000104b0       ??8RectF@@QEBA_NAEBU0@@Z   00000001400114b0 f   utils:GeomUtil.obj
 0001:00010540       ??9RectF@@QEBA_NAEBU0@@Z   0000000140011540 f   utils:GeomUtil.obj
 0001:00010590       ?RectDx@@YAHAEBUtagRECT@@@Z 0000000140011590 f   utils:GeomUtil.obj
 0001:000105b0       ?RectDy@@YAHAEBUtagRECT@@@Z 00000001400115b0 f   utils:GeomUtil.obj
 0001:000105d0       ?ToPointFl@@YA?AUPointF@@UPoint@@@Z 00000001400115d0 f   utils:GeomUtil.obj
 0001:00010610       ?ToGdipPoint@@YA?AVPoint@Gdiplus@@U1@@Z 0000000140011610 f   utils:GeomUtil.obj
 0001:00010650       ?ToPoint@@YA?AUPoint@@UPointF@@@Z 0000000140011650 f   utils:GeomUtil.obj
 0001:00010690       ?ToGdipPointF@@YA?AVPointF@Gdiplus@@U1@@Z 0000000140011690 f   utils:GeomUtil.obj
 0001:000106d0       ?ToPOINT@@YA?AUtagPOINT@@AEBUPoint@@@Z 00000001400116d0 f   utils:GeomUtil.obj
 0001:00010700       ?ToSIZE@@YA?AUtagSIZE@@USize@@@Z 0000000140011700 f   utils:GeomUtil.obj
 0001:00010730       ?ToSizeFl@@YA?AUSizeF@@USize@@@Z 0000000140011730 f   utils:GeomUtil.obj
 0001:00010770       ?ToSize@@YA?AUSize@@USizeF@@@Z 0000000140011770 f   utils:GeomUtil.obj
 0001:000107e0       ?ToRectF@@YA?AURectF@@AEBURect@@@Z 00000001400117e0 f   utils:GeomUtil.obj
 0001:00010840       ?ToRECT@@YA?AUtagRECT@@AEBURect@@@Z 0000000140011840 f   utils:GeomUtil.obj
 0001:000108b0       ?ToRECT@@YA?AUtagRECT@@AEBURectF@@@Z 00000001400118b0 f   utils:GeomUtil.obj
 0001:00010930       ?ToRect@@YA?AURect@@AEBURectF@@@Z 0000000140011930 f   utils:GeomUtil.obj
 0001:000109f0       ?ToRect@@YA?AURect@@AEBUtagRECT@@@Z 00000001400119f0 f   utils:GeomUtil.obj
 0001:00010a70       ?ToGdipRect@@YA?AVRect@Gdiplus@@AEBU1@@Z 0000000140011a70 f   utils:GeomUtil.obj
 0001:00010ac0       ?ToGdipRectF@@YA?AVRectF@Gdiplus@@AEBURect@@@Z 0000000140011ac0 f   utils:GeomUtil.obj
 0001:00010b30       ?ToGdipRect@@YA?AVRect@Gdiplus@@AEBURectF@@@Z 0000000140011b30 f   utils:GeomUtil.obj
 0001:00010b80       ?ToGdipRectF@@YA?AVRectF@Gdiplus@@AEBU1@@Z 0000000140011b80 f   utils:GeomUtil.obj
 0001:00010be0       ?NormalizeRotation@@YAHH@Z 0000000140011be0 f   utils:GeomUtil.obj
 0001:00011530       ??$max@H@std@@YAAEBHAEBH0@Z 0000000140012530 f i utils:GeomUtil.obj
 0001:00011590       ??$max@M@std@@YAAEBMAEBM0@Z 0000000140012590 f i utils:GeomUtil.obj
 0001:000115f0       ??$min@H@std@@YAAEBHAEBH0@Z 00000001400125f0 f i utils:GeomUtil.obj
 0001:00011650       ??$min@M@std@@YAAEBMAEBM0@Z 0000000140012650 f i utils:GeomUtil.obj
 0001:000116b0       ??$swap@H$0A@@std@@YAXAEAH0@Z 00000001400126b0 f i utils:GeomUtil.obj
 0001:00011700       ??$swap@M$0A@@std@@YAXAEAM0@Z 0000000140012700 f i utils:GeomUtil.obj
 0001:00011760       ??0Point@Gdiplus@@QEAA@HH@Z 0000000140012760 f i utils:GeomUtil.obj
 0001:000117a0       ??0PointF@Gdiplus@@QEAA@MM@Z 00000001400127a0 f i utils:GeomUtil.obj
 0001:000117f0       ??0Rect@@QEAA@XZ           00000001400127f0 f i utils:GeomUtil.obj
 0001:00011840       ??0Rect@Gdiplus@@QEAA@HHHH@Z 0000000140012840 f i utils:GeomUtil.obj
 0001:000118a0       ??0RectF@@QEAA@XZ          00000001400128a0 f i utils:GeomUtil.obj
 0001:000118f0       ??0RectF@Gdiplus@@QEAA@MMMM@Z 00000001400128f0 f i utils:GeomUtil.obj
 0001:00011970       ?isLegalUTF8Sequence@@YA_NPEBE0@Z 0000000140012970 f   utils:StrUtil.obj
 0001:000119c0       ?isLegalUTF8String@@YA_NPEAPEBEPEBE@Z 00000001400129c0 f   utils:StrUtil.obj
 0001:00011a60       ?utf8StrLen@@YAHPEBE@Z     0000000140012a60 f   utils:StrUtil.obj
 0001:00011ae0       ?utf8RuneLen@@YAHPEBE@Z    0000000140012ae0 f   utils:StrUtil.obj
 0001:00011b10       ??0StrSpan@@QEAA@PEBD@Z    0000000140012b10 f   utils:StrUtil.obj
 0001:00011b60       ??0StrSpan@@QEAA@PEBDH@Z   0000000140012b60 f   utils:StrUtil.obj
 0001:00011bd0       ?IsEqual@@YA_NAEBUByteSlice@@0@Z 0000000140012bd0 f   utils:StrUtil.obj
 0001:00011c90       ?Len@str@@YA_KPEB_W@Z      0000000140012c90 f   utils:StrUtil.obj
 0001:00011cd0       ?Len@str@@YA_KPEBD@Z       0000000140012cd0 f   utils:StrUtil.obj
 0001:00011d10       ?Leni@str@@YAHPEB_W@Z      0000000140012d10 f   utils:StrUtil.obj
 0001:00011d50       ?Leni@str@@YAHPEBD@Z       0000000140012d50 f   utils:StrUtil.obj
 0001:00011d90       ?Free@str@@YAXPEBD@Z       0000000140012d90 f   utils:StrUtil.obj
 0001:00011db0       ?Free@str@@YAXPEBE@Z       0000000140012db0 f   utils:StrUtil.obj
 0001:00011dd0       ?Free@str@@YAXAEBUStrSpan@@@Z 0000000140012dd0 f   utils:StrUtil.obj
 0001:00011e00       ?Free@str@@YAXPEB_W@Z      0000000140012e00 f   utils:StrUtil.obj
 0001:00011e20       ?FreePtr@str@@YAXPEAPEBD@Z 0000000140012e20 f   utils:StrUtil.obj
 0001:00011e50       ?FreePtr@str@@YAXPEAPEAD@Z 0000000140012e50 f   utils:StrUtil.obj
 0001:00011e80       ?FreePtr@str@@YAXPEAPEB_W@Z 0000000140012e80 f   utils:StrUtil.obj
 0001:00011eb0       ?FreePtr@str@@YAXPEAPEA_W@Z 0000000140012eb0 f   utils:StrUtil.obj
 0001:00011ee0       ?Dup@str@@YAPEADPEAUAllocator@@PEBD_K@Z 0000000140012ee0 f   utils:StrUtil.obj
 0001:00011f40       ?Dup@str@@YAPEADPEBD_K@Z   0000000140012f40 f   utils:StrUtil.obj
 0001:00011f70       ?Dup@str@@YAPEADAEBUByteSlice@@@Z 0000000140012f70 f   utils:StrUtil.obj
 0001:00011fc0       ?ReplacePtr@str@@YAXPEAPEBDPEBD@Z 0000000140012fc0 f   utils:StrUtil.obj
 0001:00012010       ?ReplacePtr@str@@YAXPEAPEADPEBD@Z 0000000140013010 f   utils:StrUtil.obj
 0001:00012040       ?ReplaceWithCopy@str@@YAXPEAPEBDPEBD@Z 0000000140013040 f   utils:StrUtil.obj
 0001:00012090       ?ReplaceWithCopy@str@@YAXPEAPEBDAEBUByteSlice@@@Z 0000000140013090 f   utils:StrUtil.obj
 0001:00012100       ?ReplaceWithCopy@str@@YAXPEAPEADPEBD@Z 0000000140013100 f   utils:StrUtil.obj
 0001:00012150       ?Join@str@@YAPEADPEAUAllocator@@PEBD11@Z 0000000140013150 f   utils:StrUtil.obj
 0001:00012270       ?Join@str@@YAPEADPEAUAllocator@@PEBD1111@Z 0000000140013270 f   utils:StrUtil.obj
 0001:00012420       ?Join@str@@YAPEADPEBD00@Z  0000000140013420 f   utils:StrUtil.obj
 0001:00012460       ?Eq@str@@YA_NPEBD0@Z       0000000140013460 f   utils:StrUtil.obj
 0001:000124d0       ?Eq@str@@YA_NAEBUByteSlice@@0@Z 00000001400134d0 f   utils:StrUtil.obj
 0001:00012570       ?EqI@str@@YA_NPEBD0@Z      0000000140013570 f   utils:StrUtil.obj
 0001:000125e0       ?EqIS@str@@YA_NPEBD0@Z     00000001400135e0 f   utils:StrUtil.obj
 0001:00012720       ?EqN@str@@YA_NPEBD0_K@Z    0000000140013720 f   utils:StrUtil.obj
 0001:000127a0       ?EqNI@str@@YA_NPEBD0_K@Z   00000001400137a0 f   utils:StrUtil.obj
 0001:00012820       ?IsEmpty@str@@YA_NPEBD@Z   0000000140013820 f   utils:StrUtil.obj
 0001:00012860       ?StartsWith@str@@YA_NPEBD0@Z 0000000140013860 f   utils:StrUtil.obj
 0001:000128a0       ?StartsWith@str@@YA_NPEBEPEBD@Z 00000001400138a0 f   utils:StrUtil.obj
 0001:000128d0       ?StartsWithI@str@@YA_NPEBD0@Z 00000001400138d0 f   utils:StrUtil.obj
 0001:00012950       ?EndsWith@str@@YA_NPEBD0@Z 0000000140013950 f   utils:StrUtil.obj
 0001:000129d0       ?EndsWithI@str@@YA_NPEBD0@Z 00000001400139d0 f   utils:StrUtil.obj
 0001:00012a50       ?EqNIx@str@@YA_NPEBD_K0@Z  0000000140013a50 f   utils:StrUtil.obj
 0001:00012ab0       ?ToLowerInPlace@str@@YAPEADPEAD@Z 0000000140013ab0 f   utils:StrUtil.obj
 0001:00012b10       ?ToLower@str@@YAPEADPEBD@Z 0000000140013b10 f   utils:StrUtil.obj
 0001:00012b50       ?ToUpperInPlace@str@@YAPEADPEAD@Z 0000000140013b50 f   utils:StrUtil.obj
 0001:00012bb0       ?Utf8Encode@str@@YAXAEAPEADH@Z 0000000140013bb0 f   utils:StrUtil.obj
 0001:00012d60       ?IsDigit@str@@YA_ND@Z      0000000140013d60 f   utils:StrUtil.obj
 0001:00012da0       ?IsWs@str@@YA_ND@Z         0000000140013da0 f   utils:StrUtil.obj
 0001:00012de0       ?IsAlNum@str@@YA_ND@Z      0000000140013de0 f   utils:StrUtil.obj
 0001:00012e40       ?FindChar@str@@YAPEBDPEBDD@Z 0000000140013e40 f   utils:StrUtil.obj
 0001:00012e70       ?FindChar@str@@YAPEADPEADD@Z 0000000140013e70 f   utils:StrUtil.obj
 0001:00012ea0       ?FindCharLast@str@@YAPEBDPEBDD@Z 0000000140013ea0 f   utils:StrUtil.obj
 0001:00012ed0       ?FindCharLast@str@@YAPEADPEADD@Z 0000000140013ed0 f   utils:StrUtil.obj
 0001:00012f00       ?Find@str@@YAPEBDPEBD0@Z   0000000140013f00 f   utils:StrUtil.obj
 0001:00012f30       ?FindI@str@@YAPEBDPEBD0@Z  0000000140013f30 f   utils:StrUtil.obj
 0001:00012fe0       ?BufFind@str@@YAHPEBDH0@Z  0000000140013fe0 f   utils:StrUtil.obj
 0001:000130a0       ?Contains@str@@YA_NPEBD0@Z 00000001400140a0 f   utils:StrUtil.obj
 0001:00013100       ?ContainsI@str@@YA_NPEBD0@Z 0000000140014100 f   utils:StrUtil.obj
 0001:00013160       ?BufFmtV@str@@YA_NPEAD_KPEBD0@Z 0000000140014160 f   utils:StrUtil.obj
 0001:000131e0       ?BufFmt@str@@YA_NPEAD_KPEBDZZ 00000001400141e0 f   utils:StrUtil.obj
 0001:00013240       ?FmtVWithAllocator@str@@YAPEADPEAUAllocator@@PEBDPEAD@Z 0000000140014240 f   utils:StrUtil.obj
 0001:000133b0       ?FmtV@str@@YAPEADPEBDPEAD@Z 00000001400143b0 f   utils:StrUtil.obj
 0001:000133e0       ?Format@str@@YAPEADPEBDZZ  00000001400143e0 f   utils:StrUtil.obj
 0001:00013430       ?TrimWSInPlace@str@@YA_KPEADW4TrimOpt@1@@Z 0000000140014430 f   utils:StrUtil.obj
 0001:00013570       ?TrimWsEnd@str@@YAXPEADAEAPEAD@Z 0000000140014570 f   utils:StrUtil.obj
 0001:000135e0       ?TransCharsInPlace@str@@YA_KPEADPEBD1@Z 00000001400145e0 f   utils:StrUtil.obj
 0001:00013680       ?NormalizeWSInPlace@str@@YA_KPEAD@Z 0000000140014680 f   utils:StrUtil.obj
 0001:00013770       ?NormalizeNewlinesInPlace@str@@YA_KPEAD0@Z 0000000140014770 f   utils:StrUtil.obj
 0001:000138d0       ?NormalizeNewlinesInPlace@str@@YA_KPEAD@Z 00000001400148d0 f   utils:StrUtil.obj
 0001:00013910       ?RemoveCharsInPlace@str@@YA_KPEADPEBD@Z 0000000140014910 f   utils:StrUtil.obj
 0001:000139c0       ?BufSet@str@@YAHPEADHPEBD@Z 00000001400149c0 f   utils:StrUtil.obj
 0001:00013ab0       ?BufAppend@str@@YAHPEADHPEBD@Z 0000000140014ab0 f   utils:StrUtil.obj
 0001:00013bb0       ?MemToHex@str@@YAPEADPEBE_K@Z 0000000140014bb0 f   utils:StrUtil.obj
 0001:00013c60       ?HexToMem@str@@YA_NPEBDPEAE_K@Z 0000000140014c60 f   utils:StrUtil.obj
 0001:00013d00       ?Parse@str@@YAPEBDPEBD0ZZ  0000000140014d00 f   utils:StrUtil.obj
 0001:00013d70       ?Parse@str@@YAPEBDPEBD_K0ZZ 0000000140014d70 f   utils:StrUtil.obj
 0001:00013ec0       ?CmpNatural@str@@YAHPEBD0@Z 0000000140014ec0 f   utils:StrUtil.obj
 0001:00014200       ?FormatFloatWithThousandSepTemp@str@@YAPEADNK@Z 0000000140015200 f   utils:StrUtil.obj
 0001:00014520       ?FormatNumWithThousandSepTemp@str@@YAPEAD_JK@Z 0000000140015520 f   utils:StrUtil.obj
 0001:00014740       ?FormatSizeShortTemp@str@@YAPEAD_JQEAPEBD@Z 0000000140015740 f   utils:StrUtil.obj
 0001:00014920       ?FormatFileSizeTemp@str@@YAPEAD_J@Z 0000000140015920 f   utils:StrUtil.obj
 0001:00014ae0       ?FormatRomanNumeralTemp@str@@YAPEADH@Z 0000000140015ae0 f   utils:StrUtil.obj
 0001:00014bf0       ?IsEmptyOrWhiteSpace@str@@YA_NPEBD@Z 0000000140015bf0 f   utils:StrUtil.obj
 0001:00014c60       ?Skip@str@@YA_NAEAPEBDPEBD@Z 0000000140015c60 f   utils:StrUtil.obj
 0001:00014cc0       ?SkipChar@str@@YAPEBDPEBDD@Z 0000000140015cc0 f   utils:StrUtil.obj
 0001:00014d10       ?Dup@str@@YAPEA_WPEAUAllocator@@PEB_W_K@Z 0000000140015d10 f   utils:StrUtil.obj
 0001:00014d70       ?Dup@str@@YAPEA_WPEB_W_K@Z 0000000140015d70 f   utils:StrUtil.obj
 0001:00014da0       ?Join@str@@YAPEA_WPEB_W00@Z 0000000140015da0 f   utils:StrUtil.obj
 0001:00014de0       ?Join@str@@YAPEA_WPEAUAllocator@@PEB_W11@Z 0000000140015de0 f   utils:StrUtil.obj
 0001:00014f00       ?Eq@str@@YA_NPEB_W0@Z      0000000140015f00 f   utils:StrUtil.obj
 0001:00014f70       ?EqI@str@@YA_NPEB_W0@Z     0000000140015f70 f   utils:StrUtil.obj
 0001:00014fe0       ?EqN@str@@YA_NPEB_W0_K@Z   0000000140015fe0 f   utils:StrUtil.obj
 0001:00015060       ?IsEmpty@str@@YA_NPEB_W@Z  0000000140016060 f   utils:StrUtil.obj
 0001:000150a0       ?StartsWith@str@@YA_NPEB_W0@Z 00000001400160a0 f   utils:StrUtil.obj
 0001:000150e0       ?StartsWithI@str@@YA_NPEB_W0@Z 00000001400160e0 f   utils:StrUtil.obj
 0001:00015160       ?EndsWith@str@@YA_NPEB_W0@Z 0000000140016160 f   utils:StrUtil.obj
 0001:000151f0       ?EndsWithI@str@@YA_NPEB_W0@Z 00000001400161f0 f   utils:StrUtil.obj
 0001:00015280       ?ToLower@str@@YAPEA_WPEB_W@Z 0000000140016280 f   utils:StrUtil.obj
 0001:000152c0       ?ToLowerInPlace@str@@YAPEA_WPEA_W@Z 00000001400162c0 f   utils:StrUtil.obj
 0001:00015320       ?Parse@str@@YAPEB_WPEB_W0ZZ 0000000140016320 f   utils:StrUtil.obj
 0001:000159b0       ?BufSet@str@@YAHPEA_WHPEB_W@Z 00000001400169b0 f   utils:StrUtil.obj
 0001:00015a80       ?BufSet@str@@YAHPEA_WHPEBD@Z 0000000140016a80 f   utils:StrUtil.obj
 0001:00015ac0       ?NormalizeWSInPlace@str@@YA_KPEA_W@Z 0000000140016ac0 f   utils:StrUtil.obj
 0001:00015bd0       ?RemoveCharsInPlace@str@@YA_KPEA_WPEB_W@Z 0000000140016bd0 f   utils:StrUtil.obj
 0001:00015c80       ?FindChar@str@@YAPEB_WPEB_W_W@Z 0000000140016c80 f   utils:StrUtil.obj
 0001:00015cb0       ?FindChar@str@@YAPEA_WPEA_W_W@Z 0000000140016cb0 f   utils:StrUtil.obj
 0001:00015ce0       ?Find@str@@YAPEB_WPEB_W0@Z 0000000140016ce0 f   utils:StrUtil.obj
 0001:00015d10       ?IsWs@str@@YA_N_W@Z        0000000140016d10 f   utils:StrUtil.obj
 0001:00015d50       ?IsDigit@str@@YA_N_W@Z     0000000140016d50 f   utils:StrUtil.obj
 0001:00015d90       ?IsNonCharacter@str@@YA_N_W@Z 0000000140016d90 f   utils:StrUtil.obj
 0001:00015df0       ?TransCharsInPlace@str@@YA_KPEA_WPEB_W1@Z 0000000140016df0 f   utils:StrUtil.obj
 0001:00015ea0       ?Replace@str@@YAPEA_WPEB_W00@Z 0000000140016ea0 f   utils:StrUtil.obj
 0001:00016010       ?ToWCHAR@str@@YAPEA_WPEBD@Z 0000000140017010 f   utils:StrUtil.obj
 0001:00016040       ?DecodeInPlace@url@@YAXPEAD@Z 0000000140017040 f   utils:StrUtil.obj
 0001:000160f0       ?IsAbsolute@url@@YA_NPEBD@Z 00000001400170f0 f   utils:StrUtil.obj
 0001:00016160       ?GetFullPathTemp@url@@YAPEADPEBD@Z 0000000140017160 f   utils:StrUtil.obj
 0001:000161c0       ?GetFileNameTemp@url@@YAPEADPEBD@Z 00000001400171c0 f   utils:StrUtil.obj
 0001:000162a0       ?Next@seqstrings@@YAXAEAPEBD@Z 00000001400172a0 f   utils:StrUtil.obj
 0001:000162d0       ?Next@seqstrings@@YAXAEAPEBDPEAH@Z 00000001400172d0 f   utils:StrUtil.obj
 0001:000163a0       ?StrToIdx@seqstrings@@YAHPEBD0@Z 00000001400173a0 f   utils:StrUtil.obj
 0001:00016420       ?StrToIdxIS@seqstrings@@YAHPEBD0@Z 0000000140017420 f   utils:StrUtil.obj
 0001:000164b0       ?IdxToStr@seqstrings@@YAPEBDPEBDH@Z 00000001400174b0 f   utils:StrUtil.obj
 0001:00016530       ??0Str@str@@QEAA@_KPEAUAllocator@@@Z 0000000140017530 f   utils:StrUtil.obj
 0001:000165c0       ??0Str@str@@QEAA@AEBU01@@Z 00000001400175c0 f   utils:StrUtil.obj
 0001:00016690       ??4Str@str@@QEAAAEAU01@AEBU01@@Z 0000000140017690 f   utils:StrUtil.obj
 0001:00016730       ??0Str@str@@QEAA@PEBD@Z    0000000140017730 f   utils:StrUtil.obj
 0001:000167b0       ??1Str@str@@QEAA@XZ        00000001400177b0 f   utils:StrUtil.obj
 0001:000167d0       ?Reset@Str@str@@QEAAXXZ    00000001400177d0 f   utils:StrUtil.obj
 0001:00016860       ?at@Str@str@@QEBAAEAD_K@Z  0000000140017860 f   utils:StrUtil.obj
 0001:000168c0       ?at@Str@str@@QEBAAEADH@Z   00000001400178c0 f   utils:StrUtil.obj
 0001:00016910       ??AStr@str@@QEBAAEADJ@Z    0000000140017910 f   utils:StrUtil.obj
 0001:00016960       ??AStr@str@@QEBAAEADH@Z    0000000140017960 f   utils:StrUtil.obj
 0001:000169b0       ?at@Str@str@@QEBAAEADI@Z   00000001400179b0 f   utils:StrUtil.obj
 0001:000169e0       ??AStr@str@@QEBAAEADI@Z    00000001400179e0 f   utils:StrUtil.obj
 0001:00016a10       ?size@Str@str@@QEBA_KXZ    0000000140017a10 f   utils:StrUtil.obj
 0001:00016a30       ?Size@Str@str@@QEBAHXZ     0000000140017a30 f   utils:StrUtil.obj
 0001:00016a50       ?InsertAt@Str@str@@QEAA_N_KD@Z 0000000140017a50 f   utils:StrUtil.obj
 0001:00016ab0       ?AppendChar@Str@str@@QEAA_ND@Z 0000000140017ab0 f   utils:StrUtil.obj
 0001:00016af0       ?Append@Str@str@@QEAA_NPEBD_K@Z 0000000140017af0 f   utils:StrUtil.obj
 0001:00016b80       ?Append@Str@str@@QEAA_NAEBUStrSpan@@@Z 0000000140017b80 f   utils:StrUtil.obj
 0001:00016bd0       ?Append@Str@str@@QEAA_NAEBU12@@Z 0000000140017bd0 f   utils:StrUtil.obj
 0001:00016c20       ?RemoveAt@Str@str@@QEAAD_K0@Z 0000000140017c20 f   utils:StrUtil.obj
 0001:00016d10       ?RemoveLast@Str@str@@QEAADXZ 0000000140017d10 f   utils:StrUtil.obj
 0001:00016d60       ?Last@Str@str@@QEBAAEADXZ  0000000140017d60 f   utils:StrUtil.obj
 0001:00016dc0       ?StealData@Str@str@@QEAAPEADPEAUAllocator@@@Z 0000000140017dc0 f   utils:StrUtil.obj
 0001:00016e60       ?LendData@Str@str@@QEBAPEADXZ 0000000140017e60 f   utils:StrUtil.obj
 0001:00016e80       ?Contains@Str@str@@QEAA_NPEBD_K@Z 0000000140017e80 f   utils:StrUtil.obj
 0001:00016f80       ?IsEmpty@Str@str@@QEBA_NXZ 0000000140017f80 f   utils:StrUtil.obj
 0001:00016fc0       ?AsByteSlice@Str@str@@QEBA?AUByteSlice@@XZ 0000000140017fc0 f   utils:StrUtil.obj
 0001:00017010       ?StealAsByteSlice@Str@str@@QEAA?AUByteSlice@@XZ 0000000140018010 f   utils:StrUtil.obj
 0001:00017070       ?Append@Str@str@@QEAA_NPEBE_K@Z 0000000140018070 f   utils:StrUtil.obj
 0001:000170b0       ?AppendSlice@Str@str@@QEAA_NAEBUByteSlice@@@Z 00000001400180b0 f   utils:StrUtil.obj
 0001:00017110       ?AppendFmt@Str@str@@QEAAXPEBDZZ 0000000140018110 f   utils:StrUtil.obj
 0001:00017190       ?Set@Str@str@@QEAAXPEBD@Z  0000000140018190 f   utils:StrUtil.obj
 0001:000171d0       ?Get@Str@str@@QEBAPEADXZ   00000001400181d0 f   utils:StrUtil.obj
 0001:000171f0       ?CStr@Str@str@@QEBAPEADXZ  00000001400181f0 f   utils:StrUtil.obj
 0001:00017210       ?LastChar@Str@str@@QEBADXZ 0000000140018210 f   utils:StrUtil.obj
 0001:00017250       ??0WStr@str@@QEAA@_KPEAUAllocator@@@Z 0000000140018250 f   utils:StrUtil.obj
 0001:000172d0       ??0WStr@str@@QEAA@AEBU01@@Z 00000001400182d0 f   utils:StrUtil.obj
 0001:00017390       ??0WStr@str@@QEAA@PEB_W@Z  0000000140018390 f   utils:StrUtil.obj
 0001:00017400       ??4WStr@str@@QEAAAEAU01@AEBU01@@Z 0000000140018400 f   utils:StrUtil.obj
 0001:000174a0       ??1WStr@str@@QEAA@XZ       00000001400184a0 f   utils:StrUtil.obj
 0001:000174c0       ?Reset@WStr@str@@QEAAXXZ   00000001400184c0 f   utils:StrUtil.obj
 0001:00017550       ?at@WStr@str@@QEBAAEA_W_K@Z 0000000140018550 f   utils:StrUtil.obj
 0001:000175b0       ?at@WStr@str@@QEBAAEA_WH@Z 00000001400185b0 f   utils:StrUtil.obj
 0001:00017600       ??AWStr@str@@QEBAAEA_W_K@Z 0000000140018600 f   utils:StrUtil.obj
 0001:00017630       ??AWStr@str@@QEBAAEA_WJ@Z  0000000140018630 f   utils:StrUtil.obj
 0001:00017680       ??AWStr@str@@QEBAAEA_WK@Z  0000000140018680 f   utils:StrUtil.obj
 0001:000176b0       ??AWStr@str@@QEBAAEA_WH@Z  00000001400186b0 f   utils:StrUtil.obj
 0001:00017700       ?at@WStr@str@@QEBAAEA_WI@Z 0000000140018700 f   utils:StrUtil.obj
 0001:00017730       ??AWStr@str@@QEBAAEA_WI@Z  0000000140018730 f   utils:StrUtil.obj
 0001:00017760       ?size@WStr@str@@QEBA_KXZ   0000000140018760 f   utils:StrUtil.obj
 0001:00017780       ?isize@WStr@str@@QEBAHXZ   0000000140018780 f   utils:StrUtil.obj
 0001:000177a0       ?InsertAt@WStr@str@@QEAA_N_KAEB_W@Z 00000001400187a0 f   utils:StrUtil.obj
 0001:00017800       ?AppendChar@WStr@str@@QEAA_N_W@Z 0000000140018800 f   utils:StrUtil.obj
 0001:00017840       ?Append@WStr@str@@QEAA_NPEB_W_K@Z 0000000140018840 f   utils:StrUtil.obj
 0001:000178d0       ?RemoveAt@WStr@str@@QEAA_W_K0@Z 00000001400188d0 f   utils:StrUtil.obj
 0001:000179d0       ?RemoveLast@WStr@str@@QEAA_WXZ 00000001400189d0 f   utils:StrUtil.obj
 0001:00017a20       ?Last@WStr@str@@QEBAAEA_WXZ 0000000140018a20 f   utils:StrUtil.obj
 0001:00017a80       ?StealData@WStr@str@@QEAAPEA_WXZ 0000000140018a80 f   utils:StrUtil.obj
 0001:00017b10       ?LendData@WStr@str@@QEBAPEA_WXZ 0000000140018b10 f   utils:StrUtil.obj
 0001:00017b30       ?Find@WStr@str@@QEBAHAEB_W_K@Z 0000000140018b30 f   utils:StrUtil.obj
 0001:00017ba0       ?Contains@WStr@str@@QEBA_NAEB_W@Z 0000000140018ba0 f   utils:StrUtil.obj
 0001:00017bf0       ?Remove@WStr@str@@QEAAHAEB_W@Z 0000000140018bf0 f   utils:StrUtil.obj
 0001:00017c50       ?IsEmpty@WStr@str@@QEBA_NXZ 0000000140018c50 f   utils:StrUtil.obj
 0001:00017c90       ?Set@WStr@str@@QEAAXPEB_W@Z 0000000140018c90 f   utils:StrUtil.obj
 0001:00017cd0       ?Get@WStr@str@@QEBAPEA_WXZ 0000000140018cd0 f   utils:StrUtil.obj
 0001:00017cf0       ?LastChar@WStr@str@@QEBA_WXZ 0000000140018cf0 f   utils:StrUtil.obj
 0001:00017d30       ?Replace@str@@YA_NAEAUWStr@1@PEB_W1@Z 0000000140018d30 f   utils:StrUtil.obj
 0001:00017dc0       ?ParseInt@@YAHPEBD@Z       0000000140018dc0 f   utils:StrUtil.obj
 0001:00017eb0       ?IsValidProgramVersion@@YA_NPEBD@Z 0000000140018eb0 f   utils:StrUtil.obj
 0001:00017f80       ?CompareProgramVersion@@YAHPEBD0@Z 0000000140018f80 f   utils:StrUtil.obj
 0001:00018210       ?IsEqual@@YA_NAEBUStrSpan@@0@Z 0000000140019210 f   utils:StrUtil.obj
 0001:0001b5c0       ??$AllocArray@D@@YAPEAD_K@Z 000000014001c5c0 f i utils:StrUtil.obj
 0001:0001b5f0       ??$AllocArray@D@Allocator@@SAPEADPEAU0@_K@Z 000000014001c5f0 f i utils:StrUtil.obj
 0001:0001b630       ??$max@I@std@@YAAEBIAEBI0@Z 000000014001c630 f i utils:StrUtil.obj
 0001:0001b690       ??0?$Span@D@@QEAA@XZ       000000014001c690 f i utils:StrUtil.obj
 0001:0001b6c0       ??0Arg@fmt@@QEAA@PEBD@Z    000000014001c6c0 f i utils:StrUtil.obj
 0001:0001b720       ??0Arg@fmt@@QEAA@_J@Z      000000014001c720 f i utils:StrUtil.obj
 0001:0001b780       ??0ByteSlice@@QEAA@PEBE_K@Z 000000014001c780 f i utils:StrUtil.obj
 0001:0001b7e0       ?CStr@StrSpan@@QEBAPEADXZ  000000014001c7e0 f i utils:StrUtil.obj
 0001:0001b800       ?Len@StrSpan@@QEBAHXZ      000000014001c800 f i utils:StrUtil.obj
 0001:0001b820       ?Set@AutoFree@@QEAAXPEBD@Z 000000014001c820 f i utils:StrUtil.obj
 0001:0001b860       ?Set@AutoFreeWStr@@QEAAXPEB_W@Z 000000014001c860 f i utils:StrUtil.obj
 0001:0001b8a0       ?data@ByteSlice@@QEBAPEAEXZ 000000014001c8a0 f i utils:StrUtil.obj
 0001:0001b8c0       ?empty@ByteSlice@@QEBA_NXZ 000000014001c8c0 f i utils:StrUtil.obj
 0001:0001b900       ?size@ByteSlice@@QEBA_KXZ  000000014001c900 f i utils:StrUtil.obj
 0001:0001b920       ?strchr@@YAPEADQEADH@Z     000000014001c920 f i utils:StrUtil.obj
 0001:0001b950       ?strrchr@@YAPEADQEADH@Z    000000014001c950 f i utils:StrUtil.obj
 0001:0001b980       ?wcschr@@YAPEA_WPEA_W_W@Z  000000014001c980 f i utils:StrUtil.obj
 0001:0001b9b0       __local_stdio_printf_options 000000014001c9b0 f i utils:StrUtil.obj
 0001:0001b9c0       __local_stdio_scanf_options 000000014001c9c0 f i utils:StrUtil.obj
 0001:0001b9d0       _vsprintf_s_l              000000014001c9d0 f i utils:StrUtil.obj
 0001:0001ba60       _vsscanf_s_l               000000014001ca60 f i utils:StrUtil.obj
 0001:0001bad0       sprintf_s                  000000014001cad0 f i utils:StrUtil.obj
 0001:0001bb40       sscanf_s                   000000014001cb40 f i utils:StrUtil.obj
 0001:0001bba0       vsnprintf                  000000014001cba0 f i utils:StrUtil.obj
 0001:0001bc40       vsscanf_s                  000000014001cc40 f i utils:StrUtil.obj
 0001:0001bc80       ?GetTempAllocator@@YAPEAUAllocator@@XZ 000000014001cc80 f   utils:TempAllocator.obj
 0001:0001bd70       ?DestroyTempAllocator@@YAXXZ 000000014001cd70 f   utils:TempAllocator.obj
 0001:0001be00       ?ResetTempAllocator@@YAXXZ 000000014001ce00 f   utils:TempAllocator.obj
 0001:0001be60       ?DupTemp@str@@YAPEADPEBD_K@Z 000000014001ce60 f   utils:TempAllocator.obj
 0001:0001be90       ?DupTemp@str@@YAPEA_WPEB_W_K@Z 000000014001ce90 f   utils:TempAllocator.obj
 0001:0001bec0       ?JoinTemp@str@@YAPEADPEBD00@Z 000000014001cec0 f   utils:TempAllocator.obj
 0001:0001bf00       ?JoinTemp@str@@YAPEADPEBD000@Z 000000014001cf00 f   utils:TempAllocator.obj
 0001:0001bf60       ?JoinTemp@str@@YAPEADPEBD0000@Z 000000014001cf60 f   utils:TempAllocator.obj
 0001:0001bfc0       ?JoinTemp@str@@YAPEA_WPEB_W00@Z 000000014001cfc0 f   utils:TempAllocator.obj
 0001:0001c000       ?ReplaceTemp@str@@YAPEADPEBD00@Z 000000014001d000 f   utils:TempAllocator.obj
 0001:0001c280       ?ReplaceNoCaseTemp@str@@YAPEADPEBD00@Z 000000014001d280 f   utils:TempAllocator.obj
 0001:0001c330       ?FormatTemp@str@@YAPEADPEBDZZ 000000014001d330 f   utils:TempAllocator.obj
 0001:0001c3a0       ?ToUtf8Temp@@YAPEADPEB_W_K@Z 000000014001d3a0 f   utils:TempAllocator.obj
 0001:0001c410       ?ToWStrTemp@@YAPEA_WPEBD_K@Z 000000014001d410 f   utils:TempAllocator.obj
 0001:0001c480       ?ToWStrTemp@@YAPEA_WAEBUStr@str@@@Z 000000014001d480 f   utils:TempAllocator.obj
 0001:0001c6f0       ?StrLess@@YA_NPEBD0@Z      000000014001d6f0 f   utils:StrVec.obj
 0001:0001c780       ?StrLessNoCase@@YA_NPEBD0@Z 000000014001d780 f   utils:StrVec.obj
 0001:0001c810       ?StrLessNatural@@YA_NPEBD0@Z 000000014001d810 f   utils:StrVec.obj
 0001:0001c860       ?ToByteSlice@@YA?AUByteSlice@@PEBD@Z 000000014001d860 f   utils:StrVec.obj
 0001:0001c8b0       ??0StrVec@@QEAA@H@Z        000000014001d8b0 f   utils:StrVec.obj
 0001:0001c930       ??0StrVec@@QEAA@AEBU0@@Z   000000014001d930 f   utils:StrVec.obj
 0001:0001c9b0       ??4StrVec@@QEAAAEAU0@AEBU0@@Z 000000014001d9b0 f   utils:StrVec.obj
 0001:0001ca10       ??1StrVec@@QEAA@XZ         000000014001da10 f   utils:StrVec.obj
 0001:0001ca40       ?Reset@StrVec@@QEAAXPEAUStrVecPage@@@Z 000000014001da40 f   utils:StrVec.obj
 0001:0001cad0       ?Size@StrVec@@QEBAHXZ      000000014001dad0 f   utils:StrVec.obj
 0001:0001caf0       ?IsEmpty@StrVec@@QEBA_NXZ  000000014001daf0 f   utils:StrVec.obj
 0001:0001cb30       ?At@StrVec@@QEBAPEADH@Z    000000014001db30 f   utils:StrVec.obj
 0001:0001cbd0       ?AtSpan@StrVec@@QEBA?AUStrSpan@@H@Z 000000014001dbd0 f   utils:StrVec.obj
 0001:0001cc80       ?AtDataRaw@StrVec@@QEBAPEAXH@Z 000000014001dc80 f   utils:StrVec.obj
 0001:0001cd50       ??AStrVec@@QEBAPEADH@Z     000000014001dd50 f   utils:StrVec.obj
 0001:0001cda0       ?Append@StrVec@@QEAAPEADPEBDH@Z 000000014001dda0 f   utils:StrVec.obj
 0001:0001cea0       ?SetAt@StrVec@@QEAAPEADHPEBDH@Z 000000014001dea0 f   utils:StrVec.obj
 0001:0001d020       ?InsertAt@StrVec@@QEAAPEADHPEBDH@Z 000000014001e020 f   utils:StrVec.obj
 0001:0001d200       ?RemoveAt@StrVec@@QEAAPEADH@Z 000000014001e200 f   utils:StrVec.obj
 0001:0001d2a0       ?RemoveAtFast@StrVec@@QEAAPEADH@Z 000000014001e2a0 f   utils:StrVec.obj
 0001:0001d340       ?Remove@StrVec@@QEAA_NPEBD@Z 000000014001e340 f   utils:StrVec.obj
 0001:0001d3a0       ?Find@StrVec@@QEBAHAEBUStrSpan@@H@Z 000000014001e3a0 f   utils:StrVec.obj
 0001:0001d4c0       ?FindI@StrVec@@QEBAHAEBUStrSpan@@H@Z 000000014001e4c0 f   utils:StrVec.obj
 0001:0001d5e0       ?Contains@StrVec@@QEBA_NPEBDH@Z 000000014001e5e0 f   utils:StrVec.obj
 0001:0001d650       ??0iterator@StrVec@@QEAA@PEBU1@H@Z 000000014001e650 f   utils:StrVec.obj
 0001:0001d700       ??Diterator@StrVec@@QEBAPEADXZ 000000014001e700 f   utils:StrVec.obj
 0001:0001d770       ?Span@iterator@StrVec@@QEBA?AUStrSpan@@XZ 000000014001e770 f   utils:StrVec.obj
 0001:0001d7f0       ??Eiterator@StrVec@@QEAAAEAU01@XZ 000000014001e7f0 f   utils:StrVec.obj
 0001:0001d820       ??Eiterator@StrVec@@QEAA?AU01@H@Z 000000014001e820 f   utils:StrVec.obj
 0001:0001d870       ??Hiterator@StrVec@@QEAAAEAU01@H@Z 000000014001e870 f   utils:StrVec.obj
 0001:0001d8a0       ??8@YA_NAEBUiterator@StrVec@@0@Z 000000014001e8a0 f   utils:StrVec.obj
 0001:0001d900       ??9@YA_NAEBUiterator@StrVec@@0@Z 000000014001e900 f   utils:StrVec.obj
 0001:0001d960       ?begin@StrVec@@QEBA?AUiterator@1@XZ 000000014001e960 f   utils:StrVec.obj
 0001:0001d990       ?end@StrVec@@QEBA?AUiterator@1@XZ 000000014001e990 f   utils:StrVec.obj
 0001:0001d9d0       ?AppendIfNotExists@@YAHPEAUStrVec@@PEBDH@Z 000000014001e9d0 f   utils:StrVec.obj
 0001:0001da50       ?Sort@@YAXPEAUStrVec@@P6A_NPEBD1@Z@Z 000000014001ea50 f   utils:StrVec.obj
 0001:0001dab0       ?SortIndex@@YAXPEAUStrVec@@P6A_NPEBD1@Z@Z 000000014001eab0 f   utils:StrVec.obj
 0001:0001db80       ?SortNoCase@@YAXPEAUStrVec@@@Z 000000014001eb80 f   utils:StrVec.obj
 0001:0001dbb0       ?SortNatural@@YAXPEAUStrVec@@@Z 000000014001ebb0 f   utils:StrVec.obj
 0001:0001dbe0       ?Split@@YAHPEAUStrVec@@PEBD1_NH@Z 000000014001ebe0 f   utils:StrVec.obj
 0001:0001dd70       ?Join@@YAPEADPEAUStrVec@@PEBD@Z 000000014001ed70 f   utils:StrVec.obj
 0001:0001de10       ?JoinTemp@@YAPEADPEAUStrVec@@PEBD@Z 000000014001ee10 f   utils:StrVec.obj
 0001:0001deb0       ?StrVecPageNext@@YAPEAUStrVecPage@@PEAU1@@Z 000000014001eeb0 f   utils:StrVec.obj
 0001:0001ded0       ?StrVecPageSize@@YAHPEAUStrVecPage@@@Z 000000014001eed0 f   utils:StrVec.obj
 0001:0001def0       ?At@StrVecPage@@QEBAPEADH@Z 000000014001eef0 f   utils:StrVec.obj
 0001:0001df30       ?AtSpan@StrVecPage@@QEBA?AUStrSpan@@H@Z 000000014001ef30 f   utils:StrVec.obj
 0001:0001df90       ?AtDataRaw@StrVecPage@@QEBAPEAXH@Z 000000014001ef90 f   utils:StrVec.obj
 0001:0001dfd0       ?RemoveAt@StrVecPage@@QEAAPEADH@Z 000000014001efd0 f   utils:StrVec.obj
 0001:0001e0d0       ?RemoveAtFast@StrVecPage@@QEAAPEADH@Z 000000014001f0d0 f   utils:StrVec.obj
 0001:0001e1c0       ?AtHelper@StrVecPage@@QEBAPEADHPEAH@Z 000000014001f1c0 f   utils:StrVec.obj
 0001:0001e2a0       ?BytesLeft@StrVecPage@@QEAAHXZ 000000014001f2a0 f   utils:StrVec.obj
 0001:0001e340       ?Append@StrVecPage@@QEAAPEADPEBDH@Z 000000014001f340 f   utils:StrVec.obj
 0001:0001e380       ?Append@StrVecPage@@QEAAPEADAEBUStrSpan@@@Z 000000014001f380 f   utils:StrVec.obj
 0001:0001e3e0       ?SetAt@StrVecPage@@QEAAPEADHPEBDH@Z 000000014001f3e0 f   utils:StrVec.obj
 0001:0001e550       ?InsertAt@StrVecPage@@QEAAPEADHPEBDH@Z 000000014001f550 f   utils:StrVec.obj
 0001:00020180       ??$<move>@AEAU?$pair@PEAUStrVecPage@@H@std@@@@YA$$QEAU?$pair@PEAUStrVecPage@@H@std@@AEAU01@@Z 0000000140021180 f i utils:StrVec.obj
 0001:00020190       ??$?0AEAPEAHAEAPEAH$0A@@?$pair@PEAHPEAH@std@@QEAA@AEAPEAH0@Z 0000000140021190 f i utils:StrVec.obj
 0001:000201e0       ??$?0AEAPEAUStrVecPage@@AEAH$0A@@?$pair@PEAUStrVecPage@@H@std@@QEAA@AEAPEAUStrVecPage@@AEAH@Z 00000001400211e0 f i utils:StrVec.obj
 0001:00020230       ??$?0AEAPEAUStrVecPage@@H$0A@@?$pair@PEAUStrVecPage@@H@std@@QEAA@AEAPEAUStrVecPage@@$$QEAH@Z 0000000140021230 f i utils:StrVec.obj
 0001:00020280       ??$?0AEAPEA_KAEAPEA_K$0A@@?$pair@PEA_KPEA_K@std@@QEAA@AEAPEA_K0@Z 0000000140021280 f i utils:StrVec.obj
 0001:00020370       ??$AllocArray@H@@YAPEAH_K@Z 0000000140021370 f i utils:StrVec.obj
 0001:000203a0       ??$_Adl_verify_range@PEAHPEAH@std@@YAXAEBQEAH0@Z 00000001400213a0 f i utils:StrVec.obj
 0001:000203b0       ??$_Adl_verify_range@PEA_KPEA_K@std@@YAXAEBQEA_K0@Z 00000001400213b0 f i utils:StrVec.obj
 0001:000203c0       ??$_Copy_backward_memmove@PEAHPEAH@std@@YAPEAHPEAH00@Z 00000001400213c0 f i utils:StrVec.obj
 0001:00020490       ??$_Copy_backward_memmove@PEA_KPEA_K@std@@YAPEA_KPEA_K00@Z 0000000140021490 f i utils:StrVec.obj
 0001:00020560       ??$_Get_unwrapped@AEBQEAH@std@@YA?A_TAEBQEAH@Z 0000000140021560 f i utils:StrVec.obj
 0001:00020580       ??$_Get_unwrapped@AEBQEA_K@std@@YA?A_TAEBQEA_K@Z 0000000140021580 f i utils:StrVec.obj
 0001:00020ed0       ??$_Move_backward_unchecked@PEAHPEAH@std@@YAPEAHPEAH00@Z 0000000140021ed0 f i utils:StrVec.obj
 0001:00020f70       ??$_Move_backward_unchecked@PEA_KPEA_K@std@@YAPEA_KPEA_K00@Z 0000000140021f70 f i utils:StrVec.obj
 0001:00021010       ??$_Next_iter@PEAH@std@@YAPEAHPEAH@Z 0000000140022010 f i utils:StrVec.obj
 0001:00021030       ??$_Next_iter@PEA_K@std@@YAPEA_KPEA_K@Z 0000000140022030 f i utils:StrVec.obj
 0001:000220b0       ??$_Prev_iter@PEAH@std@@YAPEAHPEAH@Z 00000001400230b0 f i utils:StrVec.obj
 0001:000220d0       ??$_Prev_iter@PEA_K@std@@YAPEA_KPEA_K@Z 00000001400230d0 f i utils:StrVec.obj
 0001:00022690       ??$_To_address@PEAH@std@@YA?A_PAEBQEAH@Z 0000000140023690 f i utils:StrVec.obj
 0001:000226c0       ??$_To_address@PEA_K@std@@YA?A_PAEBQEA_K@Z 00000001400236c0 f i utils:StrVec.obj
 0001:000226f0       ??$get@$00PEAUStrVecPage@@H@std@@YA$$QEAH$$QEAU?$pair@PEAUStrVecPage@@H@0@@Z 00000001400236f0 f i utils:StrVec.obj
 0001:00022710       ??$get@$0A@PEAUStrVecPage@@H@std@@YA$$QEAPEAUStrVecPage@@$$QEAU?$pair@PEAUStrVecPage@@H@0@@Z 0000000140023710 f i utils:StrVec.obj
 0001:00022860       ??$swap@_K$0A@@std@@YAXAEA_K0@Z 0000000140023860 f i utils:StrVec.obj
 0001:000228b0       ??$to_address@H@std@@YAPEAHQEAH@Z 00000001400238b0 f i utils:StrVec.obj
 0001:000228c0       ??$to_address@_K@std@@YAPEA_KQEA_K@Z 00000001400238c0 f i utils:StrVec.obj
 0001:000228d0       ??0StrSpan@@QEAA@XZ        00000001400238d0 f i utils:StrVec.obj
 0001:00022900       ?Size@?$Span@D@@QEBAHXZ    0000000140023900 f i utils:StrVec.obj
 0001:00022920       ?is_constant_evaluated@std@@YA_NXZ 0000000140023920 f i utils:StrVec.obj
 0001:00022930       ?Utf8ToWStr@strconv@@YAPEA_WPEBD_KPEAUAllocator@@@Z 0000000140023930 f   utils:StrconvUtil.obj
 0001:00022a40       ?WStrToUtf8@strconv@@YAPEADPEB_W_KPEAUAllocator@@@Z 0000000140023a40 f   utils:StrconvUtil.obj
 0001:00022a80       ?WStrToCodePage@strconv@@YAPEADIPEB_W_KPEAUAllocator@@@Z 0000000140023a80 f   utils:StrconvUtil.obj
 0001:00022c20       ?ToMultiByteTemp@strconv@@YAPEADPEBDII@Z 0000000140023c20 f   utils:StrconvUtil.obj
 0001:00022d20       ?StrCPToWStr@strconv@@YAPEA_WPEBDIH@Z 0000000140023d20 f   utils:StrconvUtil.obj
 0001:00022e00       ?StrCPToWStrTemp@strconv@@YAPEA_WPEBDIH@Z 0000000140023e00 f   utils:StrconvUtil.obj
 0001:00022ee0       ?StrToUtf8Temp@strconv@@YAPEADPEBDI@Z 0000000140023ee0 f   utils:StrconvUtil.obj
 0001:00022f10       ?UnknownToUtf8Temp@strconv@@YAPEADPEBD@Z 0000000140023f10 f   utils:StrconvUtil.obj
 0001:00023140       ?WStrToAnsi@strconv@@YAPEADPEB_W@Z 0000000140024140 f   utils:StrconvUtil.obj
 0001:00023170       ?Utf8ToAnsi@strconv@@YAPEADPEBD@Z 0000000140024170 f   utils:StrconvUtil.obj
 0001:000231b0       ?AnsiToWStrTemp@strconv@@YAPEA_WPEBD_K@Z 00000001400241b0 f   utils:StrconvUtil.obj
 0001:000231e0       ?AnsiToUtf8@strconv@@YAPEADPEBD_K@Z 00000001400241e0 f   utils:StrconvUtil.obj
 0001:00023230       ?ToUtf8@@YAPEADPEB_W_K@Z   0000000140024230 f   utils:StrconvUtil.obj
 0001:00023260       ?ToWStr@@YAPEA_WPEBD_K@Z   0000000140024260 f   utils:StrconvUtil.obj
 0001:000234e0       ??$AllocArray@_W@@YAPEA_W_K@Z 00000001400244e0 f i utils:StrconvUtil.obj
 0001:00023510       ??$AllocArray@_W@Allocator@@SAPEA_WPEAU0@_K@Z 0000000140024510 f i utils:StrconvUtil.obj
 0001:00023550       ??$AllocArrayTemp@_W@@YAPEA_W_K@Z 0000000140024550 f i utils:StrconvUtil.obj
 0001:00023590       ??$swap@D$0A@@std@@YAXAEAD0@Z 0000000140024590 f i utils:StrconvUtil.obj
 0001:000235e0       ?ToBool@@YA_NH@Z           00000001400245e0 f   utils:WinUtil.obj
 0001:00023610       ?NextSubclassId@@YA_KXZ    0000000140024610 f   utils:WinUtil.obj
 0001:00023640       ?ClientRECT@@YA?AUtagRECT@@PEAUHWND__@@@Z 0000000140024640 f   utils:WinUtil.obj
 0001:00023670       ?ClientRect@@YA?AURect@@PEAUHWND__@@@Z 0000000140024670 f   utils:WinUtil.obj
 0001:00023700       ?WindowRect@@YA?AURect@@PEAUHWND__@@@Z 0000000140024700 f   utils:WinUtil.obj
 0001:00023790       ?MapRectToWindow@@YA?AURect@@U1@PEAUHWND__@@1@Z 0000000140024790 f   utils:WinUtil.obj
 0001:00023830       ?EditSelectAll@@YAXPEAUHWND__@@@Z 0000000140024830 f   utils:WinUtil.obj
 0001:00023860       ?EditIdealDy@@YAHPEAUHWND__@@_NH@Z 0000000140024860 f   utils:WinUtil.obj
 0001:00023990       ?EditImplementCtrlBack@@YAXPEAUHWND__@@@Z 0000000140024990 f   utils:WinUtil.obj
 0001:00023b30       ?ListBox_AppendString_NoSort@@YAXPEAUHWND__@@PEB_W@Z 0000000140024b30 f   utils:WinUtil.obj
 0001:00023b70       ?ListBoxGetTopIndex@@YAHPEAUHWND__@@@Z 0000000140024b70 f   utils:WinUtil.obj
 0001:00023bb0       ?ListBoxSetTopIndex@@YA_NPEAUHWND__@@H@Z 0000000140024bb0 f   utils:WinUtil.obj
 0001:00023c10       ?IsValidHandle@@YA_NPEAX@Z 0000000140024c10 f   utils:WinUtil.obj
 0001:00023c50       ?SafeCloseHandle@@YA_NPEAPEAX@Z 0000000140024c50 f   utils:WinUtil.obj
 0001:00023cc0       ?FillWndClassEx@@YAXAEAUtagWNDCLASSEXW@@PEB_WP6A_JPEAUHWND__@@I_K_J@Z@Z 0000000140024cc0 f   utils:WinUtil.obj
 0001:00023d50       ?MoveWindow@@YAXPEAUHWND__@@URect@@@Z 0000000140024d50 f   utils:WinUtil.obj
 0001:00023db0       ?MoveWindow@@YAXPEAUHWND__@@PEAUtagRECT@@@Z 0000000140024db0 f   utils:WinUtil.obj
 0001:00023e30       ?IsOs64@@YA_NXZ            0000000140024e30 f   utils:WinUtil.obj
 0001:00023e70       ?IsProcess64@@YA_NXZ       0000000140024e70 f   utils:WinUtil.obj
 0001:00023e80       ?IsProcess32@@YA_NXZ       0000000140024e80 f   utils:WinUtil.obj
 0001:00023e90       ?IsArmBuild@@YA_NXZ        0000000140024e90 f   utils:WinUtil.obj
 0001:00023ea0       ?IsRunningInWow64@@YA_NXZ  0000000140024ea0 f   utils:WinUtil.obj
 0001:00023f20       ?IsProcessAndOsArchSame@@YA_NXZ 0000000140024f20 f   utils:WinUtil.obj
 0001:00023f70       ?GetOsVersion@@YA_NAEAU_OSVERSIONINFOEXW@@@Z 0000000140024f70 f   utils:WinUtil.obj
 0001:00023fd0       ?OsNameFromVerTemp@@YAPEADAEBU_OSVERSIONINFOEXW@@@Z 0000000140024fd0 f   utils:WinUtil.obj
 0001:00024190       ?GetWindowsVerTemp@@YAPEADXZ 0000000140025190 f   utils:WinUtil.obj
 0001:00024220       ?GetEnvVariableTemp@@YAPEADPEBD@Z 0000000140025220 f   utils:WinUtil.obj
 0001:00024340       ?GetLastErrorStrTemp@@YAPEADK@Z 0000000140025340 f   utils:WinUtil.obj
 0001:000244e0       ?LogLastError@@YAXK@Z      00000001400254e0 f   utils:WinUtil.obj
 0001:00024540       ?DbgOutLastError@@YAXK@Z   0000000140025540 f   utils:WinUtil.obj
 0001:00024570       ?RegKeyNameTemp@@YAPEBDPEAUHKEY__@@@Z 0000000140025570 f   utils:WinUtil.obj
 0001:000245c0       ?RegKeyNameWTemp@@YAPEBDPEAUHKEY__@@@Z 00000001400255c0 f   utils:WinUtil.obj
 0001:00024600       ?RegKeyExists@@YA_NPEAUHKEY__@@PEBD@Z 0000000140025600 f   utils:WinUtil.obj
 0001:00024680       ?ReadRegStrTemp@@YAPEADPEAUHKEY__@@PEBD1@Z 0000000140025680 f   utils:WinUtil.obj
 0001:00024820       ?LoggedReadRegStrTemp@@YAPEADPEAUHKEY__@@PEBD1@Z 0000000140025820 f   utils:WinUtil.obj
 0001:00024890       ?ReadRegStr2Temp@@YAPEADPEBD0@Z 0000000140025890 f   utils:WinUtil.obj
 0001:000248f0       ?LoggedReadRegStr2Temp@@YAPEADPEBD0@Z 00000001400258f0 f   utils:WinUtil.obj
 0001:00024950       ?WriteRegStr@@YA_NPEAUHKEY__@@PEBD11@Z 0000000140025950 f   utils:WinUtil.obj
 0001:00024a20       ?LoggedWriteRegStr@@YA_NPEAUHKEY__@@PEBD11@Z 0000000140025a20 f   utils:WinUtil.obj
 0001:00024b50       ?ReadRegDWORD@@YA_NPEAUHKEY__@@PEBD1AEAK@Z 0000000140025b50 f   utils:WinUtil.obj
 0001:00024c00       ?WriteRegDWORD@@YA_NPEAUHKEY__@@PEBD1K@Z 0000000140025c00 f   utils:WinUtil.obj
 0001:00024ca0       ?LoggedWriteRegDWORD@@YA_NPEAUHKEY__@@PEBD1K@Z 0000000140025ca0 f   utils:WinUtil.obj
 0001:00024dd0       ?LoggedWriteRegNone@@YA_NPEAUHKEY__@@PEBD1@Z 0000000140025dd0 f   utils:WinUtil.obj
 0001:00024e90       ?CreateRegKey@@YA_NPEAUHKEY__@@PEBD@Z 0000000140025e90 f   utils:WinUtil.obj
 0001:00024f30       ?DeleteRegKey@@YA_NPEAUHKEY__@@PEBD_N@Z 0000000140025f30 f   utils:WinUtil.obj
 0001:00024fc0       ?LoggedDeleteRegKey@@YA_NPEAUHKEY__@@PEBD_N@Z 0000000140025fc0 f   utils:WinUtil.obj
 0001:000250a0       ?DeleteRegValue@@YA_NPEAUHKEY__@@PEBD1@Z 00000001400260a0 f   utils:WinUtil.obj
 0001:00025130       ?LoggedDeleteRegValue@@YA_NPEAUHKEY__@@PEBD1@Z 0000000140026130 f   utils:WinUtil.obj
 0001:00025200       ?CLSIDFromString@@YAJPEBDPEAU_GUID@@@Z 0000000140026200 f   utils:WinUtil.obj
 0001:00025240       ?GetSpecialFolderTemp@@YAPEADH_N@Z 0000000140026240 f   utils:WinUtil.obj
 0001:000252f0       ?GetTempDirTemp@@YAPEADXZ  00000001400262f0 f   utils:WinUtil.obj
 0001:000253a0       ?GetSelfExePathTemp@@YAPEADXZ 00000001400263a0 f   utils:WinUtil.obj
 0001:000254b0       ?GetSelfExeDirTemp@@YAPEADXZ 00000001400264b0 f   utils:WinUtil.obj
 0001:000254e0       ?ChangeCurrDirToDocuments@@YAXXZ 00000001400264e0 f   utils:WinUtil.obj
 0001:00025530       ?FileTimeDiffInSecs@@YAHAEBU_FILETIME@@0@Z 0000000140026530 f   utils:WinUtil.obj
 0001:000255a0       ?ResolveLnkTemp@@YAPEADPEBD@Z 00000001400265a0 f   utils:WinUtil.obj
 0001:000258f0       ?CreateShortcut@@YA_NPEBD000H@Z 00000001400268f0 f   utils:WinUtil.obj
 0001:00025c40       ?GetDataObjectForFile@@YAPEAUIDataObject@@PEBDPEAUHWND__@@@Z 0000000140026c40 f   utils:WinUtil.obj
 0001:00025eb0       ?LaunchProcessWithCmdLine@@YAPEAXPEBD0@Z 0000000140026eb0 f   utils:WinUtil.obj
 0001:00025fd0       ?LaunchProcessInDir@@YAPEAXPEBD0K@Z 0000000140026fd0 f   utils:WinUtil.obj
 0001:000260d0       ?CreateProcessHelper@@YA_NPEBD0@Z 00000001400270d0 f   utils:WinUtil.obj
 0001:00026170       ?LaunchFileShell@@YA_NPEBD00_N@Z 0000000140027170 f   utils:WinUtil.obj
 0001:000262a0       ?LaunchBrowser@@YA_NPEBD@Z 00000001400272a0 f   utils:WinUtil.obj
 0001:000262d0       ?OpenPathInExplorer@@YAXPEBD@Z 00000001400272d0 f   utils:WinUtil.obj
 0001:00026320       ?RunNonElevated@@YAXPEBD@Z 0000000140027320 f   utils:WinUtil.obj
 0001:00026490       ?LaunchElevated@@YA_NPEBD0@Z 0000000140027490 f   utils:WinUtil.obj
 0001:000264d0       ?IsProcessRunningElevated@@YA_NXZ 00000001400274d0 f   utils:WinUtil.obj
 0001:000265d0       ?CanTalkToProcess@@YA_NK@Z 00000001400275d0 f   utils:WinUtil.obj
 0001:00026620       ?GetAccountType@@YAKXZ     0000000140027620 f   utils:WinUtil.obj
 0001:00026640       ?GetOriginalAccountType@@YAKXZ 0000000140027640 f   utils:WinUtil.obj
 0001:00026660       ?DisableDataExecution@@YAXXZ 0000000140027660 f   utils:WinUtil.obj
 0001:000266e0       ?RedirectIOToConsole@@YA_NXZ 00000001400276e0 f   utils:WinUtil.obj
 0001:000267d0       ?RedirectIOToExistingConsole@@YA_NXZ 00000001400277d0 f   utils:WinUtil.obj
 0001:00026820       ?HandleRedirectedConsoleOnShutdown@@YAXXZ 0000000140027820 f   utils:WinUtil.obj
 0001:00026870       ?IsKeyPressed@@YA_NH@Z     0000000140027870 f   utils:WinUtil.obj
 0001:000268d0       ?IsShiftPressed@@YA_NXZ    00000001400278d0 f   utils:WinUtil.obj
 0001:000268f0       ?IsAltPressed@@YA_NXZ      00000001400278f0 f   utils:WinUtil.obj
 0001:00026910       ?IsCtrlPressed@@YA_NXZ     0000000140027910 f   utils:WinUtil.obj
 0001:00026930       ?ShiftRectToWorkArea@@YA?AURect@@U1@PEAUHWND__@@_N@Z 0000000140027930 f   utils:WinUtil.obj
 0001:00026b10       ?GetWorkAreaRect@@YA?AURect@@U1@PEAUHWND__@@@Z 0000000140027b10 f   utils:WinUtil.obj
 0001:00026c20       ?LimitWindowSizeToScreen@@YAXPEAUHWND__@@AEAUtagSIZE@@@Z 0000000140027c20 f   utils:WinUtil.obj
 0001:00026d20       ?GetFullscreenRect@@YA?AURect@@PEAUHWND__@@@Z 0000000140027d20 f   utils:WinUtil.obj
 0001:00026e00       ?GetVirtualScreenRect@@YA?AURect@@XZ 0000000140027e00 f   utils:WinUtil.obj
 0001:00026e70       ?DrawRect@@YAXPEAUHDC__@@AEBURect@@@Z 0000000140027e70 f   utils:WinUtil.obj
 0001:00026f50       ?FillRect@@YAXPEAUHDC__@@AEBURect@@PEAUHBRUSH__@@@Z 0000000140027f50 f   utils:WinUtil.obj
 0001:00026fd0       ?FillRect@@YAXPEAUHDC__@@AEBURect@@K@Z 0000000140027fd0 f   utils:WinUtil.obj
 0001:00027080       ?DrawLine@@YAXPEAUHDC__@@AEBURect@@@Z 0000000140028080 f   utils:WinUtil.obj
 0001:000270f0       ?DrawCenteredText@@YAXPEAUHDC__@@URect@@PEBD_N@Z 00000001400280f0 f   utils:WinUtil.obj
 0001:000271f0       ?HwndMeasureText@@YA?AUSize@@PEAUHWND__@@PEBDPEAUHFONT__@@@Z 00000001400281f0 f   utils:WinUtil.obj
 0001:00027280       ?FontDyPx@@YAHPEAUHWND__@@PEAUHFONT__@@@Z 0000000140028280 f   utils:WinUtil.obj
 0001:000272c0       ?HdcDrawText@@YAHPEAUHDC__@@PEBDPEAUtagRECT@@IPEAUHFONT__@@@Z 00000001400282c0 f   utils:WinUtil.obj
 0001:00027370       ?HdcDrawText@@YAHPEAUHDC__@@PEBDAEBURect@@IPEAUHFONT__@@@Z 0000000140028370 f   utils:WinUtil.obj
 0001:00027410       ?HdcDrawText@@YAHPEAUHDC__@@PEBDAEBUPoint@@IPEAUHFONT__@@@Z 0000000140028410 f   utils:WinUtil.obj
 0001:000274d0       ?HdcMeasureText@@YA?AUSize@@PEAUHDC__@@PEBDIPEAUHFONT__@@@Z 00000001400284d0 f   utils:WinUtil.obj
 0001:000276d0       ?HdcMeasureText@@YA?AUSize@@PEAUHDC__@@PEBDPEAUHFONT__@@@Z 00000001400286d0 f   utils:WinUtil.obj
 0001:00027730       ?HwndSetFocus@@YAPEAUHWND__@@PEAU1@@Z 0000000140028730 f   utils:WinUtil.obj
 0001:00027750       ?HwndIsFocused@@YA_NPEAUHWND__@@@Z 0000000140028750 f   utils:WinUtil.obj
 0001:00027790       ?IsCursorOverWindow@@YA_NPEAUHWND__@@@Z 0000000140028790 f   utils:WinUtil.obj
 0001:000277f0       ?HwndGetParent@@YAPEAUHWND__@@PEAU1@@Z 00000001400287f0 f   utils:WinUtil.obj
 0001:00027810       ?HwndGetClassName@@YAPEADPEAUHWND__@@@Z 0000000140028810 f   utils:WinUtil.obj
 0001:000278c0       ?HwndGetCursorPos@@YA?AUPoint@@PEAUHWND__@@@Z 00000001400288c0 f   utils:WinUtil.obj
 0001:00027960       ?MapWindowPoints@@YAHPEAUHWND__@@0PEAUPoint@@H@Z 0000000140028960 f   utils:WinUtil.obj
 0001:00027ac0       ?HwndScreenToClient@@YAXPEAUHWND__@@AEAUPoint@@@Z 0000000140028ac0 f   utils:WinUtil.obj
 0001:00027b20       ?HwndMakeVisible@@YAXPEAUHWND__@@@Z 0000000140028b20 f   utils:WinUtil.obj
 0001:00027b60       ?IsMouseOverRect@@YA_NPEAUHWND__@@AEBURect@@@Z 0000000140028b60 f   utils:WinUtil.obj
 0001:00027ba0       ?CenterDialog@@YAXPEAUHWND__@@0@Z 0000000140028ba0 f   utils:WinUtil.obj
 0001:00027d60       ?SetDlgItemFont@@YAXPEAUHWND__@@HPEAUHFONT__@@@Z 0000000140028d60 f   utils:WinUtil.obj
 0001:00027db0       ?GetDefaultPrinterNameTemp@@YAPEADXZ 0000000140028db0 f   utils:WinUtil.obj
 0001:00027e30       ?CopyTextToClipboard@@YA_NPEBD@Z 0000000140028e30 f   utils:WinUtil.obj
 0001:00027e50       ?AppendTextToClipboard@@YA_NPEBD@Z 0000000140028e50 f   utils:WinUtil.obj
 0001:00027e70       ?CopyImageToClipboard@@YA_NPEAUHBITMAP__@@_N@Z 0000000140028e70 f   utils:WinUtil.obj
 0001:00027ed0       ?IsWindowStyleSet@@YA_NPEAUHWND__@@K@Z 0000000140028ed0 f   utils:WinUtil.obj
 0001:00027f10       ?IsWindowStyleExSet@@YA_NPEAUHWND__@@K@Z 0000000140028f10 f   utils:WinUtil.obj
 0001:00027f80       ?SetWindowStyle@@YAXPEAUHWND__@@K_N@Z 0000000140028f80 f   utils:WinUtil.obj
 0001:00027fc0       ?SetWindowExStyle@@YAXPEAUHWND__@@K_N@Z 0000000140028fc0 f   utils:WinUtil.obj
 0001:00028000       ?HwndIsRtl@@YA_NPEAUHWND__@@@Z 0000000140029000 f   utils:WinUtil.obj
 0001:00028040       ?HwndSetRtl@@YAXPEAUHWND__@@_N@Z 0000000140029040 f   utils:WinUtil.obj
 0001:00028070       ?ChildPosWithinParent@@YA?AURect@@PEAUHWND__@@@Z 0000000140029070 f   utils:WinUtil.obj
 0001:000280f0       ?GetMenuFont@@YAPEAUHFONT__@@XZ 00000001400290f0 f   utils:WinUtil.obj
 0001:00028190       ?CreateSimpleFont@@YAPEAUHFONT__@@PEAUHDC__@@PEBDH@Z 0000000140029190 f   utils:WinUtil.obj
 0001:00028310       ?GetDefaultGuiFont@@YAPEAUHFONT__@@_N0@Z 0000000140029310 f   utils:WinUtil.obj
 0001:00028460       ?GetDefaultGuiFontOfSize@@YAPEAUHFONT__@@H@Z 0000000140029460 f   utils:WinUtil.obj
 0001:00028540       ?GetUserGuiFont@@YAPEAUHFONT__@@PEBDH@Z 0000000140029540 f   utils:WinUtil.obj
 0001:000286c0       ?GetSizeOfDefaultGuiFont@@YAHXZ 00000001400296c0 f   utils:WinUtil.obj
 0001:00028740       ?DeleteCreatedFonts@@YAXXZ 0000000140029740 f   utils:WinUtil.obj
 0001:000287e0       ?CreateStreamFromData@@YAPEAUIStream@@AEBUByteSlice@@@Z 00000001400297e0 f   utils:WinUtil.obj
 0001:00028980       ?GetDataFromStream@@YA?AUByteSlice@@PEAUIStream@@PEAJ@Z 0000000140029980 f   utils:WinUtil.obj
 0001:00028a30       ?GetStreamOrFileData@@YA?AUByteSlice@@PEAUIStream@@PEBD@Z 0000000140029a30 f   utils:WinUtil.obj
 0001:00028ab0       ?ReadDataFromStream@@YA_NPEAUIStream@@PEAX_K2@Z 0000000140029ab0 f   utils:WinUtil.obj
 0001:00028c00       ?GuessTextCodepage@@YAIPEBD_KI@Z 0000000140029c00 f   utils:WinUtil.obj
 0001:00028d90       ?NormalizeString@@YAPEADPEBDH@Z 0000000140029d90 f   utils:WinUtil.obj
 0001:00028ec0       ?ResizeHwndToClientArea@@YAXPEAUHWND__@@HH_N@Z 0000000140029ec0 f   utils:WinUtil.obj
 0001:00029020       ?ResizeWindow@@YAXPEAUHWND__@@HH@Z 000000014002a020 f   utils:WinUtil.obj
 0001:000290d0       ?MessageBoxWarningSimple@@YAXPEAUHWND__@@PEB_W1@Z 000000014002a0d0 f   utils:WinUtil.obj
 0001:00029130       ?MessageBoxNYI@@YAXPEAUHWND__@@@Z 000000014002a130 f   utils:WinUtil.obj
 0001:00029160       ?RegisterServerDLL@@YA_NPEBD0@Z 000000014002a160 f   utils:WinUtil.obj
 0001:00029190       ?UnRegisterServerDLL@@YA_NPEBD0@Z 000000014002a190 f   utils:WinUtil.obj
 0001:000291d0       ?RegisterOrUnregisterServerDLL@@YA_NPEBD_N0@Z 000000014002a1d0 f   utils:WinUtil.obj
 0001:00029430       ?MenuSetChecked@@YAXPEAUHMENU__@@H_N@Z 000000014002a430 f   utils:WinUtil.obj
 0001:000294b0       ?MenuSetEnabled@@YA_NPEAUHMENU__@@H_N@Z 000000014002a4b0 f   utils:WinUtil.obj
 0001:00029550       ?MenuRemove@@YAXPEAUHMENU__@@H@Z 000000014002a550 f   utils:WinUtil.obj
 0001:000295a0       ?MenuEmpty@@YAXPEAUHMENU__@@@Z 000000014002a5a0 f   utils:WinUtil.obj
 0001:000295d0       ?MenuSetText@@YAXPEAUHMENU__@@HPEB_W@Z 000000014002a5d0 f   utils:WinUtil.obj
 0001:00029720       ?MenuSetText@@YAXPEAUHMENU__@@HPEBD@Z 000000014002a720 f   utils:WinUtil.obj
 0001:00029770       ?MenuToSafeStringTemp@@YAPEADPEBD@Z 000000014002a770 f   utils:WinUtil.obj
 0001:000297b0       ??0DoubleBuffer@@QEAA@PEAUHWND__@@URect@@@Z 000000014002a7b0 f   utils:WinUtil.obj
 0001:00029980       ??1DoubleBuffer@@QEAA@XZ   000000014002a980 f   utils:WinUtil.obj
 0001:000299d0       ?GetDC@DoubleBuffer@@QEBAPEAUHDC__@@XZ 000000014002a9d0 f   utils:WinUtil.obj
 0001:00029a00       ?Flush@DoubleBuffer@@QEBAXPEAUHDC__@@@Z 000000014002aa00 f   utils:WinUtil.obj
 0001:00029ab0       ??0DeferWinPosHelper@@QEAA@XZ 000000014002aab0 f   utils:WinUtil.obj
 0001:00029ae0       ??1DeferWinPosHelper@@QEAA@XZ 000000014002aae0 f   utils:WinUtil.obj
 0001:00029b00       ?End@DeferWinPosHelper@@QEAAXXZ 000000014002ab00 f   utils:WinUtil.obj
 0001:00029b40       ?SetWindowPos@DeferWinPosHelper@@QEAAXPEAUHWND__@@URect@@@Z 000000014002ab40 f   utils:WinUtil.obj
 0001:00029bc0       ?SetWindowPos@DeferWinPosHelper@@QEAAXPEAUHWND__@@0HHHHI@Z 000000014002abc0 f   utils:WinUtil.obj
 0001:00029c30       ?MoveWindow@DeferWinPosHelper@@QEAAXPEAUHWND__@@HHHHH@Z 000000014002ac30 f   utils:WinUtil.obj
 0001:00029cb0       ?MoveWindow@DeferWinPosHelper@@QEAAXPEAUHWND__@@URect@@@Z 000000014002acb0 f   utils:WinUtil.obj
 0001:00029d10       ?GetSize@BlittableBitmap@@QEAA?AUSize@@XZ 000000014002ad10 f   utils:WinUtil.obj
 0001:00029d40       ??0RenderedBitmap@@QEAA@PEAUHBITMAP__@@USize@@PEAX@Z 000000014002ad40 f   utils:WinUtil.obj
 0001:00029dd0       ??1RenderedBitmap@@UEAA@XZ 000000014002add0 f   utils:WinUtil.obj
 0001:00029e50       ?Clone@RenderedBitmap@@QEBAPEAU1@XZ 000000014002ae50 f   utils:WinUtil.obj
 0001:00029ee0       ?GetBitmap@RenderedBitmap@@QEBAPEAUHBITMAP__@@XZ 000000014002aee0 f   utils:WinUtil.obj
 0001:00029f00       ?IsValid@RenderedBitmap@@UEAA_NXZ 000000014002af00 f   utils:WinUtil.obj
 0001:00029f40       ?Blit@RenderedBitmap@@UEAA_NPEAUHDC__@@URect@@@Z 000000014002af40 f   utils:WinUtil.obj
 0001:00029f90       ?InitAllCommonControls@@YAXXZ 000000014002af90 f   utils:WinUtil.obj
 0001:00029fd0       ?GetBitmapSize@@YA?AUSize@@PEAUHBITMAP__@@@Z 000000014002afd0 f   utils:WinUtil.obj
 0001:0002a020       ?GetBitmapPixels@@YAPEAUBitmapPixels@@PEAUHBITMAP__@@@Z 000000014002b020 f   utils:WinUtil.obj
 0001:0002a360       ?FinalizeBitmapPixels@@YAXPEAUBitmapPixels@@@Z 000000014002b360 f   utils:WinUtil.obj
 0001:0002a3f0       ?GetPixel@@YAKPEAUBitmapPixels@@HH@Z 000000014002b3f0 f   utils:WinUtil.obj
 0001:0002a590       ?UpdateBitmapColors@@YAXPEAUHBITMAP__@@KK@Z 000000014002b590 f   utils:WinUtil.obj
 0001:0002adb0       ?SerializeBitmap@@YA?AUByteSlice@@PEAUHBITMAP__@@@Z 000000014002bdb0 f   utils:WinUtil.obj
 0001:0002af70       ?CreateMemoryBitmap@@YAPEAUHBITMAP__@@USize@@PEAPEAX@Z 000000014002bf70 f   utils:WinUtil.obj
 0001:0002b0c0       ?BlitHBITMAP@@YA_NPEAUHBITMAP__@@PEAUHDC__@@URect@@@Z 000000014002c0c0 f   utils:WinUtil.obj
 0001:0002b280       ?GetProcessRunningTime@@YANXZ 000000014002c280 f   utils:WinUtil.obj
 0001:0002b380       ?VariantInitBstr@@YAXAEAUtagVARIANT@@PEB_W@Z 000000014002c380 f   utils:WinUtil.obj
 0001:0002b3d0       ?LoadDataResource@@YA?AUStrSpan@@H@Z 000000014002c3d0 f   utils:WinUtil.obj
 0001:0002b560       ?DDEExecute@@YA_NPEB_W00@Z 000000014002c560 f   utils:WinUtil.obj
 0001:0002b780       ?RectInflateTB@@YAXAEAUtagRECT@@HH@Z 000000014002c780 f   utils:WinUtil.obj
 0001:0002b7c0       ?DivideRectH@@YAXAEBUtagRECT@@HHAEAU1@11@Z 000000014002c7c0 f   utils:WinUtil.obj
 0001:0002b860       ?DivideRectV@@YAXAEBUtagRECT@@HHAEAU1@11@Z 000000014002c860 f   utils:WinUtil.obj
 0001:0002b8f0       ?GetCachedCursor@@YAPEAUHICON__@@PEA_W@Z 000000014002c8f0 f   utils:WinUtil.obj
 0001:0002b9c0       ?SetCursorCached@@YAXPEA_W@Z 000000014002c9c0 f   utils:WinUtil.obj
 0001:0002ba20       ?DeleteCachedCursors@@YAXXZ 000000014002ca20 f   utils:WinUtil.obj
 0001:0002ba90       ?GetMeasurementSystem@@YAHXZ 000000014002ca90 f   utils:WinUtil.obj
 0001:0002baf0       ?TrackMouseLeave@@YA_NPEAUHWND__@@@Z 000000014002caf0 f   utils:WinUtil.obj
 0001:0002bb70       ?LockDataResource@@YA_NHPEAULoadedDataResource@@@Z 000000014002cb70 f   utils:WinUtil.obj
 0001:0002bc60       ?GetInstance@@YAPEAUHINSTANCE__@@XZ 000000014002cc60 f   utils:WinUtil.obj
 0001:0002bc70       ?ButtonGetIdealSize@@YA?AUSize@@PEAUHWND__@@@Z 000000014002cc70 f   utils:WinUtil.obj
 0001:0002bd20       ?IsValidDelayType@@YA_NH@Z 000000014002cd20 f   utils:WinUtil.obj
 0001:0002bd60       ?HwndResizeClientSize@@YAXPEAUHWND__@@HH@Z 000000014002cd60 f   utils:WinUtil.obj
 0001:0002bee0       ?HwndGetTextLen@@YA_KPEAUHWND__@@@Z 000000014002cee0 f   utils:WinUtil.obj
 0001:0002bf10       ?HwndGetTextWTemp@@YAPEA_WPEAUHWND__@@@Z 000000014002cf10 f   utils:WinUtil.obj
 0001:0002bf80       ?HwndGetTextTemp@@YAPEADPEAUHWND__@@@Z 000000014002cf80 f   utils:WinUtil.obj
 0001:0002c000       ?HwndSetText@@YAXPEAUHWND__@@PEBD@Z 000000014002d000 f   utils:WinUtil.obj
 0001:0002c080       ?HwndHasFrameThickness@@YA_NPEAUHWND__@@@Z 000000014002d080 f   utils:WinUtil.obj
 0001:0002c0b0       ?HwndHasCaption@@YA_NPEAUHWND__@@@Z 000000014002d0b0 f   utils:WinUtil.obj
 0001:0002c0e0       ?HwndSetDlgItemText@@YAXPEAUHWND__@@HPEBD@Z 000000014002d0e0 f   utils:WinUtil.obj
 0001:0002c130       ?CbAddString@@YAXPEAUHWND__@@PEBD@Z 000000014002d130 f   utils:WinUtil.obj
 0001:0002c180       ?CbSetCurrentSelection@@YAXPEAUHWND__@@H@Z 000000014002d180 f   utils:WinUtil.obj
 0001:0002c1c0       ?HwndGetIcon@@YAPEAUHICON__@@PEAUHWND__@@@Z 000000014002d1c0 f   utils:WinUtil.obj
 0001:0002c200       ?HwndSetIcon@@YAPEAUHICON__@@PEAUHWND__@@PEAU1@@Z 000000014002d200 f   utils:WinUtil.obj
 0001:0002c260       ?HwndRepaintNow@@YAXPEAUHWND__@@@Z 000000014002d260 f   utils:WinUtil.obj
 0001:0002c2b0       ?HwndScheduleRepaint@@YAXPEAUHWND__@@@Z 000000014002d2b0 f   utils:WinUtil.obj
 0001:0002c2f0       ?HwndGetFont@@YAPEAUHFONT__@@PEAUHWND__@@@Z 000000014002d2f0 f   utils:WinUtil.obj
 0001:0002c330       ?HwndSetFont@@YAXPEAUHWND__@@PEAUHFONT__@@@Z 000000014002d330 f   utils:WinUtil.obj
 0001:0002c380       ?HwndPositionToTheRightOf@@YAXPEAUHWND__@@0@Z 000000014002d380 f   utils:WinUtil.obj
 0001:0002c480       ?HwndPositionInCenterOf@@YAXPEAUHWND__@@0@Z 000000014002d480 f   utils:WinUtil.obj
 0001:0002c5c0       ?HwndSendCommand@@YAXPEAUHWND__@@H@Z 000000014002d5c0 f   utils:WinUtil.obj
 0001:0002c600       ?HwndDestroyWindowSafe@@YAXPEAPEAUHWND__@@@Z 000000014002d600 f   utils:WinUtil.obj
 0001:0002c660       ?HwndToForeground@@YAXPEAUHWND__@@@Z 000000014002d660 f   utils:WinUtil.obj
 0001:0002c6a0       ?HwndSetVisibility@@YAXPEAUHWND__@@_N@Z 000000014002d6a0 f   utils:WinUtil.obj
 0001:0002c6f0       ?DeleteObjectSafe@@YA_NPEAPEAX@Z 000000014002d6f0 f   utils:WinUtil.obj
 0001:0002c750       ?DeleteBrushSafe@@YA_NPEAPEAUHBRUSH__@@@Z 000000014002d750 f   utils:WinUtil.obj
 0001:0002c770       ?DestroyIconSafe@@YA_NPEAPEAUHICON__@@@Z 000000014002d770 f   utils:WinUtil.obj
 0001:0002c7d0       ?TbSetButtonInfo@@YAXPEAUHWND__@@HPEAUTBBUTTONINFOW@@@Z 000000014002d7d0 f   utils:WinUtil.obj
 0001:0002c840       ?TbGetPadding@@YAXPEAUHWND__@@PEAH1@Z 000000014002d840 f   utils:WinUtil.obj
 0001:0002c8b0       ?TbSetPadding@@YAXPEAUHWND__@@HH@Z 000000014002d8b0 f   utils:WinUtil.obj
 0001:0002c940       ?TbGetMetrics@@YAXPEAUHWND__@@PEAUTBMETRICS@@@Z 000000014002d940 f   utils:WinUtil.obj
 0001:0002c980       ?TbSetMetrics@@YAXPEAUHWND__@@PEAUTBMETRICS@@@Z 000000014002d980 f   utils:WinUtil.obj
 0001:0002c9c0       ?TbGetRect@@YAXPEAUHWND__@@HPEAUtagRECT@@@Z 000000014002d9c0 f   utils:WinUtil.obj
 0001:0002ca30       ?TreeViewExpandRecursively@@YAXPEAUHWND__@@PEAU_TREEITEM@@I_N@Z 000000014002da30 f   utils:WinUtil.obj
 0001:0002caf0       ?AddPathToRecentDocs@@YAXPEBD@Z 000000014002daf0 f   utils:WinUtil.obj
 0001:0002cb30       ?HGLOBALToStrTemp@@YAPEADPEAX_N@Z 000000014002db30 f   utils:WinUtil.obj
 0001:0002cbb0       ?MemToHGLOBAL@@YAPEAXPEAXHI@Z 000000014002dbb0 f   utils:WinUtil.obj
 0001:0002cc30       ?StrToHGLOBAL@@YAPEAXPEBDI@Z 000000014002dc30 f   utils:WinUtil.obj
 0001:0002cc70       ?AtomToStrTemp@@YAPEADG@Z  000000014002dc70 f   utils:WinUtil.obj
 0001:0002ccf0       ?MsgBox@@YAHPEAUHWND__@@PEBD1I@Z 000000014002dcf0 f   utils:WinUtil.obj
 0001:0002cd60       ?CpuID@@YAIXZ              000000014002dd60 f   utils:WinUtil.obj
 0001:0002d150       ?TimeNow@@YA?AT_LARGE_INTEGER@@XZ 000000014002e150 f   utils:WinUtil.obj
 0001:0002d170       ?TimeDiffSecs@@YANAEBT_LARGE_INTEGER@@0@Z 000000014002e170 f   utils:WinUtil.obj
 0001:0002d1d0       ?TimeDiffMs@@YANAEBT_LARGE_INTEGER@@0@Z 000000014002e1d0 f   utils:WinUtil.obj
 0001:0002d240       ?IsPEFileSigned@@YA_NPEBD@Z 000000014002e240 f   utils:WinUtil.obj
 0001:00031040       ??$AllocArray@E@@YAPEAE_K@Z 0000000140032040 f i utils:WinUtil.obj
 0001:00031070       ??$AllocStruct@UBitmapPixels@@@@YAPEAUBitmapPixels@@XZ 0000000140032070 f i utils:WinUtil.obj
 0001:00031090       ??$IID_PPV_ARGS_Helper@UIMultiLanguage2@@@@YAPEAPEAXPEAPEAUIMultiLanguage2@@@Z 0000000140032090 f i utils:WinUtil.obj
 0001:000310a0       ??$IID_PPV_ARGS_Helper@UIShellLinkW@@@@YAPEAPEAXPEAPEAUIShellLinkW@@@Z 00000001400320a0 f i utils:WinUtil.obj
 0001:000310b0       ??$IsMaskSet@J@bit@@YA_NJJ@Z 00000001400320b0 f i utils:WinUtil.obj
 0001:00031100       ??$IsMaskSet@K@bit@@YA_NKK@Z 0000000140032100 f i utils:WinUtil.obj
 0001:00031150       ??$ListInsertFront@UCreatedFontInfo@@@@YAXPEAPEAUCreatedFontInfo@@PEAU0@@Z 0000000140032150 f i utils:WinUtil.obj
 0001:00031190       ??$ListLen@UCreatedFontInfo@@@@YAHPEAUCreatedFontInfo@@@Z 0000000140032190 f i utils:WinUtil.obj
 0001:000311f0       ??$QueryInterface@UIPersistFile@@@IUnknown@@QEAAJPEAPEAUIPersistFile@@@Z 00000001400321f0 f i utils:WinUtil.obj
 0001:00031240       ??0?$ScopedComPtr@UIMultiLanguage2@@@@QEAA@XZ 0000000140032240 f i utils:WinUtil.obj
 0001:00031260       ??0?$ScopedComPtr@UIShellFolder@@@@QEAA@XZ 0000000140032260 f i utils:WinUtil.obj
 0001:00031280       ??0?$ScopedComPtr@UIShellLinkW@@@@QEAA@XZ 0000000140032280 f i utils:WinUtil.obj
 0001:000312a0       ??0?$ScopedComPtr@UIStream@@@@QEAA@XZ 00000001400322a0 f i utils:WinUtil.obj
 0001:000312c0       ??0?$ScopedComQIPtr@UIPersistFile@@@@QEAA@PEAUIUnknown@@@Z 00000001400322c0 f i utils:WinUtil.obj
 0001:00031320       ??0?$ScopedGdiObj@PEAUHBITMAP__@@@@QEAA@PEAUHBITMAP__@@@Z 0000000140032320 f i utils:WinUtil.obj
 0001:00031350       ??0?$ScopedGdiObj@PEAUHBRUSH__@@@@QEAA@PEAUHBRUSH__@@@Z 0000000140032350 f i utils:WinUtil.obj
 0001:00031380       ??0?$ScopedMem@E@@QEAA@PEAE@Z 0000000140032380 f i utils:WinUtil.obj
 0001:000313b0       ??0?$ScopedMem@_W@@QEAA@PEA_W@Z 00000001400323b0 f i utils:WinUtil.obj
 0001:000313e0       ??0?$bitset@$0CA@@std@@QEAA@XZ 00000001400323e0 f i utils:WinUtil.obj
 0001:00031410       ??0?$bitset@$0CA@@std@@QEAA@_K@Z 0000000140032410 f i utils:WinUtil.obj
 0001:00031470       ??0AutoCloseHandle@@QEAA@PEAX@Z 0000000140032470 f i utils:WinUtil.obj
 0001:000314a0       ??0AutoFreeWStr@@QEAA@PEA_W@Z 00000001400324a0 f i utils:WinUtil.obj
 0001:000314f0       ??0AutoReleaseDC@@QEAA@PEAUHWND__@@@Z 00000001400324f0 f i utils:WinUtil.obj
 0001:00031550       ??0BlittableBitmap@@QEAA@XZ 0000000140032550 f i utils:WinUtil.obj
 0001:000315b0       ??0ByteSlice@@QEAA@XZ      00000001400325b0 f i utils:WinUtil.obj
 0001:000315e0       ??0CreatedFontInfo@@QEAA@XZ 00000001400325e0 f i utils:WinUtil.obj
 0001:00031650       ??0Point@@QEAA@XZ          0000000140032650 f i utils:WinUtil.obj
 0001:00031680       ??0ScopedCom@@QEAA@XZ      0000000140032680 f i utils:WinUtil.obj
 0001:000316b0       ??0ScopedSelectFont@@QEAA@PEAUHDC__@@PEAUHFONT__@@@Z 00000001400326b0 f i utils:WinUtil.obj
 0001:00031730       ??0Size@@QEAA@XZ           0000000140032730 f i utils:WinUtil.obj
 0001:00031760       ??0reference@?$bitset@$0CA@@std@@AEAA@AEAV12@_K@Z 0000000140032760 f i utils:WinUtil.obj
 0001:000317a0       ??1?$ScopedComPtr@UIMultiLanguage2@@@@QEAA@XZ 00000001400327a0 f i utils:WinUtil.obj
 0001:000317e0       ??1?$ScopedComPtr@UIShellFolder@@@@QEAA@XZ 00000001400327e0 f i utils:WinUtil.obj
 0001:00031820       ??1?$ScopedComPtr@UIShellLinkW@@@@QEAA@XZ 0000000140032820 f i utils:WinUtil.obj
 0001:00031860       ??1?$ScopedComPtr@UIStream@@@@QEAA@XZ 0000000140032860 f i utils:WinUtil.obj
 0001:000318a0       ??1?$ScopedComQIPtr@UIPersistFile@@@@QEAA@XZ 00000001400328a0 f i utils:WinUtil.obj
 0001:000318e0       ??1?$ScopedGdiObj@PEAUHBITMAP__@@@@QEAA@XZ 00000001400328e0 f i utils:WinUtil.obj
 0001:00031910       ??1?$ScopedGdiObj@PEAUHBRUSH__@@@@QEAA@XZ 0000000140032910 f i utils:WinUtil.obj
 0001:00031940       ??1?$ScopedMem@E@@QEAA@XZ  0000000140032940 f i utils:WinUtil.obj
 0001:00031970       ??1?$ScopedMem@_W@@QEAA@XZ 0000000140032970 f i utils:WinUtil.obj
 0001:000319a0       ??1AutoCloseHandle@@QEAA@XZ 00000001400329a0 f i utils:WinUtil.obj
 0001:000319e0       ??1AutoFreeWStr@@QEAA@XZ   00000001400329e0 f i utils:WinUtil.obj
 0001:00031a10       ??1AutoReleaseDC@@QEAA@XZ  0000000140032a10 f i utils:WinUtil.obj
 0001:00031a40       ??1BlittableBitmap@@UEAA@XZ 0000000140032a40 f i utils:WinUtil.obj
 0001:00031a60       ??1ScopedCom@@QEAA@XZ      0000000140032a60 f i utils:WinUtil.obj
 0001:00031a80       ??1ScopedSelectFont@@QEAA@XZ 0000000140032a80 f i utils:WinUtil.obj
 0001:00031ac0       ??1reference@?$bitset@$0CA@@std@@QEAA@XZ 0000000140032ac0 f i utils:WinUtil.obj
 0001:00031ad0       ??A?$bitset@$0CA@@std@@QEAA?AVreference@01@_K@Z 0000000140032ad0 f i utils:WinUtil.obj
 0001:00031b20       ??B?$ScopedComPtr@UIShellLinkW@@@@QEBAPEAUIShellLinkW@@XZ 0000000140032b20 f i utils:WinUtil.obj
 0001:00031b40       ??B?$ScopedComPtr@UIStream@@@@QEBAPEAUIStream@@XZ 0000000140032b40 f i utils:WinUtil.obj
 0001:00031b60       ??B?$ScopedComQIPtr@UIPersistFile@@@@QEBAPEAUIPersistFile@@XZ 0000000140032b60 f i utils:WinUtil.obj
 0001:00031b80       ??B?$ScopedGdiObj@PEAUHBITMAP__@@@@QEBAPEAUHBITMAP__@@XZ 0000000140032b80 f i utils:WinUtil.obj
 0001:00031ba0       ??B?$ScopedGdiObj@PEAUHBRUSH__@@@@QEBAPEAUHBRUSH__@@XZ 0000000140032ba0 f i utils:WinUtil.obj
 0001:00031bc0       ??B?$ScopedMem@E@@QEBAPEAEXZ 0000000140032bc0 f i utils:WinUtil.obj
 0001:00031be0       ??B?$ScopedMem@_W@@QEBAPEA_WXZ 0000000140032be0 f i utils:WinUtil.obj
 0001:00031c00       ??BAutoCloseHandle@@QEBAPEAXXZ 0000000140032c00 f i utils:WinUtil.obj
 0001:00031c20       ??BAutoFreeWStr@@QEBAPEA_WXZ 0000000140032c20 f i utils:WinUtil.obj
 0001:00031c40       ??BAutoReleaseDC@@QEBAPEAUHDC__@@XZ 0000000140032c40 f i utils:WinUtil.obj
 0001:00031c60       ??Breference@?$bitset@$0CA@@std@@QEBA_NXZ 0000000140032c60 f i utils:WinUtil.obj
 0001:00031ca0       ??C?$ScopedComPtr@UIMultiLanguage2@@@@QEBAPEAUIMultiLanguage2@@XZ 0000000140032ca0 f i utils:WinUtil.obj
 0001:00031cc0       ??C?$ScopedComPtr@UIShellFolder@@@@QEBAPEAUIShellFolder@@XZ 0000000140032cc0 f i utils:WinUtil.obj
 0001:00031ce0       ??C?$ScopedComPtr@UIShellLinkW@@@@QEBAPEAUIShellLinkW@@XZ 0000000140032ce0 f i utils:WinUtil.obj
 0001:00031d00       ??C?$ScopedComPtr@UIStream@@@@QEBAPEAUIStream@@XZ 0000000140032d00 f i utils:WinUtil.obj
 0001:00031d20       ??C?$ScopedComQIPtr@UIPersistFile@@@@QEBAPEAUIPersistFile@@XZ 0000000140032d20 f i utils:WinUtil.obj
 0001:00031d40       ??I?$ScopedComPtr@UIShellFolder@@@@QEAAPEAPEAUIShellFolder@@XZ 0000000140032d40 f i utils:WinUtil.obj
 0001:00031d50       ??I?$ScopedComPtr@UIStream@@@@QEAAPEAPEAUIStream@@XZ 0000000140032d50 f i utils:WinUtil.obj
 0001:00031d60       ??_EBlittableBitmap@@UEAAPEAXI@Z 0000000140032d60 f i utils:WinUtil.obj
 0001:00031d60       ??_GBlittableBitmap@@UEAAPEAXI@Z 0000000140032d60 f i utils:WinUtil.obj
 0001:00031db0       ??_ERenderedBitmap@@UEAAPEAXI@Z 0000000140032db0 f i utils:WinUtil.obj
 0001:00031db0       ??_GRenderedBitmap@@UEAAPEAXI@Z 0000000140032db0 f i utils:WinUtil.obj
 0001:00031e00       ?Create@?$ScopedComPtr@UIMultiLanguage2@@@@QEAA_NU_GUID@@@Z 0000000140032e00 f i utils:WinUtil.obj
 0001:00031ee0       ?Create@?$ScopedComPtr@UIShellLinkW@@@@QEAA_NU_GUID@@@Z 0000000140032ee0 f i utils:WinUtil.obj
 0001:00031fc0       ?Get@AutoFreeWStr@@QEBAPEA_WXZ 0000000140032fc0 f i utils:WinUtil.obj
 0001:00031fe0       ?IsValid@AutoCloseHandle@@QEBA_NXZ 0000000140032fe0 f i utils:WinUtil.obj
 0001:00032030       ?_Subscript@?$bitset@$0CA@@std@@AEBA_N_K@Z 0000000140033030 f i utils:WinUtil.obj
 0001:000320d0       ?_Validate@?$bitset@$0CA@@std@@CAX_K@Z 00000001400330d0 f i utils:WinUtil.obj
 0001:000320e0       ?abs@@YAJJ@Z               00000001400330e0 f i utils:WinUtil.obj
 0001:00032100       ?mul255@@YAHHH@Z           0000000140033100 f i utils:WinUtil.obj
 0001:00032150       ?tobool@@YA_NH@Z           0000000140033150 f i utils:WinUtil.obj
 0001:00032190       ?CouldBeArg@@YA_NPEBD@Z    0000000140033190 f   utils:CmdLineArgsIter.obj
 0001:000321e0       ?ParseCmdLine@@YAXPEB_WAEAUStrVec@@@Z 00000001400331e0 f   utils:CmdLineArgsIter.obj
 0001:00032290       ?ParseCmdLine@@YAXPEBDAEAUStrVec@@@Z 0000000140033290 f   utils:CmdLineArgsIter.obj
 0001:000322d0       ?QuoteCmdLineArgTemp@@YAPEADPEAD@Z 00000001400332d0 f   utils:CmdLineArgsIter.obj
 0001:000324c0       ??0CmdLineArgsIter@@QEAA@PEB_W@Z 00000001400334c0 f   utils:CmdLineArgsIter.obj
 0001:00032550       ?NextArg@CmdLineArgsIter@@QEAAPEBDXZ 0000000140033550 f   utils:CmdLineArgsIter.obj
 0001:000325d0       ?EatParam@CmdLineArgsIter@@QEAAPEBDXZ 00000001400335d0 f   utils:CmdLineArgsIter.obj
 0001:00032630       ?RewindParam@CmdLineArgsIter@@QEAAXXZ 0000000140033630 f   utils:CmdLineArgsIter.obj
 0001:00032680       ?AdditionalParam@CmdLineArgsIter@@QEBAPEBDH@Z 0000000140033680 f   utils:CmdLineArgsIter.obj
 0001:00032760       ?at@CmdLineArgsIter@@QEBAPEADH@Z 0000000140033760 f   utils:CmdLineArgsIter.obj
 0001:00032790       ?ParamsTemp@CmdLineArgsIter@@QEAAPEADXZ 0000000140033790 f   utils:CmdLineArgsIter.obj
 0001:00032a00       ?IsSep@path@@YA_ND@Z       0000000140033a00 f   utils:FileUtil.obj
 0001:00032a40       ?GetExtTemp@path@@YAPEADPEBD@Z 0000000140033a40 f   utils:FileUtil.obj
 0001:00032a90       ?GetBaseNameTemp@path@@YAPEADPEBD@Z 0000000140033a90 f   utils:FileUtil.obj
 0001:00032b00       ?GetPathNoExtTemp@path@@YAPEADPEBD@Z 0000000140033b00 f   utils:FileUtil.obj
 0001:00032b70       ?GetDirTemp@path@@YAPEADPEBD@Z 0000000140033b70 f   utils:FileUtil.obj
 0001:00032c70       ?GetDirTemp@path@@YAPEA_WPEB_W@Z 0000000140033c70 f   utils:FileUtil.obj
 0001:00032d80       ?Join@path@@YAPEADPEAUAllocator@@PEBD1@Z 0000000140033d80 f   utils:FileUtil.obj
 0001:00032e10       ?Join@path@@YAPEADPEBD0@Z  0000000140033e10 f   utils:FileUtil.obj
 0001:00032e40       ?Join@path@@YAPEA_WPEB_W00@Z 0000000140033e40 f   utils:FileUtil.obj
 0001:00032e90       ?JoinTemp@path@@YAPEADPEBD00@Z 0000000140033e90 f   utils:FileUtil.obj
 0001:00032f60       ?JoinTemp@path@@YAPEA_WPEB_W00@Z 0000000140033f60 f   utils:FileUtil.obj
 0001:00033030       ?IsDirectory@path@@YA_NPEBD@Z 0000000140034030 f   utils:FileUtil.obj
 0001:000330a0       ?NormalizeTemp@path@@YAPEADPEBD@Z 00000001400340a0 f   utils:FileUtil.obj
 0001:00033100       ?ShortPathTemp@path@@YAPEADPEBD@Z 0000000140034100 f   utils:FileUtil.obj
 0001:000331b0       ?IsSame@path@@YA_NPEBD0@Z  00000001400341b0 f   utils:FileUtil.obj
 0001:00033420       ?HasVariableDriveLetter@path@@YA_NPEBD@Z 0000000140034420 f   utils:FileUtil.obj
 0001:000334d0       ?IsOnFixedDrive@path@@YA_NPEBD@Z 00000001400344d0 f   utils:FileUtil.obj
 0001:00033590       ?IsAbsolute@path@@YA_NPEBD@Z 0000000140034590 f   utils:FileUtil.obj
 0001:000335e0       ?Match@path@@YA_NPEBD0@Z   00000001400345e0 f   utils:FileUtil.obj
 0001:00033660       ?GetType@path@@YA?AW4Type@1@PEBD@Z 0000000140034660 f   utils:FileUtil.obj
 0001:000336e0       ?GetTempFilePathTemp@@YAPEADPEBD@Z 00000001400346e0 f   utils:FileUtil.obj
 0001:000337e0       ?GetPathInExeDirTemp@@YAPEADPEBD@Z 00000001400347e0 f   utils:FileUtil.obj
 0001:00033830       ?Exists@file@@YA_NPEBD@Z   0000000140034830 f   utils:FileUtil.obj
 0001:000338c0       ?OpenFILE@file@@YAPEAU_iobuf@@PEBD@Z 00000001400348c0 f   utils:FileUtil.obj
 0001:00033930       ?OpenReadOnly@file@@YAPEAXPEBD@Z 0000000140034930 f   utils:FileUtil.obj
 0001:00033990       ?ReadFileWithAllocator@file@@YA?AUByteSlice@@PEBDPEAUAllocator@@@Z 0000000140034990 f   utils:FileUtil.obj
 0001:00033c40       ?ReadFile@file@@YA?AUByteSlice@@PEBD@Z 0000000140034c40 f   utils:FileUtil.obj
 0001:00033c70       ?ReadN@file@@YAHPEBDPEAD_K@Z 0000000140034c70 f   utils:FileUtil.obj
 0001:00033d50       ?WriteFile@file@@YA_NPEBDAEBUByteSlice@@@Z 0000000140034d50 f   utils:FileUtil.obj
 0001:00033ec0       ?GetSize@file@@YA_JPEBD@Z  0000000140034ec0 f   utils:FileUtil.obj
 0001:00033fc0       ?Delete@file@@YA_NPEBD@Z   0000000140034fc0 f   utils:FileUtil.obj
 0001:00034050       ?DeleteFileToTrash@file@@YA_NPEBD@Z 0000000140035050 f   utils:FileUtil.obj
 0001:00034140       ?GetModificationTime@file@@YA?AU_FILETIME@@PEBD@Z 0000000140035140 f   utils:FileUtil.obj
 0001:000341d0       ?SetModificationTime@file@@YA_NPEBDU_FILETIME@@@Z 00000001400351d0 f   utils:FileUtil.obj
 0001:000342c0       ?GetAttributes@file@@YAKPEBD@Z 00000001400352c0 f   utils:FileUtil.obj
 0001:00034300       ?SetAttributes@file@@YA_NPEBDK@Z 0000000140035300 f   utils:FileUtil.obj
 0001:00034360       ?StartsWithN@file@@YA_NPEBD0_K@Z 0000000140035360 f   utils:FileUtil.obj
 0001:000343d0       ?StartsWith@file@@YA_NPEBD0@Z 00000001400353d0 f   utils:FileUtil.obj
 0001:00034410       ?GetZoneIdentifier@file@@YAHPEBD@Z 0000000140035410 f   utils:FileUtil.obj
 0001:00034480       ?SetZoneIdentifier@file@@YA_NPEBDH@Z 0000000140035480 f   utils:FileUtil.obj
 0001:00034530       ?DeleteZoneIdentifier@file@@YA_NPEBD@Z 0000000140035530 f   utils:FileUtil.obj
 0001:00034570       ?Copy@file@@YA_NPEBD0_N@Z  0000000140035570 f   utils:FileUtil.obj
 0001:000345f0       ?Exists@dir@@YA_NPEB_W@Z   00000001400355f0 f   utils:FileUtil.obj
 0001:00034670       ?Exists@dir@@YA_NPEBD@Z    0000000140035670 f   utils:FileUtil.obj
 0001:00034710       ?Create@dir@@YA_NPEBD@Z    0000000140035710 f   utils:FileUtil.obj
 0001:00034780       ?CreateForFile@dir@@YA_NPEBD@Z 0000000140035780 f   utils:FileUtil.obj
 0001:000347b0       ?CreateAll@dir@@YA_NPEBD@Z 00000001400357b0 f   utils:FileUtil.obj
 0001:00034810       ?RemoveAll@dir@@YA_NPEBD@Z 0000000140035810 f   utils:FileUtil.obj
 0001:00034900       ?FileTimeEq@@YA_NAEBU_FILETIME@@0@Z 0000000140035900 f   utils:FileUtil.obj
 0001:000359b0       ??$AllocArrayTemp@D@@YAPEAD_K@Z 00000001400369b0 f i utils:FileUtil.obj
 0001:000359e0       ??$addOverflows@_K@@YA_N_K0@Z 00000001400369e0 f i utils:FileUtil.obj
 0001:00035a70       ?BreakIfUnderDebugger@@YAXXZ 0000000140036a70 f   utils:BaseUtil.obj
 0001:00035a90       ?AllocZero@@YAPEAX_K0@Z    0000000140036a90 f   utils:BaseUtil.obj
 0001:00035ac0       ?limitValue@@YAHHHH@Z      0000000140036ac0 f   utils:BaseUtil.obj
 0001:00035b50       ?limitValue@@YAKKKK@Z      0000000140036b50 f   utils:BaseUtil.obj
 0001:00035be0       ?limitValue@@YAMMMM@Z      0000000140036be0 f   utils:BaseUtil.obj
 0001:00035c80       ?memdup@@YAPEAXPEBX_K1@Z   0000000140036c80 f   utils:BaseUtil.obj
 0001:00035cf0       ?memeq@@YA_NPEBX0_K@Z      0000000140036cf0 f   utils:BaseUtil.obj
 0001:00035d40       ?RoundToPowerOf2@@YA_K_K@Z 0000000140036d40 f   utils:BaseUtil.obj
 0001:00035d90       ?MurmurHash2@@YAIPEBX_K@Z  0000000140036d90 f   utils:BaseUtil.obj
 0001:00035f00       ?MurmurHashWStrI@@YAIPEB_W@Z 0000000140036f00 f   utils:BaseUtil.obj
 0001:00036020       ?MurmurHashStrI@@YAIPEBD@Z 0000000140037020 f   utils:BaseUtil.obj
 0001:000360f0       ?RoundUp@@YA_K_K0@Z        00000001400370f0 f   utils:BaseUtil.obj
 0001:00036120       ?RoundUp@@YAHHH@Z          0000000140037120 f   utils:BaseUtil.obj
 0001:00036160       ?RoundUp@@YAPEADPEADH@Z    0000000140037160 f   utils:BaseUtil.obj
 0001:000361c0       ?Alloc@Allocator@@SAPEAXPEAU1@_K@Z 00000001400371c0 f   utils:BaseUtil.obj
 0001:00036210       ?AllocZero@Allocator@@SAPEAXPEAU1@_K@Z 0000000140037210 f   utils:BaseUtil.obj
 0001:00036260       ?Free@Allocator@@SAXPEAU1@PEAX@Z 0000000140037260 f   utils:BaseUtil.obj
 0001:000362c0       ?Realloc@Allocator@@SAPEAXPEAU1@PEAX_K@Z 00000001400372c0 f   utils:BaseUtil.obj
 0001:00036320       ?MemDup@Allocator@@SAPEAXPEAU1@PEBX_K2@Z 0000000140037320 f   utils:BaseUtil.obj
 0001:000363a0       ??0PoolAllocator@@QEAA@XZ  00000001400373a0 f   utils:BaseUtil.obj
 0001:00036420       ??1PoolAllocator@@UEAA@XZ  0000000140037420 f   utils:BaseUtil.obj
 0001:00036470       ?Realloc@PoolAllocator@@UEAAPEAXPEAX_K@Z 0000000140037470 f   utils:BaseUtil.obj
 0001:000364a0       ?Free@PoolAllocator@@UEAAXPEBX@Z 00000001400374a0 f   utils:BaseUtil.obj
 0001:000364c0       ?Alloc@PoolAllocator@@UEAAPEAX_K@Z 00000001400374c0 f   utils:BaseUtil.obj
 0001:00036920       ?FreeAll@PoolAllocator@@QEAAXXZ 0000000140037920 f   utils:BaseUtil.obj
 0001:000369c0       ?Reset@PoolAllocator@@QEAAX_N@Z 00000001400379c0 f   utils:BaseUtil.obj
 0001:00036ab0       ?At@PoolAllocator@@QEAAPEAXH@Z 0000000140037ab0 f   utils:BaseUtil.obj
 0001:00036ca0       ?Set@AtomicInt@@QEAAHH@Z   0000000140037ca0 f   utils:BaseUtil.obj
 0001:00036cd0       ?Inc@AtomicInt@@QEAAHXZ    0000000140037cd0 f   utils:BaseUtil.obj
 0001:00036cf0       ?Dec@AtomicInt@@QEAAHXZ    0000000140037cf0 f   utils:BaseUtil.obj
 0001:00036d10       ?Add@AtomicInt@@QEAAHH@Z   0000000140037d10 f   utils:BaseUtil.obj
 0001:00036d40       ?Sub@AtomicInt@@QEAAHH@Z   0000000140037d40 f   utils:BaseUtil.obj
 0001:00036d70       ?Get@AtomicInt@@QEBAHXZ    0000000140037d70 f   utils:BaseUtil.obj
 0001:00036da0       ?MkFunc0Void@@YA?AUFunc0@@P6AXXZ@Z 0000000140037da0 f   utils:BaseUtil.obj
 0001:00036e00       ?Get@AtomicBool@@QEBA_NXZ  0000000140037e00 f   utils:BaseUtil.obj
 0001:00036e50       ?Set@AtomicBool@@QEAA_N_N@Z 0000000140037e50 f   utils:BaseUtil.obj
 0001:00036eb0       ?Add@AtomicRefCount@@QEAAHXZ 0000000140037eb0 f   utils:BaseUtil.obj
 0001:00036ed0       ?Dec@AtomicRefCount@@QEAAHXZ 0000000140037ed0 f   utils:BaseUtil.obj
 0001:000377a0       ??$swap@K$0A@@std@@YAXAEAK0@Z 00000001400387a0 f i utils:BaseUtil.obj
 0001:000377f0       ??0Allocator@@QEAA@XZ      00000001400387f0 f i utils:BaseUtil.obj
 0001:00037810       ??0Func0@@QEAA@XZ          0000000140038810 f i utils:BaseUtil.obj
 0001:00037840       ??0ScopedCritSec@@QEAA@PEAU_RTL_CRITICAL_SECTION@@@Z 0000000140038840 f i utils:BaseUtil.obj
 0001:00037880       ??1Allocator@@UEAA@XZ      0000000140038880 f i utils:BaseUtil.obj
 0001:00037890       ??1ScopedCritSec@@QEAA@XZ  0000000140038890 f i utils:BaseUtil.obj
 0001:000378c0       ??_EAllocator@@UEAAPEAXI@Z 00000001400388c0 f i utils:BaseUtil.obj
 0001:000378c0       ??_GAllocator@@UEAAPEAXI@Z 00000001400388c0 f i utils:BaseUtil.obj
 0001:00037910       ??_EPoolAllocator@@UEAAPEAXI@Z 0000000140038910 f i utils:BaseUtil.obj
 0001:00037910       ??_GPoolAllocator@@UEAAPEAXI@Z 0000000140038910 f i utils:BaseUtil.obj
 0001:00037960       ?CrashMe@@YAXXZ            0000000140038960 f i utils:BaseUtil.obj
 0001:00037980       _InlineInterlockedAdd      0000000140038980 f i utils:BaseUtil.obj
 0001:000379b0       ?Format@fmt@@YAPEADPEBDAEBUArg@1@11111@Z 00000001400389b0 f   utils:StrFormat.obj
 0001:00037be0       ?FormatTemp@fmt@@YAPEADPEBDUArg@1@@Z 0000000140038be0 f   utils:StrFormat.obj
 0001:00037c50       ?FormatTemp@fmt@@YAPEADPEBDUArg@1@1@Z 0000000140038c50 f   utils:StrFormat.obj
 0001:00037cd0       ?FormatTemp@fmt@@YAPEADPEBDUArg@1@11@Z 0000000140038cd0 f   utils:StrFormat.obj
 0001:00037d50       ?Eval@Fmt@fmt@@QEAA_NPEAPEBUArg@2@H@Z 0000000140038d50 f   utils:StrFormat.obj
 0001:00038bb0       ?FormatTemp@fmt@@YAPEADPEBDPEAPEBUArg@1@H@Z 0000000140039bb0 f   utils:StrFormat.obj
 0001:00038d20       ?FormatTemp@fmt@@YAPEADPEBDAEBUArg@1@11111@Z 0000000140039d20 f   utils:StrFormat.obj
 0001:00039370       ??$__builtin_array_init_helper@UInst@fmt@@@@YAXPEAUInst@fmt@@_K@Z 000000014003a370 f i utils:StrFormat.obj
 0001:00039460       ??0Fmt@fmt@@QEAA@XZ        000000014003a460 f i utils:StrFormat.obj
 0001:00039550       ??1Fmt@fmt@@QEAA@XZ        000000014003a550 f i utils:StrFormat.obj
 0001:00039580       ?MkGray@@YAKE@Z            000000014003a580 f   utils:ColorUtil.obj
 0001:000395b0       ?MkColor@@YAKEEEE@Z        000000014003a5b0 f   utils:ColorUtil.obj
 0001:00039610       ?UnpackColor@@YAXKAEAE00@Z 000000014003a610 f   utils:ColorUtil.obj
 0001:00039670       ?UnpackColor@@YAXKAEAE000@Z 000000014003a670 f   utils:ColorUtil.obj
 0001:000396f0       ?IsSpecialColor@@YA_NK@Z   000000014003a6f0 f   utils:ColorUtil.obj
 0001:00039730       ?ParseColor@@YAXAEAUParsedColor@@PEBD@Z 000000014003a730 f   utils:ColorUtil.obj
 0001:00039970       ?ParseColor@@YA_NPEAKPEBD@Z 000000014003a970 f   utils:ColorUtil.obj
 0001:000399e0       ?ParseColor@@YAKPEBDK@Z    000000014003a9e0 f   utils:ColorUtil.obj
 0001:00039a20       ?SerializeColorTemp@@YAPEADK@Z 000000014003aa20 f   utils:ColorUtil.obj
 0001:00039ad0       ?MkPdfColor@@YA_KEEEE@Z    000000014003aad0 f   utils:ColorUtil.obj
 0001:00039b40       ?UnpackPdfColor@@YAX_KAEAE111@Z 000000014003ab40 f   utils:ColorUtil.obj
 0001:00039bd0       ?SerializePdfColor@@YAX_KAEAUStr@str@@@Z 000000014003abd0 f   utils:ColorUtil.obj
 0001:00039c40       ?AdjustLightness@@YAKKM@Z  000000014003ac40 f   utils:ColorUtil.obj
 0001:0003a000       ?AdjustLightness2@@YAKKM@Z 000000014003b000 f   utils:ColorUtil.obj
 0001:0003a0e0       ?GetLightness@@YAMK@Z      000000014003b0e0 f   utils:ColorUtil.obj
 0001:0003a170       ?IsLightColor@@YA_NK@Z     000000014003b170 f   utils:ColorUtil.obj
 0001:0003a220       ?Unblend@@YA?AVColor@Gdiplus@@KE@Z 000000014003b220 f   utils:ColorUtil.obj
 0001:0003a3d0       ?GdiRgbFromCOLORREF@@YA?AVColor@Gdiplus@@K@Z 000000014003b3d0 f   utils:ColorUtil.obj
 0001:0003a420       ?GdiRgbaFromCOLORREF@@YA?AVColor@Gdiplus@@K@Z 000000014003b420 f   utils:ColorUtil.obj
 0001:0003a450       ?GetRed@@YAEK@Z            000000014003b450 f   utils:ColorUtil.obj
 0001:0003a470       ?GetGreen@@YAEK@Z          000000014003b470 f   utils:ColorUtil.obj
 0001:0003a490       ?GetBlue@@YAEK@Z           000000014003b490 f   utils:ColorUtil.obj
 0001:0003a4b0       ?GetAlpha@@YAEK@Z          000000014003b4b0 f   utils:ColorUtil.obj
 0001:0003a8a0       ??$max@E@std@@YAAEBEAEBE0@Z 000000014003b8a0 f i utils:ColorUtil.obj
 0001:0003a900       ??$min@E@std@@YAAEBEAEBE0@Z 000000014003b900 f i utils:ColorUtil.obj
 0001:0003a960       ??0Color@Gdiplus@@QEAA@EEE@Z 000000014003b960 f i utils:ColorUtil.obj
 0001:0003a9b0       ??0Color@Gdiplus@@QEAA@EEEE@Z 000000014003b9b0 f i utils:ColorUtil.obj
 0001:0003aa10       ??0Color@Gdiplus@@QEAA@K@Z 000000014003ba10 f i utils:ColorUtil.obj
 0001:0003aa30       ??0ParsedColor@@QEAA@XZ    000000014003ba30 f i utils:ColorUtil.obj
 0001:0003aa80       ?MakeARGB@Color@Gdiplus@@SAKEEEE@Z 000000014003ba80 f i utils:ColorUtil.obj
 0001:0003aad0       ?DpiGetForHwnd@@YAHPEAUHWND__@@@Z 000000014003bad0 f   utils:Dpi.obj
 0001:0003aba0       ?DpiGet@@YAHPEAUHWND__@@@Z 000000014003bba0 f   utils:Dpi.obj
 0001:0003abe0       ?DpiScale@@YAHPEAUHWND__@@H@Z 000000014003bbe0 f   utils:Dpi.obj
 0001:0003ac30       ?DpiScale@@YAXPEAUHWND__@@AEAH1@Z 000000014003bc30 f   utils:Dpi.obj
 0001:0003acb0       ?DpiScale@@YAHPEAUHDC__@@H@Z 000000014003bcb0 f   utils:Dpi.obj
 0001:0003ad80       ??0ScopedGetDC@@QEAA@PEAUHWND__@@@Z 000000014003bd80 f i utils:Dpi.obj
 0001:0003adf0       ??1ScopedGetDC@@QEAA@XZ    000000014003bdf0 f i utils:Dpi.obj
 0001:0003ae20       ??BScopedGetDC@@QEBAPEAUHDC__@@XZ 000000014003be20 f i utils:Dpi.obj
 0001:0003b020       ?log@@YAXPEBD_N@Z          000000014003c020 f   utils:Log.obj
 0001:0003b380       ?loga@@YAXPEBD@Z           000000014003c380 f   utils:Log.obj
 0001:0003b3b0       ?logf@@YAXPEBDZZ           000000014003c3b0 f   utils:Log.obj
 0001:0003b440       ?logfa@@YAXPEBDZZ          000000014003c440 f   utils:Log.obj
 0001:0003b4b0       ?StartLogToFile@@YAXPEBD_N@Z 000000014003c4b0 f   utils:Log.obj
 0001:0003b520       ?WriteCurrentLogToFile@@YA_NPEBD@Z 000000014003c520 f   utils:Log.obj
 0001:0003b5c0       ?DestroyLogging@@YAXXZ     000000014003c5c0 f   utils:Log.obj
 0001:0003b8e0       ??0AutoFree@@QEAA@PEBD@Z   000000014003c8e0 f i utils:Log.obj
 0001:0003b920       ??0HeapAllocator@@QEAA@_K@Z 000000014003c920 f i utils:Log.obj
 0001:0003b980       ??0Mutex@@QEAA@XZ          000000014003c980 f i utils:Log.obj
 0001:0003b9b0       ??1AutoFree@@QEAA@XZ       000000014003c9b0 f i utils:Log.obj
 0001:0003b9e0       ??1HeapAllocator@@UEAA@XZ  000000014003c9e0 f i utils:Log.obj
 0001:0003ba30       ??1Mutex@@QEAA@XZ          000000014003ca30 f i utils:Log.obj
 0001:0003ba60       ??_EHeapAllocator@@UEAAPEAXI@Z 000000014003ca60 f i utils:Log.obj
 0001:0003ba60       ??_GHeapAllocator@@UEAAPEAXI@Z 000000014003ca60 f i utils:Log.obj
 0001:0003bab0       ??_GStr@str@@QEAAPEAXI@Z   000000014003cab0 f i utils:Log.obj
 0001:0003bb00       ?Alloc@HeapAllocator@@UEAAPEAX_K@Z 000000014003cb00 f i utils:Log.obj
 0001:0003bb40       ?Free@HeapAllocator@@UEAAXPEBX@Z 000000014003cb40 f i utils:Log.obj
 0001:0003bb80       ?Get@AutoFree@@QEBAPEADXZ  000000014003cb80 f i utils:Log.obj
 0001:0003bba0       ?Lock@Mutex@@QEAAXXZ       000000014003cba0 f i utils:Log.obj
 0001:0003bbd0       ?Realloc@HeapAllocator@@UEAAPEAXPEAX_K@Z 000000014003cbd0 f i utils:Log.obj
 0001:0003bc10       ?Unlock@Mutex@@QEAAXXZ     000000014003cc10 f i utils:Log.obj
 0001:0003bc40       ?InitDynCalls@@YAXXZ       000000014003cc40 f   utils:WinDynCalls.obj
 0001:0003c1b0       ?IsAppThemed@theme@@YA_NXZ 000000014003d1b0 f   utils:WinDynCalls.obj
 0001:0003c1f0       ?OpenThemeData@theme@@YAPEAXPEAUHWND__@@PEB_W@Z 000000014003d1f0 f   utils:WinDynCalls.obj
 0001:0003c240       ?CloseThemeData@theme@@YAJPEAX@Z 000000014003d240 f   utils:WinDynCalls.obj
 0001:0003c280       ?DrawThemeBackground@theme@@YAJPEAXPEAUHDC__@@HHPEBUtagRECT@@2@Z 000000014003d280 f   utils:WinDynCalls.obj
 0001:0003c2f0       ?IsThemeActive@theme@@YAHXZ 000000014003d2f0 f   utils:WinDynCalls.obj
 0001:0003c320       ?IsThemeBackgroundPartiallyTransparent@theme@@YAHPEAXHH@Z 000000014003d320 f   utils:WinDynCalls.obj
 0001:0003c370       ?GetThemeColor@theme@@YAJPEAXHHHPEAK@Z 000000014003d370 f   utils:WinDynCalls.obj
 0001:0003c3d0       ?IsCompositionEnabled@dwm@@YAHXZ 000000014003d3d0 f   utils:WinDynCalls.obj
 0001:0003c410       ?ExtendFrameIntoClientArea@dwm@@YAJPEAUHWND__@@PEBU_MARGINS@@@Z 000000014003d410 f   utils:WinDynCalls.obj
 0001:0003c460       ?DefaultWindowProc@dwm@@YAHPEAUHWND__@@I_K_JPEA_J@Z 000000014003d460 f   utils:WinDynCalls.obj
 0001:0003c4c0       ?GetWindowAttribute@dwm@@YAJPEAUHWND__@@KPEAXK@Z 000000014003d4c0 f   utils:WinDynCalls.obj
 0001:0003c520       ?SetWindowAttribute@dwm@@YAJPEAUHWND__@@KPEAXK@Z 000000014003d520 f   utils:WinDynCalls.obj
 0001:0003c580       ?SetCaptionColor@dwm@@YAJPEAUHWND__@@K@Z 000000014003d580 f   utils:WinDynCalls.obj
 0001:0003c5c0       ?SupportsGestures@touch@@YA_NXZ 000000014003d5c0 f   utils:WinDynCalls.obj
 0001:0003c600       ?GetGestureInfo@touch@@YAHPEAUHGESTUREINFO__@@PEAUtagGESTUREINFO@@@Z 000000014003d600 f   utils:WinDynCalls.obj
 0001:0003c650       ?CloseGestureInfoHandle@touch@@YAHPEAUHGESTUREINFO__@@@Z 000000014003d650 f   utils:WinDynCalls.obj
 0001:0003c690       ?SetGestureConfig@touch@@YAHPEAUHWND__@@KIPEAUtagGESTURECONFIG@@I@Z 000000014003d690 f   utils:WinDynCalls.obj
 0001:0003c6f0       ?NoDllHijacking@@YAXXZ     000000014003d6f0 f   utils:WinDynCalls.obj
 0001:0003c730       ?PrioritizeSystemDirectoriesForDllLoad@@YAXXZ 000000014003d730 f   utils:WinDynCalls.obj
 0001:0003ce48       ?configure_argv@__scrt_narrow_argv_policy@@SAHXZ 000000014003de48 f i LIBCMT:exe_winmain.obj
 0001:0003ce64       ?initialize_environment@__scrt_narrow_environment_policy@@SAHXZ 000000014003de64 f i LIBCMT:exe_winmain.obj
 0001:0003cea4       ?set_app_type@__scrt_winmain_policy@@SAXXZ 000000014003dea4 f i LIBCMT:exe_winmain.obj
 0001:0003ceb0       ?set_commode@__scrt_file_policy@@SAXXZ 000000014003deb0 f i LIBCMT:exe_winmain.obj
 0001:0003ced0       ?set_fmode@__scrt_file_policy@@SAXXZ 000000014003ded0 f i LIBCMT:exe_winmain.obj
 0001:0003ceec       WinMainCRTStartup          000000014003deec f   LIBCMT:exe_winmain.obj
 0001:0003cf04       __GSHandlerCheck           000000014003df04 f   LIBCMT:gshandler.obj
 0001:0003cf28       __GSHandlerCheckCommon     000000014003df28 f   LIBCMT:gshandler.obj
 0001:0003cfb0       __security_check_cookie    000000014003dfb0 f   LIBCMT:amdsecgs.obj
 0001:0003cfdc       __raise_securityfailure    000000014003dfdc f   LIBCMT:gs_report.obj
 0001:0003d020       __report_gsfailure         000000014003e020 f   LIBCMT:gs_report.obj
 0001:0003d128       __report_rangecheckfailure 000000014003e128 f   LIBCMT:gs_report.obj
 0001:0003d144       __report_securityfailure   000000014003e144 f   LIBCMT:gs_report.obj
 0001:0003d208       __report_securityfailureEx 000000014003e208 f   LIBCMT:gs_report.obj
 0001:0003d474       ??2@YAPEAX_K@Z             000000014003e474 f   LIBCMT:new_scalar.obj
 0001:0003d4c0       ??3@YAXPEAX_K@Z            000000014003e4c0 f   LIBCMT:delete_scalar_size.obj
 0001:0003d4e0       __chkstk                   000000014003e4e0 f   LIBCMT:chkstk.obj
 0001:0003d4e0       _alloca_probe              000000014003e4e0 f   LIBCMT:chkstk.obj
 0001:0003d5e0       NtCurrentTeb               000000014003e5e0 f i LIBCMT:utility.obj
 0001:0003d5ec       __scrt_acquire_startup_lock 000000014003e5ec f   LIBCMT:utility.obj
 0001:0003d634       __scrt_dllmain_after_initialize_c 000000014003e634 f   LIBCMT:utility.obj
 0001:0003d678       __scrt_dllmain_before_initialize_c 000000014003e678 f   LIBCMT:utility.obj
 0001:0003d694       __scrt_dllmain_crt_thread_attach 000000014003e694 f   LIBCMT:utility.obj
 0001:0003d6c8       __scrt_dllmain_crt_thread_detach 000000014003e6c8 f   LIBCMT:utility.obj
 0001:0003d6e4       __scrt_dllmain_exception_filter 000000014003e6e4 f   LIBCMT:utility.obj
 0001:0003d75c       __scrt_dllmain_uninitialize_c 000000014003e75c f   LIBCMT:utility.obj
 0001:0003d798       __scrt_dllmain_uninitialize_critical 000000014003e798 f   LIBCMT:utility.obj
 0001:0003d7b4       __scrt_initialize_crt      000000014003e7b4 f   LIBCMT:utility.obj
 0001:0003d7fc       __scrt_initialize_onexit_tables 000000014003e7fc f   LIBCMT:utility.obj
 0001:0003d8ac       __scrt_is_nonwritable_in_current_image 000000014003e8ac f   LIBCMT:utility.obj
 0001:0003d96c       __scrt_release_startup_lock 000000014003e96c f   LIBCMT:utility.obj
 0001:0003d99c       __scrt_uninitialize_crt    000000014003e99c f   LIBCMT:utility.obj
 0001:0003d9d0       _onexit                    000000014003e9d0 f   LIBCMT:utility.obj
 0001:0003da18       at_quick_exit              000000014003ea18 f   LIBCMT:utility.obj
 0001:0003da3c       atexit                     000000014003ea3c f   LIBCMT:utility.obj
 0001:0003dae0       __security_init_cookie     000000014003eae0 f   LIBCMT:gs_support.obj
 0001:0003dbb8       _matherr                   000000014003ebb8 f   LIBCMT:matherr.obj
 0001:0003dbbc       _get_startup_argv_mode     000000014003ebbc f   LIBCMT:argv_mode.obj
 0001:0003dbc4       _get_startup_commit_mode   000000014003ebc4 f   LIBCMT:commit_mode.obj
 0001:0003dbc8       _get_startup_file_mode     000000014003ebc8 f   LIBCMT:file_mode.obj
 0001:0003dbd0       _get_startup_new_mode      000000014003ebd0 f   LIBCMT:new_mode.obj
 0001:0003dbd4       _get_startup_thread_locale_mode 000000014003ebd4 f   LIBCMT:thread_locale.obj
 0001:0003dbd8       ?__scrt_initialize_type_info@@YAXXZ 000000014003ebd8 f   LIBCMT:tncleanup.obj
 0001:0003dbec       ?__scrt_uninitialize_type_info@@YAXXZ 000000014003ebec f   LIBCMT:tncleanup.obj
 0001:0003dbfc       _should_initialize_environment 000000014003ebfc f   LIBCMT:env_mode.obj
 0001:0003dc00       _initialize_invalid_parameter_handler 000000014003ec00 f   LIBCMT:invalid_parameter_handler.obj
 0001:0003dc04       _initialize_denormal_control 000000014003ec04 f   LIBCMT:denormal_control.obj
 0001:0003dc08       __scrt_initialize_default_local_stdio_options 000000014003ec08 f   LIBCMT:default_local_stdio_options.obj
 0001:0003dc2c       __scrt_is_user_matherr_present 000000014003ec2c f   LIBCMT:matherr_detection.obj
 0001:0003dc3c       __scrt_get_dyn_tls_init_callback 000000014003ec3c f   LIBCMT:dyn_tls_init.obj
 0001:0003dc48       __scrt_get_dyn_tls_dtor_callback 000000014003ec48 f   LIBCMT:dyn_tls_dtor.obj
 0001:0003dc54       __crt_debugger_hook        000000014003ec54 f   LIBCMT:utility_desktop.obj
 0001:0003dc60       __scrt_fastfail            000000014003ec60 f   LIBCMT:utility_desktop.obj
 0001:0003ddfc       __scrt_get_show_window_mode 000000014003edfc f   LIBCMT:utility_desktop.obj
 0001:0003de44       __scrt_initialize_mta      000000014003ee44 f   LIBCMT:utility_desktop.obj
 0001:0003de4c       __scrt_initialize_winrt    000000014003ee4c f   LIBCMT:utility_desktop.obj
 0001:0003de50       __scrt_is_managed_app      000000014003ee50 f   LIBCMT:utility_desktop.obj
 0001:0003deb8       __scrt_set_unhandled_exception_filter 000000014003eeb8 f   LIBCMT:utility_desktop.obj
 0001:0003decc       __scrt_exe_initialize_mta  000000014003eecc f   LIBCMT:utility_desktop.obj
 0001:0003decc       __scrt_stub_for_initialize_mta 000000014003eecc f   LIBCMT:utility_desktop.obj
 0001:0003ded0       __scrt_unhandled_exception_filter 000000014003eed0 f   LIBCMT:utility_desktop.obj
 0001:0003df44       _RTC_Initialize            000000014003ef44 f   LIBCMT:initsect.obj
 0001:0003df90       _RTC_Terminate             000000014003ef90 f   LIBCMT:initsect.obj
 0001:0003dfdc       _guard_check_icall_nop     000000014003efdc f i LIBCMT:guard_support.obj
 0001:0003dfe0       ReadNoFence64              000000014003efe0 f i LIBCMT:guard_support.obj
 0001:0003dfe4       ReadPointerNoFence         000000014003efe4 f i LIBCMT:guard_support.obj
 0001:0003dfe8       __castguard_check_failure_debugbreak 000000014003efe8 f i LIBCMT:guard_support.obj
 0001:0003e00c       __castguard_check_failure_fastfail 000000014003f00c f i LIBCMT:guard_support.obj
 0001:0003e038       __castguard_check_failure_nop 000000014003f038 f i LIBCMT:guard_support.obj
 0001:0003e03c       __castguard_check_failure_os_handled 000000014003f03c f i LIBCMT:guard_support.obj
 0001:0003e098       __castguard_check_failure_user_handled 000000014003f098 f i LIBCMT:guard_support.obj
 0001:0003e124       __castguard_set_user_handler 000000014003f124 f i LIBCMT:guard_support.obj
 0001:0003e134       __castguard_slow_path_check_debugbreak 000000014003f134 f i LIBCMT:guard_support.obj
 0001:0003e178       __castguard_slow_path_check_fastfail 000000014003f178 f i LIBCMT:guard_support.obj
 0001:0003e1c0       __castguard_slow_path_check_nop 000000014003f1c0 f i LIBCMT:guard_support.obj
 0001:0003e1c4       __castguard_slow_path_check_os_handled 000000014003f1c4 f i LIBCMT:guard_support.obj
 0001:0003e224       __castguard_slow_path_check_user_handled 000000014003f224 f i LIBCMT:guard_support.obj
 0001:0003e2a8       _guard_icall_checks_enforced 000000014003f2a8 f i LIBCMT:guard_support.obj
 0001:0003e2c4       _guard_rf_checks_enforced  000000014003f2c4 f i LIBCMT:guard_support.obj
 0001:0003e2c8       ??0bad_alloc@std@@AEAA@QEBD@Z 000000014003f2c8 f i LIBCMT:throw_bad_alloc.obj
 0001:0003e2e4       ??0bad_alloc@std@@QEAA@AEBV01@@Z 000000014003f2e4 f i LIBCMT:throw_bad_alloc.obj
 0001:0003e330       ??0bad_alloc@std@@QEAA@XZ  000000014003f330 f i LIBCMT:throw_bad_alloc.obj
 0001:0003e358       ??0bad_array_new_length@std@@QEAA@AEBV01@@Z 000000014003f358 f i LIBCMT:throw_bad_alloc.obj
 0001:0003e3a4       ??0bad_array_new_length@std@@QEAA@XZ 000000014003f3a4 f i LIBCMT:throw_bad_alloc.obj
 0001:0003e3cc       ??0exception@std@@QEAA@AEBV01@@Z 000000014003f3cc f i LIBCMT:throw_bad_alloc.obj
 0001:0003e40c       ??0exception@std@@QEAA@QEBDH@Z 000000014003f40c f i LIBCMT:throw_bad_alloc.obj
 0001:0003e428       ??1bad_alloc@std@@UEAA@XZ  000000014003f428 f i LIBCMT:throw_bad_alloc.obj
 0001:0003e440       ??1bad_array_new_length@std@@UEAA@XZ 000000014003f440 f i LIBCMT:throw_bad_alloc.obj
 0001:0003e458       ??1exception@std@@UEAA@XZ  000000014003f458 f i LIBCMT:throw_bad_alloc.obj
 0001:0003e470       ??_Ebad_alloc@std@@UEAAPEAXI@Z 000000014003f470 f i LIBCMT:throw_bad_alloc.obj
 0001:0003e470       ??_Gbad_alloc@std@@UEAAPEAXI@Z 000000014003f470 f i LIBCMT:throw_bad_alloc.obj
 0001:0003e4c4       ??_Ebad_array_new_length@std@@UEAAPEAXI@Z 000000014003f4c4 f i LIBCMT:throw_bad_alloc.obj
 0001:0003e4c4       ??_Gbad_array_new_length@std@@UEAAPEAXI@Z 000000014003f4c4 f i LIBCMT:throw_bad_alloc.obj
 0001:0003e518       ??_Eexception@std@@UEAAPEAXI@Z 000000014003f518 f i LIBCMT:throw_bad_alloc.obj
 0001:0003e518       ??_Gexception@std@@UEAAPEAXI@Z 000000014003f518 f i LIBCMT:throw_bad_alloc.obj
 0001:0003e56c       ?__scrt_throw_std_bad_alloc@@YAXXZ 000000014003f56c f   LIBCMT:throw_bad_alloc.obj
 0001:0003e594       ?__scrt_throw_std_bad_array_new_length@@YAXXZ 000000014003f594 f   LIBCMT:throw_bad_alloc.obj
 0001:0003e5bc       ?what@exception@std@@UEBAPEBDXZ 000000014003f5bc f i LIBCMT:throw_bad_alloc.obj
 0001:0003e5d4       ??3@YAXPEAX@Z              000000014003f5d4 f   LIBCMT:delete_scalar.obj
 0001:0003e5dc       __isa_available_init       000000014003f5dc f   LIBCMT:cpu_disp.obj
 0001:0003e958       __scrt_is_ucrt_dll_in_use  000000014003f958 f   LIBCMT:ucrt_detection.obj
 0001:0003e970       ??1type_info@@UEAA@XZ      000000014003f970 f   LIBCMT:std_type_info_static.obj
 0001:0003e980       ??_Etype_info@@UEAAPEAXI@Z 000000014003f980 f i LIBCMT:std_type_info_static.obj
 0001:0003e980       ??_Gtype_info@@UEAAPEAXI@Z 000000014003f980 f i LIBCMT:std_type_info_static.obj
 0001:0003e9c0       strchr                     000000014003f9c0 f   libvcruntime:strchr.obj
 0001:0003ea5c       strrchr                    000000014003fa5c f   libvcruntime:strrchr.obj
 0001:0003ebe4       strstr                     000000014003fbe4 f   libvcruntime:strstr.obj
 0001:0003ee4c       wcschr                     000000014003fe4c f   libvcruntime:wcschr.obj
 0001:0003eee4       wcsstr                     000000014003fee4 f   libvcruntime:wcsstr.obj
 0001:0003f178       ??$__crt_interlocked_exchange_pointer@$$A6AXXZP6AXXZ@@YAP6AXXZPEDS6AXXZQ6AXXZ@Z 0000000140040178 f i libvcruntime:purevirt.obj
 0001:0003f180       ??$__crt_interlocked_read_pointer@$$A6AXXZ@@YAP6AXXZPEDS6AXXZ@Z 0000000140040180 f i libvcruntime:purevirt.obj
 0001:0003f188       ?__crt_interlocked_read_64@@YA_JPED_J@Z 0000000140040188 f i libvcruntime:purevirt.obj
 0001:0003f190       _get_purecall_handler      0000000140040190 f   libvcruntime:purevirt.obj
 0001:0003f19c       _purecall                  000000014004019c f   libvcruntime:purevirt.obj
 0001:0003f1bc       _set_purecall_handler      00000001400401bc f   libvcruntime:purevirt.obj
 0001:0003f1cc       __C_specific_handler       00000001400401cc f   libvcruntime:riscchandler.obj
 0001:0003f468       __vcrt_initialize          0000000140040468 f   libvcruntime:initialization.obj
 0001:0003f49c       __vcrt_thread_attach       000000014004049c f   libvcruntime:initialization.obj
 0001:0003f4b8       __vcrt_thread_detach       00000001400404b8 f   libvcruntime:initialization.obj
 0001:0003f4cc       __vcrt_uninitialize        00000001400404cc f   libvcruntime:initialization.obj
 0001:0003f4ec       __vcrt_uninitialize_critical 00000001400404ec f   libvcruntime:initialization.obj
 0001:0003f514       ??$?RD@__crt_internal_free_policy@@QEBAXQEBD@Z 0000000140040514 f i libvcruntime:std_type_info.obj
 0001:0003f520       ??$?RX@__crt_internal_free_policy@@QEBAXQEBX@Z 0000000140040520 f i libvcruntime:std_type_info.obj
 0001:0003f52c       ??$__crt_interlocked_compare_exchange_pointer@$$CBDPEAD$$T@@YAPEBDPEDSEBDQEAD$$T@Z 000000014004052c f i libvcruntime:std_type_info.obj
 0001:0003f538       ??$__crt_interlocked_read_pointer@$$CBD@@YAPEBDPEDSEBD@Z 0000000140040538 f i libvcruntime:std_type_info.obj
 0001:0003f540       ??0?$__crt_unique_heap_ptr@DU__crt_internal_free_policy@@@@QEAA@QEAD@Z 0000000140040540 f i libvcruntime:std_type_info.obj
 0001:0003f548       ??0?$__crt_unique_heap_ptr@XU__crt_internal_free_policy@@@@QEAA@QEAX@Z 0000000140040548 f i libvcruntime:std_type_info.obj
 0001:0003f550       ??1?$__crt_unique_heap_ptr@DU__crt_internal_free_policy@@@@QEAA@XZ 0000000140040550 f i libvcruntime:std_type_info.obj
 0001:0003f574       ??1?$__crt_unique_heap_ptr@XU__crt_internal_free_policy@@@@QEAA@XZ 0000000140040574 f i libvcruntime:std_type_info.obj
 0001:0003f598       ??B?$__crt_unique_heap_ptr@DU__crt_internal_free_policy@@@@QEBA_NXZ 0000000140040598 f i libvcruntime:std_type_info.obj
 0001:0003f5a4       ??B?$__crt_unique_heap_ptr@XU__crt_internal_free_policy@@@@QEBA_NXZ 00000001400405a4 f i libvcruntime:std_type_info.obj
 0001:0003f5c8       ?detach@?$__crt_unique_heap_ptr@XU__crt_internal_free_policy@@@@QEAAPEAXXZ 00000001400405c8 f i libvcruntime:std_type_info.obj
 0001:0003f5d4       ?get@?$__crt_unique_heap_ptr@DU__crt_internal_free_policy@@@@QEBAPEADXZ 00000001400405d4 f i libvcruntime:std_type_info.obj
 0001:0003f5d8       ?get@?$__crt_unique_heap_ptr@XU__crt_internal_free_policy@@@@QEBAPEAXXZ 00000001400405d8 f i libvcruntime:std_type_info.obj
 0001:0003f5dc       ?is_valid@?$__crt_unique_heap_ptr@DU__crt_internal_free_policy@@@@QEBA_NXZ 00000001400405dc f i libvcruntime:std_type_info.obj
 0001:0003f5e8       ?is_valid@?$__crt_unique_heap_ptr@XU__crt_internal_free_policy@@@@QEBA_NXZ 00000001400405e8 f i libvcruntime:std_type_info.obj
 0001:0003f5f4       ?release@?$__crt_unique_heap_ptr@DU__crt_internal_free_policy@@@@QEAAXXZ 00000001400405f4 f i libvcruntime:std_type_info.obj
 0001:0003f618       ?release@?$__crt_unique_heap_ptr@XU__crt_internal_free_policy@@@@QEAAXXZ 0000000140040618 f i libvcruntime:std_type_info.obj
 0001:0003f63c       __std_type_info_compare    000000014004063c f   libvcruntime:std_type_info.obj
 0001:0003f66c       __std_type_info_destroy_list 000000014004066c f   libvcruntime:std_type_info.obj
 0001:0003f6a0       __std_type_info_hash       00000001400406a0 f   libvcruntime:std_type_info.obj
 0001:0003f6e8       __std_type_info_name       00000001400406e8 f   libvcruntime:std_type_info.obj
 0001:0003f844       __DestructExceptionObject  0000000140040844 f   libvcruntime:ehhelpers.obj
 0001:0003f8cc       ?_CallMemberFunction0@@YAXQEAX0@Z 00000001400408cc f i libvcruntime:ehhelpers.obj
 0001:0003f940       ?raw_name@type_info@@QEBAPEBDXZ 0000000140040940 f i libvcruntime:ehhelpers.obj
 0001:0003f948       _IsExceptionObjectToBeDestroyed 0000000140040948 f   libvcruntime:ehhelpers.obj
 0001:0003f984       _SetWinRTOutOfMemoryExceptionCallback 0000000140040984 f   libvcruntime:ehhelpers.obj
 0001:0003f990       __AdjustPointer            0000000140040990 f   libvcruntime:ehhelpers.obj
 0001:0003f9bc       __FrameUnwindFilter        00000001400409bc f   libvcruntime:ehhelpers.obj
 0001:0003fa3c       __GetPlatformExceptionInfo 0000000140040a3c f   libvcruntime:ehhelpers.obj
 0001:0003fab0       __current_exception        0000000140040ab0 f   libvcruntime:ehhelpers.obj
 0001:0003fac8       __current_exception_context 0000000140040ac8 f   libvcruntime:ehhelpers.obj
 0001:0003fae0       __processing_throw         0000000140040ae0 f   libvcruntime:ehhelpers.obj
 0001:0003faf8       __std_terminate            0000000140040af8 f   libvcruntime:ehhelpers.obj
 0001:0003fb04       _is_exception_typeof       0000000140040b04 f   libvcruntime:ehhelpers.obj
 0001:0003fbd4       ??$?RD@__crt_public_free_policy@@QEBAXQEBD@Z 0000000140040bd4 f i libvcruntime:std_exception.obj
 0001:0003fbe0       ??0?$__crt_unique_heap_ptr@DU__crt_public_free_policy@@@@QEAA@QEAD@Z 0000000140040be0 f i libvcruntime:std_exception.obj
 0001:0003fbe8       ??1?$__crt_unique_heap_ptr@DU__crt_public_free_policy@@@@QEAA@XZ 0000000140040be8 f i libvcruntime:std_exception.obj
 0001:0003fc0c       ??B?$__crt_unique_heap_ptr@DU__crt_public_free_policy@@@@QEBA_NXZ 0000000140040c0c f i libvcruntime:std_exception.obj
 0001:0003fc18       ?detach@?$__crt_unique_heap_ptr@DU__crt_public_free_policy@@@@QEAAPEADXZ 0000000140040c18 f i libvcruntime:std_exception.obj
 0001:0003fc24       ?get@?$__crt_unique_heap_ptr@DU__crt_public_free_policy@@@@QEBAPEADXZ 0000000140040c24 f i libvcruntime:std_exception.obj
 0001:0003fc28       ?is_valid@?$__crt_unique_heap_ptr@DU__crt_public_free_policy@@@@QEBA_NXZ 0000000140040c28 f i libvcruntime:std_exception.obj
 0001:0003fc34       ?release@?$__crt_unique_heap_ptr@DU__crt_public_free_policy@@@@QEAAXXZ 0000000140040c34 f i libvcruntime:std_exception.obj
 0001:0003fc58       __std_exception_copy       0000000140040c58 f   libvcruntime:std_exception.obj
 0001:0003fd08       __std_exception_destroy    0000000140040d08 f   libvcruntime:std_exception.obj
 0001:0003fd38       _CxxThrowException         0000000140040d38 f   libvcruntime:throw.obj
 0001:0003fe50       _NLG_Notify                0000000140040e50 f   libvcruntime:notify.obj
 0001:0003fe80       __NLG_Dispatch2            0000000140040e80 f   libvcruntime:notify.obj
 0001:0003fe90       __NLG_Return2              0000000140040e90 f   libvcruntime:notify.obj
 0001:0003fe9c       __except_validate_context_record 0000000140040e9c f   libvcruntime:jbcxrval.obj
 0001:0003fee0       __except_validate_jump_buffer 0000000140040ee0 f   libvcruntime:jbcxrval.obj
 0001:0003ff30       __except_validate_jump_buffer_common 0000000140040f30 f i libvcruntime:jbcxrval.obj
 0001:0003ffa4       ??$?RU__vcrt_ptd@@@__crt_internal_free_policy@@QEBAXQEBU__vcrt_ptd@@@Z 0000000140040fa4 f i libvcruntime:per_thread_data.obj
 0001:0003ffb0       ??0?$__crt_unique_heap_ptr@U__vcrt_ptd@@U__crt_internal_free_policy@@@@QEAA@QEAU__vcrt_ptd@@@Z 0000000140040fb0 f i libvcruntime:per_thread_data.obj
 0001:0003ffd8       ??1?$__crt_unique_heap_ptr@U__vcrt_ptd@@U__crt_internal_free_policy@@@@QEAA@XZ 0000000140040fd8 f i libvcruntime:per_thread_data.obj
 0001:00040008       ??B?$__crt_unique_heap_ptr@U__vcrt_ptd@@U__crt_internal_free_policy@@@@QEBA_NXZ 0000000140041008 f i libvcruntime:per_thread_data.obj
 0001:00040014       ?detach@?$__crt_unique_heap_ptr@U__vcrt_ptd@@U__crt_internal_free_policy@@@@QEAAPEAU__vcrt_ptd@@XZ 0000000140041014 f i libvcruntime:per_thread_data.obj
 0001:00040020       ?get@?$__crt_unique_heap_ptr@U__vcrt_ptd@@U__crt_internal_free_policy@@@@QEBAPEAU__vcrt_ptd@@XZ 0000000140041020 f i libvcruntime:per_thread_data.obj
 0001:00040024       ?is_valid@?$__crt_unique_heap_ptr@U__vcrt_ptd@@U__crt_internal_free_policy@@@@QEBA_NXZ 0000000140041024 f i libvcruntime:per_thread_data.obj
 0001:00040030       ?release@?$__crt_unique_heap_ptr@U__vcrt_ptd@@U__crt_internal_free_policy@@@@QEAAXXZ 0000000140041030 f i libvcruntime:per_thread_data.obj
 0001:00040088       __vcrt_freefls             0000000140041088 f   libvcruntime:per_thread_data.obj
 0001:000400b0       __vcrt_freeptd_for_this_thread 00000001400410b0 f   libvcruntime:per_thread_data.obj
 0001:00040108       __vcrt_getptd              0000000140041108 f   libvcruntime:per_thread_data.obj
 0001:00040128       __vcrt_getptd_noexit       0000000140041128 f   libvcruntime:per_thread_data.obj
 0001:00040218       __vcrt_getptd_noinit       0000000140041218 f   libvcruntime:per_thread_data.obj
 0001:00040278       __vcrt_initialize_ptd      0000000140041278 f   libvcruntime:per_thread_data.obj
 0001:000402d0       __vcrt_uninitialize_ptd    00000001400412d0 f   libvcruntime:per_thread_data.obj
 0001:000402fc       __vcrt_initialize_locks    00000001400412fc f   libvcruntime:locks.obj
 0001:00040354       __vcrt_lock                0000000140041354 f   libvcruntime:locks.obj
 0001:00040374       __vcrt_uninitialize_locks  0000000140041374 f   libvcruntime:locks.obj
 0001:000403b8       __vcrt_unlock              00000001400413b8 f   libvcruntime:locks.obj
 0001:000403d8       ??$?0$00@DName@@QEAA@PEBDU?$StringLifeSelector@$00@@@Z 00000001400413d8 f i libvcruntime:undname.obj
 0001:00040428       ??$?0$00@pcharNode@@QEAA@PEBDHU?$StringLifeSelector@$00@@@Z 0000000140041428 f i libvcruntime:undname.obj
 0001:00040444       ??$?0$01@DName@@QEAA@PEBDU?$StringLifeSelector@$01@@@Z 0000000140041444 f i libvcruntime:undname.obj
 0001:00040494       ??$?0$01@pcharNode@@QEAA@PEBDHU?$StringLifeSelector@$01@@@Z 0000000140041494 f i libvcruntime:undname.obj
 0001:00040524       ??$?0$0A@@DName@@QEAA@PEBDU?$StringLifeSelector@$0A@@@@Z 0000000140041524 f i libvcruntime:undname.obj
 0001:00040574       ??$?0$0A@@pcharNode@@QEAA@PEBDHU?$StringLifeSelector@$0A@@@@Z 0000000140041574 f i libvcruntime:undname.obj
 0001:00040604       ??$?0_K$0A@@?$optional@_K@std@@QEAA@$$QEA_K@Z 0000000140041604 f i libvcruntime:undname.obj
 0001:00040618       ??$?0_K@?$_Optional_construct_base@_K@std@@QEAA@Uin_place_t@1@$$QEA_K@Z 0000000140041618 f i libvcruntime:undname.obj
 0001:0004062c       ??$?0_K@?$_Optional_destruct_base@_K$00@std@@QEAA@Uin_place_t@1@$$QEA_K@Z 000000014004162c f i libvcruntime:undname.obj
 0001:00040640       ??$append@VDNameNode@@@DName@@AEAAXPEBVDNameNode@@@Z 0000000140041640 f i libvcruntime:undname.obj
 0001:000406bc       ??$append@VDNameStatusNode@@@DName@@AEAAXPEBVDNameStatusNode@@@Z 00000001400416bc f i libvcruntime:undname.obj
 0001:00040738       ??$append@VcharNode@@@DName@@AEAAXPEBVcharNode@@@Z 0000000140041738 f i libvcruntime:undname.obj
 0001:000407b4       ??$append@VpDNameNode@@@DName@@AEAAXPEBVpDNameNode@@@Z 00000001400417b4 f i libvcruntime:undname.obj
 0001:00040830       ??$append@VpcharNode@@@DName@@AEAAXPEBVpcharNode@@@Z 0000000140041830 f i libvcruntime:undname.obj
 0001:000408ac       ??$doPchar@$00@DName@@AEAAXPEBDH@Z 00000001400418ac f i libvcruntime:undname.obj
 0001:00040968       ??$doPchar@$01@DName@@AEAAXPEBDH@Z 0000000140041968 f i libvcruntime:undname.obj
 0001:00040a24       ??$doPchar@$0A@@DName@@AEAAXPEBDH@Z 0000000140041a24 f i libvcruntime:undname.obj
 0001:00040ae0       ??$forward@_K@std@@YA$$QEA_KAEA_K@Z 0000000140041ae0 f i libvcruntime:undname.obj
 0001:00040c44       ??0?$_Optional_construct_base@_K@std@@QEAA@XZ 0000000140041c44 f i libvcruntime:undname.obj
 0001:00040c50       ??0?$_Optional_destruct_base@_K$00@std@@QEAA@XZ 0000000140041c50 f i libvcruntime:undname.obj
 0001:00040c5c       ??0?$optional@_K@std@@QEAA@XZ 0000000140041c5c f i libvcruntime:undname.obj
 0001:00040c68       ??0Block@_HeapManager@@QEAA@XZ 0000000140041c68 f i libvcruntime:undname.obj
 0001:00040c74       ??0DName@@QEAA@AEAPEBDD@Z  0000000140041c74 f   libvcruntime:undname.obj
 0001:00040d54       ??0DName@@QEAA@AEBUStringLiteral@@@Z 0000000140041d54 f   libvcruntime:undname.obj
 0001:00040d8c       ??0DName@@QEAA@AEBV0@@Z    0000000140041d8c f i libvcruntime:undname.obj
 0001:00040da0       ??0DName@@QEAA@D@Z         0000000140041da0 f   libvcruntime:undname.obj
 0001:00040dc8       ??0DName@@QEAA@PEAV0@@Z    0000000140041dc8 f   libvcruntime:undname.obj
 0001:00040e6c       ??0DName@@QEAA@W4DNameStatus@@@Z 0000000140041e6c f   libvcruntime:undname.obj
 0001:00040ea8       ??0DName@@QEAA@XZ          0000000140041ea8 f i libvcruntime:undname.obj
 0001:00040eb8       ??0DName@@QEAA@_J@Z        0000000140041eb8 f   libvcruntime:undname.obj
 0001:00040f84       ??0DName@@QEAA@_K@Z        0000000140041f84 f   libvcruntime:undname.obj
 0001:00041030       ??0DNameNode@@IEAA@XZ      0000000140042030 f i libvcruntime:undname.obj
 0001:00041044       ??0Replicator@@QEAA@XZ     0000000140042044 f i libvcruntime:undname.obj
 0001:00041080       ??0UnDecorator@@QEAA@PEBDP6APEADJ@ZK@Z 0000000140042080 f i libvcruntime:undname.obj
 0001:00041154       ??0_Nontrivial_dummy_type@std@@QEAA@XZ 0000000140042154 f i libvcruntime:undname.obj
 0001:00041158       ??0charNode@@QEAA@D@Z      0000000140042158 f i libvcruntime:undname.obj
 0001:00041170       ??0pDNameNode@@QEAA@PEAVDName@@@Z 0000000140042170 f   libvcruntime:undname.obj
 0001:000411a0       ??0pairNode@@QEAA@PEBVDNameNode@@0@Z 00000001400421a0 f i libvcruntime:undname.obj
 0001:000411c8       ??2@YAPEAX_KAEAV_HeapManager@@H@Z 00000001400421c8 f   libvcruntime:undname.obj
 0001:000411fc       ??4DName@@QEAAAEAV0@AEBUStringLiteral@@@Z 00000001400421fc f   libvcruntime:undname.obj
 0001:0004122c       ??4DName@@QEAAAEAV0@AEBV0@@Z 000000014004222c f   libvcruntime:undname.obj
 0001:00041240       ??4DName@@QEAAAEAV0@D@Z    0000000140042240 f i libvcruntime:undname.obj
 0001:00041268       ??4DName@@QEAAAEAV0@PEAV0@@Z 0000000140042268 f   libvcruntime:undname.obj
 0001:000412fc       ??4DName@@QEAAAEAV0@W4DNameStatus@@@Z 00000001400422fc f   libvcruntime:undname.obj
 0001:00041324       ??AReplicator@@QEBA?AVDName@@H@Z 0000000140042324 f   libvcruntime:undname.obj
 0001:00041374       ??B?$optional@_K@std@@QEBA_NXZ 0000000140042374 f i libvcruntime:undname.obj
 0001:00041378       ??D?$_Optional_construct_base@_K@std@@QEGAAAEA_KXZ 0000000140042378 f i libvcruntime:undname.obj
 0001:0004137c       ??H@YA?AVDName@@AEBUStringLiteral@@AEBV0@@Z 000000014004237c f i libvcruntime:undname.obj
 0001:000413c0       ??H@YA?AVDName@@DAEBV0@@Z  00000001400423c0 f i libvcruntime:undname.obj
 0001:00041414       ??H@YA?AVDName@@W4DNameStatus@@AEBV0@@Z 0000000140042414 f i libvcruntime:undname.obj
 0001:00041458       ??HDName@@QEBA?AV0@AEBUStringLiteral@@@Z 0000000140042458 f   libvcruntime:undname.obj
 0001:0004148c       ??HDName@@QEBA?AV0@AEBV0@@Z 000000014004248c f   libvcruntime:undname.obj
 0001:000414c0       ??HDName@@QEBA?AV0@D@Z     00000001400424c0 f   libvcruntime:undname.obj
 0001:000414f4       ??HDName@@QEBA?AV0@PEAV0@@Z 00000001400424f4 f   libvcruntime:undname.obj
 0001:00041528       ??HDName@@QEBA?AV0@W4DNameStatus@@@Z 0000000140042528 f   libvcruntime:undname.obj
 0001:0004155c       ??HStringLiteral@@QEBA?AU0@H@Z 000000014004255c f i libvcruntime:undname.obj
 0001:00041578       ??YDName@@QEAAAEAV0@AEBUStringLiteral@@@Z 0000000140042578 f   libvcruntime:undname.obj
 0001:00041618       ??YDName@@QEAAAEAV0@AEBV0@@Z 0000000140042618 f   libvcruntime:undname.obj
 0001:000416f8       ??YDName@@QEAAAEAV0@D@Z    00000001400426f8 f   libvcruntime:undname.obj
 0001:00041780       ??YDName@@QEAAAEAV0@PEAV0@@Z 0000000140042780 f   libvcruntime:undname.obj
 0001:00041838       ??YDName@@QEAAAEAV0@W4DNameStatus@@@Z 0000000140042838 f   libvcruntime:undname.obj
 0001:000418c0       ??YReplicator@@QEAAAEAV0@AEBVDName@@@Z 00000001400428c0 f   libvcruntime:undname.obj
 0001:00041930       ??_5DName@@QEAAAEAV0@AEBV0@@Z 0000000140042930 f   libvcruntime:undname.obj
 0001:00041950       ??__K_l@@YA?AUStringLiteral@@PEBD_K@Z 0000000140042950 f i libvcruntime:undname.obj
 0001:00041960       ?Constructor@_HeapManager@@QEAAXP6APEAX_K@ZP6AXPEAX@Z@Z 0000000140042960 f i libvcruntime:undname.obj
 0001:0004197c       ?Destructor@_HeapManager@@QEAAXXZ 000000014004297c f i libvcruntime:undname.obj
 0001:000419d8       ?UScore@UnDecorator@@SA?AUStringLiteral@@W4Tokens@@@Z 00000001400429d8 f   libvcruntime:undname.obj
 0001:00041a38       ?composeDeclaration@UnDecorator@@CA?AVDName@@AEBV2@@Z 0000000140042a38 f i libvcruntime:undname.obj
 0001:00042dec       ?doAccessSpecifiers@UnDecorator@@SAHXZ 0000000140043dec f i libvcruntime:undname.obj
 0001:00042e00       ?doAllocationLanguage@UnDecorator@@SAHXZ 0000000140043e00 f i libvcruntime:undname.obj
 0001:00042e14       ?doAllocationModel@UnDecorator@@SAHXZ 0000000140043e14 f i libvcruntime:undname.obj
 0001:00042e28       ?doEcsu@UnDecorator@@SAHXZ 0000000140043e28 f i libvcruntime:undname.obj
 0001:00042e3c       ?doEllipsis@UnDecorator@@SAHXZ 0000000140043e3c f i libvcruntime:undname.obj
 0001:00042e50       ?doFunctionReturns@UnDecorator@@SAHXZ 0000000140043e50 f i libvcruntime:undname.obj
 0001:00042e64       ?doMSKeywords@UnDecorator@@SAHXZ 0000000140043e64 f i libvcruntime:undname.obj
 0001:00042e78       ?doMemberTypes@UnDecorator@@SAHXZ 0000000140043e78 f i libvcruntime:undname.obj
 0001:00042e8c       ?doNameOnly@UnDecorator@@SAHXZ 0000000140043e8c f i libvcruntime:undname.obj
 0001:00042e9c       ?doNoIdentCharCheck@UnDecorator@@SAHXZ 0000000140043e9c f i libvcruntime:undname.obj
 0001:00042eac       ?doPchar@DName@@AEAAXD@Z   0000000140043eac f   libvcruntime:undname.obj
 0001:00042f10       ?doPtr64@UnDecorator@@SAHXZ 0000000140043f10 f i libvcruntime:undname.obj
 0001:00042f24       ?doRestrictionSpec@UnDecorator@@SAHXZ 0000000140043f24 f i libvcruntime:undname.obj
 0001:00042f38       ?doThisTypes@UnDecorator@@SAHXZ 0000000140043f38 f i libvcruntime:undname.obj
 0001:00042f50       ?doThrowTypes@UnDecorator@@SAHXZ 0000000140043f50 f i libvcruntime:undname.obj
 0001:00042f64       ?doTypeOnly@UnDecorator@@SAHXZ 0000000140043f64 f i libvcruntime:undname.obj
 0001:00042f74       ?doUnderScore@UnDecorator@@SAHXZ 0000000140043f74 f i libvcruntime:undname.obj
 0001:00042f84       ?getAddressOf@UnDecorator@@CA?AVDName@@XZ 0000000140043f84 f   libvcruntime:undname.obj
 0001:00043038       ?getArgumentList@UnDecorator@@CA?AVDName@@XZ 0000000140044038 f   libvcruntime:undname.obj
 0001:00043230       ?getArgumentTypes@UnDecorator@@CA?AVDName@@XZ 0000000140044230 f   libvcruntime:undname.obj
 0001:000433d0       ?getArrayAccess@UnDecorator@@CA?AVDName@@XZ 00000001400443d0 f   libvcruntime:undname.obj
 0001:00043490       ?getArrayObject@UnDecorator@@CA?AVDName@@XZ 0000000140044490 f   libvcruntime:undname.obj
 0001:00043594       ?getArrayType@UnDecorator@@CA?AVDName@@AEBV2@@Z 0000000140044594 f i libvcruntime:undname.obj
 0001:00043888       ?getBasedType@UnDecorator@@CA?AVDName@@XZ 0000000140044888 f   libvcruntime:undname.obj
 0001:000439bc       ?getBasicDataType@UnDecorator@@CA?AVDName@@AEBV2@@Z 00000001400449bc f   libvcruntime:undname.obj
 0001:00044140       ?getCHPEName@UnDecorator@@QEAAPEADPEADH@Z 0000000140045140 f i libvcruntime:undname.obj
 0001:000442a4       ?getCallIndex@UnDecorator@@CA?AVDName@@XZ 00000001400452a4 f i libvcruntime:undname.obj
 0001:000442c4       ?getCallingConvention@UnDecorator@@CA?AVDName@@XZ 00000001400452c4 f   libvcruntime:undname.obj
 0001:0004442c       ?getDataIndirectType@UnDecorator@@CA?AVDName@@AEBV2@W4IndirectionKind@@0H@Z 000000014004542c f   libvcruntime:undname.obj
 0001:0004518c       ?getDataIndirectType@UnDecorator@@CA?AVDName@@XZ 000000014004618c f i libvcruntime:undname.obj
 0001:000451d4       ?getDataType@UnDecorator@@CA?AVDName@@PEAV2@@Z 00000001400461d4 f   libvcruntime:undname.obj
 0001:0004532c       ?getDecoratedName@UnDecorator@@CA?AVDName@@XZ 000000014004632c f   libvcruntime:undname.obj
 0001:000456cc       ?getDimension@UnDecorator@@CA?AVDName@@_N@Z 00000001400466cc f   libvcruntime:undname.obj
 0001:00045868       ?getDispatchTarget@UnDecorator@@CA?AVDName@@XZ 0000000140046868 f   libvcruntime:undname.obj
 0001:000458dc       ?getDisplacement@UnDecorator@@CA?AVDName@@XZ 00000001400468dc f i libvcruntime:undname.obj
 0001:000458fc       ?getECSUDataType@UnDecorator@@CA?AVDName@@XZ 00000001400468fc f   libvcruntime:undname.obj
 0001:00045b74       ?getECSUName@UnDecorator@@CA?AVDName@@XZ 0000000140046b74 f i libvcruntime:undname.obj
 0001:00045b90       ?getEnumType@UnDecorator@@CA?AVDName@@XZ 0000000140046b90 f i libvcruntime:undname.obj
 0001:00045d00       ?getExtendedDataIndirectType@UnDecorator@@CA?AVDName@@AEAW4IndirectionKind@@AEA_NH@Z 0000000140046d00 f   libvcruntime:undname.obj
 0001:0004600c       ?getExternalDataType@UnDecorator@@CA?AVDName@@AEBV2@@Z 000000014004700c f i libvcruntime:undname.obj
 0001:000460fc       ?getFloatingPoint@UnDecorator@@CA?AVDName@@H@Z 00000001400470fc f   libvcruntime:undname.obj
 0001:000462bc       ?getFunctionIndirectType@UnDecorator@@CA?AVDName@@AEBV2@@Z 00000001400472bc f   libvcruntime:undname.obj
 0001:00046940       ?getGuardNumber@UnDecorator@@CA?AVDName@@XZ 0000000140047940 f i libvcruntime:undname.obj
 0001:00046960       ?getLastChar@DName@@QEBADXZ 0000000140047960 f i libvcruntime:undname.obj
 0001:00046980       ?getLastChar@DNameStatusNode@@UEBADXZ 0000000140047980 f i libvcruntime:undname.obj
 0001:00046990       ?getLastChar@charNode@@UEBADXZ 0000000140047990 f i libvcruntime:undname.obj
 0001:00046994       ?getLastChar@pDNameNode@@UEBADXZ 0000000140047994 f i libvcruntime:undname.obj
 0001:000469c8       ?getLastChar@pairNode@@UEBADXZ 00000001400479c8 f i libvcruntime:undname.obj
 0001:00046a0c       ?getLastChar@pcharNode@@UEBADXZ 0000000140047a0c f i libvcruntime:undname.obj
 0001:00046a28       ?getLexicalFrame@UnDecorator@@CA?AVDName@@XZ 0000000140047a28 f i libvcruntime:undname.obj
 0001:00046aa4       ?getMemberAccess@UnDecorator@@CA?AVDName@@XZ 0000000140047aa4 f   libvcruntime:undname.obj
 0001:00046b5c       ?getMemoryWithBuffer@_HeapManager@@QEAAPEAX_K@Z 0000000140047b5c f   libvcruntime:undname.obj
 0001:00046c10       ?getMemoryWithoutBuffer@_HeapManager@@QEAAPEAX_K@Z 0000000140047c10 f   libvcruntime:undname.obj
 0001:00046c28       ?getNoexcept@UnDecorator@@CA?AVDName@@XZ 0000000140047c28 f   libvcruntime:undname.obj
 0001:00046ca4       ?getNumberOfDimensions@UnDecorator@@CAHXZ 0000000140047ca4 f   libvcruntime:undname.obj
 0001:00046d14       ?getOperatorName@UnDecorator@@CA?AVDName@@_NPEA_N@Z 0000000140047d14 f i libvcruntime:undname.obj
 0001:00047918       ?getPointerToMember@UnDecorator@@CA?AVDName@@XZ 0000000140048918 f   libvcruntime:undname.obj
 0001:00047a4c       ?getPointerType@UnDecorator@@CA?AVDName@@AEBV2@0@Z 0000000140048a4c f i libvcruntime:undname.obj
 0001:00047a70       ?getPointerTypeArray@UnDecorator@@CA?AVDName@@AEBV2@0@Z 0000000140048a70 f i libvcruntime:undname.obj
 0001:00047a90       ?getPrimaryDataType@UnDecorator@@CA?AVDName@@AEBV2@@Z 0000000140048a90 f   libvcruntime:undname.obj
 0001:00047df8       ?getPtrRefDataType@UnDecorator@@CA?AVDName@@AEBV2@H@Z 0000000140048df8 f   libvcruntime:undname.obj
 0001:00048038       ?getPtrRefType@UnDecorator@@CA?AVDName@@AEBV2@0W4IndirectionKind@@@Z 0000000140049038 f   libvcruntime:undname.obj
 0001:00048298       ?getReferenceType@UnDecorator@@CA?AVDName@@AEBV2@0W4IndirectionKind@@@Z 0000000140049298 f i libvcruntime:undname.obj
 0001:000482b4       ?getRestrictionSpec@UnDecorator@@CA?AVDName@@XZ 00000001400492b4 f   libvcruntime:undname.obj
 0001:00048504       ?getReturnType@UnDecorator@@CA?AVDName@@PEAV2@@Z 0000000140049504 f   libvcruntime:undname.obj
 0001:00048548       ?getScope@UnDecorator@@CA?AVDName@@XZ 0000000140049548 f   libvcruntime:undname.obj
 0001:00048b2c       ?getScopedName@UnDecorator@@CA?AVDName@@XZ 0000000140049b2c f   libvcruntime:undname.obj
 0001:00048cbc       ?getSignedDimension@UnDecorator@@CA?AVDName@@XZ 0000000140049cbc f   libvcruntime:undname.obj
 0001:00048d64       ?getStorageConvention@UnDecorator@@CA?AVDName@@XZ 0000000140049d64 f i libvcruntime:undname.obj
 0001:00048dac       ?getString@DName@@QEBAPEADPEAD0@Z 0000000140049dac f i libvcruntime:undname.obj
 0001:00048dcc       ?getString@DName@@QEBAPEADPEADH@Z 0000000140049dcc f i libvcruntime:undname.obj
 0001:00048e84       ?getString@DNameStatusNode@@UEBAPEADPEAD0@Z 0000000140049e84 f i libvcruntime:undname.obj
 0001:00048edc       ?getString@charNode@@UEBAPEADPEAD0@Z 0000000140049edc f i libvcruntime:undname.obj
 0001:00048ef4       ?getString@pDNameNode@@UEBAPEADPEAD0@Z 0000000140049ef4 f i libvcruntime:undname.obj
 0001:00048f2c       ?getString@pairNode@@UEBAPEADPEAD0@Z 0000000140049f2c f i libvcruntime:undname.obj
 0001:00048f8c       ?getString@pcharNode@@UEBAPEADPEAD0@Z 0000000140049f8c f i libvcruntime:undname.obj
 0001:00048fd0       ?getStringEncoding@UnDecorator@@CA?AVDName@@W4PrefixKind@@H@Z 0000000140049fd0 f   libvcruntime:undname.obj
 0001:00049120       ?getStringHelper@@YAPEADPEADPEBD1H@Z 000000014004a120 f i libvcruntime:undname.obj
 0001:00049158       ?getStringObject@UnDecorator@@CA?AVDName@@XZ 000000014004a158 f   libvcruntime:undname.obj
 0001:0004920c       ?getSymbolName@UnDecorator@@CA?AVDName@@XZ 000000014004a20c f i libvcruntime:undname.obj
 0001:0004926c       ?getTemplateArgumentList@UnDecorator@@CA?AVDName@@XZ 000000014004a26c f   libvcruntime:undname.obj
 0001:00049510       ?getTemplateName@UnDecorator@@CA?AVDName@@_N@Z 000000014004a510 f   libvcruntime:undname.obj
 0001:00049868       ?getTemplateNonTypeArgument@UnDecorator@@CA?AVDName@@XZ 000000014004a868 f   libvcruntime:undname.obj
 0001:00049f0c       ?getTemplateTypeArgument@UnDecorator@@CA?AVDName@@XZ 000000014004af0c f   libvcruntime:undname.obj
 0001:0004a0d0       ?getThisType@UnDecorator@@CA?AVDName@@XZ 000000014004b0d0 f i libvcruntime:undname.obj
 0001:0004a120       ?getThrowTypes@UnDecorator@@CA?AVDName@@XZ 000000014004b120 f   libvcruntime:undname.obj
 0001:0004a14c       ?getTypeEncoding@UnDecorator@@CAHXZ 000000014004b14c f i libvcruntime:undname.obj
 0001:0004a5f0       ?getUndecoratedName@UnDecorator@@QEAAPEADPEADH@Z 000000014004b5f0 f i libvcruntime:undname.obj
 0001:0004a7a8       ?getUnionObject@UnDecorator@@CA?AVDName@@XZ 000000014004b7a8 f   libvcruntime:undname.obj
 0001:0004a8b4       ?getVCallThunkType@UnDecorator@@CA?AVDName@@XZ 000000014004b8b4 f i libvcruntime:undname.obj
 0001:0004a948       ?getValue@UnDecorator@@CA?AV?$optional@_K@std@@XZ 000000014004b948 f   libvcruntime:undname.obj
 0001:0004a99c       ?getValueObject@UnDecorator@@CA?AVDName@@XZ 000000014004b99c f   libvcruntime:undname.obj
 0001:0004ab80       ?getVbTableType@UnDecorator@@CA?AVDName@@AEBV2@@Z 000000014004bb80 f i libvcruntime:undname.obj
 0001:0004ab9c       ?getVdispMapType@UnDecorator@@CA?AVDName@@AEBV2@@Z 000000014004bb9c f i libvcruntime:undname.obj
 0001:0004ac38       ?getVfTableType@UnDecorator@@CA?AVDName@@AEBV2@@Z 000000014004bc38 f i libvcruntime:undname.obj
 0001:0004aec4       ?getZName@UnDecorator@@CA?AVDName@@_N0@Z 000000014004bec4 f   libvcruntime:undname.obj
 0001:0004b250       ?get_current_character_and_increment_buffer@UnDecorator@@CADXZ 000000014004c250 f i libvcruntime:undname.obj
 0001:0004b270       ?haveTemplateParameters@UnDecorator@@SAHXZ 000000014004c270 f i libvcruntime:undname.obj
 0001:0004b280       ?increment_buffer@UnDecorator@@CA_N_K@Z 000000014004c280 f i libvcruntime:undname.obj
 0001:0004b2b8       ?increment_buffer_no_check@UnDecorator@@CAXXZ 000000014004c2b8 f i libvcruntime:undname.obj
 0001:0004b2c4       ?increment_buffer_no_check@UnDecorator@@CAX_K@Z 000000014004c2c4 f i libvcruntime:undname.obj
 0001:0004b2d0       ?isArray@DName@@QEBAHXZ    000000014004c2d0 f i libvcruntime:undname.obj
 0001:0004b2dc       ?isComArray@DName@@QEBAHXZ 000000014004c2dc f i libvcruntime:undname.obj
 0001:0004b2e8       ?isEmpty@DName@@QEBAHXZ    000000014004c2e8 f i libvcruntime:undname.obj
 0001:0004b2f4       ?isFull@Replicator@@QEBAHXZ 000000014004c2f4 f i libvcruntime:undname.obj
 0001:0004b300       ?isNoTE@DName@@QEBAHXZ     000000014004c300 f i libvcruntime:undname.obj
 0001:0004b30c       ?isPinPtr@DName@@QEBAHXZ   000000014004c30c f i libvcruntime:undname.obj
 0001:0004b318       ?isPtrRef@DName@@QEBAHXZ   000000014004c318 f i libvcruntime:undname.obj
 0001:0004b324       ?isUDC@DName@@QEBAHXZ      000000014004c324 f i libvcruntime:undname.obj
 0001:0004b340       ?isUDTThunk@DName@@QEBAHXZ 000000014004c340 f i libvcruntime:undname.obj
 0001:0004b35c       ?isVCallThunk@DName@@QEBAHXZ 000000014004c35c f i libvcruntime:undname.obj
 0001:0004b368       ?isValid@DName@@QEBAHXZ    000000014004c368 f i libvcruntime:undname.obj
 0001:0004b374       ?length@DName@@QEBAHXZ     000000014004c374 f i libvcruntime:undname.obj
 0001:0004b394       ?length@DNameStatusNode@@UEBAHXZ 000000014004c394 f i libvcruntime:undname.obj
 0001:0004b398       ?length@charNode@@UEBAHXZ  000000014004c398 f i libvcruntime:undname.obj
 0001:0004b3a0       ?length@pDNameNode@@UEBAHXZ 000000014004c3a0 f i libvcruntime:undname.obj
 0001:0004b3d4       ?length@pairNode@@UEBAHXZ  000000014004c3d4 f i libvcruntime:undname.obj
 0001:0004b42c       ?length@pcharNode@@UEBAHXZ 000000014004c42c f i libvcruntime:undname.obj
 0001:0004b430       ?make@DNameStatusNode@@SAPEBV1@W4DNameStatus@@@Z 000000014004c430 f i libvcruntime:undname.obj
 0001:0004b458       ?parseDecoratedName@UnDecorator@@CA?AVDName@@XZ 000000014004c458 f   libvcruntime:undname.obj
 0001:0004b5b4       ?raw_length@DNameStatusNode@@UEBAHXZ 000000014004c5b4 f i libvcruntime:undname.obj
 0001:0004b5b8       ?raw_length@charNode@@UEBAHXZ 000000014004c5b8 f i libvcruntime:undname.obj
 0001:0004b5c0       ?raw_length@pDNameNode@@UEBAHXZ 000000014004c5c0 f i libvcruntime:undname.obj
 0001:0004b5c4       ?raw_length@pairNode@@UEBAHXZ 000000014004c5c4 f i libvcruntime:undname.obj
 0001:0004b5c8       ?raw_length@pcharNode@@UEBAHXZ 000000014004c5c8 f i libvcruntime:undname.obj
 0001:0004b5cc       ?setIsArray@DName@@QEAAXXZ 000000014004c5cc f i libvcruntime:undname.obj
 0001:0004b5d4       ?setIsComArray@DName@@QEAAXXZ 000000014004c5d4 f i libvcruntime:undname.obj
 0001:0004b5dc       ?setIsNoTE@DName@@QEAAXXZ  000000014004c5dc f i libvcruntime:undname.obj
 0001:0004b5e4       ?setIsPinPtr@DName@@QEAAXXZ 000000014004c5e4 f i libvcruntime:undname.obj
 0001:0004b5ec       ?setIsUDC@DName@@QEAAXXZ   000000014004c5ec f i libvcruntime:undname.obj
 0001:0004b5fc       ?setIsVCallThunk@DName@@QEAAXXZ 000000014004c5fc f i libvcruntime:undname.obj
 0001:0004b604       ?setPtrRef@DName@@QEAAAEAV1@XZ 000000014004c604 f i libvcruntime:undname.obj
 0001:0004b610       ?status@DName@@QEBA?AW4DNameStatus@@XZ 000000014004c610 f i libvcruntime:undname.obj
 0001:0004b688       __unDName                  000000014004c688 f   libvcruntime:undname.obj
 0001:0004b6b8       __unDNameEx                000000014004c6b8 f   libvcruntime:undname.obj
 0001:0004b7e0       snprintf                   000000014004c7e0 f i libvcruntime:undname.obj
 0001:0004b84c       unDNameGenerateCHPE        000000014004c84c f   libvcruntime:undname.obj
 0001:0004b9e8       ??$__crt_interlocked_exchange_pointer@UHINSTANCE__@@PEAU1@@@YAPEAUHINSTANCE__@@PEDSEAU0@QEAU0@@Z 000000014004c9e8 f i libvcruntime:winapi_downlevel.obj
 0001:0004b9f0       ??$__crt_interlocked_exchange_pointer@UHINSTANCE__@@PEAX@@YAPEAUHINSTANCE__@@PEDSEAU0@QEAX@Z 000000014004c9f0 f i libvcruntime:winapi_downlevel.obj
 0001:0004b9f8       ??$__crt_interlocked_exchange_pointer@XPEAX@@YAPEAXPEDSEAXQEAX@Z 000000014004c9f8 f i libvcruntime:winapi_downlevel.obj
 0001:0004ba00       ??$__crt_interlocked_read_pointer@UHINSTANCE__@@@@YAPEAUHINSTANCE__@@PEDSEAU0@@Z 000000014004ca00 f i libvcruntime:winapi_downlevel.obj
 0001:0004ba08       ??$__crt_interlocked_read_pointer@X@@YAPEAXPEDSEAX@Z 000000014004ca08 f i libvcruntime:winapi_downlevel.obj
 0001:0004c090       __vcrt_FlsAlloc            000000014004d090 f   libvcruntime:winapi_downlevel.obj
 0001:0004c0e8       __vcrt_FlsFree             000000014004d0e8 f   libvcruntime:winapi_downlevel.obj
 0001:0004c140       __vcrt_FlsGetValue         000000014004d140 f   libvcruntime:winapi_downlevel.obj
 0001:0004c198       __vcrt_FlsSetValue         000000014004d198 f   libvcruntime:winapi_downlevel.obj
 0001:0004c200       __vcrt_InitializeCriticalSectionEx 000000014004d200 f   libvcruntime:winapi_downlevel.obj
 0001:0004c27c       ??$?0AEAViterator@TryBlockMap4@FH4@@AEAV012@$0A@@?$pair@Viterator@TryBlockMap4@FH4@@V123@@std@@QEAA@AEAViterator@TryBlockMap4@FH4@@0@Z 000000014004d27c f i libvcruntime:risctrnsctrl.obj
 0001:0004c298       ??$?0AEAViterator@TryBlockMap@__FrameHandler3@@AEAV012@$0A@@?$pair@Viterator@TryBlockMap@__FrameHandler3@@V123@@std@@QEAA@AEAViterator@TryBlockMap@__FrameHandler3@@0@Z 000000014004d298 f i libvcruntime:risctrnsctrl.obj
 0001:0004c480       ??$_CallSETranslator@V__FrameHandler3@@@@YAHPEAUEHExceptionRecord@@PEA_KPEAU_CONTEXT@@PEAU_xDISPATCHER_CONTEXT@@PEBU_s_FuncInfo@@K1H@Z 000000014004d480 f i libvcruntime:risctrnsctrl.obj
 0001:0004c4e8       ??$_CallSETranslator@V__FrameHandler4@@@@YAHPEAUEHExceptionRecord@@PEA_KPEAU_CONTEXT@@PEAU_xDISPATCHER_CONTEXT@@PEAUFuncInfo4@FH4@@K1H@Z 000000014004d4e8 f i libvcruntime:risctrnsctrl.obj
 0001:0004c550       ??$forward@AEAViterator@TryBlockMap4@FH4@@@std@@YAAEAViterator@TryBlockMap4@FH4@@AEAV123@@Z 000000014004d550 f i libvcruntime:risctrnsctrl.obj
 0001:0004c554       ??$forward@AEAViterator@TryBlockMap@__FrameHandler3@@@std@@YAAEAViterator@TryBlockMap@__FrameHandler3@@AEAV123@@Z 000000014004d554 f i libvcruntime:risctrnsctrl.obj
 0001:0004c558       ??0FuncInfo4@FH4@@QEAA@XZ  000000014004d558 f i libvcruntime:risctrnsctrl.obj
 0001:0004c570       ??0FuncInfoHeader@FH4@@QEAA@XZ 000000014004d570 f i libvcruntime:risctrnsctrl.obj
 0001:0004c578       ??0iterator@TryBlockMap4@FH4@@QEAA@AEAV12@I@Z 000000014004d578 f i libvcruntime:risctrnsctrl.obj
 0001:0004c588       ??0iterator@TryBlockMap@__FrameHandler3@@QEAA@AEAV12@I@Z 000000014004d588 f i libvcruntime:risctrnsctrl.obj
 0001:0004c598       ??4iterator@TryBlockMap4@FH4@@QEAAAEAV012@AEBV012@@Z 000000014004d598 f i libvcruntime:risctrnsctrl.obj
 0001:0004c5a4       ??9iterator@TryBlockMap4@FH4@@QEBA_NAEBV012@@Z 000000014004d5a4 f i libvcruntime:risctrnsctrl.obj
 0001:0004c5b0       ??Diterator@TryBlockMap4@FH4@@QEAA?AUTryBlockMapEntry4@2@XZ 000000014004d5b0 f i libvcruntime:risctrnsctrl.obj
 0001:0004c5c4       ??Eiterator@TryBlockMap4@FH4@@QEAAAEAV012@XZ 000000014004d5c4 f i libvcruntime:risctrnsctrl.obj
 0001:0004c688       ?CatchTryBlock@__FrameHandler3@@SAPEBU_s_TryBlockMapEntry@@PEBU_s_FuncInfo@@H@Z 000000014004d688 f   libvcruntime:risctrnsctrl.obj
 0001:0004c704       ?DecompFuncInfo@FH4@@YA_JPEAEAEAUFuncInfo4@1@_KH@Z 000000014004d704 f i libvcruntime:risctrnsctrl.obj
 0001:0004c71c       ?DecompFuncInfo@FH4@@YA_JPEAEAEAUFuncInfo4@1@_KH_N@Z 000000014004d71c f i libvcruntime:risctrnsctrl.obj
 0001:0004c8a0       ?DecompTryBlock@TryBlockMap4@FH4@@AEAAXXZ 000000014004d8a0 f i libvcruntime:risctrnsctrl.obj
 0001:0004c958       ?ExecutionInCatch@__FrameHandler3@@SA_NPEAU_xDISPATCHER_CONTEXT@@PEBU_s_FuncInfo@@@Z 000000014004d958 f   libvcruntime:risctrnsctrl.obj
 0001:0004c98c       ?ExecutionInCatch@__FrameHandler4@@SA_NPEAU_xDISPATCHER_CONTEXT@@PEAUFuncInfo4@FH4@@@Z 000000014004d98c f   libvcruntime:risctrnsctrl.obj
 0001:0004c994       ?FrameUnwindToEmptyState@__FrameHandler3@@SAXPEA_KPEAU_xDISPATCHER_CONTEXT@@PEBU_s_FuncInfo@@@Z 000000014004d994 f   libvcruntime:risctrnsctrl.obj
 0001:0004ca14       ?FrameUnwindToEmptyState@__FrameHandler4@@SAXPEA_KPEAU_xDISPATCHER_CONTEXT@@PEAUFuncInfo4@FH4@@@Z 000000014004da14 f   libvcruntime:risctrnsctrl.obj
 0001:0004ca54       ?GetEstablisherFrame@__FrameHandler3@@SAPEA_KPEA_KPEAU_xDISPATCHER_CONTEXT@@PEBU_s_FuncInfo@@0@Z 000000014004da54 f   libvcruntime:risctrnsctrl.obj
 0001:0004cb58       ?GetEstablisherFrame@__FrameHandler4@@SAPEA_KPEA_KPEAU_xDISPATCHER_CONTEXT@@PEAUFuncInfo4@FH4@@0@Z 000000014004db58 f   libvcruntime:risctrnsctrl.obj
 0001:0004cb84       ?GetRangeOfTrysToCheck@__FrameHandler3@@SA?AU?$pair@Viterator@TryBlockMap@__FrameHandler3@@V123@@std@@AEAVTryBlockMap@1@HPEAU_xDISPATCHER_CONTEXT@@PEBU_s_FuncInfo@@H@Z 000000014004db84 f   libvcruntime:risctrnsctrl.obj
 0001:0004cd04       ?GetRangeOfTrysToCheck@__FrameHandler4@@SA?AU?$pair@Viterator@TryBlockMap4@FH4@@V123@@std@@AEAVTryBlockMap4@FH4@@HPEAU_xDISPATCHER_CONTEXT@@PEAUFuncInfo4@5@H@Z 000000014004dd04 f   libvcruntime:risctrnsctrl.obj
 0001:0004cec8       ?ReadInt@FH4@@YAHPEAPEAE@Z 000000014004dec8 f i libvcruntime:risctrnsctrl.obj
 0001:0004ced8       ?ReadUnsigned@FH4@@YAIPEAPEAE@Z 000000014004ded8 f i libvcruntime:risctrnsctrl.obj
 0001:0004cf14       ?UnwindNestedFrames@__FrameHandler3@@SAXPEA_KPEAUEHExceptionRecord@@PEAU_CONTEXT@@0PEAXPEBU_s_FuncInfo@@HHPEBU_s_HandlerType@@PEAU_xDISPATCHER_CONTEXT@@E@Z 000000014004df14 f   libvcruntime:risctrnsctrl.obj
 0001:0004d058       ?UnwindNestedFrames@__FrameHandler4@@SAXPEA_KPEAUEHExceptionRecord@@PEAU_CONTEXT@@0PEAXPEAUFuncInfo4@FH4@@HHPEAUHandlerType4@5@PEAU_xDISPATCHER_CONTEXT@@E@Z 000000014004e058 f   libvcruntime:risctrnsctrl.obj
 0001:0004d1c0       ?begin@TryBlockMap4@FH4@@QEAA?AViterator@12@XZ 000000014004e1c0 f i libvcruntime:risctrnsctrl.obj
 0001:0004d1d0       ?end@TryBlockMap4@FH4@@QEAA?AViterator@12@XZ 000000014004e1d0 f i libvcruntime:risctrnsctrl.obj
 0001:0004d1e0       ?imageRelToByteBuffer@FH4@@YAPEAE_KH@Z 000000014004e1e0 f i libvcruntime:risctrnsctrl.obj
 0001:0004d1e8       ?incrementToSentinel@iterator@TryBlockMap4@FH4@@QEAAXXZ 000000014004e1e8 f i libvcruntime:risctrnsctrl.obj
 0001:0004d1ec       ?setBuffer@TryBlockMap4@FH4@@QEAAXViterator@12@@Z 000000014004e1ec f i libvcruntime:risctrnsctrl.obj
 0001:0004d420       _CreateFrameInfo           000000014004e420 f   libvcruntime:risctrnsctrl.obj
 0001:0004d468       _FindAndUnlinkFrame        000000014004e468 f   libvcruntime:risctrnsctrl.obj
 0001:0004d4d0       _GetImageBase              000000014004e4d0 f   libvcruntime:risctrnsctrl.obj
 0001:0004d4e8       _GetThrowImageBase         000000014004e4e8 f   libvcruntime:risctrnsctrl.obj
 0001:0004d500       _SetImageBase              000000014004e500 f   libvcruntime:risctrnsctrl.obj
 0001:0004d520       _SetThrowImageBase         000000014004e520 f   libvcruntime:risctrnsctrl.obj
 0001:0004d540       __CxxFrameHandler          000000014004e540 f   libvcruntime:risctrnsctrl.obj
 0001:0004d548       __CxxFrameHandler2         000000014004e548 f   libvcruntime:risctrnsctrl.obj
 0001:0004d550       __CxxFrameHandler3         000000014004e550 f   libvcruntime:risctrnsctrl.obj
 0001:0004d5f8       __CxxFrameHandler4         000000014004e5f8 f   libvcruntime:risctrnsctrl.obj
 0001:0004d6e8       ?GetCurrentState@__FrameHandler3@@SAHPEA_KPEAU_xDISPATCHER_CONTEXT@@PEBU_s_FuncInfo@@@Z 000000014004e6e8 f   libvcruntime:ehstate.obj
 0001:0004d718       ?GetUnwindTryBlock@__FrameHandler3@@SAHPEA_KPEAU_xDISPATCHER_CONTEXT@@PEBU_s_FuncInfo@@@Z 000000014004e718 f   libvcruntime:ehstate.obj
 0001:0004d74c       ?SetState@__FrameHandler3@@SAXPEA_KPEBU_s_FuncInfo@@H@Z 000000014004e74c f   libvcruntime:ehstate.obj
 0001:0004d75c       ?SetUnwindTryBlock@__FrameHandler3@@SAXPEA_KPEAU_xDISPATCHER_CONTEXT@@PEBU_s_FuncInfo@@H@Z 000000014004e75c f   libvcruntime:ehstate.obj
 0001:0004d7a8       ?StateFromControlPc@__FrameHandler3@@SAHPEBU_s_FuncInfo@@PEAU_xDISPATCHER_CONTEXT@@@Z 000000014004e7a8 f   libvcruntime:ehstate.obj
 0001:0004d7b4       ?StateFromControlPc@__FrameHandler4@@SAHPEAUFuncInfo4@FH4@@PEAU_xDISPATCHER_CONTEXT@@@Z 000000014004e7b4 f   libvcruntime:ehstate.obj
 0001:0004d7c0       ?StateFromIp@__FrameHandler3@@SAHPEBU_s_FuncInfo@@PEAU_xDISPATCHER_CONTEXT@@_K@Z 000000014004e7c0 f   libvcruntime:ehstate.obj
 0001:0004d840       ?StateFromIp@__FrameHandler4@@SAHPEAUFuncInfo4@FH4@@PEAU_xDISPATCHER_CONTEXT@@_K@Z 000000014004e840 f   libvcruntime:ehstate.obj
 0001:0004d968       ?__FuncRelToRealOffset@@YA_KPEAU_xDISPATCHER_CONTEXT@@I@Z 000000014004e968 f i libvcruntime:ehstate.obj
 0001:0004d97c       ?__RVAtoRealOffset@@YA_KPEAU_xDISPATCHER_CONTEXT@@H@Z 000000014004e97c f i libvcruntime:ehstate.obj
 0001:0004f588       ??$TypeMatchHelper@V__FrameHandler3@@@@YAHPEBU_s_HandlerType@@PEBU_s_CatchableType@@PEBU_s_ThrowInfo@@@Z 0000000140050588 f i libvcruntime:frame.obj
 0001:0004f714       ??$TypeMatchHelper@V__FrameHandler4@@@@YAHPEAUHandlerType4@FH4@@PEBU_s_CatchableType@@PEBU_s_ThrowInfo@@@Z 0000000140050714 f i libvcruntime:frame.obj
 0001:0004f8b4       ??$__InternalCxxFrameHandler@V__FrameHandler3@@@@YA?AW4_EXCEPTION_DISPOSITION@@PEAUEHExceptionRecord@@PEA_KPEAU_CONTEXT@@PEAU_xDISPATCHER_CONTEXT@@PEBU_s_FuncInfo@@H1E@Z 00000001400508b4 f i libvcruntime:frame.obj
 0001:0004fb78       ??$__InternalCxxFrameHandler@V__FrameHandler4@@@@YA?AW4_EXCEPTION_DISPOSITION@@PEAUEHExceptionRecord@@PEA_KPEAU_CONTEXT@@PEAU_xDISPATCHER_CONTEXT@@PEAUFuncInfo4@FH4@@H1E@Z 0000000140050b78 f i libvcruntime:frame.obj
 0001:0004feb4       ??$__InternalCxxFrameHandlerWrapper@V__FrameHandler3@@@@YA?AW4_EXCEPTION_DISPOSITION@@PEAUEHExceptionRecord@@PEA_KPEAU_CONTEXT@@PEAU_xDISPATCHER_CONTEXT@@PEBU_s_FuncInfo@@H1E@Z 0000000140050eb4 f i libvcruntime:frame.obj
 0001:0004febc       ??$__InternalCxxFrameHandlerWrapper@V__FrameHandler4@@@@YA?AW4_EXCEPTION_DISPOSITION@@PEAUEHExceptionRecord@@PEA_KPEAU_CONTEXT@@PEAU_xDISPATCHER_CONTEXT@@PEAUFuncInfo4@FH4@@H1E@Z 0000000140050ebc f i libvcruntime:frame.obj
 0001:0004ff1c       ??0HandlerMap4@FH4@@QEAA@PEBUTryBlockMapEntry4@1@_KH@Z 0000000140050f1c f i libvcruntime:frame.obj
 0001:0004ffc0       ??0HandlerMap@__FrameHandler3@@QEAA@PEBU_s_TryBlockMapEntry@@_KI@Z 0000000140050fc0 f i libvcruntime:frame.obj
 0001:0004ffdc       ??0HandlerType4@FH4@@QEAA@XZ 0000000140050fdc f i libvcruntime:frame.obj
 0001:0004fff8       ??0TryBlockMap4@FH4@@QEAA@PEBUFuncInfo4@1@_K@Z 0000000140050ff8 f i libvcruntime:frame.obj
 0001:00050118       ??0TryBlockMap@__FrameHandler3@@QEAA@PEBU_s_FuncInfo@@_K@Z 0000000140051118 f i libvcruntime:frame.obj
 0001:00050128       ??0UWMap4@FH4@@QEAA@PEBUFuncInfo4@1@_K@Z 0000000140051128 f i libvcruntime:frame.obj
 0001:00050188       ??0bad_exception@std@@QEAA@AEBV01@@Z 0000000140051188 f i libvcruntime:frame.obj
 0001:000501d4       ??0bad_exception@std@@QEAA@XZ 00000001400511d4 f i libvcruntime:frame.obj
 0001:000501fc       ??0iterator@HandlerMap4@FH4@@QEAA@AEAV12@I@Z 00000001400511fc f i libvcruntime:frame.obj
 0001:0005020c       ??0iterator@HandlerMap@__FrameHandler3@@QEAA@AEAV12@I@Z 000000014005120c f i libvcruntime:frame.obj
 0001:0005021c       ??0iterator@UWMap4@FH4@@QEAA@AEAV12@PEAE@Z 000000014005121c f i libvcruntime:frame.obj
 0001:0005022c       ??1bad_exception@std@@UEAA@XZ 000000014005122c f i libvcruntime:frame.obj
 0001:00050244       ??4iterator@UWMap4@FH4@@QEAAAEAV012@AEBV012@@Z 0000000140051244 f i libvcruntime:frame.obj
 0001:0005026c       ??8iterator@HandlerMap4@FH4@@QEBA_NAEBV012@@Z 000000014005126c f i libvcruntime:frame.obj
 0001:00050278       ??8iterator@HandlerMap@__FrameHandler3@@QEBA_NAEBV012@@Z 0000000140051278 f i libvcruntime:frame.obj
 0001:00050284       ??8type_info@@QEBA_NAEBV0@@Z 0000000140051284 f i libvcruntime:frame.obj
 0001:000502a8       ??9iterator@HandlerMap4@FH4@@QEBA_NAEBV012@@Z 00000001400512a8 f i libvcruntime:frame.obj
 0001:000502b4       ??9iterator@HandlerMap@__FrameHandler3@@QEBA_NAEBV012@@Z 00000001400512b4 f i libvcruntime:frame.obj
 0001:000502c0       ??Diterator@HandlerMap4@FH4@@QEAA?AUHandlerType4@2@XZ 00000001400512c0 f i libvcruntime:frame.obj
 0001:000502e8       ??Diterator@HandlerMap@__FrameHandler3@@QEAA?BU_s_HandlerType@@XZ 00000001400512e8 f i libvcruntime:frame.obj
 0001:00050314       ??Diterator@TryBlockMap@__FrameHandler3@@QEAA?BU_s_TryBlockMapEntry@@XZ 0000000140051314 f i libvcruntime:frame.obj
 0001:0005034c       ??Diterator@UWMap4@FH4@@QEAA?AUUnwindMapEntry4@2@XZ 000000014005134c f i libvcruntime:frame.obj
 0001:000503b4       ??Eiterator@HandlerMap4@FH4@@QEAAAEAV012@XZ 00000001400513b4 f i libvcruntime:frame.obj
 0001:000503d8       ??Eiterator@HandlerMap@__FrameHandler3@@QEAAAEAV012@XZ 00000001400513d8 f i libvcruntime:frame.obj
 0001:000503e0       ??Eiterator@TryBlockMap@__FrameHandler3@@QEAAAEAV012@XZ 00000001400513e0 f i libvcruntime:frame.obj
 0001:000503e8       ??Eiterator@UWMap4@FH4@@QEAAAEAV012@XZ 00000001400513e8 f i libvcruntime:frame.obj
 0001:00050410       ??Giterator@UWMap4@FH4@@QEBA_JAEBV012@@Z 0000000140051410 f i libvcruntime:frame.obj
 0001:0005041c       ??Miterator@TryBlockMap4@FH4@@QEBA_NAEBV012@@Z 000000014005141c f i libvcruntime:frame.obj
 0001:00050428       ??Miterator@TryBlockMap@__FrameHandler3@@QEBA_NAEBV012@@Z 0000000140051428 f i libvcruntime:frame.obj
 0001:00050434       ??Oiterator@UWMap4@FH4@@QEBA_NAEBV012@@Z 0000000140051434 f i libvcruntime:frame.obj
 0001:00050444       ??Piterator@UWMap4@FH4@@QEBA_NAEBV012@@Z 0000000140051444 f i libvcruntime:frame.obj
 0001:00050454       ??_Ebad_exception@std@@UEAAPEAXI@Z 0000000140051454 f i libvcruntime:frame.obj
 0001:00050454       ??_Gbad_exception@std@@UEAAPEAXI@Z 0000000140051454 f i libvcruntime:frame.obj
 0001:000504a8       ?BuildCatchObject@__FrameHandler3@@SAXPEAUEHExceptionRecord@@PEAXPEBU_s_HandlerType@@PEBU_s_CatchableType@@@Z 00000001400514a8 f   libvcruntime:frame.obj
 0001:000504b0       ?BuildCatchObject@__FrameHandler4@@SAXPEAUEHExceptionRecord@@PEAXPEAUHandlerType4@FH4@@PEBU_s_CatchableType@@@Z 00000001400514b0 f   libvcruntime:frame.obj
 0001:000504b8       ?BuildCatchObjectHelper@__FrameHandler3@@SAHPEAUEHExceptionRecord@@PEAXPEBU_s_HandlerType@@PEBU_s_CatchableType@@@Z 00000001400514b8 f   libvcruntime:frame.obj
 0001:000504c0       ?BuildCatchObjectHelper@__FrameHandler4@@SAHPEAUEHExceptionRecord@@PEAXPEAUHandlerType4@FH4@@PEBU_s_CatchableType@@@Z 00000001400514c0 f   libvcruntime:frame.obj
 0001:000504c8       ?CxxCallCatchBlock@__FrameHandler3@@SAPEAXPEAU_EXCEPTION_RECORD@@@Z 00000001400514c8 f   libvcruntime:frame.obj
 0001:0005072c       ?CxxCallCatchBlock@__FrameHandler4@@SAPEAXPEAU_EXCEPTION_RECORD@@@Z 000000014005172c f   libvcruntime:frame.obj
 0001:00050a0c       ?DecompHandler@HandlerMap4@FH4@@AEAAXXZ 0000000140051a0c f i libvcruntime:frame.obj
 0001:00050ce8       ?FrameUnwindToState@__FrameHandler3@@SAXPEA_KPEAU_xDISPATCHER_CONTEXT@@PEBU_s_FuncInfo@@H@Z 0000000140051ce8 f   libvcruntime:frame.obj
 0001:00050ed4       ?FrameUnwindToState@__FrameHandler4@@SAXPEA_KPEAU_xDISPATCHER_CONTEXT@@PEAUFuncInfo4@FH4@@H@Z 0000000140051ed4 f   libvcruntime:frame.obj
 0001:0005129c       ?GetHandlerSearchState@__FrameHandler3@@SAHPEA_KPEAU_xDISPATCHER_CONTEXT@@PEBU_s_FuncInfo@@@Z 000000014005229c f i libvcruntime:frame.obj
 0001:00051358       ?GetHandlerSearchState@__FrameHandler4@@SAHPEA_KPEAU_xDISPATCHER_CONTEXT@@PEAUFuncInfo4@FH4@@@Z 0000000140052358 f i libvcruntime:frame.obj
 0001:000513d4       ?GetMaxState@__FrameHandler3@@SAHPEAU_xDISPATCHER_CONTEXT@@PEBU_s_FuncInfo@@@Z 00000001400523d4 f i libvcruntime:frame.obj
 0001:000513d8       ?GetMaxState@__FrameHandler4@@SAHPEAU_xDISPATCHER_CONTEXT@@PEAUFuncInfo4@FH4@@@Z 00000001400523d8 f i libvcruntime:frame.obj
 0001:000515f4       ?ReadEntry@UWMap4@FH4@@AEAAXPEAPEAE@Z 00000001400525f4 f i libvcruntime:frame.obj
 0001:000516b8       ?TypeMatch@__FrameHandler3@@SAHPEBU_s_HandlerType@@PEBU_s_CatchableType@@PEBU_s_ThrowInfo@@@Z 00000001400526b8 f   libvcruntime:frame.obj
 0001:000516c0       ?TypeMatch@__FrameHandler4@@SAHPEAUHandlerType4@FH4@@PEBU_s_CatchableType@@PEBU_s_ThrowInfo@@@Z 00000001400526c0 f   libvcruntime:frame.obj
 0001:000516c8       ?WalkBack@UWMap4@FH4@@AEAAXPEAPEAE@Z 00000001400526c8 f i libvcruntime:frame.obj
 0001:0005170c       ?WalkBack@iterator@UWMap4@FH4@@QEAAXXZ 000000014005270c f i libvcruntime:frame.obj
 0001:00051758       ?WalkForward@UWMap4@FH4@@AEAAXPEAPEAE@Z 0000000140052758 f i libvcruntime:frame.obj
 0001:00051760       ?_CallMemberFunction1@@YAXQEAX00@Z 0000000140052760 f i libvcruntime:frame.obj
 0001:0005176c       ?_CallMemberFunction2@@YAXQEAX00H@Z 000000014005276c f i libvcruntime:frame.obj
 0001:0005179c       ?begin@HandlerMap4@FH4@@QEAA?AViterator@12@XZ 000000014005279c f i libvcruntime:frame.obj
 0001:000517ac       ?begin@HandlerMap@__FrameHandler3@@QEAA?AViterator@12@XZ 00000001400527ac f i libvcruntime:frame.obj
 0001:000517bc       ?begin@UWMap4@FH4@@QEAA?AViterator@12@XZ 00000001400527bc f i libvcruntime:frame.obj
 0001:000517d0       ?end@HandlerMap4@FH4@@QEAA?AViterator@12@XZ 00000001400527d0 f i libvcruntime:frame.obj
 0001:000517e0       ?end@HandlerMap@__FrameHandler3@@QEAA?AViterator@12@XZ 00000001400527e0 f i libvcruntime:frame.obj
 0001:000517f0       ?getESTypes@__FrameHandler3@@SAPEBU_s_ESTypeList@@PEBU_s_FuncInfo@@@Z 00000001400527f0 f i libvcruntime:frame.obj
 0001:00051824       ?getESTypes@__FrameHandler4@@SAPEBU_s_ESTypeList@@PEAUFuncInfo4@FH4@@@Z 0000000140052824 f i libvcruntime:frame.obj
 0001:00051828       ?getLastEntry@HandlerMap4@FH4@@QEAAPEAUHandlerType4@2@XZ 0000000140052828 f i libvcruntime:frame.obj
 0001:0005188c       ?getLastEntry@HandlerMap@__FrameHandler3@@QEAAPEBU_s_HandlerType@@XZ 000000014005288c f i libvcruntime:frame.obj
 0001:000518a4       ?getMagicNum@__FrameHandler3@@SAIPEBU_s_FuncInfo@@@Z 00000001400528a4 f i libvcruntime:frame.obj
 0001:000518b0       ?getMagicNum@__FrameHandler4@@SAIPEAUFuncInfo4@FH4@@@Z 00000001400528b0 f i libvcruntime:frame.obj
 0001:000518b8       ?getNumTryBlocks@TryBlockMap4@FH4@@QEAAIXZ 00000001400528b8 f i libvcruntime:frame.obj
 0001:000518bc       ?getNumTryBlocks@TryBlockMap@__FrameHandler3@@QEAAIXZ 00000001400528bc f i libvcruntime:frame.obj
 0001:000518c4       ?getStartStop@UWMap4@FH4@@QEAAXHHAEAViterator@12@0@Z 00000001400528c4 f i libvcruntime:frame.obj
 0001:000519c8       ?getStateFromIterators@UWMap4@FH4@@SAHAEBViterator@12@H0H0@Z 00000001400529c8 f i libvcruntime:frame.obj
 0001:00051aa4       ?isEHs@__FrameHandler3@@SA_NPEBU_s_FuncInfo@@@Z 0000000140052aa4 f i libvcruntime:frame.obj
 0001:00051aac       ?isEHs@__FrameHandler4@@SA_NPEAUFuncInfo4@FH4@@@Z 0000000140052aac f i libvcruntime:frame.obj
 0001:00051ab8       ?isNoExcept@__FrameHandler3@@SA_NPEBU_s_FuncInfo@@@Z 0000000140052ab8 f i libvcruntime:frame.obj
 0001:00051ac4       ?isNoExcept@__FrameHandler4@@SA_NPEAUFuncInfo4@FH4@@@Z 0000000140052ac4 f i libvcruntime:frame.obj
 0001:00051ad0       ?reset@HandlerType4@FH4@@QEAAXXZ 0000000140052ad0 f i libvcruntime:frame.obj
 0001:00051aec       ?resetBuffer@HandlerMap4@FH4@@QEAAXXZ 0000000140052aec f i libvcruntime:frame.obj
 0001:00051afc       ?setBuffer@HandlerMap4@FH4@@QEAAXI@Z 0000000140052afc f i libvcruntime:frame.obj
 0001:00051b44       __BuildCatchObject         0000000140052b44 f   libvcruntime:frame.obj
 0001:00051b4c       __BuildCatchObjectHelper   0000000140052b4c f   libvcruntime:frame.obj
 0001:00051b54       __TypeMatch                0000000140052b54 f   libvcruntime:frame.obj
 0001:00051b5c       __vcrt_EncodePointer       0000000140052b5c f i libvcruntime:frame.obj
 0001:00051bc0       _CallSettingFrame          0000000140052bc0 f   libvcruntime:handlers.obj
 0001:00051c10       _CallSettingFrame_LookupContinuationIndex 0000000140052c10 f   libvcruntime:handlers.obj
 0001:00051c50       _CallSettingFrame_NotifyContinuationAddr 0000000140052c50 f   libvcruntime:handlers.obj
 0001:00051c80       _CallSettingFrameEncoded   0000000140052c80 f   libvcruntime:handlers.obj
 0001:00051cd8       ceil                       0000000140052cd8 f   libucrt:ceil.obj
 0001:00051dcc       floor                      0000000140052dcc f   libucrt:floor.obj
 0001:00051ea8       ??0_LocaleUpdate@@QEAA@QEAU__crt_locale_pointers@@@Z 0000000140052ea8 f i libucrt:_wctype.obj
 0001:00051f6c       ??1_LocaleUpdate@@QEAA@XZ  0000000140052f6c f i libucrt:_wctype.obj
 0001:00051f84       ?GetLocaleT@_LocaleUpdate@@QEAAPEAU__crt_locale_pointers@@XZ 0000000140052f84 f i libucrt:_wctype.obj
 0001:00051f8c       __acrt_disable_global_locale_sync 0000000140052f8c f i libucrt:_wctype.obj
 0001:00051f94       __acrt_enable_global_locale_sync 0000000140052f94 f i libucrt:_wctype.obj
 0001:00051fa0       __acrt_locale_changed      0000000140052fa0 f i libucrt:_wctype.obj
 0001:00051fb0       __acrt_locale_get_ctype_array_value 0000000140052fb0 f i libucrt:_wctype.obj
 0001:00051fd0       __iswcsym                  0000000140052fd0 f i libucrt:_wctype.obj
 0001:00052008       __iswcsymf                 0000000140053008 f i libucrt:_wctype.obj
 0001:00052040       _isleadbyte_l              0000000140053040 f i libucrt:_wctype.obj
 0001:000520a0       _iswalnum_l                00000001400530a0 f i libucrt:_wctype.obj
 0001:000520ac       _iswalpha_l                00000001400530ac f i libucrt:_wctype.obj
 0001:000520b8       _iswblank_l                00000001400530b8 f i libucrt:_wctype.obj
 0001:000520d4       _iswcntrl_l                00000001400530d4 f i libucrt:_wctype.obj
 0001:000520e0       _iswcsym_l                 00000001400530e0 f i libucrt:_wctype.obj
 0001:00052118       _iswcsymf_l                0000000140053118 f i libucrt:_wctype.obj
 0001:00052150       _iswdigit_l                0000000140053150 f i libucrt:_wctype.obj
 0001:0005215c       _iswgraph_l                000000014005315c f i libucrt:_wctype.obj
 0001:00052168       _iswlower_l                0000000140053168 f i libucrt:_wctype.obj
 0001:00052174       _iswprint_l                0000000140053174 f i libucrt:_wctype.obj
 0001:00052180       _iswpunct_l                0000000140053180 f i libucrt:_wctype.obj
 0001:0005218c       _iswspace_l                000000014005318c f i libucrt:_wctype.obj
 0001:00052198       _iswupper_l                0000000140053198 f i libucrt:_wctype.obj
 0001:000521a4       _iswxdigit_l               00000001400531a4 f i libucrt:_wctype.obj
 0001:000521b0       isleadbyte                 00000001400531b0 f i libucrt:_wctype.obj
 0001:00052210       iswalnum                   0000000140053210 f i libucrt:_wctype.obj
 0001:0005221c       iswalpha                   000000014005321c f i libucrt:_wctype.obj
 0001:00052228       iswascii                   0000000140053228 f i libucrt:_wctype.obj
 0001:0005223c       iswblank                   000000014005323c f i libucrt:_wctype.obj
 0001:00052258       iswcntrl                   0000000140053258 f i libucrt:_wctype.obj
 0001:00052264       iswdigit                   0000000140053264 f i libucrt:_wctype.obj
 0001:00052270       iswgraph                   0000000140053270 f i libucrt:_wctype.obj
 0001:0005227c       iswlower                   000000014005327c f i libucrt:_wctype.obj
 0001:00052288       iswprint                   0000000140053288 f i libucrt:_wctype.obj
 0001:00052294       iswpunct                   0000000140053294 f i libucrt:_wctype.obj
 0001:000522a0       iswspace                   00000001400532a0 f i libucrt:_wctype.obj
 0001:000522ac       iswupper                   00000001400532ac f i libucrt:_wctype.obj
 0001:000522b8       iswxdigit                  00000001400532b8 f i libucrt:_wctype.obj
 0001:000522c4       _tolower_fast_internal     00000001400532c4 f i libucrt:towlower.obj
 0001:000522dc       _towlower_fast_internal    00000001400532dc f i libucrt:towlower.obj
 0001:0005230c       _towlower_l                000000014005330c f   libucrt:towlower.obj
 0001:0005243c       towlower                   000000014005343c f   libucrt:towlower.obj
 0001:00052830       __ascii_tolower            0000000140053830 f i libucrt:tolower_toupper.obj
 0001:00052844       __ascii_toupper            0000000140053844 f i libucrt:tolower_toupper.obj
 0001:00052858       _ctype_fast_check_internal 0000000140053858 f i libucrt:tolower_toupper.obj
 0001:00052870       _isleadbyte_fast_internal  0000000140053870 f i libucrt:tolower_toupper.obj
 0001:00052890       _tolower                   0000000140053890 f   libucrt:tolower_toupper.obj
 0001:00052894       _tolower_l                 0000000140053894 f   libucrt:tolower_toupper.obj
 0001:00052a14       _toupper                   0000000140053a14 f   libucrt:tolower_toupper.obj
 0001:00052a18       _toupper_fast_internal     0000000140053a18 f i libucrt:tolower_toupper.obj
 0001:00052a30       _toupper_l                 0000000140053a30 f   libucrt:tolower_toupper.obj
 0001:00052bb0       tolower                    0000000140053bb0 f   libucrt:tolower_toupper.obj
 0001:00052be4       toupper                    0000000140053be4 f   libucrt:tolower_toupper.obj
 0001:00052c18       wcscmp                     0000000140053c18 f   libucrt:wcscmp.obj
 0001:00053728       ??1?$__crt_simd_cleanup_guard@$00@@QEAA@XZ 0000000140054728 f i libucrt:strnlen.obj
 0001:0005372c       ??1?$__crt_simd_cleanup_guard@$0A@@@QEAA@XZ 000000014005472c f i libucrt:strnlen.obj
 0001:00053730       ?compare_equals@?$__crt_simd_traits@$00E@@SA?AT__m256i@@T2@0@Z 0000000140054730 f i libucrt:strnlen.obj
 0001:0005373c       ?compare_equals@?$__crt_simd_traits@$00G@@SA?AT__m256i@@T2@0@Z 000000014005473c f i libucrt:strnlen.obj
 0001:00053748       ?compare_equals@?$__crt_simd_traits@$0A@E@@SA?AT__m128i@@T2@0@Z 0000000140054748 f i libucrt:strnlen.obj
 0001:00053754       ?compare_equals@?$__crt_simd_traits@$0A@G@@SA?AT__m128i@@T2@0@Z 0000000140054754 f i libucrt:strnlen.obj
 0001:00053760       ?compute_byte_mask@?$__crt_simd_pack_traits@$00@@SAHT__m256i@@@Z 0000000140054760 f i libucrt:strnlen.obj
 0001:00053770       ?compute_byte_mask@?$__crt_simd_pack_traits@$0A@@@SAHT__m128i@@@Z 0000000140054770 f i libucrt:strnlen.obj
 0001:0005377c       ?get_zero_pack@?$__crt_simd_pack_traits@$00@@SA?AT__m256i@@XZ 000000014005477c f i libucrt:strnlen.obj
 0001:00053784       ?get_zero_pack@?$__crt_simd_pack_traits@$0A@@@SA?AT__m128i@@XZ 0000000140054784 f i libucrt:strnlen.obj
 0001:00053788       strnlen                    0000000140054788 f   libucrt:strnlen.obj
 0001:0005392c       wcslen                     000000014005492c f   libucrt:strnlen.obj
 0001:00053aa0       wcsnlen                    0000000140054aa0 f   libucrt:strnlen.obj
 0001:00053cec       wcsncmp                    0000000140054cec f   libucrt:wcsncmp.obj
 0001:00053d24       __ascii_towlower           0000000140054d24 f i libucrt:wcsicmp.obj
 0001:00053d34       __ascii_wcsicmp            0000000140054d34 f   libucrt:wcsicmp.obj
 0001:00053d84       _towlower_internal         0000000140054d84 f i libucrt:wcsicmp.obj
 0001:00053dc8       _wcsicmp                   0000000140054dc8 f   libucrt:wcsicmp.obj
 0001:00053e20       _wcsicmp_l                 0000000140054e20 f   libucrt:wcsicmp.obj
 0001:00053fa0       __ascii_wcsnicmp           0000000140054fa0 f   libucrt:wcsnicmp.obj
 0001:00054000       _wcsnicmp                  0000000140055000 f   libucrt:wcsnicmp.obj
 0001:00054058       _wcsnicmp_l                0000000140055058 f   libucrt:wcsnicmp.obj
 0001:00054318       strncat_s                  0000000140055318 f   libucrt:strncat_s.obj
 0001:00054550       strncpy_s                  0000000140055550 f   libucrt:strncpy_s.obj
 0001:00054690       strcmp                     0000000140055690 f   libucrt:strcmp.obj
 0001:00054714       __ascii_stricmp            0000000140055714 f   libucrt:stricmp.obj
 0001:00054760       _stricmp                   0000000140055760 f   libucrt:stricmp.obj
 0001:000547b8       _stricmp_l                 00000001400557b8 f   libucrt:stricmp.obj
 0001:00054880       strlen                     0000000140055880 f   libucrt:strlen.obj
 0001:00054970       strncmp                    0000000140055970 f   libucrt:strncmp.obj
 0001:00054a10       __ascii_strnicmp           0000000140055a10 f   libucrt:strnicmp.obj
 0001:00054a6c       _strnicmp                  0000000140055a6c f   libucrt:strnicmp.obj
 0001:00054ad0       _strnicmp_l                0000000140055ad0 f   libucrt:strnicmp.obj
 0001:00054ba8       free                       0000000140055ba8 f   libucrt:free.obj
 0001:00054bc0       ??$assemble_floating_point_ind@M@__crt_strtox@@YAXAEAM@Z 0000000140055bc0 f i libucrt:strtod.obj
 0001:00054bc8       ??$assemble_floating_point_ind@N@__crt_strtox@@YAXAEAN@Z 0000000140055bc8 f i libucrt:strtod.obj
 0001:00054bdc       ??$assemble_floating_point_infinity@M@__crt_strtox@@YAX_NAEAM@Z 0000000140055bdc f i libucrt:strtod.obj
 0001:00054bf0       ??$assemble_floating_point_infinity@N@__crt_strtox@@YAX_NAEAN@Z 0000000140055bf0 f i libucrt:strtod.obj
 0001:00054c10       ??$assemble_floating_point_qnan@M@__crt_strtox@@YAX_NAEAM@Z 0000000140055c10 f i libucrt:strtod.obj
 0001:00054c24       ??$assemble_floating_point_qnan@N@__crt_strtox@@YAX_NAEAN@Z 0000000140055c24 f i libucrt:strtod.obj
 0001:00054c44       ??$assemble_floating_point_snan@M@__crt_strtox@@YAX_NAEAM@Z 0000000140055c44 f i libucrt:strtod.obj
 0001:00054c58       ??$assemble_floating_point_snan@N@__crt_strtox@@YAX_NAEAN@Z 0000000140055c58 f i libucrt:strtod.obj
 0001:00054c78       ??$assemble_floating_point_value_t@M@__crt_strtox@@YA?AW4SLD_STATUS@@_NH_KAEAM@Z 0000000140055c78 f i libucrt:strtod.obj
 0001:00054ca8       ??$assemble_floating_point_value_t@N@__crt_strtox@@YA?AW4SLD_STATUS@@_NH_KAEAN@Z 0000000140055ca8 f i libucrt:strtod.obj
 0001:00054ce8       ??$assemble_floating_point_zero@M@__crt_strtox@@YAX_NAEAM@Z 0000000140055ce8 f i libucrt:strtod.obj
 0001:00054cf4       ??$assemble_floating_point_zero@N@__crt_strtox@@YAX_NAEAN@Z 0000000140055cf4 f i libucrt:strtod.obj
 0001:00055044       ??$convert_decimal_string_to_floating_type@M@__crt_strtox@@YA?AW4SLD_STATUS@@AEBUfloating_point_string@0@AEAM@Z 0000000140056044 f i libucrt:strtod.obj
 0001:00055068       ??$convert_decimal_string_to_floating_type@N@__crt_strtox@@YA?AW4SLD_STATUS@@AEBUfloating_point_string@0@AEAN@Z 0000000140056068 f i libucrt:strtod.obj
 0001:0005508c       ??$convert_hexadecimal_string_to_floating_type@M@__crt_strtox@@YA?AW4SLD_STATUS@@AEBUfloating_point_string@0@AEAM@Z 000000014005608c f i libucrt:strtod.obj
 0001:000550b0       ??$convert_hexadecimal_string_to_floating_type@N@__crt_strtox@@YA?AW4SLD_STATUS@@AEBUfloating_point_string@0@AEAN@Z 00000001400560b0 f i libucrt:strtod.obj
 0001:000550d4       ??$make_c_string_character_source@DPEAPEAD@__crt_strtox@@YA?AV?$c_string_character_source@D@0@QEBDQEAPEAD@Z 00000001400560d4 f i libucrt:strtod.obj
 0001:000550ec       ??$make_c_string_character_source@_WPEAPEA_W@__crt_strtox@@YA?AV?$c_string_character_source@_W@0@QEB_WQEAPEA_W@Z 00000001400560ec f i libucrt:strtod.obj
 0001:00055104       ??$parse_floating_point@V?$c_string_character_source@D@__crt_strtox@@M@__crt_strtox@@YA?AW4SLD_STATUS@@QEAU__crt_locale_pointers@@V?$c_string_character_source@D@0@QEAM@Z 0000000140056104 f i libucrt:strtod.obj
 0001:000551cc       ??$parse_floating_point@V?$c_string_character_source@D@__crt_strtox@@N@__crt_strtox@@YA?AW4SLD_STATUS@@QEAU__crt_locale_pointers@@V?$c_string_character_source@D@0@QEAN@Z 00000001400561cc f i libucrt:strtod.obj
 0001:00055294       ??$parse_floating_point@V?$c_string_character_source@_W@__crt_strtox@@M@__crt_strtox@@YA?AW4SLD_STATUS@@QEAU__crt_locale_pointers@@V?$c_string_character_source@_W@0@QEAM@Z 0000000140056294 f i libucrt:strtod.obj
 0001:0005535c       ??$parse_floating_point@V?$c_string_character_source@_W@__crt_strtox@@N@__crt_strtox@@YA?AW4SLD_STATUS@@QEAU__crt_locale_pointers@@V?$c_string_character_source@_W@0@QEAN@Z 000000014005635c f i libucrt:strtod.obj
 0001:00055424       ??$parse_floating_point_from_source@V?$c_string_character_source@D@__crt_strtox@@@__crt_strtox@@YA?AW4floating_point_parse_result@0@QEAU__crt_locale_pointers@@AEAV?$c_string_character_source@D@0@AEAUfloating_point_string@0@@Z 0000000140056424 f i libucrt:strtod.obj
 0001:000559f8       ??$parse_floating_point_from_source@V?$c_string_character_source@_W@__crt_strtox@@@__crt_strtox@@YA?AW4floating_point_parse_result@0@QEAU__crt_locale_pointers@@AEAV?$c_string_character_source@_W@0@AEAUfloating_point_string@0@@Z 00000001400569f8 f i libucrt:strtod.obj
 0001:00056b34       ??$parse_floating_point_possible_infinity@DV?$c_string_character_source@D@__crt_strtox@@PEBD@__crt_strtox@@YA?AW4floating_point_parse_result@0@AEADAEAV?$c_string_character_source@D@0@PEBD@Z 0000000140057b34 f i libucrt:strtod.obj
 0001:00056cc8       ??$parse_floating_point_possible_infinity@_WV?$c_string_character_source@_W@__crt_strtox@@PEB_W@__crt_strtox@@YA?AW4floating_point_parse_result@0@AEA_WAEAV?$c_string_character_source@_W@0@PEB_W@Z 0000000140057cc8 f i libucrt:strtod.obj
 0001:00056e8c       ??$parse_floating_point_possible_nan@DV?$c_string_character_source@D@__crt_strtox@@PEBD@__crt_strtox@@YA?AW4floating_point_parse_result@0@AEADAEAV?$c_string_character_source@D@0@PEBD@Z 0000000140057e8c f i libucrt:strtod.obj
 0001:000570f4       ??$parse_floating_point_possible_nan@_WV?$c_string_character_source@_W@__crt_strtox@@PEB_W@__crt_strtox@@YA?AW4floating_point_parse_result@0@AEA_WAEAV?$c_string_character_source@_W@0@PEB_W@Z 00000001400580f4 f i libucrt:strtod.obj
 0001:000573a8       ??$parse_floating_point_possible_nan_is_ind@DV?$c_string_character_source@D@__crt_strtox@@@__crt_strtox@@YA_NAEADAEAV?$c_string_character_source@D@0@@Z 00000001400583a8 f i libucrt:strtod.obj
 0001:00057400       ??$parse_floating_point_possible_nan_is_ind@_WV?$c_string_character_source@_W@__crt_strtox@@@__crt_strtox@@YA_NAEA_WAEAV?$c_string_character_source@_W@0@@Z 0000000140058400 f i libucrt:strtod.obj
 0001:00057460       ??$parse_floating_point_possible_nan_is_snan@DV?$c_string_character_source@D@__crt_strtox@@@__crt_strtox@@YA_NAEADAEAV?$c_string_character_source@D@0@@Z 0000000140058460 f i libucrt:strtod.obj
 0001:000574b8       ??$parse_floating_point_possible_nan_is_snan@_WV?$c_string_character_source@_W@__crt_strtox@@@__crt_strtox@@YA_NAEA_WAEAV?$c_string_character_source@_W@0@@Z 00000001400584b8 f i libucrt:strtod.obj
 0001:00057518       ??$parse_floating_point_write_result@M@__crt_strtox@@YA?AW4SLD_STATUS@@W4floating_point_parse_result@0@AEBUfloating_point_string@0@QEAM@Z 0000000140058518 f i libucrt:strtod.obj
 0001:000576e4       ??$parse_floating_point_write_result@N@__crt_strtox@@YA?AW4SLD_STATUS@@W4floating_point_parse_result@0@AEBUfloating_point_string@0@QEAN@Z 00000001400586e4 f i libucrt:strtod.obj
 0001:0005793c       ??$parse_next_characters_from_source@DV?$c_string_character_source@D@__crt_strtox@@@__crt_strtox@@YA_NQEBD0_KAEADAEAV?$c_string_character_source@D@0@@Z 000000014005893c f i libucrt:strtod.obj
 0001:000579a0       ??$parse_next_characters_from_source@_WV?$c_string_character_source@_W@__crt_strtox@@@__crt_strtox@@YA_NQEB_W0_KAEA_WAEAV?$c_string_character_source@_W@0@@Z 00000001400589a0 f i libucrt:strtod.obj
 0001:00057a08       ??0<lambda_74a2d8e426d717992967bf549d0b1d46>@@QEAA@AEAV?$c_string_character_source@_W@__crt_strtox@@AEA_WAEAPEB_W@Z 0000000140058a08 f i libucrt:strtod.obj
 0001:00057a1c       ??0<lambda_85175643e3245fab8ee1d5c9ffbed652>@@QEAA@AEAV?$c_string_character_source@D@__crt_strtox@@AEADAEAPEBD@Z 0000000140058a1c f i libucrt:strtod.obj
 0001:00057a30       ??0<lambda_a4d13f8896d4166bcf1a62c02ca9256c>@@QEAA@AEAV?$c_string_character_source@D@__crt_strtox@@AEADAEAPEBD@Z 0000000140058a30 f i libucrt:strtod.obj
 0001:00057a44       ??0<lambda_aaca0f6c2c612c0ee38e1ea27fdc2ad6>@@QEAA@AEAV?$c_string_character_source@D@__crt_strtox@@AEADAEAPEBD@Z 0000000140058a44 f i libucrt:strtod.obj
 0001:00057a58       ??0<lambda_b2e4b863da30a29f1a9fc7ecc6d00735>@@QEAA@AEAV?$c_string_character_source@_W@__crt_strtox@@AEA_WAEAPEB_W@Z 0000000140058a58 f i libucrt:strtod.obj
 0001:00057a6c       ??0<lambda_c728f12739a3597330a783bb0930d4cc>@@QEAA@AEAV?$c_string_character_source@_W@__crt_strtox@@AEA_WAEAPEB_W@Z 0000000140058a6c f i libucrt:strtod.obj
 0001:00057a80       ??0?$c_string_character_source@D@__crt_strtox@@QEAA@QEBDQEAPEBD@Z 0000000140058a80 f i libucrt:strtod.obj
 0001:00057a98       ??0?$c_string_character_source@_W@__crt_strtox@@QEAA@QEB_WQEAPEB_W@Z 0000000140058a98 f i libucrt:strtod.obj
 0001:00057ab0       ??0big_integer@__crt_strtox@@QEAA@AEBU01@@Z 0000000140058ab0 f i libucrt:strtod.obj
 0001:00057af0       ??0big_integer@__crt_strtox@@QEAA@XZ 0000000140058af0 f i libucrt:strtod.obj
 0001:00057afc       ??0floating_point_value@__crt_strtox@@QEAA@QEAM@Z 0000000140058afc f i libucrt:strtod.obj
 0001:00057b0c       ??0floating_point_value@__crt_strtox@@QEAA@QEAN@Z 0000000140058b0c f i libucrt:strtod.obj
 0001:00057b1c       ??1?$c_string_character_source@D@__crt_strtox@@QEAA@XZ 0000000140058b1c f i libucrt:strtod.obj
 0001:00057b30       ??1?$c_string_character_source@_W@__crt_strtox@@QEAA@XZ 0000000140058b30 f i libucrt:strtod.obj
 0001:00057b50       ??4big_integer@__crt_strtox@@QEAAAEAU01@AEBU01@@Z 0000000140058b50 f i libucrt:strtod.obj
 0001:00057b90       ??M__crt_strtox@@YA_NAEBUbig_integer@0@0@Z 0000000140058b90 f i libucrt:strtod.obj
 0001:00057bcc       ??R<lambda_74a2d8e426d717992967bf549d0b1d46>@@QEBA@XZ 0000000140058bcc f i libucrt:strtod.obj
 0001:00057c44       ??R<lambda_85175643e3245fab8ee1d5c9ffbed652>@@QEBA@XZ 0000000140058c44 f i libucrt:strtod.obj
 0001:00057ca8       ??R<lambda_a4d13f8896d4166bcf1a62c02ca9256c>@@QEBA@XZ 0000000140058ca8 f i libucrt:strtod.obj
 0001:00057d0c       ??R<lambda_aaca0f6c2c612c0ee38e1ea27fdc2ad6>@@QEBA@XZ 0000000140058d0c f i libucrt:strtod.obj
 0001:00057d70       ??R<lambda_b2e4b863da30a29f1a9fc7ecc6d00735>@@QEBA@XZ 0000000140058d70 f i libucrt:strtod.obj
 0001:00057de8       ??R<lambda_c728f12739a3597330a783bb0930d4cc>@@QEBA@XZ 0000000140058de8 f i libucrt:strtod.obj
 0001:00057e60       ?accumulate_decimal_digits_into_big_integer@__crt_strtox@@YAXQEBE0AEAUbig_integer@1@@Z 0000000140058e60 f i libucrt:strtod.obj
 0001:00058590       ?add@__crt_strtox@@YA_NAEAUbig_integer@1@I@Z 0000000140059590 f i libucrt:strtod.obj
 0001:00058640       ?add_carry@__crt_strtox@@YAIAEAIII@Z 0000000140059640 f i libucrt:strtod.obj
 0001:00058660       ?add_multiply_carry@__crt_strtox@@YAIAEAIIII@Z 0000000140059660 f i libucrt:strtod.obj
 0001:00058688       ?as_double@floating_point_value@__crt_strtox@@QEBAAEANXZ 0000000140059688 f i libucrt:strtod.obj
 0001:000586d0       ?as_float@floating_point_value@__crt_strtox@@QEBAAEAMXZ 00000001400596d0 f i libucrt:strtod.obj
 0001:00058718       ?assemble_floating_point_infinity@__crt_strtox@@YAX_NAEBVfloating_point_value@1@@Z 0000000140059718 f i libucrt:strtod.obj
 0001:00058754       ?assemble_floating_point_value@__crt_strtox@@YA?AW4SLD_STATUS@@_KH_N1AEBVfloating_point_value@1@@Z 0000000140059754 f i libucrt:strtod.obj
 0001:00058bec       ?assemble_floating_point_value_from_big_integer@__crt_strtox@@YA?AW4SLD_STATUS@@AEBUbig_integer@1@I_N1AEBVfloating_point_value@1@@Z 0000000140059bec f i libucrt:strtod.obj
 0001:00058da4       ?assemble_floating_point_zero@__crt_strtox@@YAX_NAEBVfloating_point_value@1@@Z 0000000140059da4 f i libucrt:strtod.obj
 0001:00058dd0       ?bit_scan_reverse@__crt_strtox@@YAIAEBUbig_integer@1@@Z 0000000140059dd0 f i libucrt:strtod.obj
 0001:00058e00       ?bit_scan_reverse@__crt_strtox@@YAII@Z 0000000140059e00 f i libucrt:strtod.obj
 0001:00058e20       ?bit_scan_reverse@__crt_strtox@@YAI_K@Z 0000000140059e20 f i libucrt:strtod.obj
 0001:00058e50       ?convert_decimal_string_to_floating_type_common@__crt_strtox@@YA?AW4SLD_STATUS@@AEBUfloating_point_string@1@AEBVfloating_point_value@1@@Z 0000000140059e50 f i libucrt:strtod.obj
 0001:0005b470       ?convert_hexadecimal_string_to_floating_type_common@__crt_strtox@@YA?AW4SLD_STATUS@@AEBUfloating_point_string@1@AEBVfloating_point_value@1@@Z 000000014005c470 f i libucrt:strtod.obj
 0001:0005b550       ?count_sequential_high_zeroes@__crt_strtox@@YAII@Z 000000014005c550 f i libucrt:strtod.obj
 0001:0005b568       ?denormal_mantissa_mask@floating_point_value@__crt_strtox@@QEBA_KXZ 000000014005c568 f i libucrt:strtod.obj
 0001:0005b590       ?divide@__crt_strtox@@YA_KAEAUbig_integer@1@AEBU21@@Z 000000014005c590 f i libucrt:strtod.obj
 0001:0005bb54       ?exponent_bias@floating_point_value@__crt_strtox@@QEBAHXZ 000000014005cb54 f i libucrt:strtod.obj
 0001:0005bb68       ?get@?$c_string_character_source@D@__crt_strtox@@QEAADXZ 000000014005cb68 f i libucrt:strtod.obj
 0001:0005bb78       ?get@?$c_string_character_source@_W@__crt_strtox@@QEAA_WXZ 000000014005cb78 f i libucrt:strtod.obj
 0001:0005bb8c       ?is_digit_or_nondigit@__crt_strtox@@YA_NH@Z 000000014005cb8c f i libucrt:strtod.obj
 0001:0005bbb8       ?is_double@floating_point_value@__crt_strtox@@QEBA_NXZ 000000014005cbb8 f i libucrt:strtod.obj
 0001:0005bbbc       ?is_space@__crt_strtox@@YA_NDQEAU__crt_locale_pointers@@@Z 000000014005cbbc f i libucrt:strtod.obj
 0001:0005bbe4       ?is_space@__crt_strtox@@YA_N_WPEAU__crt_locale_pointers@@@Z 000000014005cbe4 f i libucrt:strtod.obj
 0001:0005bc10       ?make_big_integer@__crt_strtox@@YA?AUbig_integer@1@_K@Z 000000014005cc10 f i libucrt:strtod.obj
 0001:0005bc30       ?mantissa_bits@floating_point_value@__crt_strtox@@QEBAHXZ 000000014005cc30 f i libucrt:strtod.obj
 0001:0005bc44       ?maximum_binary_exponent@floating_point_value@__crt_strtox@@QEBAHXZ 000000014005cc44 f i libucrt:strtod.obj
 0001:0005bc58       ?minimum_binary_exponent@floating_point_value@__crt_strtox@@QEBAHXZ 000000014005cc58 f i libucrt:strtod.obj
 0001:0005bc70       ?multiply@__crt_strtox@@YA_NAEAUbig_integer@1@AEBU21@@Z 000000014005cc70 f i libucrt:strtod.obj
 0001:0005c0f0       ?multiply@__crt_strtox@@YA_NAEAUbig_integer@1@I@Z 000000014005d0f0 f i libucrt:strtod.obj
 0001:0005c220       ?multiply_64_32@__crt_strtox@@YA_K_KI@Z 000000014005d220 f i libucrt:strtod.obj
 0001:0005c230       ?multiply_by_power_of_ten@__crt_strtox@@YA_NAEAUbig_integer@1@I@Z 000000014005d230 f i libucrt:strtod.obj
 0001:0005c900       ?multiply_core@__crt_strtox@@YAIQEAIII@Z 000000014005d900 f i libucrt:strtod.obj
 0001:0005c95c       ?normal_mantissa_mask@floating_point_value@__crt_strtox@@QEBA_KXZ 000000014005d95c f i libucrt:strtod.obj
 0001:0005c980       ?parse_digit@__crt_strtox@@YAID@Z 000000014005d980 f i libucrt:strtod.obj
 0001:0005c9bc       ?parse_digit@__crt_strtox@@YAI_W@Z 000000014005d9bc f i libucrt:strtod.obj
 0001:0005cbe4       ?restore_state@?$c_string_character_source@D@__crt_strtox@@QEAA_NQEBD@Z 000000014005dbe4 f i libucrt:strtod.obj
 0001:0005cbec       ?restore_state@?$c_string_character_source@_W@__crt_strtox@@QEAA_NQEB_W@Z 000000014005dbec f i libucrt:strtod.obj
 0001:0005cbf4       ?right_shift_with_rounding@__crt_strtox@@YA_K_N_KI0@Z 000000014005dbf4 f i libucrt:strtod.obj
 0001:0005ccf4       ?save_state@?$c_string_character_source@D@__crt_strtox@@QEBAPEBDXZ 000000014005dcf4 f i libucrt:strtod.obj
 0001:0005ccf8       ?save_state@?$c_string_character_source@_W@__crt_strtox@@QEBAPEB_WXZ 000000014005dcf8 f i libucrt:strtod.obj
 0001:0005cd00       ?shift_left@__crt_strtox@@YA_NAEAUbig_integer@1@I@Z 000000014005dd00 f i libucrt:strtod.obj
 0001:0005cedc       ?should_round_up@__crt_strtox@@YA_N_N000@Z 000000014005dedc f i libucrt:strtod.obj
 0001:0005cf84       ?unget@?$c_string_character_source@D@__crt_strtox@@QEAAXD@Z 000000014005df84 f i libucrt:strtod.obj
 0001:0005cfb8       ?unget@?$c_string_character_source@_W@__crt_strtox@@QEAAX_W@Z 000000014005dfb8 f i libucrt:strtod.obj
 0001:0005cff0       ?validate@?$c_string_character_source@D@__crt_strtox@@QEBA_NXZ 000000014005dff0 f i libucrt:strtod.obj
 0001:0005d020       ?validate@?$c_string_character_source@_W@__crt_strtox@@QEBA_NXZ 000000014005e020 f i libucrt:strtod.obj
 0001:0005d050       ?wide_character_to_digit@__crt_strtox@@YAH_W@Z 000000014005e050 f i libucrt:strtod.obj
 0001:0005d258       __acrt_get_locale_data_prefix 000000014005e258 f i libucrt:strtod.obj
 0001:0005d25c       __ascii_iswalpha           000000014005e25c f i libucrt:strtod.obj
 0001:0005d27c       __ascii_towupper           000000014005e27c f i libucrt:strtod.obj
 0001:0005d28c       _chvalidchk_l              000000014005e28c f i libucrt:strtod.obj
 0001:0005d308       _ischartype_l              000000014005e308 f i libucrt:strtod.obj
 0001:0005d39c       _strtod_l                  000000014005e39c f   libucrt:strtod.obj
 0001:0005d3a4       _strtof_l                  000000014005e3a4 f   libucrt:strtod.obj
 0001:0005d3ac       _strtold_l                 000000014005e3ac f   libucrt:strtod.obj
 0001:0005d3b4       _wcstod_l                  000000014005e3b4 f   libucrt:strtod.obj
 0001:0005d3bc       _wcstof_l                  000000014005e3bc f   libucrt:strtod.obj
 0001:0005d3c4       _wcstold_l                 000000014005e3c4 f   libucrt:strtod.obj
 0001:0005d474       strtod                     000000014005e474 f   libucrt:strtod.obj
 0001:0005d480       strtof                     000000014005e480 f   libucrt:strtod.obj
 0001:0005d48c       strtold                    000000014005e48c f   libucrt:strtod.obj
 0001:0005d498       wcstod                     000000014005e498 f   libucrt:strtod.obj
 0001:0005d4a4       wcstof                     000000014005e4a4 f   libucrt:strtod.obj
 0001:0005d4b0       wcstold                    000000014005e4b0 f   libucrt:strtod.obj
 0001:0005d4bc       ??$is_overflow_condition@K@__crt_strtox@@YA_NIK@Z 000000014005e4bc f i libucrt:strtox.obj
 0001:0005d4ec       ??$is_overflow_condition@_K@__crt_strtox@@YA_NI_K@Z 000000014005e4ec f i libucrt:strtox.obj
 0001:0005d530       ??$parse_integer@KV?$c_string_character_source@D@__crt_strtox@@$00@__crt_strtox@@YAKAEAV__crt_cached_ptd_host@@V?$c_string_character_source@D@0@H_N@Z 000000014005e530 f i libucrt:strtox.obj
 0001:0005d8d8       ??$parse_integer@KV?$c_string_character_source@_W@__crt_strtox@@$00@__crt_strtox@@YAKAEAV__crt_cached_ptd_host@@V?$c_string_character_source@_W@0@H_N@Z 000000014005e8d8 f i libucrt:strtox.obj
 0001:0005e258       ??$parse_integer@_KV?$c_string_character_source@D@__crt_strtox@@$00@__crt_strtox@@YA_KAEAV__crt_cached_ptd_host@@V?$c_string_character_source@D@0@H_N@Z 000000014005f258 f i libucrt:strtox.obj
 0001:0005e5ec       ??$parse_integer@_KV?$c_string_character_source@_W@__crt_strtox@@$00@__crt_strtox@@YA_KAEAV__crt_cached_ptd_host@@V?$c_string_character_source@_W@0@H_N@Z 000000014005f5ec f i libucrt:strtox.obj
 0001:0005ef50       ??$parse_integer_from_string@JDPEAPEAD@__crt_strtox@@YAJQEBDQEAPEADHQEAU__crt_locale_pointers@@@Z 000000014005ff50 f i libucrt:strtox.obj
 0001:0005f03c       ??$parse_integer_from_string@J_WPEAPEA_W@__crt_strtox@@YAJQEB_WQEAPEA_WHQEAU__crt_locale_pointers@@@Z 000000014006003c f i libucrt:strtox.obj
 0001:0005f128       ??$parse_integer_from_string@KDPEAPEAD@__crt_strtox@@YAKQEBDQEAPEADHQEAU__crt_locale_pointers@@@Z 0000000140060128 f i libucrt:strtox.obj
 0001:0005f214       ??$parse_integer_from_string@K_WPEAPEA_W@__crt_strtox@@YAKQEB_WQEAPEA_WHQEAU__crt_locale_pointers@@@Z 0000000140060214 f i libucrt:strtox.obj
 0001:0005f300       ??$parse_integer_from_string@_JDPEAPEAD@__crt_strtox@@YA_JQEBDQEAPEADHQEAU__crt_locale_pointers@@@Z 0000000140060300 f i libucrt:strtox.obj
 0001:0005f3f0       ??$parse_integer_from_string@_J_WPEAPEA_W@__crt_strtox@@YA_JQEB_WQEAPEA_WHQEAU__crt_locale_pointers@@@Z 00000001400603f0 f i libucrt:strtox.obj
 0001:0005f4e0       ??$parse_integer_from_string@_KDPEAPEAD@__crt_strtox@@YA_KQEBDQEAPEADHQEAU__crt_locale_pointers@@@Z 00000001400604e0 f i libucrt:strtox.obj
 0001:0005f5d0       ??$parse_integer_from_string@_K_WPEAPEA_W@__crt_strtox@@YA_KQEB_WQEAPEA_WHQEAU__crt_locale_pointers@@@Z 00000001400605d0 f i libucrt:strtox.obj
 0001:0005f6c0       ??0?$cached@H@__crt_cached_ptd_host@@QEAA@XZ 00000001400606c0 f i libucrt:strtox.obj
 0001:0005f6cc       ??0?$cached@K@__crt_cached_ptd_host@@QEAA@XZ 00000001400606cc f i libucrt:strtox.obj
 0001:0005f6e0       ??0__crt_cached_ptd_host@@QEAA@QEAU__crt_locale_pointers@@@Z 00000001400606e0 f i libucrt:strtox.obj
 0001:0005f738       ??0__crt_scoped_get_last_error_reset@@QEAA@XZ 0000000140060738 f i libucrt:strtox.obj
 0001:0005f760       ??1__crt_cached_ptd_host@@QEAA@XZ 0000000140060760 f i libucrt:strtox.obj
 0001:0005f7c4       ??1__crt_scoped_get_last_error_reset@@QEAA@XZ 00000001400607c4 f i libucrt:strtox.obj
 0001:0005f7d0       ?check_synchronize_global_state_index@__crt_cached_ptd_host@@AEAA_KAEBV__crt_scoped_get_last_error_reset@@@Z 00000001400607d0 f i libucrt:strtox.obj
 0001:0005f7f0       ?check_synchronize_per_thread_data@__crt_cached_ptd_host@@AEAAPEAU__acrt_ptd@@XZ 00000001400607f0 f i libucrt:strtox.obj
 0001:0005f870       ?force_synchronize_global_state_index@__crt_cached_ptd_host@@AEAA_KAEBV__crt_scoped_get_last_error_reset@@@Z 0000000140060870 f i libucrt:strtox.obj
 0001:0005f890       ?force_synchronize_per_thread_data@__crt_cached_ptd_host@@AEAAPEAU__acrt_ptd@@XZ 0000000140060890 f i libucrt:strtox.obj
 0001:0005f8fc       ?get_current_state_index@__crt_state_management@@YA_KAEBV__crt_scoped_get_last_error_reset@@@Z 00000001400608fc f i libucrt:strtox.obj
 0001:0005f900       ?get_errno@__crt_cached_ptd_host@@QEAA@XZ 0000000140060900 f i libucrt:strtox.obj
 0001:0005f910       ?get_locale@__crt_cached_ptd_host@@QEAAPEAU__crt_locale_pointers@@XZ 0000000140060910 f i libucrt:strtox.obj
 0001:0005f950       ?get_raw_ptd@__crt_cached_ptd_host@@QEAAPEAU__acrt_ptd@@XZ 0000000140060950 f i libucrt:strtox.obj
 0001:0005f9d0       ?maximum_signed_value@__crt_strtox@@YAJK@Z 00000001400609d0 f i libucrt:strtox.obj
 0001:0005f9d8       ?maximum_signed_value@__crt_strtox@@YA_J_K@Z 00000001400609d8 f i libucrt:strtox.obj
 0001:0005f9e8       ?minimum_signed_value@__crt_strtox@@YAJK@Z 00000001400609e8 f i libucrt:strtox.obj
 0001:0005f9f0       ?minimum_signed_value@__crt_strtox@@YA_J_K@Z 00000001400609f0 f i libucrt:strtox.obj
 0001:0005fa00       ?set@?$cached@H@__crt_cached_ptd_host@@QEAAHH@Z 0000000140060a00 f i libucrt:strtox.obj
 0001:0005fa0c       ?unsafe_value@?$cached@H@__crt_cached_ptd_host@@QEAAHXZ 0000000140060a0c f i libucrt:strtox.obj
 0001:0005fa10       ?unsafe_value@?$cached@K@__crt_cached_ptd_host@@QEAAKXZ 0000000140060a10 f i libucrt:strtox.obj
 0001:0005fa20       ?update_locale@__crt_cached_ptd_host@@AEAAXXZ 0000000140060a20 f i libucrt:strtox.obj
 0001:0005fa30       ?update_locale_slow@__crt_cached_ptd_host@@AEAAXXZ 0000000140060a30 f i libucrt:strtox.obj
 0001:0005fac4       ?valid@?$cached@H@__crt_cached_ptd_host@@QEBA_NXZ 0000000140060ac4 f i libucrt:strtox.obj
 0001:0005fac8       ?valid@?$cached@K@__crt_cached_ptd_host@@QEBA_NXZ 0000000140060ac8 f i libucrt:strtox.obj
 0001:0005facc       _strtoi64                  0000000140060acc f   libucrt:strtox.obj
 0001:0005fbac       _strtoi64_l                0000000140060bac f   libucrt:strtox.obj
 0001:0005fc9c       _strtoimax_l               0000000140060c9c f   libucrt:strtox.obj
 0001:0005fd8c       _strtol_l                  0000000140060d8c f   libucrt:strtox.obj
 0001:0005fe78       _strtoll_l                 0000000140060e78 f   libucrt:strtox.obj
 0001:0005ff68       _strtoui64                 0000000140060f68 f   libucrt:strtox.obj
 0001:00060048       _strtoui64_l               0000000140061048 f   libucrt:strtox.obj
 0001:00060138       _strtoul_l                 0000000140061138 f   libucrt:strtox.obj
 0001:00060224       _strtoull_l                0000000140061224 f   libucrt:strtox.obj
 0001:00060314       _strtoumax_l               0000000140061314 f   libucrt:strtox.obj
 0001:00060404       _wcstoi64                  0000000140061404 f   libucrt:strtox.obj
 0001:000604e4       _wcstoi64_l                00000001400614e4 f   libucrt:strtox.obj
 0001:000605d4       _wcstoimax_l               00000001400615d4 f   libucrt:strtox.obj
 0001:000606c4       _wcstol_l                  00000001400616c4 f   libucrt:strtox.obj
 0001:000607b0       _wcstoll_l                 00000001400617b0 f   libucrt:strtox.obj
 0001:000608a0       _wcstoui64                 00000001400618a0 f   libucrt:strtox.obj
 0001:00060980       _wcstoui64_l               0000000140061980 f   libucrt:strtox.obj
 0001:00060a70       _wcstoul_l                 0000000140061a70 f   libucrt:strtox.obj
 0001:00060b5c       _wcstoull_l                0000000140061b5c f   libucrt:strtox.obj
 0001:00060c4c       _wcstoumax_l               0000000140061c4c f   libucrt:strtox.obj
 0001:00060d3c       strtoimax                  0000000140061d3c f   libucrt:strtox.obj
 0001:00060e1c       strtol                     0000000140061e1c f   libucrt:strtox.obj
 0001:00060efc       strtoll                    0000000140061efc f   libucrt:strtox.obj
 0001:00060fdc       strtoul                    0000000140061fdc f   libucrt:strtox.obj
 0001:000610bc       strtoull                   00000001400620bc f   libucrt:strtox.obj
 0001:0006119c       strtoumax                  000000014006219c f   libucrt:strtox.obj
 0001:0006127c       wcstoimax                  000000014006227c f   libucrt:strtox.obj
 0001:0006135c       wcstol                     000000014006235c f   libucrt:strtox.obj
 0001:0006143c       wcstoll                    000000014006243c f   libucrt:strtox.obj
 0001:0006151c       wcstoul                    000000014006251c f   libucrt:strtox.obj
 0001:000615fc       wcstoull                   00000001400625fc f   libucrt:strtox.obj
 0001:000616dc       wcstoumax                  00000001400626dc f   libucrt:strtox.obj
 0001:000617bc       ??$?0AEBV?$stream_output_adapter@D@__crt_stdio_output@@AEB_KAEBQEBDAEAV__crt_cached_ptd_host@@AEBQEAD@?$format_validation_base@DV?$stream_output_adapter@D@__crt_stdio_output@@@__crt_stdio_output@@IEAA@AEBV?$stream_output_adapter@D@1@AEB_KAEBQEBDAEAV__crt_cached_ptd_host@@AEBQEAD@Z 00000001400627bc f i libucrt:output.obj
 0001:00061848       ??$?0AEBV?$stream_output_adapter@D@__crt_stdio_output@@AEB_KAEBQEBDAEAV__crt_cached_ptd_host@@AEBQEAD@?$positional_parameter_base@DV?$stream_output_adapter@D@__crt_stdio_output@@@__crt_stdio_output@@IEAA@AEBV?$stream_output_adapter@D@1@AEB_KAEBQEBDAEAV__crt_cached_ptd_host@@AEBQEAD@Z 0000000140062848 f i libucrt:output.obj
 0001:000618f8       ??$?0AEBV?$stream_output_adapter@D@__crt_stdio_output@@AEB_KAEBQEBDAEAV__crt_cached_ptd_host@@AEBQEAD@?$standard_base@DV?$stream_output_adapter@D@__crt_stdio_output@@@__crt_stdio_output@@IEAA@AEBV?$stream_output_adapter@D@1@AEB_KAEBQEBDAEAV__crt_cached_ptd_host@@AEBQEAD@Z 00000001400628f8 f i libucrt:output.obj
 0001:00061984       ??$?0AEBV?$stream_output_adapter@_W@__crt_stdio_output@@AEB_KAEBQEB_WAEAV__crt_cached_ptd_host@@AEBQEAD@?$format_validation_base@_WV?$stream_output_adapter@_W@__crt_stdio_output@@@__crt_stdio_output@@IEAA@AEBV?$stream_output_adapter@_W@1@AEB_KAEBQEB_WAEAV__crt_cached_ptd_host@@AEBQEAD@Z 0000000140062984 f i libucrt:output.obj
 0001:00061a18       ??$?0AEBV?$stream_output_adapter@_W@__crt_stdio_output@@AEB_KAEBQEB_WAEAV__crt_cached_ptd_host@@AEBQEAD@?$positional_parameter_base@_WV?$stream_output_adapter@_W@__crt_stdio_output@@@__crt_stdio_output@@IEAA@AEBV?$stream_output_adapter@_W@1@AEB_KAEBQEB_WAEAV__crt_cached_ptd_host@@AEBQEAD@Z 0000000140062a18 f i libucrt:output.obj
 0001:00061ad0       ??$?0AEBV?$stream_output_adapter@_W@__crt_stdio_output@@AEB_KAEBQEB_WAEAV__crt_cached_ptd_host@@AEBQEAD@?$standard_base@_WV?$stream_output_adapter@_W@__crt_stdio_output@@@__crt_stdio_output@@IEAA@AEBV?$stream_output_adapter@_W@1@AEB_KAEBQEB_WAEAV__crt_cached_ptd_host@@AEBQEAD@Z 0000000140062ad0 f i libucrt:output.obj
 0001:00061b64       ??$?0AEBV?$string_output_adapter@D@__crt_stdio_output@@AEB_KAEBQEBDAEAV__crt_cached_ptd_host@@AEBQEAD@?$format_validation_base@DV?$string_output_adapter@D@__crt_stdio_output@@@__crt_stdio_output@@IEAA@AEBV?$string_output_adapter@D@1@AEB_KAEBQEBDAEAV__crt_cached_ptd_host@@AEBQEAD@Z 0000000140062b64 f i libucrt:output.obj
 0001:00061bf0       ??$?0AEBV?$string_output_adapter@D@__crt_stdio_output@@AEB_KAEBQEBDAEAV__crt_cached_ptd_host@@AEBQEAD@?$positional_parameter_base@DV?$string_output_adapter@D@__crt_stdio_output@@@__crt_stdio_output@@IEAA@AEBV?$string_output_adapter@D@1@AEB_KAEBQEBDAEAV__crt_cached_ptd_host@@AEBQEAD@Z 0000000140062bf0 f i libucrt:output.obj
 0001:00061ca0       ??$?0AEBV?$string_output_adapter@D@__crt_stdio_output@@AEB_KAEBQEBDAEAV__crt_cached_ptd_host@@AEBQEAD@?$standard_base@DV?$string_output_adapter@D@__crt_stdio_output@@@__crt_stdio_output@@IEAA@AEBV?$string_output_adapter@D@1@AEB_KAEBQEBDAEAV__crt_cached_ptd_host@@AEBQEAD@Z 0000000140062ca0 f i libucrt:output.obj
 0001:00061d2c       ??$?0AEBV?$string_output_adapter@_W@__crt_stdio_output@@AEB_KAEBQEB_WAEAV__crt_cached_ptd_host@@AEBQEAD@?$format_validation_base@_WV?$string_output_adapter@_W@__crt_stdio_output@@@__crt_stdio_output@@IEAA@AEBV?$string_output_adapter@_W@1@AEB_KAEBQEB_WAEAV__crt_cached_ptd_host@@AEBQEAD@Z 0000000140062d2c f i libucrt:output.obj
 0001:00061dc0       ??$?0AEBV?$string_output_adapter@_W@__crt_stdio_output@@AEB_KAEBQEB_WAEAV__crt_cached_ptd_host@@AEBQEAD@?$positional_parameter_base@_WV?$string_output_adapter@_W@__crt_stdio_output@@@__crt_stdio_output@@IEAA@AEBV?$string_output_adapter@_W@1@AEB_KAEBQEB_WAEAV__crt_cached_ptd_host@@AEBQEAD@Z 0000000140062dc0 f i libucrt:output.obj
 0001:00061e78       ??$?0AEBV?$string_output_adapter@_W@__crt_stdio_output@@AEB_KAEBQEB_WAEAV__crt_cached_ptd_host@@AEBQEAD@?$standard_base@_WV?$string_output_adapter@_W@__crt_stdio_output@@@__crt_stdio_output@@IEAA@AEBV?$string_output_adapter@_W@1@AEB_KAEBQEB_WAEAV__crt_cached_ptd_host@@AEBQEAD@Z 0000000140062e78 f i libucrt:output.obj
 0001:0006220c       ??$__crt_interlocked_read@J@@YAJPEDJ@Z 000000014006320c f i libucrt:output.obj
 0001:00062210       ??$_tcstol_internal@DPEAPEAD$0A@@@YAJAEAV__crt_cached_ptd_host@@QEBDQEAPEADH@Z 0000000140063210 f i libucrt:output.obj
 0001:0006224c       ??$_tcstol_internal@_WPEAPEA_W$0A@@@YAJAEAV__crt_cached_ptd_host@@QEB_WQEAPEA_WH@Z 000000014006324c f i libucrt:output.obj
 0001:000637e8       ??$count@D@formatting_buffer@__crt_stdio_output@@QEBA_KXZ 00000001400647e8 f i libucrt:output.obj
 0001:0006380c       ??$count@_W@formatting_buffer@__crt_stdio_output@@QEBA_KXZ 000000014006480c f i libucrt:output.obj
 0001:00063830       ??$data@D@formatting_buffer@__crt_stdio_output@@QEAAPEADXZ 0000000140064830 f i libucrt:output.obj
 0001:00063844       ??$data@_W@formatting_buffer@__crt_stdio_output@@QEAAPEA_WXZ 0000000140064844 f i libucrt:output.obj
 0001:00063858       ??$ensure_buffer_is_big_enough@D@formatting_buffer@__crt_stdio_output@@QEAA_N_KAEAV__crt_cached_ptd_host@@@Z 0000000140064858 f i libucrt:output.obj
 0001:0006392c       ??$ensure_buffer_is_big_enough@_W@formatting_buffer@__crt_stdio_output@@QEAA_N_KAEAV__crt_cached_ptd_host@@@Z 000000014006492c f i libucrt:output.obj
 0001:00063a04       ??$extract_argument_from_va_list@C_J@?$positional_parameter_base@DV?$stream_output_adapter@D@__crt_stdio_output@@@__crt_stdio_output@@IEAA_NAEA_J@Z 0000000140064a04 f i libucrt:output.obj
 0001:00063b50       ??$extract_argument_from_va_list@C_J@?$positional_parameter_base@DV?$string_output_adapter@D@__crt_stdio_output@@@__crt_stdio_output@@IEAA_NAEA_J@Z 0000000140064b50 f i libucrt:output.obj
 0001:00063c9c       ??$extract_argument_from_va_list@C_J@?$positional_parameter_base@_WV?$stream_output_adapter@_W@__crt_stdio_output@@@__crt_stdio_output@@IEAA_NAEA_J@Z 0000000140064c9c f i libucrt:output.obj
 0001:00063dec       ??$extract_argument_from_va_list@C_J@?$positional_parameter_base@_WV?$string_output_adapter@_W@__crt_stdio_output@@@__crt_stdio_output@@IEAA_NAEA_J@Z 0000000140064dec f i libucrt:output.obj
 0001:00063f3c       ??$extract_argument_from_va_list@C_J@?$standard_base@DV?$stream_output_adapter@D@__crt_stdio_output@@@__crt_stdio_output@@IEAA_NAEA_J@Z 0000000140064f3c f i libucrt:output.obj
 0001:00063f58       ??$extract_argument_from_va_list@C_J@?$standard_base@DV?$string_output_adapter@D@__crt_stdio_output@@@__crt_stdio_output@@IEAA_NAEA_J@Z 0000000140064f58 f i libucrt:output.obj
 0001:00063f74       ??$extract_argument_from_va_list@C_J@?$standard_base@_WV?$stream_output_adapter@_W@__crt_stdio_output@@@__crt_stdio_output@@IEAA_NAEA_J@Z 0000000140064f74 f i libucrt:output.obj
 0001:00063f90       ??$extract_argument_from_va_list@C_J@?$standard_base@_WV?$string_output_adapter@_W@__crt_stdio_output@@@__crt_stdio_output@@IEAA_NAEA_J@Z 0000000140064f90 f i libucrt:output.obj
 0001:00063fac       ??$extract_argument_from_va_list@E_J@?$positional_parameter_base@DV?$stream_output_adapter@D@__crt_stdio_output@@@__crt_stdio_output@@IEAA_NAEA_J@Z 0000000140064fac f i libucrt:output.obj
 0001:000640f8       ??$extract_argument_from_va_list@E_J@?$positional_parameter_base@DV?$string_output_adapter@D@__crt_stdio_output@@@__crt_stdio_output@@IEAA_NAEA_J@Z 00000001400650f8 f i libucrt:output.obj
 0001:00064244       ??$extract_argument_from_va_list@E_J@?$positional_parameter_base@_WV?$stream_output_adapter@_W@__crt_stdio_output@@@__crt_stdio_output@@IEAA_NAEA_J@Z 0000000140065244 f i libucrt:output.obj
 0001:00064390       ??$extract_argument_from_va_list@E_J@?$positional_parameter_base@_WV?$string_output_adapter@_W@__crt_stdio_output@@@__crt_stdio_output@@IEAA_NAEA_J@Z 0000000140065390 f i libucrt:output.obj
 0001:000644dc       ??$extract_argument_from_va_list@E_J@?$standard_base@DV?$stream_output_adapter@D@__crt_stdio_output@@@__crt_stdio_output@@IEAA_NAEA_J@Z 00000001400654dc f i libucrt:output.obj
 0001:000644f8       ??$extract_argument_from_va_list@E_J@?$standard_base@DV?$string_output_adapter@D@__crt_stdio_output@@@__crt_stdio_output@@IEAA_NAEA_J@Z 00000001400654f8 f i libucrt:output.obj
 0001:00064514       ??$extract_argument_from_va_list@E_J@?$standard_base@_WV?$stream_output_adapter@_W@__crt_stdio_output@@@__crt_stdio_output@@IEAA_NAEA_J@Z 0000000140065514 f i libucrt:output.obj
 0001:00064530       ??$extract_argument_from_va_list@E_J@?$standard_base@_WV?$string_output_adapter@_W@__crt_stdio_output@@@__crt_stdio_output@@IEAA_NAEA_J@Z 0000000140065530 f i libucrt:output.obj
 0001:0006454c       ??$extract_argument_from_va_list@F_J@?$positional_parameter_base@DV?$stream_output_adapter@D@__crt_stdio_output@@@__crt_stdio_output@@IEAA_NAEA_J@Z 000000014006554c f i libucrt:output.obj
 0001:00064698       ??$extract_argument_from_va_list@F_J@?$positional_parameter_base@DV?$string_output_adapter@D@__crt_stdio_output@@@__crt_stdio_output@@IEAA_NAEA_J@Z 0000000140065698 f i libucrt:output.obj
 0001:000647e4       ??$extract_argument_from_va_list@F_J@?$positional_parameter_base@_WV?$stream_output_adapter@_W@__crt_stdio_output@@@__crt_stdio_output@@IEAA_NAEA_J@Z 00000001400657e4 f i libucrt:output.obj
 0001:00064934       ??$extract_argument_from_va_list@F_J@?$positional_parameter_base@_WV?$string_output_adapter@_W@__crt_stdio_output@@@__crt_stdio_output@@IEAA_NAEA_J@Z 0000000140065934 f i libucrt:output.obj
 0001:00064a84       ??$extract_argument_from_va_list@F_J@?$standard_base@DV?$stream_output_adapter@D@__crt_stdio_output@@@__crt_stdio_output@@IEAA_NAEA_J@Z 0000000140065a84 f i libucrt:output.obj
 0001:00064aa0       ??$extract_argument_from_va_list@F_J@?$standard_base@DV?$string_output_adapter@D@__crt_stdio_output@@@__crt_stdio_output@@IEAA_NAEA_J@Z 0000000140065aa0 f i libucrt:output.obj
 0001:00064abc       ??$extract_argument_from_va_list@F_J@?$standard_base@_WV?$stream_output_adapter@_W@__crt_stdio_output@@@__crt_stdio_output@@IEAA_NAEA_J@Z 0000000140065abc f i libucrt:output.obj
 0001:00064ad8       ??$extract_argument_from_va_list@F_J@?$standard_base@_WV?$string_output_adapter@_W@__crt_stdio_output@@@__crt_stdio_output@@IEAA_NAEA_J@Z 0000000140065ad8 f i libucrt:output.obj
 0001:00064af4       ??$extract_argument_from_va_list@GD@?$positional_parameter_base@DV?$stream_output_adapter@D@__crt_stdio_output@@@__crt_stdio_output@@IEAA_NAEAD@Z 0000000140065af4 f i libucrt:output.obj
 0001:00064c3c       ??$extract_argument_from_va_list@GD@?$positional_parameter_base@DV?$string_output_adapter@D@__crt_stdio_output@@@__crt_stdio_output@@IEAA_NAEAD@Z 0000000140065c3c f i libucrt:output.obj
 0001:00064d84       ??$extract_argument_from_va_list@GD@?$standard_base@DV?$stream_output_adapter@D@__crt_stdio_output@@@__crt_stdio_output@@IEAA_NAEAD@Z 0000000140065d84 f i libucrt:output.obj
 0001:00064da0       ??$extract_argument_from_va_list@GD@?$standard_base@DV?$string_output_adapter@D@__crt_stdio_output@@@__crt_stdio_output@@IEAA_NAEAD@Z 0000000140065da0 f i libucrt:output.obj
 0001:00064dbc       ??$extract_argument_from_va_list@G_J@?$positional_parameter_base@DV?$stream_output_adapter@D@__crt_stdio_output@@@__crt_stdio_output@@IEAA_NAEA_J@Z 0000000140065dbc f i libucrt:output.obj
 0001:00064f08       ??$extract_argument_from_va_list@G_J@?$positional_parameter_base@DV?$string_output_adapter@D@__crt_stdio_output@@@__crt_stdio_output@@IEAA_NAEA_J@Z 0000000140065f08 f i libucrt:output.obj
 0001:00065054       ??$extract_argument_from_va_list@G_J@?$positional_parameter_base@_WV?$stream_output_adapter@_W@__crt_stdio_output@@@__crt_stdio_output@@IEAA_NAEA_J@Z 0000000140066054 f i libucrt:output.obj
 0001:000651a0       ??$extract_argument_from_va_list@G_J@?$positional_parameter_base@_WV?$string_output_adapter@_W@__crt_stdio_output@@@__crt_stdio_output@@IEAA_NAEA_J@Z 00000001400661a0 f i libucrt:output.obj
 0001:000652ec       ??$extract_argument_from_va_list@G_J@?$standard_base@DV?$stream_output_adapter@D@__crt_stdio_output@@@__crt_stdio_output@@IEAA_NAEA_J@Z 00000001400662ec f i libucrt:output.obj
 0001:00065308       ??$extract_argument_from_va_list@G_J@?$standard_base@DV?$string_output_adapter@D@__crt_stdio_output@@@__crt_stdio_output@@IEAA_NAEA_J@Z 0000000140066308 f i libucrt:output.obj
 0001:00065324       ??$extract_argument_from_va_list@G_J@?$standard_base@_WV?$stream_output_adapter@_W@__crt_stdio_output@@@__crt_stdio_output@@IEAA_NAEA_J@Z 0000000140066324 f i libucrt:output.obj
 0001:00065340       ??$extract_argument_from_va_list@G_J@?$standard_base@_WV?$string_output_adapter@_W@__crt_stdio_output@@@__crt_stdio_output@@IEAA_NAEA_J@Z 0000000140066340 f i libucrt:output.obj
 0001:0006535c       ??$extract_argument_from_va_list@H_J@?$positional_parameter_base@DV?$stream_output_adapter@D@__crt_stdio_output@@@__crt_stdio_output@@IEAA_NAEA_J@Z 000000014006635c f i libucrt:output.obj
 0001:000654a4       ??$extract_argument_from_va_list@H_J@?$positional_parameter_base@DV?$string_output_adapter@D@__crt_stdio_output@@@__crt_stdio_output@@IEAA_NAEA_J@Z 00000001400664a4 f i libucrt:output.obj
 0001:000655ec       ??$extract_argument_from_va_list@H_J@?$positional_parameter_base@_WV?$stream_output_adapter@_W@__crt_stdio_output@@@__crt_stdio_output@@IEAA_NAEA_J@Z 00000001400665ec f i libucrt:output.obj
 0001:00065738       ??$extract_argument_from_va_list@H_J@?$positional_parameter_base@_WV?$string_output_adapter@_W@__crt_stdio_output@@@__crt_stdio_output@@IEAA_NAEA_J@Z 0000000140066738 f i libucrt:output.obj
 0001:00065884       ??$extract_argument_from_va_list@H_J@?$standard_base@DV?$stream_output_adapter@D@__crt_stdio_output@@@__crt_stdio_output@@IEAA_NAEA_J@Z 0000000140066884 f i libucrt:output.obj
 0001:000658a0       ??$extract_argument_from_va_list@H_J@?$standard_base@DV?$string_output_adapter@D@__crt_stdio_output@@@__crt_stdio_output@@IEAA_NAEA_J@Z 00000001400668a0 f i libucrt:output.obj
 0001:000658bc       ??$extract_argument_from_va_list@H_J@?$standard_base@_WV?$stream_output_adapter@_W@__crt_stdio_output@@@__crt_stdio_output@@IEAA_NAEA_J@Z 00000001400668bc f i libucrt:output.obj
 0001:000658d8       ??$extract_argument_from_va_list@H_J@?$standard_base@_WV?$string_output_adapter@_W@__crt_stdio_output@@@__crt_stdio_output@@IEAA_NAEA_J@Z 00000001400668d8 f i libucrt:output.obj
 0001:000658f4       ??$extract_argument_from_va_list@I_J@?$positional_parameter_base@DV?$stream_output_adapter@D@__crt_stdio_output@@@__crt_stdio_output@@IEAA_NAEA_J@Z 00000001400668f4 f i libucrt:output.obj
 0001:00065a3c       ??$extract_argument_from_va_list@I_J@?$positional_parameter_base@DV?$string_output_adapter@D@__crt_stdio_output@@@__crt_stdio_output@@IEAA_NAEA_J@Z 0000000140066a3c f i libucrt:output.obj
 0001:00065b84       ??$extract_argument_from_va_list@I_J@?$positional_parameter_base@_WV?$stream_output_adapter@_W@__crt_stdio_output@@@__crt_stdio_output@@IEAA_NAEA_J@Z 0000000140066b84 f i libucrt:output.obj
 0001:00065cd0       ??$extract_argument_from_va_list@I_J@?$positional_parameter_base@_WV?$string_output_adapter@_W@__crt_stdio_output@@@__crt_stdio_output@@IEAA_NAEA_J@Z 0000000140066cd0 f i libucrt:output.obj
 0001:00065e1c       ??$extract_argument_from_va_list@I_J@?$standard_base@DV?$stream_output_adapter@D@__crt_stdio_output@@@__crt_stdio_output@@IEAA_NAEA_J@Z 0000000140066e1c f i libucrt:output.obj
 0001:00065e38       ??$extract_argument_from_va_list@I_J@?$standard_base@DV?$string_output_adapter@D@__crt_stdio_output@@@__crt_stdio_output@@IEAA_NAEA_J@Z 0000000140066e38 f i libucrt:output.obj
 0001:00065e54       ??$extract_argument_from_va_list@I_J@?$standard_base@_WV?$stream_output_adapter@_W@__crt_stdio_output@@@__crt_stdio_output@@IEAA_NAEA_J@Z 0000000140066e54 f i libucrt:output.obj
 0001:00065e70       ??$extract_argument_from_va_list@I_J@?$standard_base@_WV?$string_output_adapter@_W@__crt_stdio_output@@@__crt_stdio_output@@IEAA_NAEA_J@Z 0000000140066e70 f i libucrt:output.obj
 0001:00065e8c       ??$extract_argument_from_va_list@PEADPEAD@?$positional_parameter_base@DV?$stream_output_adapter@D@__crt_stdio_output@@@__crt_stdio_output@@IEAA_NAEAPEAD@Z 0000000140066e8c f i libucrt:output.obj
 0001:00065fd4       ??$extract_argument_from_va_list@PEADPEAD@?$positional_parameter_base@DV?$string_output_adapter@D@__crt_stdio_output@@@__crt_stdio_output@@IEAA_NAEAPEAD@Z 0000000140066fd4 f i libucrt:output.obj
 0001:0006611c       ??$extract_argument_from_va_list@PEADPEAD@?$positional_parameter_base@_WV?$stream_output_adapter@_W@__crt_stdio_output@@@__crt_stdio_output@@IEAA_NAEAPEAD@Z 000000014006711c f i libucrt:output.obj
 0001:00066268       ??$extract_argument_from_va_list@PEADPEAD@?$positional_parameter_base@_WV?$string_output_adapter@_W@__crt_stdio_output@@@__crt_stdio_output@@IEAA_NAEAPEAD@Z 0000000140067268 f i libucrt:output.obj
 0001:000663b4       ??$extract_argument_from_va_list@PEADPEAD@?$standard_base@DV?$stream_output_adapter@D@__crt_stdio_output@@@__crt_stdio_output@@IEAA_NAEAPEAD@Z 00000001400673b4 f i libucrt:output.obj
 0001:000663d0       ??$extract_argument_from_va_list@PEADPEAD@?$standard_base@DV?$string_output_adapter@D@__crt_stdio_output@@@__crt_stdio_output@@IEAA_NAEAPEAD@Z 00000001400673d0 f i libucrt:output.obj
 0001:000663ec       ??$extract_argument_from_va_list@PEADPEAD@?$standard_base@_WV?$stream_output_adapter@_W@__crt_stdio_output@@@__crt_stdio_output@@IEAA_NAEAPEAD@Z 00000001400673ec f i libucrt:output.obj
 0001:00066408       ??$extract_argument_from_va_list@PEADPEAD@?$standard_base@_WV?$string_output_adapter@_W@__crt_stdio_output@@@__crt_stdio_output@@IEAA_NAEAPEAD@Z 0000000140067408 f i libucrt:output.obj
 0001:00066424       ??$extract_argument_from_va_list@PEAUansi_string@?1??type_case_Z@?$output_processor@DV?$stream_output_adapter@D@__crt_stdio_output@@V?$format_validation_base@DV?$stream_output_adapter@D@__crt_stdio_output@@@2@@__crt_stdio_output@@AEAA_NXZ@PEAU1?1??234@AEAA_NXZ@@?$standard_base@DV?$stream_output_adapter@D@__crt_stdio_output@@@__crt_stdio_output@@IEAA_NAEAPEAUansi_string@?1??type_case_Z@?$output_processor@DV?$stream_output_adapter@D@__crt_stdio_output@@V?$format_validation_base@DV?$stream_output_adapter@D@__crt_stdio_output@@@2@@1@AEAA_NXZ@@Z 0000000140067424 f i libucrt:output.obj
 0001:00066440       ??$extract_argument_from_va_list@PEAUansi_string@?1??type_case_Z@?$output_processor@DV?$stream_output_adapter@D@__crt_stdio_output@@V?$positional_parameter_base@DV?$stream_output_adapter@D@__crt_stdio_output@@@2@@__crt_stdio_output@@AEAA_NXZ@PEAU1?1??234@AEAA_NXZ@@?$positional_parameter_base@DV?$stream_output_adapter@D@__crt_stdio_output@@@__crt_stdio_output@@IEAA_NAEAPEAUansi_string@?1??type_case_Z@?$output_processor@DV?$stream_output_adapter@D@__crt_stdio_output@@V?$positional_parameter_base@DV?$stream_output_adapter@D@__crt_stdio_output@@@2@@1@AEAA_NXZ@@Z 0000000140067440 f i libucrt:output.obj
 0001:00066588       ??$extract_argument_from_va_list@PEAUansi_string@?1??type_case_Z@?$output_processor@DV?$stream_output_adapter@D@__crt_stdio_output@@V?$positional_parameter_base@DV?$stream_output_adapter@D@__crt_stdio_output@@@2@@__crt_stdio_output@@AEAA_NXZ@PEAU1?1??234@AEAA_NXZ@@?$standard_base@DV?$stream_output_adapter@D@__crt_stdio_output@@@__crt_stdio_output@@IEAA_NAEAPEAUansi_string@?1??type_case_Z@?$output_processor@DV?$stream_output_adapter@D@__crt_stdio_output@@V?$positional_parameter_base@DV?$stream_output_adapter@D@__crt_stdio_output@@@2@@1@AEAA_NXZ@@Z 0000000140067588 f i libucrt:output.obj
 0001:000665a4       ??$extract_argument_from_va_list@PEAUansi_string@?1??type_case_Z@?$output_processor@DV?$stream_output_adapter@D@__crt_stdio_output@@V?$standard_base@DV?$stream_output_adapter@D@__crt_stdio_output@@@2@@__crt_stdio_output@@AEAA_NXZ@PEAU1?1??234@AEAA_NXZ@@?$standard_base@DV?$stream_output_adapter@D@__crt_stdio_output@@@__crt_stdio_output@@IEAA_NAEAPEAUansi_string@?1??type_case_Z@?$output_processor@DV?$stream_output_adapter@D@__crt_stdio_output@@V?$standard_base@DV?$stream_output_adapter@D@__crt_stdio_output@@@2@@1@AEAA_NXZ@@Z 00000001400675a4 f i libucrt:output.obj
 0001:000665c0       ??$extract_argument_from_va_list@PEAUansi_string@?1??type_case_Z@?$output_processor@DV?$string_output_adapter@D@__crt_stdio_output@@V?$format_validation_base@DV?$string_output_adapter@D@__crt_stdio_output@@@2@@__crt_stdio_output@@AEAA_NXZ@PEAU1?1??234@AEAA_NXZ@@?$standard_base@DV?$string_output_adapter@D@__crt_stdio_output@@@__crt_stdio_output@@IEAA_NAEAPEAUansi_string@?1??type_case_Z@?$output_processor@DV?$string_output_adapter@D@__crt_stdio_output@@V?$format_validation_base@DV?$string_output_adapter@D@__crt_stdio_output@@@2@@1@AEAA_NXZ@@Z 00000001400675c0 f i libucrt:output.obj
 0001:000665dc       ??$extract_argument_from_va_list@PEAUansi_string@?1??type_case_Z@?$output_processor@DV?$string_output_adapter@D@__crt_stdio_output@@V?$positional_parameter_base@DV?$string_output_adapter@D@__crt_stdio_output@@@2@@__crt_stdio_output@@AEAA_NXZ@PEAU1?1??234@AEAA_NXZ@@?$positional_parameter_base@DV?$string_output_adapter@D@__crt_stdio_output@@@__crt_stdio_output@@IEAA_NAEAPEAUansi_string@?1??type_case_Z@?$output_processor@DV?$string_output_adapter@D@__crt_stdio_output@@V?$positional_parameter_base@DV?$string_output_adapter@D@__crt_stdio_output@@@2@@1@AEAA_NXZ@@Z 00000001400675dc f i libucrt:output.obj
 0001:00066724       ??$extract_argument_from_va_list@PEAUansi_string@?1??type_case_Z@?$output_processor@DV?$string_output_adapter@D@__crt_stdio_output@@V?$positional_parameter_base@DV?$string_output_adapter@D@__crt_stdio_output@@@2@@__crt_stdio_output@@AEAA_NXZ@PEAU1?1??234@AEAA_NXZ@@?$standard_base@DV?$string_output_adapter@D@__crt_stdio_output@@@__crt_stdio_output@@IEAA_NAEAPEAUansi_string@?1??type_case_Z@?$output_processor@DV?$string_output_adapter@D@__crt_stdio_output@@V?$positional_parameter_base@DV?$string_output_adapter@D@__crt_stdio_output@@@2@@1@AEAA_NXZ@@Z 0000000140067724 f i libucrt:output.obj
 0001:00066740       ??$extract_argument_from_va_list@PEAUansi_string@?1??type_case_Z@?$output_processor@DV?$string_output_adapter@D@__crt_stdio_output@@V?$standard_base@DV?$string_output_adapter@D@__crt_stdio_output@@@2@@__crt_stdio_output@@AEAA_NXZ@PEAU1?1??234@AEAA_NXZ@@?$standard_base@DV?$string_output_adapter@D@__crt_stdio_output@@@__crt_stdio_output@@IEAA_NAEAPEAUansi_string@?1??type_case_Z@?$output_processor@DV?$string_output_adapter@D@__crt_stdio_output@@V?$standard_base@DV?$string_output_adapter@D@__crt_stdio_output@@@2@@1@AEAA_NXZ@@Z 0000000140067740 f i libucrt:output.obj
 0001:0006675c       ??$extract_argument_from_va_list@PEAUansi_string@?1??type_case_Z@?$output_processor@_WV?$stream_output_adapter@_W@__crt_stdio_output@@V?$format_validation_base@_WV?$stream_output_adapter@_W@__crt_stdio_output@@@2@@__crt_stdio_output@@AEAA_NXZ@PEAU1?1??234@AEAA_NXZ@@?$standard_base@_WV?$stream_output_adapter@_W@__crt_stdio_output@@@__crt_stdio_output@@IEAA_NAEAPEAUansi_string@?1??type_case_Z@?$output_processor@_WV?$stream_output_adapter@_W@__crt_stdio_output@@V?$format_validation_base@_WV?$stream_output_adapter@_W@__crt_stdio_output@@@2@@1@AEAA_NXZ@@Z 000000014006775c f i libucrt:output.obj
 0001:00066778       ??$extract_argument_from_va_list@PEAUansi_string@?1??type_case_Z@?$output_processor@_WV?$stream_output_adapter@_W@__crt_stdio_output@@V?$positional_parameter_base@_WV?$stream_output_adapter@_W@__crt_stdio_output@@@2@@__crt_stdio_output@@AEAA_NXZ@PEAU1?1??234@AEAA_NXZ@@?$positional_parameter_base@_WV?$stream_output_adapter@_W@__crt_stdio_output@@@__crt_stdio_output@@IEAA_NAEAPEAUansi_string@?1??type_case_Z@?$output_processor@_WV?$stream_output_adapter@_W@__crt_stdio_output@@V?$positional_parameter_base@_WV?$stream_output_adapter@_W@__crt_stdio_output@@@2@@1@AEAA_NXZ@@Z 0000000140067778 f i libucrt:output.obj
 0001:000668c4       ??$extract_argument_from_va_list@PEAUansi_string@?1??type_case_Z@?$output_processor@_WV?$stream_output_adapter@_W@__crt_stdio_output@@V?$positional_parameter_base@_WV?$stream_output_adapter@_W@__crt_stdio_output@@@2@@__crt_stdio_output@@AEAA_NXZ@PEAU1?1??234@AEAA_NXZ@@?$standard_base@_WV?$stream_output_adapter@_W@__crt_stdio_output@@@__crt_stdio_output@@IEAA_NAEAPEAUansi_string@?1??type_case_Z@?$output_processor@_WV?$stream_output_adapter@_W@__crt_stdio_output@@V?$positional_parameter_base@_WV?$stream_output_adapter@_W@__crt_stdio_output@@@2@@1@AEAA_NXZ@@Z 00000001400678c4 f i libucrt:output.obj
 0001:000668e0       ??$extract_argument_from_va_list@PEAUansi_string@?1??type_case_Z@?$output_processor@_WV?$stream_output_adapter@_W@__crt_stdio_output@@V?$standard_base@_WV?$stream_output_adapter@_W@__crt_stdio_output@@@2@@__crt_stdio_output@@AEAA_NXZ@PEAU1?1??234@AEAA_NXZ@@?$standard_base@_WV?$stream_output_adapter@_W@__crt_stdio_output@@@__crt_stdio_output@@IEAA_NAEAPEAUansi_string@?1??type_case_Z@?$output_processor@_WV?$stream_output_adapter@_W@__crt_stdio_output@@V?$standard_base@_WV?$stream_output_adapter@_W@__crt_stdio_output@@@2@@1@AEAA_NXZ@@Z 00000001400678e0 f i libucrt:output.obj
 0001:000668fc       ??$extract_argument_from_va_list@PEAUansi_string@?1??type_case_Z@?$output_processor@_WV?$string_output_adapter@_W@__crt_stdio_output@@V?$format_validation_base@_WV?$string_output_adapter@_W@__crt_stdio_output@@@2@@__crt_stdio_output@@AEAA_NXZ@PEAU1?1??234@AEAA_NXZ@@?$standard_base@_WV?$string_output_adapter@_W@__crt_stdio_output@@@__crt_stdio_output@@IEAA_NAEAPEAUansi_string@?1??type_case_Z@?$output_processor@_WV?$string_output_adapter@_W@__crt_stdio_output@@V?$format_validation_base@_WV?$string_output_adapter@_W@__crt_stdio_output@@@2@@1@AEAA_NXZ@@Z 00000001400678fc f i libucrt:output.obj
 0001:00066918       ??$extract_argument_from_va_list@PEAUansi_string@?1??type_case_Z@?$output_processor@_WV?$string_output_adapter@_W@__crt_stdio_output@@V?$positional_parameter_base@_WV?$string_output_adapter@_W@__crt_stdio_output@@@2@@__crt_stdio_output@@AEAA_NXZ@PEAU1?1??234@AEAA_NXZ@@?$positional_parameter_base@_WV?$string_output_adapter@_W@__crt_stdio_output@@@__crt_stdio_output@@IEAA_NAEAPEAUansi_string@?1??type_case_Z@?$output_processor@_WV?$string_output_adapter@_W@__crt_stdio_output@@V?$positional_parameter_base@_WV?$string_output_adapter@_W@__crt_stdio_output@@@2@@1@AEAA_NXZ@@Z 0000000140067918 f i libucrt:output.obj
 0001:00066a64       ??$extract_argument_from_va_list@PEAUansi_string@?1??type_case_Z@?$output_processor@_WV?$string_output_adapter@_W@__crt_stdio_output@@V?$positional_parameter_base@_WV?$string_output_adapter@_W@__crt_stdio_output@@@2@@__crt_stdio_output@@AEAA_NXZ@PEAU1?1??234@AEAA_NXZ@@?$standard_base@_WV?$string_output_adapter@_W@__crt_stdio_output@@@__crt_stdio_output@@IEAA_NAEAPEAUansi_string@?1??type_case_Z@?$output_processor@_WV?$string_output_adapter@_W@__crt_stdio_output@@V?$positional_parameter_base@_WV?$string_output_adapter@_W@__crt_stdio_output@@@2@@1@AEAA_NXZ@@Z 0000000140067a64 f i libucrt:output.obj
 0001:00066a80       ??$extract_argument_from_va_list@PEAUansi_string@?1??type_case_Z@?$output_processor@_WV?$string_output_adapter@_W@__crt_stdio_output@@V?$standard_base@_WV?$string_output_adapter@_W@__crt_stdio_output@@@2@@__crt_stdio_output@@AEAA_NXZ@PEAU1?1??234@AEAA_NXZ@@?$standard_base@_WV?$string_output_adapter@_W@__crt_stdio_output@@@__crt_stdio_output@@IEAA_NAEAPEAUansi_string@?1??type_case_Z@?$output_processor@_WV?$string_output_adapter@_W@__crt_stdio_output@@V?$standard_base@_WV?$string_output_adapter@_W@__crt_stdio_output@@@2@@1@AEAA_NXZ@@Z 0000000140067a80 f i libucrt:output.obj
 0001:00066a9c       ??$extract_argument_from_va_list@PEAXPEAX@?$positional_parameter_base@DV?$stream_output_adapter@D@__crt_stdio_output@@@__crt_stdio_output@@IEAA_NAEAPEAX@Z 0000000140067a9c f i libucrt:output.obj
 0001:00066be4       ??$extract_argument_from_va_list@PEAXPEAX@?$positional_parameter_base@DV?$string_output_adapter@D@__crt_stdio_output@@@__crt_stdio_output@@IEAA_NAEAPEAX@Z 0000000140067be4 f i libucrt:output.obj
 0001:00066d2c       ??$extract_argument_from_va_list@PEAXPEAX@?$positional_parameter_base@_WV?$stream_output_adapter@_W@__crt_stdio_output@@@__crt_stdio_output@@IEAA_NAEAPEAX@Z 0000000140067d2c f i libucrt:output.obj
 0001:00066e78       ??$extract_argument_from_va_list@PEAXPEAX@?$positional_parameter_base@_WV?$string_output_adapter@_W@__crt_stdio_output@@@__crt_stdio_output@@IEAA_NAEAPEAX@Z 0000000140067e78 f i libucrt:output.obj
 0001:00066fc4       ??$extract_argument_from_va_list@PEAXPEAX@?$standard_base@DV?$stream_output_adapter@D@__crt_stdio_output@@@__crt_stdio_output@@IEAA_NAEAPEAX@Z 0000000140067fc4 f i libucrt:output.obj
 0001:00066fe0       ??$extract_argument_from_va_list@PEAXPEAX@?$standard_base@DV?$string_output_adapter@D@__crt_stdio_output@@@__crt_stdio_output@@IEAA_NAEAPEAX@Z 0000000140067fe0 f i libucrt:output.obj
 0001:00066ffc       ??$extract_argument_from_va_list@PEAXPEAX@?$standard_base@_WV?$stream_output_adapter@_W@__crt_stdio_output@@@__crt_stdio_output@@IEAA_NAEAPEAX@Z 0000000140067ffc f i libucrt:output.obj
 0001:00067018       ??$extract_argument_from_va_list@PEAXPEAX@?$standard_base@_WV?$string_output_adapter@_W@__crt_stdio_output@@@__crt_stdio_output@@IEAA_NAEAPEAX@Z 0000000140068018 f i libucrt:output.obj
 0001:00067034       ??$extract_argument_from_va_list@U_CRT_DOUBLE@@U1@@?$positional_parameter_base@DV?$stream_output_adapter@D@__crt_stdio_output@@@__crt_stdio_output@@IEAA_NAEAU_CRT_DOUBLE@@@Z 0000000140068034 f i libucrt:output.obj
 0001:00067180       ??$extract_argument_from_va_list@U_CRT_DOUBLE@@U1@@?$positional_parameter_base@DV?$string_output_adapter@D@__crt_stdio_output@@@__crt_stdio_output@@IEAA_NAEAU_CRT_DOUBLE@@@Z 0000000140068180 f i libucrt:output.obj
 0001:000672cc       ??$extract_argument_from_va_list@U_CRT_DOUBLE@@U1@@?$positional_parameter_base@_WV?$stream_output_adapter@_W@__crt_stdio_output@@@__crt_stdio_output@@IEAA_NAEAU_CRT_DOUBLE@@@Z 00000001400682cc f i libucrt:output.obj
 0001:00067418       ??$extract_argument_from_va_list@U_CRT_DOUBLE@@U1@@?$positional_parameter_base@_WV?$string_output_adapter@_W@__crt_stdio_output@@@__crt_stdio_output@@IEAA_NAEAU_CRT_DOUBLE@@@Z 0000000140068418 f i libucrt:output.obj
 0001:00067564       ??$extract_argument_from_va_list@U_CRT_DOUBLE@@U1@@?$standard_base@DV?$stream_output_adapter@D@__crt_stdio_output@@@__crt_stdio_output@@IEAA_NAEAU_CRT_DOUBLE@@@Z 0000000140068564 f i libucrt:output.obj
 0001:00067584       ??$extract_argument_from_va_list@U_CRT_DOUBLE@@U1@@?$standard_base@DV?$string_output_adapter@D@__crt_stdio_output@@@__crt_stdio_output@@IEAA_NAEAU_CRT_DOUBLE@@@Z 0000000140068584 f i libucrt:output.obj
 0001:000675a4       ??$extract_argument_from_va_list@U_CRT_DOUBLE@@U1@@?$standard_base@_WV?$stream_output_adapter@_W@__crt_stdio_output@@@__crt_stdio_output@@IEAA_NAEAU_CRT_DOUBLE@@@Z 00000001400685a4 f i libucrt:output.obj
 0001:000675c4       ??$extract_argument_from_va_list@U_CRT_DOUBLE@@U1@@?$standard_base@_WV?$string_output_adapter@_W@__crt_stdio_output@@@__crt_stdio_output@@IEAA_NAEAU_CRT_DOUBLE@@@Z 00000001400685c4 f i libucrt:output.obj
 0001:000675e4       ??$extract_argument_from_va_list@_J_J@?$positional_parameter_base@DV?$stream_output_adapter@D@__crt_stdio_output@@@__crt_stdio_output@@IEAA_NAEA_J@Z 00000001400685e4 f i libucrt:output.obj
 0001:0006772c       ??$extract_argument_from_va_list@_J_J@?$positional_parameter_base@DV?$string_output_adapter@D@__crt_stdio_output@@@__crt_stdio_output@@IEAA_NAEA_J@Z 000000014006872c f i libucrt:output.obj
 0001:00067874       ??$extract_argument_from_va_list@_J_J@?$positional_parameter_base@_WV?$stream_output_adapter@_W@__crt_stdio_output@@@__crt_stdio_output@@IEAA_NAEA_J@Z 0000000140068874 f i libucrt:output.obj
 0001:000679c0       ??$extract_argument_from_va_list@_J_J@?$positional_parameter_base@_WV?$string_output_adapter@_W@__crt_stdio_output@@@__crt_stdio_output@@IEAA_NAEA_J@Z 00000001400689c0 f i libucrt:output.obj
 0001:00067b0c       ??$extract_argument_from_va_list@_J_J@?$standard_base@DV?$stream_output_adapter@D@__crt_stdio_output@@@__crt_stdio_output@@IEAA_NAEA_J@Z 0000000140068b0c f i libucrt:output.obj
 0001:00067b28       ??$extract_argument_from_va_list@_J_J@?$standard_base@DV?$string_output_adapter@D@__crt_stdio_output@@@__crt_stdio_output@@IEAA_NAEA_J@Z 0000000140068b28 f i libucrt:output.obj
 0001:00067b44       ??$extract_argument_from_va_list@_J_J@?$standard_base@_WV?$stream_output_adapter@_W@__crt_stdio_output@@@__crt_stdio_output@@IEAA_NAEA_J@Z 0000000140068b44 f i libucrt:output.obj
 0001:00067b60       ??$extract_argument_from_va_list@_J_J@?$standard_base@_WV?$string_output_adapter@_W@__crt_stdio_output@@@__crt_stdio_output@@IEAA_NAEA_J@Z 0000000140068b60 f i libucrt:output.obj
 0001:00067b7c       ??$extract_argument_from_va_list@_K_J@?$positional_parameter_base@DV?$stream_output_adapter@D@__crt_stdio_output@@@__crt_stdio_output@@IEAA_NAEA_J@Z 0000000140068b7c f i libucrt:output.obj
 0001:00067cc4       ??$extract_argument_from_va_list@_K_J@?$positional_parameter_base@DV?$string_output_adapter@D@__crt_stdio_output@@@__crt_stdio_output@@IEAA_NAEA_J@Z 0000000140068cc4 f i libucrt:output.obj
 0001:00067e0c       ??$extract_argument_from_va_list@_K_J@?$positional_parameter_base@_WV?$stream_output_adapter@_W@__crt_stdio_output@@@__crt_stdio_output@@IEAA_NAEA_J@Z 0000000140068e0c f i libucrt:output.obj
 0001:00067f58       ??$extract_argument_from_va_list@_K_J@?$positional_parameter_base@_WV?$string_output_adapter@_W@__crt_stdio_output@@@__crt_stdio_output@@IEAA_NAEA_J@Z 0000000140068f58 f i libucrt:output.obj
 0001:000680a4       ??$extract_argument_from_va_list@_K_J@?$standard_base@DV?$stream_output_adapter@D@__crt_stdio_output@@@__crt_stdio_output@@IEAA_NAEA_J@Z 00000001400690a4 f i libucrt:output.obj
 0001:000680c0       ??$extract_argument_from_va_list@_K_J@?$standard_base@DV?$string_output_adapter@D@__crt_stdio_output@@@__crt_stdio_output@@IEAA_NAEA_J@Z 00000001400690c0 f i libucrt:output.obj
 0001:000680dc       ??$extract_argument_from_va_list@_K_J@?$standard_base@_WV?$stream_output_adapter@_W@__crt_stdio_output@@@__crt_stdio_output@@IEAA_NAEA_J@Z 00000001400690dc f i libucrt:output.obj
 0001:000680f8       ??$extract_argument_from_va_list@_K_J@?$standard_base@_WV?$string_output_adapter@_W@__crt_stdio_output@@@__crt_stdio_output@@IEAA_NAEA_J@Z 00000001400690f8 f i libucrt:output.obj
 0001:00068114       ??$extract_argument_from_va_list@_W_W@?$positional_parameter_base@DV?$stream_output_adapter@D@__crt_stdio_output@@@__crt_stdio_output@@IEAA_NAEA_W@Z 0000000140069114 f i libucrt:output.obj
 0001:00068260       ??$extract_argument_from_va_list@_W_W@?$positional_parameter_base@DV?$string_output_adapter@D@__crt_stdio_output@@@__crt_stdio_output@@IEAA_NAEA_W@Z 0000000140069260 f i libucrt:output.obj
 0001:000683ac       ??$extract_argument_from_va_list@_W_W@?$positional_parameter_base@_WV?$stream_output_adapter@_W@__crt_stdio_output@@@__crt_stdio_output@@IEAA_NAEA_W@Z 00000001400693ac f i libucrt:output.obj
 0001:000684f8       ??$extract_argument_from_va_list@_W_W@?$positional_parameter_base@_WV?$string_output_adapter@_W@__crt_stdio_output@@@__crt_stdio_output@@IEAA_NAEA_W@Z 00000001400694f8 f i libucrt:output.obj
 0001:00068644       ??$extract_argument_from_va_list@_W_W@?$standard_base@DV?$stream_output_adapter@D@__crt_stdio_output@@@__crt_stdio_output@@IEAA_NAEA_W@Z 0000000140069644 f i libucrt:output.obj
 0001:00068660       ??$extract_argument_from_va_list@_W_W@?$standard_base@DV?$string_output_adapter@D@__crt_stdio_output@@@__crt_stdio_output@@IEAA_NAEA_W@Z 0000000140069660 f i libucrt:output.obj
 0001:0006867c       ??$extract_argument_from_va_list@_W_W@?$standard_base@_WV?$stream_output_adapter@_W@__crt_stdio_output@@@__crt_stdio_output@@IEAA_NAEA_W@Z 000000014006967c f i libucrt:output.obj
 0001:00068698       ??$extract_argument_from_va_list@_W_W@?$standard_base@_WV?$string_output_adapter@_W@__crt_stdio_output@@@__crt_stdio_output@@IEAA_NAEA_W@Z 0000000140069698 f i libucrt:output.obj
 0001:000686b4       ??$get_parameter_type@D@?$positional_parameter_base@DV?$stream_output_adapter@D@__crt_stdio_output@@@__crt_stdio_output@@CA?AW4parameter_type@01@PEAD@Z 00000001400696b4 f i libucrt:output.obj
 0001:000686bc       ??$get_parameter_type@D@?$positional_parameter_base@DV?$string_output_adapter@D@__crt_stdio_output@@@__crt_stdio_output@@CA?AW4parameter_type@01@PEAD@Z 00000001400696bc f i libucrt:output.obj
 0001:000686c4       ??$get_parameter_type@D@?$positional_parameter_base@_WV?$stream_output_adapter@_W@__crt_stdio_output@@@__crt_stdio_output@@CA?AW4parameter_type@01@PEAD@Z 00000001400696c4 f i libucrt:output.obj
 0001:000686cc       ??$get_parameter_type@D@?$positional_parameter_base@_WV?$string_output_adapter@_W@__crt_stdio_output@@@__crt_stdio_output@@CA?AW4parameter_type@01@PEAD@Z 00000001400696cc f i libucrt:output.obj
 0001:000686d4       ??$get_parameter_type@Uansi_string@?1??type_case_Z@?$output_processor@DV?$stream_output_adapter@D@__crt_stdio_output@@V?$positional_parameter_base@DV?$stream_output_adapter@D@__crt_stdio_output@@@2@@__crt_stdio_output@@AEAA_NXZ@@?$positional_parameter_base@DV?$stream_output_adapter@D@__crt_stdio_output@@@__crt_stdio_output@@CA?AW4parameter_type@01@PEAUansi_string@?1??type_case_Z@?$output_processor@DV?$stream_output_adapter@D@__crt_stdio_output@@V?$positional_parameter_base@DV?$stream_output_adapter@D@__crt_stdio_output@@@2@@1@AEAA_NXZ@@Z 00000001400696d4 f i libucrt:output.obj
 0001:000686dc       ??$get_parameter_type@Uansi_string@?1??type_case_Z@?$output_processor@DV?$string_output_adapter@D@__crt_stdio_output@@V?$positional_parameter_base@DV?$string_output_adapter@D@__crt_stdio_output@@@2@@__crt_stdio_output@@AEAA_NXZ@@?$positional_parameter_base@DV?$string_output_adapter@D@__crt_stdio_output@@@__crt_stdio_output@@CA?AW4parameter_type@01@PEAUansi_string@?1??type_case_Z@?$output_processor@DV?$string_output_adapter@D@__crt_stdio_output@@V?$positional_parameter_base@DV?$string_output_adapter@D@__crt_stdio_output@@@2@@1@AEAA_NXZ@@Z 00000001400696dc f i libucrt:output.obj
 0001:000686e4       ??$get_parameter_type@Uansi_string@?1??type_case_Z@?$output_processor@_WV?$stream_output_adapter@_W@__crt_stdio_output@@V?$positional_parameter_base@_WV?$stream_output_adapter@_W@__crt_stdio_output@@@2@@__crt_stdio_output@@AEAA_NXZ@@?$positional_parameter_base@_WV?$stream_output_adapter@_W@__crt_stdio_output@@@__crt_stdio_output@@CA?AW4parameter_type@01@PEAUansi_string@?1??type_case_Z@?$output_processor@_WV?$stream_output_adapter@_W@__crt_stdio_output@@V?$positional_parameter_base@_WV?$stream_output_adapter@_W@__crt_stdio_output@@@2@@1@AEAA_NXZ@@Z 00000001400696e4 f i libucrt:output.obj
 0001:000686ec       ??$get_parameter_type@Uansi_string@?1??type_case_Z@?$output_processor@_WV?$string_output_adapter@_W@__crt_stdio_output@@V?$positional_parameter_base@_WV?$string_output_adapter@_W@__crt_stdio_output@@@2@@__crt_stdio_output@@AEAA_NXZ@@?$positional_parameter_base@_WV?$string_output_adapter@_W@__crt_stdio_output@@@__crt_stdio_output@@CA?AW4parameter_type@01@PEAUansi_string@?1??type_case_Z@?$output_processor@_WV?$string_output_adapter@_W@__crt_stdio_output@@V?$positional_parameter_base@_WV?$string_output_adapter@_W@__crt_stdio_output@@@2@@1@AEAA_NXZ@@Z 00000001400696ec f i libucrt:output.obj
 0001:000686f4       ??$get_parameter_type@X@?$positional_parameter_base@DV?$stream_output_adapter@D@__crt_stdio_output@@@__crt_stdio_output@@CA?AW4parameter_type@01@PEAX@Z 00000001400696f4 f i libucrt:output.obj
 0001:000686fc       ??$get_parameter_type@X@?$positional_parameter_base@DV?$string_output_adapter@D@__crt_stdio_output@@@__crt_stdio_output@@CA?AW4parameter_type@01@PEAX@Z 00000001400696fc f i libucrt:output.obj
 0001:00068704       ??$get_parameter_type@X@?$positional_parameter_base@_WV?$stream_output_adapter@_W@__crt_stdio_output@@@__crt_stdio_output@@CA?AW4parameter_type@01@PEAX@Z 0000000140069704 f i libucrt:output.obj
 0001:0006870c       ??$get_parameter_type@X@?$positional_parameter_base@_WV?$string_output_adapter@_W@__crt_stdio_output@@@__crt_stdio_output@@CA?AW4parameter_type@01@PEAX@Z 000000014006970c f i libucrt:output.obj
 0001:00068714       ??$is_character_specifier@D@?$positional_parameter_base@DV?$stream_output_adapter@D@__crt_stdio_output@@@__crt_stdio_output@@CA_ND@Z 0000000140069714 f i libucrt:output.obj
 0001:00068720       ??$is_character_specifier@D@?$positional_parameter_base@DV?$string_output_adapter@D@__crt_stdio_output@@@__crt_stdio_output@@CA_ND@Z 0000000140069720 f i libucrt:output.obj
 0001:0006872c       ??$is_character_specifier@_W@?$positional_parameter_base@_WV?$stream_output_adapter@_W@__crt_stdio_output@@@__crt_stdio_output@@CA_N_W@Z 000000014006972c f i libucrt:output.obj
 0001:00068740       ??$is_character_specifier@_W@?$positional_parameter_base@_WV?$string_output_adapter@_W@__crt_stdio_output@@@__crt_stdio_output@@CA_N_W@Z 0000000140069740 f i libucrt:output.obj
 0001:00068754       ??$is_integral_specifier@D@?$positional_parameter_base@DV?$stream_output_adapter@D@__crt_stdio_output@@@__crt_stdio_output@@CA_ND@Z 0000000140069754 f i libucrt:output.obj
 0001:00068780       ??$is_integral_specifier@D@?$positional_parameter_base@DV?$string_output_adapter@D@__crt_stdio_output@@@__crt_stdio_output@@CA_ND@Z 0000000140069780 f i libucrt:output.obj
 0001:000687ac       ??$is_integral_specifier@_W@?$positional_parameter_base@_WV?$stream_output_adapter@_W@__crt_stdio_output@@@__crt_stdio_output@@CA_N_W@Z 00000001400697ac f i libucrt:output.obj
 0001:000687dc       ??$is_integral_specifier@_W@?$positional_parameter_base@_WV?$string_output_adapter@_W@__crt_stdio_output@@@__crt_stdio_output@@CA_N_W@Z 00000001400697dc f i libucrt:output.obj
 0001:0006880c       ??$is_pointer_specifier@D@?$positional_parameter_base@DV?$stream_output_adapter@D@__crt_stdio_output@@@__crt_stdio_output@@CA_ND@Z 000000014006980c f i libucrt:output.obj
 0001:00068814       ??$is_pointer_specifier@D@?$positional_parameter_base@DV?$string_output_adapter@D@__crt_stdio_output@@@__crt_stdio_output@@CA_ND@Z 0000000140069814 f i libucrt:output.obj
 0001:0006881c       ??$is_pointer_specifier@_W@?$positional_parameter_base@_WV?$stream_output_adapter@_W@__crt_stdio_output@@@__crt_stdio_output@@CA_N_W@Z 000000014006981c f i libucrt:output.obj
 0001:00068828       ??$is_pointer_specifier@_W@?$positional_parameter_base@_WV?$string_output_adapter@_W@__crt_stdio_output@@@__crt_stdio_output@@CA_N_W@Z 0000000140069828 f i libucrt:output.obj
 0001:00068834       ??$is_string_specifier@D@?$positional_parameter_base@DV?$stream_output_adapter@D@__crt_stdio_output@@@__crt_stdio_output@@CA_ND@Z 0000000140069834 f i libucrt:output.obj
 0001:00068840       ??$is_string_specifier@D@?$positional_parameter_base@DV?$string_output_adapter@D@__crt_stdio_output@@@__crt_stdio_output@@CA_ND@Z 0000000140069840 f i libucrt:output.obj
 0001:0006884c       ??$is_string_specifier@_W@?$positional_parameter_base@_WV?$stream_output_adapter@_W@__crt_stdio_output@@@__crt_stdio_output@@CA_N_W@Z 000000014006984c f i libucrt:output.obj
 0001:00068860       ??$is_string_specifier@_W@?$positional_parameter_base@_WV?$string_output_adapter@_W@__crt_stdio_output@@@__crt_stdio_output@@CA_N_W@Z 0000000140069860 f i libucrt:output.obj
 0001:00068874       ??$is_wide_character_specifier@D@__crt_stdio_output@@YA_N_KDW4length_modifier@0@@Z 0000000140069874 f i libucrt:output.obj
 0001:000688a8       ??$is_wide_character_specifier@_W@__crt_stdio_output@@YA_N_K_WW4length_modifier@0@@Z 00000001400698a8 f i libucrt:output.obj
 0001:000688f8       ??$parse_integer@KV?$c_string_character_source@D@__crt_strtox@@$0A@@__crt_strtox@@YAKAEAV__crt_cached_ptd_host@@V?$c_string_character_source@D@0@H_N@Z 00000001400698f8 f i libucrt:output.obj
 0001:00068c58       ??$parse_integer@KV?$c_string_character_source@_W@__crt_strtox@@$0A@@__crt_strtox@@YAKAEAV__crt_cached_ptd_host@@V?$c_string_character_source@_W@0@H_N@Z 0000000140069c58 f i libucrt:output.obj
 0001:000695ac       ??$peek_va_arg@C@__crt_stdio_output@@YACPEAD@Z 000000014006a5ac f i libucrt:output.obj
 0001:000695b0       ??$peek_va_arg@E@__crt_stdio_output@@YAEPEAD@Z 000000014006a5b0 f i libucrt:output.obj
 0001:000695b4       ??$peek_va_arg@F@__crt_stdio_output@@YAFPEAD@Z 000000014006a5b4 f i libucrt:output.obj
 0001:000695b8       ??$peek_va_arg@G@__crt_stdio_output@@YAGPEAD@Z 000000014006a5b8 f i libucrt:output.obj
 0001:000695bc       ??$peek_va_arg@H@__crt_stdio_output@@YAHPEAD@Z 000000014006a5bc f i libucrt:output.obj
 0001:000695c0       ??$peek_va_arg@I@__crt_stdio_output@@YAIPEAD@Z 000000014006a5c0 f i libucrt:output.obj
 0001:000695c4       ??$peek_va_arg@PEAD@__crt_stdio_output@@YAPEADPEAD@Z 000000014006a5c4 f i libucrt:output.obj
 0001:000695c8       ??$peek_va_arg@PEAUansi_string@?1??type_case_Z@?$output_processor@DV?$stream_output_adapter@D@__crt_stdio_output@@V?$positional_parameter_base@DV?$stream_output_adapter@D@__crt_stdio_output@@@2@@__crt_stdio_output@@AEAA_NXZ@@__crt_stdio_output@@YAPEAUansi_string@?1??type_case_Z@?$output_processor@DV?$stream_output_adapter@D@__crt_stdio_output@@V?$positional_parameter_base@DV?$stream_output_adapter@D@__crt_stdio_output@@@2@@0@AEAA_NXZ@PEAD@Z 000000014006a5c8 f i libucrt:output.obj
 0001:000695cc       ??$peek_va_arg@PEAUansi_string@?1??type_case_Z@?$output_processor@DV?$string_output_adapter@D@__crt_stdio_output@@V?$positional_parameter_base@DV?$string_output_adapter@D@__crt_stdio_output@@@2@@__crt_stdio_output@@AEAA_NXZ@@__crt_stdio_output@@YAPEAUansi_string@?1??type_case_Z@?$output_processor@DV?$string_output_adapter@D@__crt_stdio_output@@V?$positional_parameter_base@DV?$string_output_adapter@D@__crt_stdio_output@@@2@@0@AEAA_NXZ@PEAD@Z 000000014006a5cc f i libucrt:output.obj
 0001:000695d0       ??$peek_va_arg@PEAUansi_string@?1??type_case_Z@?$output_processor@_WV?$stream_output_adapter@_W@__crt_stdio_output@@V?$positional_parameter_base@_WV?$stream_output_adapter@_W@__crt_stdio_output@@@2@@__crt_stdio_output@@AEAA_NXZ@@__crt_stdio_output@@YAPEAUansi_string@?1??type_case_Z@?$output_processor@_WV?$stream_output_adapter@_W@__crt_stdio_output@@V?$positional_parameter_base@_WV?$stream_output_adapter@_W@__crt_stdio_output@@@2@@0@AEAA_NXZ@PEAD@Z 000000014006a5d0 f i libucrt:output.obj
 0001:000695d4       ??$peek_va_arg@PEAUansi_string@?1??type_case_Z@?$output_processor@_WV?$string_output_adapter@_W@__crt_stdio_output@@V?$positional_parameter_base@_WV?$string_output_adapter@_W@__crt_stdio_output@@@2@@__crt_stdio_output@@AEAA_NXZ@@__crt_stdio_output@@YAPEAUansi_string@?1??type_case_Z@?$output_processor@_WV?$string_output_adapter@_W@__crt_stdio_output@@V?$positional_parameter_base@_WV?$string_output_adapter@_W@__crt_stdio_output@@@2@@0@AEAA_NXZ@PEAD@Z 000000014006a5d4 f i libucrt:output.obj
 0001:000695d8       ??$peek_va_arg@PEAX@__crt_stdio_output@@YAPEAXPEAD@Z 000000014006a5d8 f i libucrt:output.obj
 0001:000695dc       ??$peek_va_arg@U_CRT_DOUBLE@@@__crt_stdio_output@@YA?AU_CRT_DOUBLE@@PEAD@Z 000000014006a5dc f i libucrt:output.obj
 0001:000695e0       ??$peek_va_arg@_J@__crt_stdio_output@@YA_JPEAD@Z 000000014006a5e0 f i libucrt:output.obj
 0001:000695e4       ??$peek_va_arg@_K@__crt_stdio_output@@YA_KPEAD@Z 000000014006a5e4 f i libucrt:output.obj
 0001:000695e8       ??$peek_va_arg@_W@__crt_stdio_output@@YA_WPEAD@Z 000000014006a5e8 f i libucrt:output.obj
 0001:000695ec       ??$puttc_nolock_internal@AEBDPEAU_iobuf@@AEAV__crt_cached_ptd_host@@@?$__crt_char_traits@D@@SAHAEBD$$QEAPEAU_iobuf@@AEAV__crt_cached_ptd_host@@@Z 000000014006a5ec f i libucrt:output.obj
 0001:000695fc       ??$puttc_nolock_internal@AEB_WPEAU_iobuf@@AEAV__crt_cached_ptd_host@@@?$__crt_char_traits@_W@@SAGAEB_W$$QEAPEAU_iobuf@@AEAV__crt_cached_ptd_host@@@Z 000000014006a5fc f i libucrt:output.obj
 0001:0006960c       ??$read_va_arg@C@__crt_stdio_output@@YACAEAPEAD@Z 000000014006a60c f i libucrt:output.obj
 0001:0006961c       ??$read_va_arg@E@__crt_stdio_output@@YAEAEAPEAD@Z 000000014006a61c f i libucrt:output.obj
 0001:0006962c       ??$read_va_arg@F@__crt_stdio_output@@YAFAEAPEAD@Z 000000014006a62c f i libucrt:output.obj
 0001:00069640       ??$read_va_arg@G@__crt_stdio_output@@YAGAEAPEAD@Z 000000014006a640 f i libucrt:output.obj
 0001:00069654       ??$read_va_arg@H@__crt_stdio_output@@YAHAEAPEAD@Z 000000014006a654 f i libucrt:output.obj
 0001:00069664       ??$read_va_arg@I@__crt_stdio_output@@YAIAEAPEAD@Z 000000014006a664 f i libucrt:output.obj
 0001:00069674       ??$read_va_arg@PEAD@__crt_stdio_output@@YAPEADAEAPEAD@Z 000000014006a674 f i libucrt:output.obj
 0001:00069688       ??$read_va_arg@PEAUansi_string@?1??type_case_Z@?$output_processor@DV?$stream_output_adapter@D@__crt_stdio_output@@V?$format_validation_base@DV?$stream_output_adapter@D@__crt_stdio_output@@@2@@__crt_stdio_output@@AEAA_NXZ@@__crt_stdio_output@@YAPEAUansi_string@?1??type_case_Z@?$output_processor@DV?$stream_output_adapter@D@__crt_stdio_output@@V?$format_validation_base@DV?$stream_output_adapter@D@__crt_stdio_output@@@2@@0@AEAA_NXZ@AEAPEAD@Z 000000014006a688 f i libucrt:output.obj
 0001:0006969c       ??$read_va_arg@PEAUansi_string@?1??type_case_Z@?$output_processor@DV?$stream_output_adapter@D@__crt_stdio_output@@V?$positional_parameter_base@DV?$stream_output_adapter@D@__crt_stdio_output@@@2@@__crt_stdio_output@@AEAA_NXZ@@__crt_stdio_output@@YAPEAUansi_string@?1??type_case_Z@?$output_processor@DV?$stream_output_adapter@D@__crt_stdio_output@@V?$positional_parameter_base@DV?$stream_output_adapter@D@__crt_stdio_output@@@2@@0@AEAA_NXZ@AEAPEAD@Z 000000014006a69c f i libucrt:output.obj
 0001:000696b0       ??$read_va_arg@PEAUansi_string@?1??type_case_Z@?$output_processor@DV?$stream_output_adapter@D@__crt_stdio_output@@V?$standard_base@DV?$stream_output_adapter@D@__crt_stdio_output@@@2@@__crt_stdio_output@@AEAA_NXZ@@__crt_stdio_output@@YAPEAUansi_string@?1??type_case_Z@?$output_processor@DV?$stream_output_adapter@D@__crt_stdio_output@@V?$standard_base@DV?$stream_output_adapter@D@__crt_stdio_output@@@2@@0@AEAA_NXZ@AEAPEAD@Z 000000014006a6b0 f i libucrt:output.obj
 0001:000696c4       ??$read_va_arg@PEAUansi_string@?1??type_case_Z@?$output_processor@DV?$string_output_adapter@D@__crt_stdio_output@@V?$format_validation_base@DV?$string_output_adapter@D@__crt_stdio_output@@@2@@__crt_stdio_output@@AEAA_NXZ@@__crt_stdio_output@@YAPEAUansi_string@?1??type_case_Z@?$output_processor@DV?$string_output_adapter@D@__crt_stdio_output@@V?$format_validation_base@DV?$string_output_adapter@D@__crt_stdio_output@@@2@@0@AEAA_NXZ@AEAPEAD@Z 000000014006a6c4 f i libucrt:output.obj
 0001:000696d8       ??$read_va_arg@PEAUansi_string@?1??type_case_Z@?$output_processor@DV?$string_output_adapter@D@__crt_stdio_output@@V?$positional_parameter_base@DV?$string_output_adapter@D@__crt_stdio_output@@@2@@__crt_stdio_output@@AEAA_NXZ@@__crt_stdio_output@@YAPEAUansi_string@?1??type_case_Z@?$output_processor@DV?$string_output_adapter@D@__crt_stdio_output@@V?$positional_parameter_base@DV?$string_output_adapter@D@__crt_stdio_output@@@2@@0@AEAA_NXZ@AEAPEAD@Z 000000014006a6d8 f i libucrt:output.obj
 0001:000696ec       ??$read_va_arg@PEAUansi_string@?1??type_case_Z@?$output_processor@DV?$string_output_adapter@D@__crt_stdio_output@@V?$standard_base@DV?$string_output_adapter@D@__crt_stdio_output@@@2@@__crt_stdio_output@@AEAA_NXZ@@__crt_stdio_output@@YAPEAUansi_string@?1??type_case_Z@?$output_processor@DV?$string_output_adapter@D@__crt_stdio_output@@V?$standard_base@DV?$string_output_adapter@D@__crt_stdio_output@@@2@@0@AEAA_NXZ@AEAPEAD@Z 000000014006a6ec f i libucrt:output.obj
 0001:00069700       ??$read_va_arg@PEAUansi_string@?1??type_case_Z@?$output_processor@_WV?$stream_output_adapter@_W@__crt_stdio_output@@V?$format_validation_base@_WV?$stream_output_adapter@_W@__crt_stdio_output@@@2@@__crt_stdio_output@@AEAA_NXZ@@__crt_stdio_output@@YAPEAUansi_string@?1??type_case_Z@?$output_processor@_WV?$stream_output_adapter@_W@__crt_stdio_output@@V?$format_validation_base@_WV?$stream_output_adapter@_W@__crt_stdio_output@@@2@@0@AEAA_NXZ@AEAPEAD@Z 000000014006a700 f i libucrt:output.obj
 0001:00069714       ??$read_va_arg@PEAUansi_string@?1??type_case_Z@?$output_processor@_WV?$stream_output_adapter@_W@__crt_stdio_output@@V?$positional_parameter_base@_WV?$stream_output_adapter@_W@__crt_stdio_output@@@2@@__crt_stdio_output@@AEAA_NXZ@@__crt_stdio_output@@YAPEAUansi_string@?1??type_case_Z@?$output_processor@_WV?$stream_output_adapter@_W@__crt_stdio_output@@V?$positional_parameter_base@_WV?$stream_output_adapter@_W@__crt_stdio_output@@@2@@0@AEAA_NXZ@AEAPEAD@Z 000000014006a714 f i libucrt:output.obj
 0001:00069728       ??$read_va_arg@PEAUansi_string@?1??type_case_Z@?$output_processor@_WV?$stream_output_adapter@_W@__crt_stdio_output@@V?$standard_base@_WV?$stream_output_adapter@_W@__crt_stdio_output@@@2@@__crt_stdio_output@@AEAA_NXZ@@__crt_stdio_output@@YAPEAUansi_string@?1??type_case_Z@?$output_processor@_WV?$stream_output_adapter@_W@__crt_stdio_output@@V?$standard_base@_WV?$stream_output_adapter@_W@__crt_stdio_output@@@2@@0@AEAA_NXZ@AEAPEAD@Z 000000014006a728 f i libucrt:output.obj
 0001:0006973c       ??$read_va_arg@PEAUansi_string@?1??type_case_Z@?$output_processor@_WV?$string_output_adapter@_W@__crt_stdio_output@@V?$format_validation_base@_WV?$string_output_adapter@_W@__crt_stdio_output@@@2@@__crt_stdio_output@@AEAA_NXZ@@__crt_stdio_output@@YAPEAUansi_string@?1??type_case_Z@?$output_processor@_WV?$string_output_adapter@_W@__crt_stdio_output@@V?$format_validation_base@_WV?$string_output_adapter@_W@__crt_stdio_output@@@2@@0@AEAA_NXZ@AEAPEAD@Z 000000014006a73c f i libucrt:output.obj
 0001:00069750       ??$read_va_arg@PEAUansi_string@?1??type_case_Z@?$output_processor@_WV?$string_output_adapter@_W@__crt_stdio_output@@V?$positional_parameter_base@_WV?$string_output_adapter@_W@__crt_stdio_output@@@2@@__crt_stdio_output@@AEAA_NXZ@@__crt_stdio_output@@YAPEAUansi_string@?1??type_case_Z@?$output_processor@_WV?$string_output_adapter@_W@__crt_stdio_output@@V?$positional_parameter_base@_WV?$string_output_adapter@_W@__crt_stdio_output@@@2@@0@AEAA_NXZ@AEAPEAD@Z 000000014006a750 f i libucrt:output.obj
 0001:00069764       ??$read_va_arg@PEAUansi_string@?1??type_case_Z@?$output_processor@_WV?$string_output_adapter@_W@__crt_stdio_output@@V?$standard_base@_WV?$string_output_adapter@_W@__crt_stdio_output@@@2@@__crt_stdio_output@@AEAA_NXZ@@__crt_stdio_output@@YAPEAUansi_string@?1??type_case_Z@?$output_processor@_WV?$string_output_adapter@_W@__crt_stdio_output@@V?$standard_base@_WV?$string_output_adapter@_W@__crt_stdio_output@@@2@@0@AEAA_NXZ@AEAPEAD@Z 000000014006a764 f i libucrt:output.obj
 0001:00069778       ??$read_va_arg@PEAX@__crt_stdio_output@@YAPEAXAEAPEAD@Z 000000014006a778 f i libucrt:output.obj
 0001:0006978c       ??$read_va_arg@U_CRT_DOUBLE@@@__crt_stdio_output@@YA?AU_CRT_DOUBLE@@AEAPEAD@Z 000000014006a78c f i libucrt:output.obj
 0001:000697a0       ??$read_va_arg@_J@__crt_stdio_output@@YA_JAEAPEAD@Z 000000014006a7a0 f i libucrt:output.obj
 0001:000697b4       ??$read_va_arg@_K@__crt_stdio_output@@YA_KAEAPEAD@Z 000000014006a7b4 f i libucrt:output.obj
 0001:000697c8       ??$read_va_arg@_W@__crt_stdio_output@@YA_WAEAPEAD@Z 000000014006a7c8 f i libucrt:output.obj
 0001:000697dc       ??$scratch_count@D@formatting_buffer@__crt_stdio_output@@QEBA_KXZ 000000014006a7dc f i libucrt:output.obj
 0001:00069800       ??$scratch_data@D@formatting_buffer@__crt_stdio_output@@QEAAPEADXZ 000000014006a800 f i libucrt:output.obj
 0001:0006982c       ??$type_case_integer@$07@?$output_processor@DV?$stream_output_adapter@D@__crt_stdio_output@@V?$format_validation_base@DV?$stream_output_adapter@D@__crt_stdio_output@@@2@@__crt_stdio_output@@AEAA_N_N@Z 000000014006a82c f i libucrt:output.obj
 0001:00069ab0       ??$type_case_integer@$07@?$output_processor@DV?$stream_output_adapter@D@__crt_stdio_output@@V?$positional_parameter_base@DV?$stream_output_adapter@D@__crt_stdio_output@@@2@@__crt_stdio_output@@AEAA_N_N@Z 000000014006aab0 f i libucrt:output.obj
 0001:00069d68       ??$type_case_integer@$07@?$output_processor@DV?$stream_output_adapter@D@__crt_stdio_output@@V?$standard_base@DV?$stream_output_adapter@D@__crt_stdio_output@@@2@@__crt_stdio_output@@AEAA_N_N@Z 000000014006ad68 f i libucrt:output.obj
 0001:00069fec       ??$type_case_integer@$07@?$output_processor@DV?$string_output_adapter@D@__crt_stdio_output@@V?$format_validation_base@DV?$string_output_adapter@D@__crt_stdio_output@@@2@@__crt_stdio_output@@AEAA_N_N@Z 000000014006afec f i libucrt:output.obj
 0001:0006a270       ??$type_case_integer@$07@?$output_processor@DV?$string_output_adapter@D@__crt_stdio_output@@V?$positional_parameter_base@DV?$string_output_adapter@D@__crt_stdio_output@@@2@@__crt_stdio_output@@AEAA_N_N@Z 000000014006b270 f i libucrt:output.obj
 0001:0006a528       ??$type_case_integer@$07@?$output_processor@DV?$string_output_adapter@D@__crt_stdio_output@@V?$standard_base@DV?$string_output_adapter@D@__crt_stdio_output@@@2@@__crt_stdio_output@@AEAA_N_N@Z 000000014006b528 f i libucrt:output.obj
 0001:0006a7ac       ??$type_case_integer@$07@?$output_processor@_WV?$stream_output_adapter@_W@__crt_stdio_output@@V?$format_validation_base@_WV?$stream_output_adapter@_W@__crt_stdio_output@@@2@@__crt_stdio_output@@AEAA_N_N@Z 000000014006b7ac f i libucrt:output.obj
 0001:0006aa38       ??$type_case_integer@$07@?$output_processor@_WV?$stream_output_adapter@_W@__crt_stdio_output@@V?$positional_parameter_base@_WV?$stream_output_adapter@_W@__crt_stdio_output@@@2@@__crt_stdio_output@@AEAA_N_N@Z 000000014006ba38 f i libucrt:output.obj
 0001:0006acf8       ??$type_case_integer@$07@?$output_processor@_WV?$stream_output_adapter@_W@__crt_stdio_output@@V?$standard_base@_WV?$stream_output_adapter@_W@__crt_stdio_output@@@2@@__crt_stdio_output@@AEAA_N_N@Z 000000014006bcf8 f i libucrt:output.obj
 0001:0006af84       ??$type_case_integer@$07@?$output_processor@_WV?$string_output_adapter@_W@__crt_stdio_output@@V?$format_validation_base@_WV?$string_output_adapter@_W@__crt_stdio_output@@@2@@__crt_stdio_output@@AEAA_N_N@Z 000000014006bf84 f i libucrt:output.obj
 0001:0006b210       ??$type_case_integer@$07@?$output_processor@_WV?$string_output_adapter@_W@__crt_stdio_output@@V?$positional_parameter_base@_WV?$string_output_adapter@_W@__crt_stdio_output@@@2@@__crt_stdio_output@@AEAA_N_N@Z 000000014006c210 f i libucrt:output.obj
 0001:0006b4d0       ??$type_case_integer@$07@?$output_processor@_WV?$string_output_adapter@_W@__crt_stdio_output@@V?$standard_base@_WV?$string_output_adapter@_W@__crt_stdio_output@@@2@@__crt_stdio_output@@AEAA_N_N@Z 000000014006c4d0 f i libucrt:output.obj
 0001:0006b75c       ??$type_case_integer@$09@?$output_processor@DV?$stream_output_adapter@D@__crt_stdio_output@@V?$format_validation_base@DV?$stream_output_adapter@D@__crt_stdio_output@@@2@@__crt_stdio_output@@AEAA_N_N@Z 000000014006c75c f i libucrt:output.obj
 0001:0006b9e0       ??$type_case_integer@$09@?$output_processor@DV?$stream_output_adapter@D@__crt_stdio_output@@V?$positional_parameter_base@DV?$stream_output_adapter@D@__crt_stdio_output@@@2@@__crt_stdio_output@@AEAA_N_N@Z 000000014006c9e0 f i libucrt:output.obj
 0001:0006bc98       ??$type_case_integer@$09@?$output_processor@DV?$stream_output_adapter@D@__crt_stdio_output@@V?$standard_base@DV?$stream_output_adapter@D@__crt_stdio_output@@@2@@__crt_stdio_output@@AEAA_N_N@Z 000000014006cc98 f i libucrt:output.obj
 0001:0006bf1c       ??$type_case_integer@$09@?$output_processor@DV?$string_output_adapter@D@__crt_stdio_output@@V?$format_validation_base@DV?$string_output_adapter@D@__crt_stdio_output@@@2@@__crt_stdio_output@@AEAA_N_N@Z 000000014006cf1c f i libucrt:output.obj
 0001:0006c1a0       ??$type_case_integer@$09@?$output_processor@DV?$string_output_adapter@D@__crt_stdio_output@@V?$positional_parameter_base@DV?$string_output_adapter@D@__crt_stdio_output@@@2@@__crt_stdio_output@@AEAA_N_N@Z 000000014006d1a0 f i libucrt:output.obj
 0001:0006c458       ??$type_case_integer@$09@?$output_processor@DV?$string_output_adapter@D@__crt_stdio_output@@V?$standard_base@DV?$string_output_adapter@D@__crt_stdio_output@@@2@@__crt_stdio_output@@AEAA_N_N@Z 000000014006d458 f i libucrt:output.obj
 0001:0006c6dc       ??$type_case_integer@$09@?$output_processor@_WV?$stream_output_adapter@_W@__crt_stdio_output@@V?$format_validation_base@_WV?$stream_output_adapter@_W@__crt_stdio_output@@@2@@__crt_stdio_output@@AEAA_N_N@Z 000000014006d6dc f i libucrt:output.obj
 0001:0006c968       ??$type_case_integer@$09@?$output_processor@_WV?$stream_output_adapter@_W@__crt_stdio_output@@V?$positional_parameter_base@_WV?$stream_output_adapter@_W@__crt_stdio_output@@@2@@__crt_stdio_output@@AEAA_N_N@Z 000000014006d968 f i libucrt:output.obj
 0001:0006cc28       ??$type_case_integer@$09@?$output_processor@_WV?$stream_output_adapter@_W@__crt_stdio_output@@V?$standard_base@_WV?$stream_output_adapter@_W@__crt_stdio_output@@@2@@__crt_stdio_output@@AEAA_N_N@Z 000000014006dc28 f i libucrt:output.obj
 0001:0006ceb4       ??$type_case_integer@$09@?$output_processor@_WV?$string_output_adapter@_W@__crt_stdio_output@@V?$format_validation_base@_WV?$string_output_adapter@_W@__crt_stdio_output@@@2@@__crt_stdio_output@@AEAA_N_N@Z 000000014006deb4 f i libucrt:output.obj
 0001:0006d140       ??$type_case_integer@$09@?$output_processor@_WV?$string_output_adapter@_W@__crt_stdio_output@@V?$positional_parameter_base@_WV?$string_output_adapter@_W@__crt_stdio_output@@@2@@__crt_stdio_output@@AEAA_N_N@Z 000000014006e140 f i libucrt:output.obj
 0001:0006d400       ??$type_case_integer@$09@?$output_processor@_WV?$string_output_adapter@_W@__crt_stdio_output@@V?$standard_base@_WV?$string_output_adapter@_W@__crt_stdio_output@@@2@@__crt_stdio_output@@AEAA_N_N@Z 000000014006e400 f i libucrt:output.obj
 0001:0006d68c       ??$type_case_integer@$0BA@@?$output_processor@DV?$stream_output_adapter@D@__crt_stdio_output@@V?$format_validation_base@DV?$stream_output_adapter@D@__crt_stdio_output@@@2@@__crt_stdio_output@@AEAA_N_N@Z 000000014006e68c f i libucrt:output.obj
 0001:0006d910       ??$type_case_integer@$0BA@@?$output_processor@DV?$stream_output_adapter@D@__crt_stdio_output@@V?$positional_parameter_base@DV?$stream_output_adapter@D@__crt_stdio_output@@@2@@__crt_stdio_output@@AEAA_N_N@Z 000000014006e910 f i libucrt:output.obj
 0001:0006dbc8       ??$type_case_integer@$0BA@@?$output_processor@DV?$stream_output_adapter@D@__crt_stdio_output@@V?$standard_base@DV?$stream_output_adapter@D@__crt_stdio_output@@@2@@__crt_stdio_output@@AEAA_N_N@Z 000000014006ebc8 f i libucrt:output.obj
 0001:0006de4c       ??$type_case_integer@$0BA@@?$output_processor@DV?$string_output_adapter@D@__crt_stdio_output@@V?$format_validation_base@DV?$string_output_adapter@D@__crt_stdio_output@@@2@@__crt_stdio_output@@AEAA_N_N@Z 000000014006ee4c f i libucrt:output.obj
 0001:0006e0d0       ??$type_case_integer@$0BA@@?$output_processor@DV?$string_output_adapter@D@__crt_stdio_output@@V?$positional_parameter_base@DV?$string_output_adapter@D@__crt_stdio_output@@@2@@__crt_stdio_output@@AEAA_N_N@Z 000000014006f0d0 f i libucrt:output.obj
 0001:0006e388       ??$type_case_integer@$0BA@@?$output_processor@DV?$string_output_adapter@D@__crt_stdio_output@@V?$standard_base@DV?$string_output_adapter@D@__crt_stdio_output@@@2@@__crt_stdio_output@@AEAA_N_N@Z 000000014006f388 f i libucrt:output.obj
 0001:0006e60c       ??$type_case_integer@$0BA@@?$output_processor@_WV?$stream_output_adapter@_W@__crt_stdio_output@@V?$format_validation_base@_WV?$stream_output_adapter@_W@__crt_stdio_output@@@2@@__crt_stdio_output@@AEAA_N_N@Z 000000014006f60c f i libucrt:output.obj
 0001:0006e898       ??$type_case_integer@$0BA@@?$output_processor@_WV?$stream_output_adapter@_W@__crt_stdio_output@@V?$positional_parameter_base@_WV?$stream_output_adapter@_W@__crt_stdio_output@@@2@@__crt_stdio_output@@AEAA_N_N@Z 000000014006f898 f i libucrt:output.obj
 0001:0006eb58       ??$type_case_integer@$0BA@@?$output_processor@_WV?$stream_output_adapter@_W@__crt_stdio_output@@V?$standard_base@_WV?$stream_output_adapter@_W@__crt_stdio_output@@@2@@__crt_stdio_output@@AEAA_N_N@Z 000000014006fb58 f i libucrt:output.obj
 0001:0006ede4       ??$type_case_integer@$0BA@@?$output_processor@_WV?$string_output_adapter@_W@__crt_stdio_output@@V?$format_validation_base@_WV?$string_output_adapter@_W@__crt_stdio_output@@@2@@__crt_stdio_output@@AEAA_N_N@Z 000000014006fde4 f i libucrt:output.obj
 0001:0006f070       ??$type_case_integer@$0BA@@?$output_processor@_WV?$string_output_adapter@_W@__crt_stdio_output@@V?$positional_parameter_base@_WV?$string_output_adapter@_W@__crt_stdio_output@@@2@@__crt_stdio_output@@AEAA_N_N@Z 0000000140070070 f i libucrt:output.obj
 0001:0006f330       ??$type_case_integer@$0BA@@?$output_processor@_WV?$string_output_adapter@_W@__crt_stdio_output@@V?$standard_base@_WV?$string_output_adapter@_W@__crt_stdio_output@@@2@@__crt_stdio_output@@AEAA_N_N@Z 0000000140070330 f i libucrt:output.obj
 0001:0006f5bc       ??$type_case_integer_parse_into_buffer@I$07@?$output_processor@DV?$stream_output_adapter@D@__crt_stdio_output@@V?$format_validation_base@DV?$stream_output_adapter@D@__crt_stdio_output@@@2@@__crt_stdio_output@@AEAAXI_N@Z 00000001400705bc f i libucrt:output.obj
 0001:0006f644       ??$type_case_integer_parse_into_buffer@I$07@?$output_processor@DV?$stream_output_adapter@D@__crt_stdio_output@@V?$positional_parameter_base@DV?$stream_output_adapter@D@__crt_stdio_output@@@2@@__crt_stdio_output@@AEAAXI_N@Z 0000000140070644 f i libucrt:output.obj
 0001:0006f6cc       ??$type_case_integer_parse_into_buffer@I$07@?$output_processor@DV?$stream_output_adapter@D@__crt_stdio_output@@V?$standard_base@DV?$stream_output_adapter@D@__crt_stdio_output@@@2@@__crt_stdio_output@@AEAAXI_N@Z 00000001400706cc f i libucrt:output.obj
 0001:0006f754       ??$type_case_integer_parse_into_buffer@I$07@?$output_processor@DV?$string_output_adapter@D@__crt_stdio_output@@V?$format_validation_base@DV?$string_output_adapter@D@__crt_stdio_output@@@2@@__crt_stdio_output@@AEAAXI_N@Z 0000000140070754 f i libucrt:output.obj
 0001:0006f7dc       ??$type_case_integer_parse_into_buffer@I$07@?$output_processor@DV?$string_output_adapter@D@__crt_stdio_output@@V?$positional_parameter_base@DV?$string_output_adapter@D@__crt_stdio_output@@@2@@__crt_stdio_output@@AEAAXI_N@Z 00000001400707dc f i libucrt:output.obj
 0001:0006f864       ??$type_case_integer_parse_into_buffer@I$07@?$output_processor@DV?$string_output_adapter@D@__crt_stdio_output@@V?$standard_base@DV?$string_output_adapter@D@__crt_stdio_output@@@2@@__crt_stdio_output@@AEAAXI_N@Z 0000000140070864 f i libucrt:output.obj
 0001:0006f8ec       ??$type_case_integer_parse_into_buffer@I$07@?$output_processor@_WV?$stream_output_adapter@_W@__crt_stdio_output@@V?$format_validation_base@_WV?$stream_output_adapter@_W@__crt_stdio_output@@@2@@__crt_stdio_output@@AEAAXI_N@Z 00000001400708ec f i libucrt:output.obj
 0001:0006f994       ??$type_case_integer_parse_into_buffer@I$07@?$output_processor@_WV?$stream_output_adapter@_W@__crt_stdio_output@@V?$positional_parameter_base@_WV?$stream_output_adapter@_W@__crt_stdio_output@@@2@@__crt_stdio_output@@AEAAXI_N@Z 0000000140070994 f i libucrt:output.obj
 0001:0006fa3c       ??$type_case_integer_parse_into_buffer@I$07@?$output_processor@_WV?$stream_output_adapter@_W@__crt_stdio_output@@V?$standard_base@_WV?$stream_output_adapter@_W@__crt_stdio_output@@@2@@__crt_stdio_output@@AEAAXI_N@Z 0000000140070a3c f i libucrt:output.obj
 0001:0006fae4       ??$type_case_integer_parse_into_buffer@I$07@?$output_processor@_WV?$string_output_adapter@_W@__crt_stdio_output@@V?$format_validation_base@_WV?$string_output_adapter@_W@__crt_stdio_output@@@2@@__crt_stdio_output@@AEAAXI_N@Z 0000000140070ae4 f i libucrt:output.obj
 0001:0006fb8c       ??$type_case_integer_parse_into_buffer@I$07@?$output_processor@_WV?$string_output_adapter@_W@__crt_stdio_output@@V?$positional_parameter_base@_WV?$string_output_adapter@_W@__crt_stdio_output@@@2@@__crt_stdio_output@@AEAAXI_N@Z 0000000140070b8c f i libucrt:output.obj
 0001:0006fc34       ??$type_case_integer_parse_into_buffer@I$07@?$output_processor@_WV?$string_output_adapter@_W@__crt_stdio_output@@V?$standard_base@_WV?$string_output_adapter@_W@__crt_stdio_output@@@2@@__crt_stdio_output@@AEAAXI_N@Z 0000000140070c34 f i libucrt:output.obj
 0001:0006fcdc       ??$type_case_integer_parse_into_buffer@I$09@?$output_processor@DV?$stream_output_adapter@D@__crt_stdio_output@@V?$format_validation_base@DV?$stream_output_adapter@D@__crt_stdio_output@@@2@@__crt_stdio_output@@AEAAXI_N@Z 0000000140070cdc f i libucrt:output.obj
 0001:0006fdb0       ??$type_case_integer_parse_into_buffer@I$09@?$output_processor@DV?$stream_output_adapter@D@__crt_stdio_output@@V?$positional_parameter_base@DV?$stream_output_adapter@D@__crt_stdio_output@@@2@@__crt_stdio_output@@AEAAXI_N@Z 0000000140070db0 f i libucrt:output.obj
 0001:0006fe84       ??$type_case_integer_parse_into_buffer@I$09@?$output_processor@DV?$stream_output_adapter@D@__crt_stdio_output@@V?$standard_base@DV?$stream_output_adapter@D@__crt_stdio_output@@@2@@__crt_stdio_output@@AEAAXI_N@Z 0000000140070e84 f i libucrt:output.obj
 0001:0006ff58       ??$type_case_integer_parse_into_buffer@I$09@?$output_processor@DV?$string_output_adapter@D@__crt_stdio_output@@V?$format_validation_base@DV?$string_output_adapter@D@__crt_stdio_output@@@2@@__crt_stdio_output@@AEAAXI_N@Z 0000000140070f58 f i libucrt:output.obj
 0001:0007002c       ??$type_case_integer_parse_into_buffer@I$09@?$output_processor@DV?$string_output_adapter@D@__crt_stdio_output@@V?$positional_parameter_base@DV?$string_output_adapter@D@__crt_stdio_output@@@2@@__crt_stdio_output@@AEAAXI_N@Z 000000014007102c f i libucrt:output.obj
 0001:00070100       ??$type_case_integer_parse_into_buffer@I$09@?$output_processor@DV?$string_output_adapter@D@__crt_stdio_output@@V?$standard_base@DV?$string_output_adapter@D@__crt_stdio_output@@@2@@__crt_stdio_output@@AEAAXI_N@Z 0000000140071100 f i libucrt:output.obj
 0001:000701d4       ??$type_case_integer_parse_into_buffer@I$09@?$output_processor@_WV?$stream_output_adapter@_W@__crt_stdio_output@@V?$format_validation_base@_WV?$stream_output_adapter@_W@__crt_stdio_output@@@2@@__crt_stdio_output@@AEAAXI_N@Z 00000001400711d4 f i libucrt:output.obj
 0001:000702c0       ??$type_case_integer_parse_into_buffer@I$09@?$output_processor@_WV?$stream_output_adapter@_W@__crt_stdio_output@@V?$positional_parameter_base@_WV?$stream_output_adapter@_W@__crt_stdio_output@@@2@@__crt_stdio_output@@AEAAXI_N@Z 00000001400712c0 f i libucrt:output.obj
 0001:000703ac       ??$type_case_integer_parse_into_buffer@I$09@?$output_processor@_WV?$stream_output_adapter@_W@__crt_stdio_output@@V?$standard_base@_WV?$stream_output_adapter@_W@__crt_stdio_output@@@2@@__crt_stdio_output@@AEAAXI_N@Z 00000001400713ac f i libucrt:output.obj
 0001:00070498       ??$type_case_integer_parse_into_buffer@I$09@?$output_processor@_WV?$string_output_adapter@_W@__crt_stdio_output@@V?$format_validation_base@_WV?$string_output_adapter@_W@__crt_stdio_output@@@2@@__crt_stdio_output@@AEAAXI_N@Z 0000000140071498 f i libucrt:output.obj
 0001:00070584       ??$type_case_integer_parse_into_buffer@I$09@?$output_processor@_WV?$string_output_adapter@_W@__crt_stdio_output@@V?$positional_parameter_base@_WV?$string_output_adapter@_W@__crt_stdio_output@@@2@@__crt_stdio_output@@AEAAXI_N@Z 0000000140071584 f i libucrt:output.obj
 0001:00070670       ??$type_case_integer_parse_into_buffer@I$09@?$output_processor@_WV?$string_output_adapter@_W@__crt_stdio_output@@V?$standard_base@_WV?$string_output_adapter@_W@__crt_stdio_output@@@2@@__crt_stdio_output@@AEAAXI_N@Z 0000000140071670 f i libucrt:output.obj
 0001:0007075c       ??$type_case_integer_parse_into_buffer@I$0BA@@?$output_processor@DV?$stream_output_adapter@D@__crt_stdio_output@@V?$format_validation_base@DV?$stream_output_adapter@D@__crt_stdio_output@@@2@@__crt_stdio_output@@AEAAXI_N@Z 000000014007175c f i libucrt:output.obj
 0001:00070804       ??$type_case_integer_parse_into_buffer@I$0BA@@?$output_processor@DV?$stream_output_adapter@D@__crt_stdio_output@@V?$positional_parameter_base@DV?$stream_output_adapter@D@__crt_stdio_output@@@2@@__crt_stdio_output@@AEAAXI_N@Z 0000000140071804 f i libucrt:output.obj
 0001:000708ac       ??$type_case_integer_parse_into_buffer@I$0BA@@?$output_processor@DV?$stream_output_adapter@D@__crt_stdio_output@@V?$standard_base@DV?$stream_output_adapter@D@__crt_stdio_output@@@2@@__crt_stdio_output@@AEAAXI_N@Z 00000001400718ac f i libucrt:output.obj
 0001:00070954       ??$type_case_integer_parse_into_buffer@I$0BA@@?$output_processor@DV?$string_output_adapter@D@__crt_stdio_output@@V?$format_validation_base@DV?$string_output_adapter@D@__crt_stdio_output@@@2@@__crt_stdio_output@@AEAAXI_N@Z 0000000140071954 f i libucrt:output.obj
 0001:000709fc       ??$type_case_integer_parse_into_buffer@I$0BA@@?$output_processor@DV?$string_output_adapter@D@__crt_stdio_output@@V?$positional_parameter_base@DV?$string_output_adapter@D@__crt_stdio_output@@@2@@__crt_stdio_output@@AEAAXI_N@Z 00000001400719fc f i libucrt:output.obj
 0001:00070aa4       ??$type_case_integer_parse_into_buffer@I$0BA@@?$output_processor@DV?$string_output_adapter@D@__crt_stdio_output@@V?$standard_base@DV?$string_output_adapter@D@__crt_stdio_output@@@2@@__crt_stdio_output@@AEAAXI_N@Z 0000000140071aa4 f i libucrt:output.obj
 0001:00070b4c       ??$type_case_integer_parse_into_buffer@I$0BA@@?$output_processor@_WV?$stream_output_adapter@_W@__crt_stdio_output@@V?$format_validation_base@_WV?$stream_output_adapter@_W@__crt_stdio_output@@@2@@__crt_stdio_output@@AEAAXI_N@Z 0000000140071b4c f i libucrt:output.obj
 0001:00070c14       ??$type_case_integer_parse_into_buffer@I$0BA@@?$output_processor@_WV?$stream_output_adapter@_W@__crt_stdio_output@@V?$positional_parameter_base@_WV?$stream_output_adapter@_W@__crt_stdio_output@@@2@@__crt_stdio_output@@AEAAXI_N@Z 0000000140071c14 f i libucrt:output.obj
 0001:00070cdc       ??$type_case_integer_parse_into_buffer@I$0BA@@?$output_processor@_WV?$stream_output_adapter@_W@__crt_stdio_output@@V?$standard_base@_WV?$stream_output_adapter@_W@__crt_stdio_output@@@2@@__crt_stdio_output@@AEAAXI_N@Z 0000000140071cdc f i libucrt:output.obj
 0001:00070da4       ??$type_case_integer_parse_into_buffer@I$0BA@@?$output_processor@_WV?$string_output_adapter@_W@__crt_stdio_output@@V?$format_validation_base@_WV?$string_output_adapter@_W@__crt_stdio_output@@@2@@__crt_stdio_output@@AEAAXI_N@Z 0000000140071da4 f i libucrt:output.obj
 0001:00070e6c       ??$type_case_integer_parse_into_buffer@I$0BA@@?$output_processor@_WV?$string_output_adapter@_W@__crt_stdio_output@@V?$positional_parameter_base@_WV?$string_output_adapter@_W@__crt_stdio_output@@@2@@__crt_stdio_output@@AEAAXI_N@Z 0000000140071e6c f i libucrt:output.obj
 0001:00070f34       ??$type_case_integer_parse_into_buffer@I$0BA@@?$output_processor@_WV?$string_output_adapter@_W@__crt_stdio_output@@V?$standard_base@_WV?$string_output_adapter@_W@__crt_stdio_output@@@2@@__crt_stdio_output@@AEAAXI_N@Z 0000000140071f34 f i libucrt:output.obj
 0001:00070ffc       ??$type_case_integer_parse_into_buffer@_K$07@?$output_processor@DV?$stream_output_adapter@D@__crt_stdio_output@@V?$format_validation_base@DV?$stream_output_adapter@D@__crt_stdio_output@@@2@@__crt_stdio_output@@AEAAX_K_N@Z 0000000140071ffc f i libucrt:output.obj
 0001:00071084       ??$type_case_integer_parse_into_buffer@_K$07@?$output_processor@DV?$stream_output_adapter@D@__crt_stdio_output@@V?$positional_parameter_base@DV?$stream_output_adapter@D@__crt_stdio_output@@@2@@__crt_stdio_output@@AEAAX_K_N@Z 0000000140072084 f i libucrt:output.obj
 0001:0007110c       ??$type_case_integer_parse_into_buffer@_K$07@?$output_processor@DV?$stream_output_adapter@D@__crt_stdio_output@@V?$standard_base@DV?$stream_output_adapter@D@__crt_stdio_output@@@2@@__crt_stdio_output@@AEAAX_K_N@Z 000000014007210c f i libucrt:output.obj
 0001:00071194       ??$type_case_integer_parse_into_buffer@_K$07@?$output_processor@DV?$string_output_adapter@D@__crt_stdio_output@@V?$format_validation_base@DV?$string_output_adapter@D@__crt_stdio_output@@@2@@__crt_stdio_output@@AEAAX_K_N@Z 0000000140072194 f i libucrt:output.obj
 0001:0007121c       ??$type_case_integer_parse_into_buffer@_K$07@?$output_processor@DV?$string_output_adapter@D@__crt_stdio_output@@V?$positional_parameter_base@DV?$string_output_adapter@D@__crt_stdio_output@@@2@@__crt_stdio_output@@AEAAX_K_N@Z 000000014007221c f i libucrt:output.obj
 0001:000712a4       ??$type_case_integer_parse_into_buffer@_K$07@?$output_processor@DV?$string_output_adapter@D@__crt_stdio_output@@V?$standard_base@DV?$string_output_adapter@D@__crt_stdio_output@@@2@@__crt_stdio_output@@AEAAX_K_N@Z 00000001400722a4 f i libucrt:output.obj
 0001:0007132c       ??$type_case_integer_parse_into_buffer@_K$07@?$output_processor@_WV?$stream_output_adapter@_W@__crt_stdio_output@@V?$format_validation_base@_WV?$stream_output_adapter@_W@__crt_stdio_output@@@2@@__crt_stdio_output@@AEAAX_K_N@Z 000000014007232c f i libucrt:output.obj
 0001:000713d4       ??$type_case_integer_parse_into_buffer@_K$07@?$output_processor@_WV?$stream_output_adapter@_W@__crt_stdio_output@@V?$positional_parameter_base@_WV?$stream_output_adapter@_W@__crt_stdio_output@@@2@@__crt_stdio_output@@AEAAX_K_N@Z 00000001400723d4 f i libucrt:output.obj
 0001:0007147c       ??$type_case_integer_parse_into_buffer@_K$07@?$output_processor@_WV?$stream_output_adapter@_W@__crt_stdio_output@@V?$standard_base@_WV?$stream_output_adapter@_W@__crt_stdio_output@@@2@@__crt_stdio_output@@AEAAX_K_N@Z 000000014007247c f i libucrt:output.obj
 0001:00071524       ??$type_case_integer_parse_into_buffer@_K$07@?$output_processor@_WV?$string_output_adapter@_W@__crt_stdio_output@@V?$format_validation_base@_WV?$string_output_adapter@_W@__crt_stdio_output@@@2@@__crt_stdio_output@@AEAAX_K_N@Z 0000000140072524 f i libucrt:output.obj
 0001:000715cc       ??$type_case_integer_parse_into_buffer@_K$07@?$output_processor@_WV?$string_output_adapter@_W@__crt_stdio_output@@V?$positional_parameter_base@_WV?$string_output_adapter@_W@__crt_stdio_output@@@2@@__crt_stdio_output@@AEAAX_K_N@Z 00000001400725cc f i libucrt:output.obj
 0001:00071674       ??$type_case_integer_parse_into_buffer@_K$07@?$output_processor@_WV?$string_output_adapter@_W@__crt_stdio_output@@V?$standard_base@_WV?$string_output_adapter@_W@__crt_stdio_output@@@2@@__crt_stdio_output@@AEAAX_K_N@Z 0000000140072674 f i libucrt:output.obj
 0001:0007171c       ??$type_case_integer_parse_into_buffer@_K$09@?$output_processor@DV?$stream_output_adapter@D@__crt_stdio_output@@V?$format_validation_base@DV?$stream_output_adapter@D@__crt_stdio_output@@@2@@__crt_stdio_output@@AEAAX_K_N@Z 000000014007271c f i libucrt:output.obj
 0001:000717f8       ??$type_case_integer_parse_into_buffer@_K$09@?$output_processor@DV?$stream_output_adapter@D@__crt_stdio_output@@V?$positional_parameter_base@DV?$stream_output_adapter@D@__crt_stdio_output@@@2@@__crt_stdio_output@@AEAAX_K_N@Z 00000001400727f8 f i libucrt:output.obj
 0001:000718d4       ??$type_case_integer_parse_into_buffer@_K$09@?$output_processor@DV?$stream_output_adapter@D@__crt_stdio_output@@V?$standard_base@DV?$stream_output_adapter@D@__crt_stdio_output@@@2@@__crt_stdio_output@@AEAAX_K_N@Z 00000001400728d4 f i libucrt:output.obj
 0001:000719b0       ??$type_case_integer_parse_into_buffer@_K$09@?$output_processor@DV?$string_output_adapter@D@__crt_stdio_output@@V?$format_validation_base@DV?$string_output_adapter@D@__crt_stdio_output@@@2@@__crt_stdio_output@@AEAAX_K_N@Z 00000001400729b0 f i libucrt:output.obj
 0001:00071a8c       ??$type_case_integer_parse_into_buffer@_K$09@?$output_processor@DV?$string_output_adapter@D@__crt_stdio_output@@V?$positional_parameter_base@DV?$string_output_adapter@D@__crt_stdio_output@@@2@@__crt_stdio_output@@AEAAX_K_N@Z 0000000140072a8c f i libucrt:output.obj
 0001:00071b68       ??$type_case_integer_parse_into_buffer@_K$09@?$output_processor@DV?$string_output_adapter@D@__crt_stdio_output@@V?$standard_base@DV?$string_output_adapter@D@__crt_stdio_output@@@2@@__crt_stdio_output@@AEAAX_K_N@Z 0000000140072b68 f i libucrt:output.obj
 0001:00071c44       ??$type_case_integer_parse_into_buffer@_K$09@?$output_processor@_WV?$stream_output_adapter@_W@__crt_stdio_output@@V?$format_validation_base@_WV?$stream_output_adapter@_W@__crt_stdio_output@@@2@@__crt_stdio_output@@AEAAX_K_N@Z 0000000140072c44 f i libucrt:output.obj
 0001:00071d38       ??$type_case_integer_parse_into_buffer@_K$09@?$output_processor@_WV?$stream_output_adapter@_W@__crt_stdio_output@@V?$positional_parameter_base@_WV?$stream_output_adapter@_W@__crt_stdio_output@@@2@@__crt_stdio_output@@AEAAX_K_N@Z 0000000140072d38 f i libucrt:output.obj
 0001:00071e2c       ??$type_case_integer_parse_into_buffer@_K$09@?$output_processor@_WV?$stream_output_adapter@_W@__crt_stdio_output@@V?$standard_base@_WV?$stream_output_adapter@_W@__crt_stdio_output@@@2@@__crt_stdio_output@@AEAAX_K_N@Z 0000000140072e2c f i libucrt:output.obj
 0001:00071f20       ??$type_case_integer_parse_into_buffer@_K$09@?$output_processor@_WV?$string_output_adapter@_W@__crt_stdio_output@@V?$format_validation_base@_WV?$string_output_adapter@_W@__crt_stdio_output@@@2@@__crt_stdio_output@@AEAAX_K_N@Z 0000000140072f20 f i libucrt:output.obj
 0001:00072014       ??$type_case_integer_parse_into_buffer@_K$09@?$output_processor@_WV?$string_output_adapter@_W@__crt_stdio_output@@V?$positional_parameter_base@_WV?$string_output_adapter@_W@__crt_stdio_output@@@2@@__crt_stdio_output@@AEAAX_K_N@Z 0000000140073014 f i libucrt:output.obj
 0001:00072108       ??$type_case_integer_parse_into_buffer@_K$09@?$output_processor@_WV?$string_output_adapter@_W@__crt_stdio_output@@V?$standard_base@_WV?$string_output_adapter@_W@__crt_stdio_output@@@2@@__crt_stdio_output@@AEAAX_K_N@Z 0000000140073108 f i libucrt:output.obj
 0001:000721fc       ??$type_case_integer_parse_into_buffer@_K$0BA@@?$output_processor@DV?$stream_output_adapter@D@__crt_stdio_output@@V?$format_validation_base@DV?$stream_output_adapter@D@__crt_stdio_output@@@2@@__crt_stdio_output@@AEAAX_K_N@Z 00000001400731fc f i libucrt:output.obj
 0001:000722a4       ??$type_case_integer_parse_into_buffer@_K$0BA@@?$output_processor@DV?$stream_output_adapter@D@__crt_stdio_output@@V?$positional_parameter_base@DV?$stream_output_adapter@D@__crt_stdio_output@@@2@@__crt_stdio_output@@AEAAX_K_N@Z 00000001400732a4 f i libucrt:output.obj
 0001:0007234c       ??$type_case_integer_parse_into_buffer@_K$0BA@@?$output_processor@DV?$stream_output_adapter@D@__crt_stdio_output@@V?$standard_base@DV?$stream_output_adapter@D@__crt_stdio_output@@@2@@__crt_stdio_output@@AEAAX_K_N@Z 000000014007334c f i libucrt:output.obj
 0001:000723f4       ??$type_case_integer_parse_into_buffer@_K$0BA@@?$output_processor@DV?$string_output_adapter@D@__crt_stdio_output@@V?$format_validation_base@DV?$string_output_adapter@D@__crt_stdio_output@@@2@@__crt_stdio_output@@AEAAX_K_N@Z 00000001400733f4 f i libucrt:output.obj
 0001:0007249c       ??$type_case_integer_parse_into_buffer@_K$0BA@@?$output_processor@DV?$string_output_adapter@D@__crt_stdio_output@@V?$positional_parameter_base@DV?$string_output_adapter@D@__crt_stdio_output@@@2@@__crt_stdio_output@@AEAAX_K_N@Z 000000014007349c f i libucrt:output.obj
 0001:00072544       ??$type_case_integer_parse_into_buffer@_K$0BA@@?$output_processor@DV?$string_output_adapter@D@__crt_stdio_output@@V?$standard_base@DV?$string_output_adapter@D@__crt_stdio_output@@@2@@__crt_stdio_output@@AEAAX_K_N@Z 0000000140073544 f i libucrt:output.obj
 0001:000725ec       ??$type_case_integer_parse_into_buffer@_K$0BA@@?$output_processor@_WV?$stream_output_adapter@_W@__crt_stdio_output@@V?$format_validation_base@_WV?$stream_output_adapter@_W@__crt_stdio_output@@@2@@__crt_stdio_output@@AEAAX_K_N@Z 00000001400735ec f i libucrt:output.obj
 0001:000726b4       ??$type_case_integer_parse_into_buffer@_K$0BA@@?$output_processor@_WV?$stream_output_adapter@_W@__crt_stdio_output@@V?$positional_parameter_base@_WV?$stream_output_adapter@_W@__crt_stdio_output@@@2@@__crt_stdio_output@@AEAAX_K_N@Z 00000001400736b4 f i libucrt:output.obj
 0001:0007277c       ??$type_case_integer_parse_into_buffer@_K$0BA@@?$output_processor@_WV?$stream_output_adapter@_W@__crt_stdio_output@@V?$standard_base@_WV?$stream_output_adapter@_W@__crt_stdio_output@@@2@@__crt_stdio_output@@AEAAX_K_N@Z 000000014007377c f i libucrt:output.obj
 0001:00072844       ??$type_case_integer_parse_into_buffer@_K$0BA@@?$output_processor@_WV?$string_output_adapter@_W@__crt_stdio_output@@V?$format_validation_base@_WV?$string_output_adapter@_W@__crt_stdio_output@@@2@@__crt_stdio_output@@AEAAX_K_N@Z 0000000140073844 f i libucrt:output.obj
 0001:0007290c       ??$type_case_integer_parse_into_buffer@_K$0BA@@?$output_processor@_WV?$string_output_adapter@_W@__crt_stdio_output@@V?$positional_parameter_base@_WV?$string_output_adapter@_W@__crt_stdio_output@@@2@@__crt_stdio_output@@AEAAX_K_N@Z 000000014007390c f i libucrt:output.obj
 0001:000729d4       ??$type_case_integer_parse_into_buffer@_K$0BA@@?$output_processor@_WV?$string_output_adapter@_W@__crt_stdio_output@@V?$standard_base@_WV?$string_output_adapter@_W@__crt_stdio_output@@@2@@__crt_stdio_output@@AEAAX_K_N@Z 00000001400739d4 f i libucrt:output.obj
 0001:00072a9c       ??$write_multiple_characters@V?$stream_output_adapter@D@__crt_stdio_output@@D@__crt_stdio_output@@YAXAEBV?$stream_output_adapter@D@0@DHQEAHAEAV__crt_cached_ptd_host@@@Z 0000000140073a9c f i libucrt:output.obj
 0001:00072b54       ??$write_multiple_characters@V?$stream_output_adapter@_W@__crt_stdio_output@@D@__crt_stdio_output@@YAXAEBV?$stream_output_adapter@_W@0@DHQEAHAEAV__crt_cached_ptd_host@@@Z 0000000140073b54 f i libucrt:output.obj
 0001:00072c10       ??$write_multiple_characters@V?$string_output_adapter@D@__crt_stdio_output@@D@__crt_stdio_output@@YAXAEBV?$string_output_adapter@D@0@DHQEAHAEAV__crt_cached_ptd_host@@@Z 0000000140073c10 f i libucrt:output.obj
 0001:00072ca4       ??$write_multiple_characters@V?$string_output_adapter@_W@__crt_stdio_output@@D@__crt_stdio_output@@YAXAEBV?$string_output_adapter@_W@0@DHQEAHAEAV__crt_cached_ptd_host@@@Z 0000000140073ca4 f i libucrt:output.obj
 0001:00072ed0       ??0?$common_data@D@__crt_stdio_output@@IEAA@AEAV__crt_cached_ptd_host@@@Z 0000000140073ed0 f i libucrt:output.obj
 0001:00072f18       ??0?$common_data@_W@__crt_stdio_output@@IEAA@AEAV__crt_cached_ptd_host@@@Z 0000000140073f18 f i libucrt:output.obj
 0001:00072f64       ??0?$output_adapter_data@DV?$stream_output_adapter@D@__crt_stdio_output@@@__crt_stdio_output@@IEAA@AEBV?$stream_output_adapter@D@1@_KQEBDAEAV__crt_cached_ptd_host@@QEAD@Z 0000000140073f64 f i libucrt:output.obj
 0001:00072fdc       ??0?$output_adapter_data@DV?$string_output_adapter@D@__crt_stdio_output@@@__crt_stdio_output@@IEAA@AEBV?$string_output_adapter@D@1@_KQEBDAEAV__crt_cached_ptd_host@@QEAD@Z 0000000140073fdc f i libucrt:output.obj
 0001:00073054       ??0?$output_adapter_data@_WV?$stream_output_adapter@_W@__crt_stdio_output@@@__crt_stdio_output@@IEAA@AEBV?$stream_output_adapter@_W@1@_KQEB_WAEAV__crt_cached_ptd_host@@QEAD@Z 0000000140074054 f i libucrt:output.obj
 0001:000730d4       ??0?$output_adapter_data@_WV?$string_output_adapter@_W@__crt_stdio_output@@@__crt_stdio_output@@IEAA@AEBV?$string_output_adapter@_W@1@_KQEB_WAEAV__crt_cached_ptd_host@@QEAD@Z 00000001400740d4 f i libucrt:output.obj
 0001:00073154       ??0?$output_processor@DV?$stream_output_adapter@D@__crt_stdio_output@@V?$format_validation_base@DV?$stream_output_adapter@D@__crt_stdio_output@@@2@@__crt_stdio_output@@QEAA@AEBV?$stream_output_adapter@D@1@_KQEBDAEAV__crt_cached_ptd_host@@QEAD@Z 0000000140074154 f i libucrt:output.obj
 0001:000731d4       ??0?$output_processor@DV?$stream_output_adapter@D@__crt_stdio_output@@V?$positional_parameter_base@DV?$stream_output_adapter@D@__crt_stdio_output@@@2@@__crt_stdio_output@@QEAA@AEBV?$stream_output_adapter@D@1@_KQEBDAEAV__crt_cached_ptd_host@@QEAD@Z 00000001400741d4 f i libucrt:output.obj
 0001:0007327c       ??0?$output_processor@DV?$stream_output_adapter@D@__crt_stdio_output@@V?$standard_base@DV?$stream_output_adapter@D@__crt_stdio_output@@@2@@__crt_stdio_output@@QEAA@AEBV?$stream_output_adapter@D@1@_KQEBDAEAV__crt_cached_ptd_host@@QEAD@Z 000000014007427c f i libucrt:output.obj
 0001:000732fc       ??0?$output_processor@DV?$string_output_adapter@D@__crt_stdio_output@@V?$format_validation_base@DV?$string_output_adapter@D@__crt_stdio_output@@@2@@__crt_stdio_output@@QEAA@AEBV?$string_output_adapter@D@1@_KQEBDAEAV__crt_cached_ptd_host@@QEAD@Z 00000001400742fc f i libucrt:output.obj
 0001:0007337c       ??0?$output_processor@DV?$string_output_adapter@D@__crt_stdio_output@@V?$positional_parameter_base@DV?$string_output_adapter@D@__crt_stdio_output@@@2@@__crt_stdio_output@@QEAA@AEBV?$string_output_adapter@D@1@_KQEBDAEAV__crt_cached_ptd_host@@QEAD@Z 000000014007437c f i libucrt:output.obj
 0001:00073424       ??0?$output_processor@DV?$string_output_adapter@D@__crt_stdio_output@@V?$standard_base@DV?$string_output_adapter@D@__crt_stdio_output@@@2@@__crt_stdio_output@@QEAA@AEBV?$string_output_adapter@D@1@_KQEBDAEAV__crt_cached_ptd_host@@QEAD@Z 0000000140074424 f i libucrt:output.obj
 0001:000734a4       ??0?$output_processor@_WV?$stream_output_adapter@_W@__crt_stdio_output@@V?$format_validation_base@_WV?$stream_output_adapter@_W@__crt_stdio_output@@@2@@__crt_stdio_output@@QEAA@AEBV?$stream_output_adapter@_W@1@_KQEB_WAEAV__crt_cached_ptd_host@@QEAD@Z 00000001400744a4 f i libucrt:output.obj
 0001:0007352c       ??0?$output_processor@_WV?$stream_output_adapter@_W@__crt_stdio_output@@V?$positional_parameter_base@_WV?$stream_output_adapter@_W@__crt_stdio_output@@@2@@__crt_stdio_output@@QEAA@AEBV?$stream_output_adapter@_W@1@_KQEB_WAEAV__crt_cached_ptd_host@@QEAD@Z 000000014007452c f i libucrt:output.obj
 0001:000735d8       ??0?$output_processor@_WV?$stream_output_adapter@_W@__crt_stdio_output@@V?$standard_base@_WV?$stream_output_adapter@_W@__crt_stdio_output@@@2@@__crt_stdio_output@@QEAA@AEBV?$stream_output_adapter@_W@1@_KQEB_WAEAV__crt_cached_ptd_host@@QEAD@Z 00000001400745d8 f i libucrt:output.obj
 0001:00073660       ??0?$output_processor@_WV?$string_output_adapter@_W@__crt_stdio_output@@V?$format_validation_base@_WV?$string_output_adapter@_W@__crt_stdio_output@@@2@@__crt_stdio_output@@QEAA@AEBV?$string_output_adapter@_W@1@_KQEB_WAEAV__crt_cached_ptd_host@@QEAD@Z 0000000140074660 f i libucrt:output.obj
 0001:000736e8       ??0?$output_processor@_WV?$string_output_adapter@_W@__crt_stdio_output@@V?$positional_parameter_base@_WV?$string_output_adapter@_W@__crt_stdio_output@@@2@@__crt_stdio_output@@QEAA@AEBV?$string_output_adapter@_W@1@_KQEB_WAEAV__crt_cached_ptd_host@@QEAD@Z 00000001400746e8 f i libucrt:output.obj
 0001:00073794       ??0?$output_processor@_WV?$string_output_adapter@_W@__crt_stdio_output@@V?$standard_base@_WV?$string_output_adapter@_W@__crt_stdio_output@@@2@@__crt_stdio_output@@QEAA@AEBV?$string_output_adapter@_W@1@_KQEB_WAEAV__crt_cached_ptd_host@@QEAD@Z 0000000140074794 f i libucrt:output.obj
 0001:0007381c       ??0?$stream_output_adapter@D@__crt_stdio_output@@QEAA@QEAU_iobuf@@@Z 000000014007481c f i libucrt:output.obj
 0001:00073824       ??0?$stream_output_adapter@_W@__crt_stdio_output@@QEAA@QEAU_iobuf@@@Z 0000000140074824 f i libucrt:output.obj
 0001:0007382c       ??0?$string_output_adapter@D@__crt_stdio_output@@QEAA@QEAU?$string_output_adapter_context@D@1@@Z 000000014007482c f i libucrt:output.obj
 0001:00073834       ??0?$string_output_adapter@_W@__crt_stdio_output@@QEAA@QEAU?$string_output_adapter_context@_W@1@@Z 0000000140074834 f i libucrt:output.obj
 0001:0007383c       ??0__acrt_stdio_temporary_buffering_guard@@QEAA@QEAU_iobuf@@AEAV__crt_cached_ptd_host@@@Z 000000014007483c f i libucrt:output.obj
 0001:0007386c       ??0__crt_stdio_stream@@QEAA@QEAU_iobuf@@@Z 000000014007486c f i libucrt:output.obj
 0001:00073874       ??0formatting_buffer@__crt_stdio_output@@QEAA@XZ 0000000140074874 f i libucrt:output.obj
 0001:00073890       ??0guard@?$cached@H@__crt_cached_ptd_host@@QEAA@AEAU12@@Z 0000000140074890 f i libucrt:output.obj
 0001:000738a8       ??1?$common_data@D@__crt_stdio_output@@QEAA@XZ 00000001400748a8 f i libucrt:output.obj
 0001:000738d4       ??1?$common_data@_W@__crt_stdio_output@@QEAA@XZ 00000001400748d4 f i libucrt:output.obj
 0001:00073900       ??1?$format_validation_base@DV?$stream_output_adapter@D@__crt_stdio_output@@@__crt_stdio_output@@QEAA@XZ 0000000140074900 f i libucrt:output.obj
 0001:0007392c       ??1?$format_validation_base@DV?$string_output_adapter@D@__crt_stdio_output@@@__crt_stdio_output@@QEAA@XZ 000000014007492c f i libucrt:output.obj
 0001:00073958       ??1?$format_validation_base@_WV?$stream_output_adapter@_W@__crt_stdio_output@@@__crt_stdio_output@@QEAA@XZ 0000000140074958 f i libucrt:output.obj
 0001:00073984       ??1?$format_validation_base@_WV?$string_output_adapter@_W@__crt_stdio_output@@@__crt_stdio_output@@QEAA@XZ 0000000140074984 f i libucrt:output.obj
 0001:000739b0       ??1?$output_adapter_data@DV?$stream_output_adapter@D@__crt_stdio_output@@@__crt_stdio_output@@QEAA@XZ 00000001400749b0 f i libucrt:output.obj
 0001:000739dc       ??1?$output_adapter_data@DV?$string_output_adapter@D@__crt_stdio_output@@@__crt_stdio_output@@QEAA@XZ 00000001400749dc f i libucrt:output.obj
 0001:00073a08       ??1?$output_adapter_data@_WV?$stream_output_adapter@_W@__crt_stdio_output@@@__crt_stdio_output@@QEAA@XZ 0000000140074a08 f i libucrt:output.obj
 0001:00073a34       ??1?$output_adapter_data@_WV?$string_output_adapter@_W@__crt_stdio_output@@@__crt_stdio_output@@QEAA@XZ 0000000140074a34 f i libucrt:output.obj
 0001:00073a60       ??1?$output_processor@DV?$stream_output_adapter@D@__crt_stdio_output@@V?$format_validation_base@DV?$stream_output_adapter@D@__crt_stdio_output@@@2@@__crt_stdio_output@@QEAA@XZ 0000000140074a60 f i libucrt:output.obj
 0001:00073a8c       ??1?$output_processor@DV?$stream_output_adapter@D@__crt_stdio_output@@V?$positional_parameter_base@DV?$stream_output_adapter@D@__crt_stdio_output@@@2@@__crt_stdio_output@@QEAA@XZ 0000000140074a8c f i libucrt:output.obj
 0001:00073ab8       ??1?$output_processor@DV?$stream_output_adapter@D@__crt_stdio_output@@V?$standard_base@DV?$stream_output_adapter@D@__crt_stdio_output@@@2@@__crt_stdio_output@@QEAA@XZ 0000000140074ab8 f i libucrt:output.obj
 0001:00073ae4       ??1?$output_processor@DV?$string_output_adapter@D@__crt_stdio_output@@V?$format_validation_base@DV?$string_output_adapter@D@__crt_stdio_output@@@2@@__crt_stdio_output@@QEAA@XZ 0000000140074ae4 f i libucrt:output.obj
 0001:00073b10       ??1?$output_processor@DV?$string_output_adapter@D@__crt_stdio_output@@V?$positional_parameter_base@DV?$string_output_adapter@D@__crt_stdio_output@@@2@@__crt_stdio_output@@QEAA@XZ 0000000140074b10 f i libucrt:output.obj
 0001:00073b3c       ??1?$output_processor@DV?$string_output_adapter@D@__crt_stdio_output@@V?$standard_base@DV?$string_output_adapter@D@__crt_stdio_output@@@2@@__crt_stdio_output@@QEAA@XZ 0000000140074b3c f i libucrt:output.obj
 0001:00073b68       ??1?$output_processor@_WV?$stream_output_adapter@_W@__crt_stdio_output@@V?$format_validation_base@_WV?$stream_output_adapter@_W@__crt_stdio_output@@@2@@__crt_stdio_output@@QEAA@XZ 0000000140074b68 f i libucrt:output.obj
 0001:00073b94       ??1?$output_processor@_WV?$stream_output_adapter@_W@__crt_stdio_output@@V?$positional_parameter_base@_WV?$stream_output_adapter@_W@__crt_stdio_output@@@2@@__crt_stdio_output@@QEAA@XZ 0000000140074b94 f i libucrt:output.obj
 0001:00073bc0       ??1?$output_processor@_WV?$stream_output_adapter@_W@__crt_stdio_output@@V?$standard_base@_WV?$stream_output_adapter@_W@__crt_stdio_output@@@2@@__crt_stdio_output@@QEAA@XZ 0000000140074bc0 f i libucrt:output.obj
 0001:00073bec       ??1?$output_processor@_WV?$string_output_adapter@_W@__crt_stdio_output@@V?$format_validation_base@_WV?$string_output_adapter@_W@__crt_stdio_output@@@2@@__crt_stdio_output@@QEAA@XZ 0000000140074bec f i libucrt:output.obj
 0001:00073c18       ??1?$output_processor@_WV?$string_output_adapter@_W@__crt_stdio_output@@V?$positional_parameter_base@_WV?$string_output_adapter@_W@__crt_stdio_output@@@2@@__crt_stdio_output@@QEAA@XZ 0000000140074c18 f i libucrt:output.obj
 0001:00073c44       ??1?$output_processor@_WV?$string_output_adapter@_W@__crt_stdio_output@@V?$standard_base@_WV?$string_output_adapter@_W@__crt_stdio_output@@@2@@__crt_stdio_output@@QEAA@XZ 0000000140074c44 f i libucrt:output.obj
 0001:00073c70       ??1?$positional_parameter_base@DV?$stream_output_adapter@D@__crt_stdio_output@@@__crt_stdio_output@@QEAA@XZ 0000000140074c70 f i libucrt:output.obj
 0001:00073c9c       ??1?$positional_parameter_base@DV?$string_output_adapter@D@__crt_stdio_output@@@__crt_stdio_output@@QEAA@XZ 0000000140074c9c f i libucrt:output.obj
 0001:00073cc8       ??1?$positional_parameter_base@_WV?$stream_output_adapter@_W@__crt_stdio_output@@@__crt_stdio_output@@QEAA@XZ 0000000140074cc8 f i libucrt:output.obj
 0001:00073cf4       ??1?$positional_parameter_base@_WV?$string_output_adapter@_W@__crt_stdio_output@@@__crt_stdio_output@@QEAA@XZ 0000000140074cf4 f i libucrt:output.obj
 0001:00073d20       ??1?$standard_base@DV?$stream_output_adapter@D@__crt_stdio_output@@@__crt_stdio_output@@QEAA@XZ 0000000140074d20 f i libucrt:output.obj
 0001:00073d4c       ??1?$standard_base@DV?$string_output_adapter@D@__crt_stdio_output@@@__crt_stdio_output@@QEAA@XZ 0000000140074d4c f i libucrt:output.obj
 0001:00073d78       ??1?$standard_base@_WV?$stream_output_adapter@_W@__crt_stdio_output@@@__crt_stdio_output@@QEAA@XZ 0000000140074d78 f i libucrt:output.obj
 0001:00073da4       ??1?$standard_base@_WV?$string_output_adapter@_W@__crt_stdio_output@@@__crt_stdio_output@@QEAA@XZ 0000000140074da4 f i libucrt:output.obj
 0001:00073dd0       ??1__acrt_stdio_temporary_buffering_guard@@QEAA@XZ 0000000140074dd0 f i libucrt:output.obj
 0001:00073de4       ??1formatting_buffer@__crt_stdio_output@@QEAA@XZ 0000000140074de4 f i libucrt:output.obj
 0001:00073e10       ??1guard@?$cached@H@__crt_cached_ptd_host@@QEAA@XZ 0000000140074e10 f i libucrt:output.obj
 0001:00073e28       ??4?$__crt_unique_heap_ptr@DU__crt_internal_free_policy@@@@QEAAAEAV0@$$QEAV0@@Z 0000000140074e28 f i libucrt:output.obj
 0001:00073e6c       ??A?$spectre_mitigated_lookup_table@Ustate_transition_pair@__crt_stdio_output@@$0IA@@__crt_stdio_output@@QEBAAEBUstate_transition_pair@1@_K@Z 0000000140074e6c f i libucrt:output.obj
 0001:00073e78       ??C__crt_stdio_stream@@QEBAPEAU__crt_stdio_stream_data@@XZ 0000000140074e78 f i libucrt:output.obj
 0001:000747ac       ?__crt_interlocked_read_32@@YAHPEDH@Z 00000001400757ac f i libucrt:output.obj
 0001:000747b0       ?adjust_hexit@?$output_processor@DV?$stream_output_adapter@D@__crt_stdio_output@@V?$format_validation_base@DV?$stream_output_adapter@D@__crt_stdio_output@@@2@@__crt_stdio_output@@CADH_N@Z 00000001400757b0 f i libucrt:output.obj
 0001:000747c0       ?adjust_hexit@?$output_processor@DV?$stream_output_adapter@D@__crt_stdio_output@@V?$positional_parameter_base@DV?$stream_output_adapter@D@__crt_stdio_output@@@2@@__crt_stdio_output@@CADH_N@Z 00000001400757c0 f i libucrt:output.obj
 0001:000747d0       ?adjust_hexit@?$output_processor@DV?$stream_output_adapter@D@__crt_stdio_output@@V?$standard_base@DV?$stream_output_adapter@D@__crt_stdio_output@@@2@@__crt_stdio_output@@CADH_N@Z 00000001400757d0 f i libucrt:output.obj
 0001:000747e0       ?adjust_hexit@?$output_processor@DV?$string_output_adapter@D@__crt_stdio_output@@V?$format_validation_base@DV?$string_output_adapter@D@__crt_stdio_output@@@2@@__crt_stdio_output@@CADH_N@Z 00000001400757e0 f i libucrt:output.obj
 0001:000747f0       ?adjust_hexit@?$output_processor@DV?$string_output_adapter@D@__crt_stdio_output@@V?$positional_parameter_base@DV?$string_output_adapter@D@__crt_stdio_output@@@2@@__crt_stdio_output@@CADH_N@Z 00000001400757f0 f i libucrt:output.obj
 0001:00074800       ?adjust_hexit@?$output_processor@DV?$string_output_adapter@D@__crt_stdio_output@@V?$standard_base@DV?$string_output_adapter@D@__crt_stdio_output@@@2@@__crt_stdio_output@@CADH_N@Z 0000000140075800 f i libucrt:output.obj
 0001:00074810       ?adjust_hexit@?$output_processor@_WV?$stream_output_adapter@_W@__crt_stdio_output@@V?$format_validation_base@_WV?$stream_output_adapter@_W@__crt_stdio_output@@@2@@__crt_stdio_output@@CADH_N@Z 0000000140075810 f i libucrt:output.obj
 0001:00074820       ?adjust_hexit@?$output_processor@_WV?$stream_output_adapter@_W@__crt_stdio_output@@V?$positional_parameter_base@_WV?$stream_output_adapter@_W@__crt_stdio_output@@@2@@__crt_stdio_output@@CADH_N@Z 0000000140075820 f i libucrt:output.obj
 0001:00074830       ?adjust_hexit@?$output_processor@_WV?$stream_output_adapter@_W@__crt_stdio_output@@V?$standard_base@_WV?$stream_output_adapter@_W@__crt_stdio_output@@@2@@__crt_stdio_output@@CADH_N@Z 0000000140075830 f i libucrt:output.obj
 0001:00074840       ?adjust_hexit@?$output_processor@_WV?$string_output_adapter@_W@__crt_stdio_output@@V?$format_validation_base@_WV?$string_output_adapter@_W@__crt_stdio_output@@@2@@__crt_stdio_output@@CADH_N@Z 0000000140075840 f i libucrt:output.obj
 0001:00074850       ?adjust_hexit@?$output_processor@_WV?$string_output_adapter@_W@__crt_stdio_output@@V?$positional_parameter_base@_WV?$string_output_adapter@_W@__crt_stdio_output@@@2@@__crt_stdio_output@@CADH_N@Z 0000000140075850 f i libucrt:output.obj
 0001:00074860       ?adjust_hexit@?$output_processor@_WV?$string_output_adapter@_W@__crt_stdio_output@@V?$standard_base@_WV?$string_output_adapter@_W@__crt_stdio_output@@@2@@__crt_stdio_output@@CADH_N@Z 0000000140075860 f i libucrt:output.obj
 0001:00074870       ?advance_to_next_pass@?$positional_parameter_base@DV?$stream_output_adapter@D@__crt_stdio_output@@@__crt_stdio_output@@IEAA_NXZ 0000000140075870 f i libucrt:output.obj
 0001:000748d8       ?advance_to_next_pass@?$positional_parameter_base@DV?$string_output_adapter@D@__crt_stdio_output@@@__crt_stdio_output@@IEAA_NXZ 00000001400758d8 f i libucrt:output.obj
 0001:00074940       ?advance_to_next_pass@?$positional_parameter_base@_WV?$stream_output_adapter@_W@__crt_stdio_output@@@__crt_stdio_output@@IEAA_NXZ 0000000140075940 f i libucrt:output.obj
 0001:000749a8       ?advance_to_next_pass@?$positional_parameter_base@_WV?$string_output_adapter@_W@__crt_stdio_output@@@__crt_stdio_output@@IEAA_NXZ 00000001400759a8 f i libucrt:output.obj
 0001:00074a10       ?advance_to_next_pass@?$standard_base@DV?$stream_output_adapter@D@__crt_stdio_output@@@__crt_stdio_output@@IEAA_NXZ 0000000140075a10 f i libucrt:output.obj
 0001:00074a28       ?advance_to_next_pass@?$standard_base@DV?$string_output_adapter@D@__crt_stdio_output@@@__crt_stdio_output@@IEAA_NXZ 0000000140075a28 f i libucrt:output.obj
 0001:00074a40       ?advance_to_next_pass@?$standard_base@_WV?$stream_output_adapter@_W@__crt_stdio_output@@@__crt_stdio_output@@IEAA_NXZ 0000000140075a40 f i libucrt:output.obj
 0001:00074a58       ?advance_to_next_pass@?$standard_base@_WV?$string_output_adapter@_W@__crt_stdio_output@@@__crt_stdio_output@@IEAA_NXZ 0000000140075a58 f i libucrt:output.obj
 0001:00074a70       ?check@?$cached@H@__crt_cached_ptd_host@@QEBA_NH@Z 0000000140075a70 f i libucrt:output.obj
 0001:00074a84       ?create_guard@?$cached@H@__crt_cached_ptd_host@@QEAA?AVguard@12@XZ 0000000140075a84 f i libucrt:output.obj
 0001:00074a9c       ?crop_zeroes@__crt_stdio_output@@YAXPEADQEAU__crt_locale_pointers@@@Z 0000000140075a9c f i libucrt:output.obj
 0001:00074b20       ?disable@guard@?$cached@H@__crt_cached_ptd_host@@QEAAXXZ 0000000140075b20 f i libucrt:output.obj
 0001:00074b28       ?enable@guard@?$cached@H@__crt_cached_ptd_host@@QEAAXXZ 0000000140075b28 f i libucrt:output.obj
 0001:00074b30       ?find_next_state@?$output_processor@DV?$stream_output_adapter@D@__crt_stdio_output@@V?$format_validation_base@DV?$stream_output_adapter@D@__crt_stdio_output@@@2@@__crt_stdio_output@@AEBA?AW4state@2@DW432@@Z 0000000140075b30 f i libucrt:output.obj
 0001:00074b74       ?find_next_state@?$output_processor@DV?$stream_output_adapter@D@__crt_stdio_output@@V?$positional_parameter_base@DV?$stream_output_adapter@D@__crt_stdio_output@@@2@@__crt_stdio_output@@AEBA?AW4state@2@DW432@@Z 0000000140075b74 f i libucrt:output.obj
 0001:00074bb8       ?find_next_state@?$output_processor@DV?$stream_output_adapter@D@__crt_stdio_output@@V?$standard_base@DV?$stream_output_adapter@D@__crt_stdio_output@@@2@@__crt_stdio_output@@AEBA?AW4state@2@DW432@@Z 0000000140075bb8 f i libucrt:output.obj
 0001:00074bfc       ?find_next_state@?$output_processor@DV?$string_output_adapter@D@__crt_stdio_output@@V?$format_validation_base@DV?$string_output_adapter@D@__crt_stdio_output@@@2@@__crt_stdio_output@@AEBA?AW4state@2@DW432@@Z 0000000140075bfc f i libucrt:output.obj
 0001:00074c40       ?find_next_state@?$output_processor@DV?$string_output_adapter@D@__crt_stdio_output@@V?$positional_parameter_base@DV?$string_output_adapter@D@__crt_stdio_output@@@2@@__crt_stdio_output@@AEBA?AW4state@2@DW432@@Z 0000000140075c40 f i libucrt:output.obj
 0001:00074c84       ?find_next_state@?$output_processor@DV?$string_output_adapter@D@__crt_stdio_output@@V?$standard_base@DV?$string_output_adapter@D@__crt_stdio_output@@@2@@__crt_stdio_output@@AEBA?AW4state@2@DW432@@Z 0000000140075c84 f i libucrt:output.obj
 0001:00074cc8       ?find_next_state@?$output_processor@_WV?$stream_output_adapter@_W@__crt_stdio_output@@V?$format_validation_base@_WV?$stream_output_adapter@_W@__crt_stdio_output@@@2@@__crt_stdio_output@@AEBA?AW4state@2@_WW432@@Z 0000000140075cc8 f i libucrt:output.obj
 0001:00074d18       ?find_next_state@?$output_processor@_WV?$stream_output_adapter@_W@__crt_stdio_output@@V?$positional_parameter_base@_WV?$stream_output_adapter@_W@__crt_stdio_output@@@2@@__crt_stdio_output@@AEBA?AW4state@2@_WW432@@Z 0000000140075d18 f i libucrt:output.obj
 0001:00074d68       ?find_next_state@?$output_processor@_WV?$stream_output_adapter@_W@__crt_stdio_output@@V?$standard_base@_WV?$stream_output_adapter@_W@__crt_stdio_output@@@2@@__crt_stdio_output@@AEBA?AW4state@2@_WW432@@Z 0000000140075d68 f i libucrt:output.obj
 0001:00074db4       ?find_next_state@?$output_processor@_WV?$string_output_adapter@_W@__crt_stdio_output@@V?$format_validation_base@_WV?$string_output_adapter@_W@__crt_stdio_output@@@2@@__crt_stdio_output@@AEBA?AW4state@2@_WW432@@Z 0000000140075db4 f i libucrt:output.obj
 0001:00074e04       ?find_next_state@?$output_processor@_WV?$string_output_adapter@_W@__crt_stdio_output@@V?$positional_parameter_base@_WV?$string_output_adapter@_W@__crt_stdio_output@@@2@@__crt_stdio_output@@AEBA?AW4state@2@_WW432@@Z 0000000140075e04 f i libucrt:output.obj
 0001:00074e54       ?find_next_state@?$output_processor@_WV?$string_output_adapter@_W@__crt_stdio_output@@V?$standard_base@_WV?$string_output_adapter@_W@__crt_stdio_output@@@2@@__crt_stdio_output@@AEBA?AW4state@2@_WW432@@Z 0000000140075e54 f i libucrt:output.obj
 0001:00074ea0       ?force_decimal_point@__crt_stdio_output@@YAXPEADQEAU__crt_locale_pointers@@@Z 0000000140075ea0 f i libucrt:output.obj
 0001:00074f18       ?get_flags@__crt_stdio_stream@@QEBAJXZ 0000000140075f18 f i libucrt:output.obj
 0001:00074f24       ?get_parameter_type@?$positional_parameter_base@DV?$stream_output_adapter@D@__crt_stdio_output@@@__crt_stdio_output@@CA?AW4parameter_type@12@F@Z 0000000140075f24 f i libucrt:output.obj
 0001:00074f2c       ?get_parameter_type@?$positional_parameter_base@DV?$stream_output_adapter@D@__crt_stdio_output@@@__crt_stdio_output@@CA?AW4parameter_type@12@G@Z 0000000140075f2c f i libucrt:output.obj
 0001:00074f34       ?get_parameter_type@?$positional_parameter_base@DV?$stream_output_adapter@D@__crt_stdio_output@@@__crt_stdio_output@@CA?AW4parameter_type@12@H@Z 0000000140075f34 f i libucrt:output.obj
 0001:00074f3c       ?get_parameter_type@?$positional_parameter_base@DV?$stream_output_adapter@D@__crt_stdio_output@@@__crt_stdio_output@@CA?AW4parameter_type@12@I@Z 0000000140075f3c f i libucrt:output.obj
 0001:00074f44       ?get_parameter_type@?$positional_parameter_base@DV?$stream_output_adapter@D@__crt_stdio_output@@@__crt_stdio_output@@CA?AW4parameter_type@12@U_CRT_DOUBLE@@@Z 0000000140075f44 f i libucrt:output.obj
 0001:00074f4c       ?get_parameter_type@?$positional_parameter_base@DV?$stream_output_adapter@D@__crt_stdio_output@@@__crt_stdio_output@@CA?AW4parameter_type@12@_J@Z 0000000140075f4c f i libucrt:output.obj
 0001:00074f54       ?get_parameter_type@?$positional_parameter_base@DV?$stream_output_adapter@D@__crt_stdio_output@@@__crt_stdio_output@@CA?AW4parameter_type@12@_K@Z 0000000140075f54 f i libucrt:output.obj
 0001:00074f5c       ?get_parameter_type@?$positional_parameter_base@DV?$stream_output_adapter@D@__crt_stdio_output@@@__crt_stdio_output@@CA?AW4parameter_type@12@_W@Z 0000000140075f5c f i libucrt:output.obj
 0001:00074f64       ?get_parameter_type@?$positional_parameter_base@DV?$string_output_adapter@D@__crt_stdio_output@@@__crt_stdio_output@@CA?AW4parameter_type@12@F@Z 0000000140075f64 f i libucrt:output.obj
 0001:00074f6c       ?get_parameter_type@?$positional_parameter_base@DV?$string_output_adapter@D@__crt_stdio_output@@@__crt_stdio_output@@CA?AW4parameter_type@12@G@Z 0000000140075f6c f i libucrt:output.obj
 0001:00074f74       ?get_parameter_type@?$positional_parameter_base@DV?$string_output_adapter@D@__crt_stdio_output@@@__crt_stdio_output@@CA?AW4parameter_type@12@H@Z 0000000140075f74 f i libucrt:output.obj
 0001:00074f7c       ?get_parameter_type@?$positional_parameter_base@DV?$string_output_adapter@D@__crt_stdio_output@@@__crt_stdio_output@@CA?AW4parameter_type@12@I@Z 0000000140075f7c f i libucrt:output.obj
 0001:00074f84       ?get_parameter_type@?$positional_parameter_base@DV?$string_output_adapter@D@__crt_stdio_output@@@__crt_stdio_output@@CA?AW4parameter_type@12@U_CRT_DOUBLE@@@Z 0000000140075f84 f i libucrt:output.obj
 0001:00074f8c       ?get_parameter_type@?$positional_parameter_base@DV?$string_output_adapter@D@__crt_stdio_output@@@__crt_stdio_output@@CA?AW4parameter_type@12@_J@Z 0000000140075f8c f i libucrt:output.obj
 0001:00074f94       ?get_parameter_type@?$positional_parameter_base@DV?$string_output_adapter@D@__crt_stdio_output@@@__crt_stdio_output@@CA?AW4parameter_type@12@_K@Z 0000000140075f94 f i libucrt:output.obj
 0001:00074f9c       ?get_parameter_type@?$positional_parameter_base@DV?$string_output_adapter@D@__crt_stdio_output@@@__crt_stdio_output@@CA?AW4parameter_type@12@_W@Z 0000000140075f9c f i libucrt:output.obj
 0001:00074fa4       ?get_parameter_type@?$positional_parameter_base@_WV?$stream_output_adapter@_W@__crt_stdio_output@@@__crt_stdio_output@@CA?AW4parameter_type@12@F@Z 0000000140075fa4 f i libucrt:output.obj
 0001:00074fac       ?get_parameter_type@?$positional_parameter_base@_WV?$stream_output_adapter@_W@__crt_stdio_output@@@__crt_stdio_output@@CA?AW4parameter_type@12@G@Z 0000000140075fac f i libucrt:output.obj
 0001:00074fb4       ?get_parameter_type@?$positional_parameter_base@_WV?$stream_output_adapter@_W@__crt_stdio_output@@@__crt_stdio_output@@CA?AW4parameter_type@12@H@Z 0000000140075fb4 f i libucrt:output.obj
 0001:00074fbc       ?get_parameter_type@?$positional_parameter_base@_WV?$stream_output_adapter@_W@__crt_stdio_output@@@__crt_stdio_output@@CA?AW4parameter_type@12@I@Z 0000000140075fbc f i libucrt:output.obj
 0001:00074fc4       ?get_parameter_type@?$positional_parameter_base@_WV?$stream_output_adapter@_W@__crt_stdio_output@@@__crt_stdio_output@@CA?AW4parameter_type@12@U_CRT_DOUBLE@@@Z 0000000140075fc4 f i libucrt:output.obj
 0001:00074fcc       ?get_parameter_type@?$positional_parameter_base@_WV?$stream_output_adapter@_W@__crt_stdio_output@@@__crt_stdio_output@@CA?AW4parameter_type@12@_J@Z 0000000140075fcc f i libucrt:output.obj
 0001:00074fd4       ?get_parameter_type@?$positional_parameter_base@_WV?$stream_output_adapter@_W@__crt_stdio_output@@@__crt_stdio_output@@CA?AW4parameter_type@12@_K@Z 0000000140075fd4 f i libucrt:output.obj
 0001:00074fdc       ?get_parameter_type@?$positional_parameter_base@_WV?$stream_output_adapter@_W@__crt_stdio_output@@@__crt_stdio_output@@CA?AW4parameter_type@12@_W@Z 0000000140075fdc f i libucrt:output.obj
 0001:00074fe4       ?get_parameter_type@?$positional_parameter_base@_WV?$string_output_adapter@_W@__crt_stdio_output@@@__crt_stdio_output@@CA?AW4parameter_type@12@F@Z 0000000140075fe4 f i libucrt:output.obj
 0001:00074fec       ?get_parameter_type@?$positional_parameter_base@_WV?$string_output_adapter@_W@__crt_stdio_output@@@__crt_stdio_output@@CA?AW4parameter_type@12@G@Z 0000000140075fec f i libucrt:output.obj
 0001:00074ff4       ?get_parameter_type@?$positional_parameter_base@_WV?$string_output_adapter@_W@__crt_stdio_output@@@__crt_stdio_output@@CA?AW4parameter_type@12@H@Z 0000000140075ff4 f i libucrt:output.obj
 0001:00074ffc       ?get_parameter_type@?$positional_parameter_base@_WV?$string_output_adapter@_W@__crt_stdio_output@@@__crt_stdio_output@@CA?AW4parameter_type@12@I@Z 0000000140075ffc f i libucrt:output.obj
 0001:00075004       ?get_parameter_type@?$positional_parameter_base@_WV?$string_output_adapter@_W@__crt_stdio_output@@@__crt_stdio_output@@CA?AW4parameter_type@12@U_CRT_DOUBLE@@@Z 0000000140076004 f i libucrt:output.obj
 0001:0007500c       ?get_parameter_type@?$positional_parameter_base@_WV?$string_output_adapter@_W@__crt_stdio_output@@@__crt_stdio_output@@CA?AW4parameter_type@12@_J@Z 000000014007600c f i libucrt:output.obj
 0001:00075014       ?get_parameter_type@?$positional_parameter_base@_WV?$string_output_adapter@_W@__crt_stdio_output@@@__crt_stdio_output@@CA?AW4parameter_type@12@_K@Z 0000000140076014 f i libucrt:output.obj
 0001:0007501c       ?get_parameter_type@?$positional_parameter_base@_WV?$string_output_adapter@_W@__crt_stdio_output@@@__crt_stdio_output@@CA?AW4parameter_type@12@_W@Z 000000014007601c f i libucrt:output.obj
 0001:00075024       ?has_flag@?$output_processor@DV?$stream_output_adapter@D@__crt_stdio_output@@V?$format_validation_base@DV?$stream_output_adapter@D@__crt_stdio_output@@@2@@__crt_stdio_output@@AEBA_NI@Z 0000000140076024 f i libucrt:output.obj
 0001:0007502c       ?has_flag@?$output_processor@DV?$stream_output_adapter@D@__crt_stdio_output@@V?$positional_parameter_base@DV?$stream_output_adapter@D@__crt_stdio_output@@@2@@__crt_stdio_output@@AEBA_NI@Z 000000014007602c f i libucrt:output.obj
 0001:00075034       ?has_flag@?$output_processor@DV?$stream_output_adapter@D@__crt_stdio_output@@V?$standard_base@DV?$stream_output_adapter@D@__crt_stdio_output@@@2@@__crt_stdio_output@@AEBA_NI@Z 0000000140076034 f i libucrt:output.obj
 0001:0007503c       ?has_flag@?$output_processor@DV?$string_output_adapter@D@__crt_stdio_output@@V?$format_validation_base@DV?$string_output_adapter@D@__crt_stdio_output@@@2@@__crt_stdio_output@@AEBA_NI@Z 000000014007603c f i libucrt:output.obj
 0001:00075044       ?has_flag@?$output_processor@DV?$string_output_adapter@D@__crt_stdio_output@@V?$positional_parameter_base@DV?$string_output_adapter@D@__crt_stdio_output@@@2@@__crt_stdio_output@@AEBA_NI@Z 0000000140076044 f i libucrt:output.obj
 0001:0007504c       ?has_flag@?$output_processor@DV?$string_output_adapter@D@__crt_stdio_output@@V?$standard_base@DV?$string_output_adapter@D@__crt_stdio_output@@@2@@__crt_stdio_output@@AEBA_NI@Z 000000014007604c f i libucrt:output.obj
 0001:00075054       ?has_flag@?$output_processor@_WV?$stream_output_adapter@_W@__crt_stdio_output@@V?$format_validation_base@_WV?$stream_output_adapter@_W@__crt_stdio_output@@@2@@__crt_stdio_output@@AEBA_NI@Z 0000000140076054 f i libucrt:output.obj
 0001:0007505c       ?has_flag@?$output_processor@_WV?$stream_output_adapter@_W@__crt_stdio_output@@V?$positional_parameter_base@_WV?$stream_output_adapter@_W@__crt_stdio_output@@@2@@__crt_stdio_output@@AEBA_NI@Z 000000014007605c f i libucrt:output.obj
 0001:00075064       ?has_flag@?$output_processor@_WV?$stream_output_adapter@_W@__crt_stdio_output@@V?$standard_base@_WV?$stream_output_adapter@_W@__crt_stdio_output@@@2@@__crt_stdio_output@@AEBA_NI@Z 0000000140076064 f i libucrt:output.obj
 0001:0007506c       ?has_flag@?$output_processor@_WV?$string_output_adapter@_W@__crt_stdio_output@@V?$format_validation_base@_WV?$string_output_adapter@_W@__crt_stdio_output@@@2@@__crt_stdio_output@@AEBA_NI@Z 000000014007606c f i libucrt:output.obj
 0001:00075074       ?has_flag@?$output_processor@_WV?$string_output_adapter@_W@__crt_stdio_output@@V?$positional_parameter_base@_WV?$string_output_adapter@_W@__crt_stdio_output@@@2@@__crt_stdio_output@@AEBA_NI@Z 0000000140076074 f i libucrt:output.obj
 0001:0007507c       ?has_flag@?$output_processor@_WV?$string_output_adapter@_W@__crt_stdio_output@@V?$standard_base@_WV?$string_output_adapter@_W@__crt_stdio_output@@@2@@__crt_stdio_output@@AEBA_NI@Z 000000014007607c f i libucrt:output.obj
 0001:00075084       ?is_positional_parameter_reappearance_consistent@?$positional_parameter_base@DV?$stream_output_adapter@D@__crt_stdio_output@@@__crt_stdio_output@@AEAA_NAEBUparameter_data@12@W4parameter_type@12@DW4length_modifier@2@@Z 0000000140076084 f i libucrt:output.obj
 0001:00075348       ?is_positional_parameter_reappearance_consistent@?$positional_parameter_base@DV?$string_output_adapter@D@__crt_stdio_output@@@__crt_stdio_output@@AEAA_NAEBUparameter_data@12@W4parameter_type@12@DW4length_modifier@2@@Z 0000000140076348 f i libucrt:output.obj
 0001:0007560c       ?is_positional_parameter_reappearance_consistent@?$positional_parameter_base@_WV?$stream_output_adapter@_W@__crt_stdio_output@@@__crt_stdio_output@@AEAA_NAEBUparameter_data@12@W4parameter_type@12@_WW4length_modifier@2@@Z 000000014007660c f i libucrt:output.obj
 0001:00075890       ?is_positional_parameter_reappearance_consistent@?$positional_parameter_base@_WV?$string_output_adapter@_W@__crt_stdio_output@@@__crt_stdio_output@@AEAA_NAEBUparameter_data@12@W4parameter_type@12@_WW4length_modifier@2@@Z 0000000140076890 f i libucrt:output.obj
 0001:00075b14       ?is_string_backed@__crt_stdio_stream@@QEBA_NXZ 0000000140076b14 f i libucrt:output.obj
 0001:00075b24       ?narrow_null_string@?$output_processor@DV?$stream_output_adapter@D@__crt_stdio_output@@V?$format_validation_base@DV?$stream_output_adapter@D@__crt_stdio_output@@@2@@__crt_stdio_output@@CAPEADXZ 0000000140076b24 f i libucrt:output.obj
 0001:00075b30       ?narrow_null_string@?$output_processor@DV?$stream_output_adapter@D@__crt_stdio_output@@V?$positional_parameter_base@DV?$stream_output_adapter@D@__crt_stdio_output@@@2@@__crt_stdio_output@@CAPEADXZ 0000000140076b30 f i libucrt:output.obj
 0001:00075b3c       ?narrow_null_string@?$output_processor@DV?$stream_output_adapter@D@__crt_stdio_output@@V?$standard_base@DV?$stream_output_adapter@D@__crt_stdio_output@@@2@@__crt_stdio_output@@CAPEADXZ 0000000140076b3c f i libucrt:output.obj
 0001:00075b48       ?narrow_null_string@?$output_processor@DV?$string_output_adapter@D@__crt_stdio_output@@V?$format_validation_base@DV?$string_output_adapter@D@__crt_stdio_output@@@2@@__crt_stdio_output@@CAPEADXZ 0000000140076b48 f i libucrt:output.obj
 0001:00075b54       ?narrow_null_string@?$output_processor@DV?$string_output_adapter@D@__crt_stdio_output@@V?$positional_parameter_base@DV?$string_output_adapter@D@__crt_stdio_output@@@2@@__crt_stdio_output@@CAPEADXZ 0000000140076b54 f i libucrt:output.obj
 0001:00075b60       ?narrow_null_string@?$output_processor@DV?$string_output_adapter@D@__crt_stdio_output@@V?$standard_base@DV?$string_output_adapter@D@__crt_stdio_output@@@2@@__crt_stdio_output@@CAPEADXZ 0000000140076b60 f i libucrt:output.obj
 0001:00075b6c       ?narrow_null_string@?$output_processor@_WV?$stream_output_adapter@_W@__crt_stdio_output@@V?$format_validation_base@_WV?$stream_output_adapter@_W@__crt_stdio_output@@@2@@__crt_stdio_output@@CAPEADXZ 0000000140076b6c f i libucrt:output.obj
 0001:00075b78       ?narrow_null_string@?$output_processor@_WV?$stream_output_adapter@_W@__crt_stdio_output@@V?$positional_parameter_base@_WV?$stream_output_adapter@_W@__crt_stdio_output@@@2@@__crt_stdio_output@@CAPEADXZ 0000000140076b78 f i libucrt:output.obj
 0001:00075b84       ?narrow_null_string@?$output_processor@_WV?$stream_output_adapter@_W@__crt_stdio_output@@V?$standard_base@_WV?$stream_output_adapter@_W@__crt_stdio_output@@@2@@__crt_stdio_output@@CAPEADXZ 0000000140076b84 f i libucrt:output.obj
 0001:00075b90       ?narrow_null_string@?$output_processor@_WV?$string_output_adapter@_W@__crt_stdio_output@@V?$format_validation_base@_WV?$string_output_adapter@_W@__crt_stdio_output@@@2@@__crt_stdio_output@@CAPEADXZ 0000000140076b90 f i libucrt:output.obj
 0001:00075b9c       ?narrow_null_string@?$output_processor@_WV?$string_output_adapter@_W@__crt_stdio_output@@V?$positional_parameter_base@_WV?$string_output_adapter@_W@__crt_stdio_output@@@2@@__crt_stdio_output@@CAPEADXZ 0000000140076b9c f i libucrt:output.obj
 0001:00075ba8       ?narrow_null_string@?$output_processor@_WV?$string_output_adapter@_W@__crt_stdio_output@@V?$standard_base@_WV?$string_output_adapter@_W@__crt_stdio_output@@@2@@__crt_stdio_output@@CAPEADXZ 0000000140076ba8 f i libucrt:output.obj
 0001:00075bb4       ?parse_int_from_format_string@?$output_processor@DV?$stream_output_adapter@D@__crt_stdio_output@@V?$format_validation_base@DV?$stream_output_adapter@D@__crt_stdio_output@@@2@@__crt_stdio_output@@AEAA_NQEAH@Z 0000000140076bb4 f i libucrt:output.obj
 0001:00075c64       ?parse_int_from_format_string@?$output_processor@DV?$stream_output_adapter@D@__crt_stdio_output@@V?$positional_parameter_base@DV?$stream_output_adapter@D@__crt_stdio_output@@@2@@__crt_stdio_output@@AEAA_NQEAH@Z 0000000140076c64 f i libucrt:output.obj
 0001:00075d14       ?parse_int_from_format_string@?$output_processor@DV?$stream_output_adapter@D@__crt_stdio_output@@V?$standard_base@DV?$stream_output_adapter@D@__crt_stdio_output@@@2@@__crt_stdio_output@@AEAA_NQEAH@Z 0000000140076d14 f i libucrt:output.obj
 0001:00075dc4       ?parse_int_from_format_string@?$output_processor@DV?$string_output_adapter@D@__crt_stdio_output@@V?$format_validation_base@DV?$string_output_adapter@D@__crt_stdio_output@@@2@@__crt_stdio_output@@AEAA_NQEAH@Z 0000000140076dc4 f i libucrt:output.obj
 0001:00075e74       ?parse_int_from_format_string@?$output_processor@DV?$string_output_adapter@D@__crt_stdio_output@@V?$positional_parameter_base@DV?$string_output_adapter@D@__crt_stdio_output@@@2@@__crt_stdio_output@@AEAA_NQEAH@Z 0000000140076e74 f i libucrt:output.obj
 0001:00075f24       ?parse_int_from_format_string@?$output_processor@DV?$string_output_adapter@D@__crt_stdio_output@@V?$standard_base@DV?$string_output_adapter@D@__crt_stdio_output@@@2@@__crt_stdio_output@@AEAA_NQEAH@Z 0000000140076f24 f i libucrt:output.obj
 0001:00075fd4       ?parse_int_from_format_string@?$output_processor@_WV?$stream_output_adapter@_W@__crt_stdio_output@@V?$format_validation_base@_WV?$stream_output_adapter@_W@__crt_stdio_output@@@2@@__crt_stdio_output@@AEAA_NQEAH@Z 0000000140076fd4 f i libucrt:output.obj
 0001:00076088       ?parse_int_from_format_string@?$output_processor@_WV?$stream_output_adapter@_W@__crt_stdio_output@@V?$positional_parameter_base@_WV?$stream_output_adapter@_W@__crt_stdio_output@@@2@@__crt_stdio_output@@AEAA_NQEAH@Z 0000000140077088 f i libucrt:output.obj
 0001:0007613c       ?parse_int_from_format_string@?$output_processor@_WV?$stream_output_adapter@_W@__crt_stdio_output@@V?$standard_base@_WV?$stream_output_adapter@_W@__crt_stdio_output@@@2@@__crt_stdio_output@@AEAA_NQEAH@Z 000000014007713c f i libucrt:output.obj
 0001:000761f0       ?parse_int_from_format_string@?$output_processor@_WV?$string_output_adapter@_W@__crt_stdio_output@@V?$format_validation_base@_WV?$string_output_adapter@_W@__crt_stdio_output@@@2@@__crt_stdio_output@@AEAA_NQEAH@Z 00000001400771f0 f i libucrt:output.obj
 0001:000762a4       ?parse_int_from_format_string@?$output_processor@_WV?$string_output_adapter@_W@__crt_stdio_output@@V?$positional_parameter_base@_WV?$string_output_adapter@_W@__crt_stdio_output@@@2@@__crt_stdio_output@@AEAA_NQEAH@Z 00000001400772a4 f i libucrt:output.obj
 0001:00076358       ?parse_int_from_format_string@?$output_processor@_WV?$string_output_adapter@_W@__crt_stdio_output@@V?$standard_base@_WV?$string_output_adapter@_W@__crt_stdio_output@@@2@@__crt_stdio_output@@AEAA_NQEAH@Z 0000000140077358 f i libucrt:output.obj
 0001:0007640c       ?process@?$output_processor@DV?$stream_output_adapter@D@__crt_stdio_output@@V?$format_validation_base@DV?$stream_output_adapter@D@__crt_stdio_output@@@2@@__crt_stdio_output@@QEAAHXZ 000000014007740c f i libucrt:output.obj
 0001:00076890       ?process@?$output_processor@DV?$stream_output_adapter@D@__crt_stdio_output@@V?$positional_parameter_base@DV?$stream_output_adapter@D@__crt_stdio_output@@@2@@__crt_stdio_output@@QEAAHXZ 0000000140077890 f i libucrt:output.obj
 0001:00076dd0       ?process@?$output_processor@DV?$stream_output_adapter@D@__crt_stdio_output@@V?$standard_base@DV?$stream_output_adapter@D@__crt_stdio_output@@@2@@__crt_stdio_output@@QEAAHXZ 0000000140077dd0 f i libucrt:output.obj
 0001:0007724c       ?process@?$output_processor@DV?$string_output_adapter@D@__crt_stdio_output@@V?$format_validation_base@DV?$string_output_adapter@D@__crt_stdio_output@@@2@@__crt_stdio_output@@QEAAHXZ 000000014007824c f i libucrt:output.obj
 0001:000776b0       ?process@?$output_processor@DV?$string_output_adapter@D@__crt_stdio_output@@V?$positional_parameter_base@DV?$string_output_adapter@D@__crt_stdio_output@@@2@@__crt_stdio_output@@QEAAHXZ 00000001400786b0 f i libucrt:output.obj
 0001:00077bcc       ?process@?$output_processor@DV?$string_output_adapter@D@__crt_stdio_output@@V?$standard_base@DV?$string_output_adapter@D@__crt_stdio_output@@@2@@__crt_stdio_output@@QEAAHXZ 0000000140078bcc f i libucrt:output.obj
 0001:0007802c       ?process@?$output_processor@_WV?$stream_output_adapter@_W@__crt_stdio_output@@V?$format_validation_base@_WV?$stream_output_adapter@_W@__crt_stdio_output@@@2@@__crt_stdio_output@@QEAAHXZ 000000014007902c f i libucrt:output.obj
 0001:000783c0       ?process@?$output_processor@_WV?$stream_output_adapter@_W@__crt_stdio_output@@V?$positional_parameter_base@_WV?$stream_output_adapter@_W@__crt_stdio_output@@@2@@__crt_stdio_output@@QEAAHXZ 00000001400793c0 f i libucrt:output.obj
 0001:0007880c       ?process@?$output_processor@_WV?$stream_output_adapter@_W@__crt_stdio_output@@V?$standard_base@_WV?$stream_output_adapter@_W@__crt_stdio_output@@@2@@__crt_stdio_output@@QEAAHXZ 000000014007980c f i libucrt:output.obj
 0001:00078b90       ?process@?$output_processor@_WV?$string_output_adapter@_W@__crt_stdio_output@@V?$format_validation_base@_WV?$string_output_adapter@_W@__crt_stdio_output@@@2@@__crt_stdio_output@@QEAAHXZ 0000000140079b90 f i libucrt:output.obj
 0001:00078f1c       ?process@?$output_processor@_WV?$string_output_adapter@_W@__crt_stdio_output@@V?$positional_parameter_base@_WV?$string_output_adapter@_W@__crt_stdio_output@@@2@@__crt_stdio_output@@QEAAHXZ 0000000140079f1c f i libucrt:output.obj
 0001:00079360       ?process@?$output_processor@_WV?$string_output_adapter@_W@__crt_stdio_output@@V?$standard_base@_WV?$string_output_adapter@_W@__crt_stdio_output@@@2@@__crt_stdio_output@@QEAAHXZ 000000014007a360 f i libucrt:output.obj
 0001:000796ec       ?public_stream@__crt_stdio_stream@@QEBAPEAU_iobuf@@XZ 000000014007a6ec f i libucrt:output.obj
 0001:000796f0       ?set_flag@?$output_processor@DV?$stream_output_adapter@D@__crt_stdio_output@@V?$format_validation_base@DV?$stream_output_adapter@D@__crt_stdio_output@@@2@@__crt_stdio_output@@AEAAXI@Z 000000014007a6f0 f i libucrt:output.obj
 0001:000796f4       ?set_flag@?$output_processor@DV?$stream_output_adapter@D@__crt_stdio_output@@V?$positional_parameter_base@DV?$stream_output_adapter@D@__crt_stdio_output@@@2@@__crt_stdio_output@@AEAAXI@Z 000000014007a6f4 f i libucrt:output.obj
 0001:000796f8       ?set_flag@?$output_processor@DV?$stream_output_adapter@D@__crt_stdio_output@@V?$standard_base@DV?$stream_output_adapter@D@__crt_stdio_output@@@2@@__crt_stdio_output@@AEAAXI@Z 000000014007a6f8 f i libucrt:output.obj
 0001:000796fc       ?set_flag@?$output_processor@DV?$string_output_adapter@D@__crt_stdio_output@@V?$format_validation_base@DV?$string_output_adapter@D@__crt_stdio_output@@@2@@__crt_stdio_output@@AEAAXI@Z 000000014007a6fc f i libucrt:output.obj
 0001:00079700       ?set_flag@?$output_processor@DV?$string_output_adapter@D@__crt_stdio_output@@V?$positional_parameter_base@DV?$string_output_adapter@D@__crt_stdio_output@@@2@@__crt_stdio_output@@AEAAXI@Z 000000014007a700 f i libucrt:output.obj
 0001:00079704       ?set_flag@?$output_processor@DV?$string_output_adapter@D@__crt_stdio_output@@V?$standard_base@DV?$string_output_adapter@D@__crt_stdio_output@@@2@@__crt_stdio_output@@AEAAXI@Z 000000014007a704 f i libucrt:output.obj
 0001:00079708       ?set_flag@?$output_processor@_WV?$stream_output_adapter@_W@__crt_stdio_output@@V?$format_validation_base@_WV?$stream_output_adapter@_W@__crt_stdio_output@@@2@@__crt_stdio_output@@AEAAXI@Z 000000014007a708 f i libucrt:output.obj
 0001:0007970c       ?set_flag@?$output_processor@_WV?$stream_output_adapter@_W@__crt_stdio_output@@V?$positional_parameter_base@_WV?$stream_output_adapter@_W@__crt_stdio_output@@@2@@__crt_stdio_output@@AEAAXI@Z 000000014007a70c f i libucrt:output.obj
 0001:00079710       ?set_flag@?$output_processor@_WV?$stream_output_adapter@_W@__crt_stdio_output@@V?$standard_base@_WV?$stream_output_adapter@_W@__crt_stdio_output@@@2@@__crt_stdio_output@@AEAAXI@Z 000000014007a710 f i libucrt:output.obj
 0001:00079714       ?set_flag@?$output_processor@_WV?$string_output_adapter@_W@__crt_stdio_output@@V?$format_validation_base@_WV?$string_output_adapter@_W@__crt_stdio_output@@@2@@__crt_stdio_output@@AEAAXI@Z 000000014007a714 f i libucrt:output.obj
 0001:00079718       ?set_flag@?$output_processor@_WV?$string_output_adapter@_W@__crt_stdio_output@@V?$positional_parameter_base@_WV?$string_output_adapter@_W@__crt_stdio_output@@@2@@__crt_stdio_output@@AEAAXI@Z 000000014007a718 f i libucrt:output.obj
 0001:0007971c       ?set_flag@?$output_processor@_WV?$string_output_adapter@_W@__crt_stdio_output@@V?$standard_base@_WV?$string_output_adapter@_W@__crt_stdio_output@@@2@@__crt_stdio_output@@AEAAXI@Z 000000014007a71c f i libucrt:output.obj
 0001:00079720       ?should_format@?$positional_parameter_base@DV?$stream_output_adapter@D@__crt_stdio_output@@@__crt_stdio_output@@IEAA_NXZ 000000014007a720 f i libucrt:output.obj
 0001:00079740       ?should_format@?$positional_parameter_base@DV?$string_output_adapter@D@__crt_stdio_output@@@__crt_stdio_output@@IEAA_NXZ 000000014007a740 f i libucrt:output.obj
 0001:00079760       ?should_format@?$positional_parameter_base@_WV?$stream_output_adapter@_W@__crt_stdio_output@@@__crt_stdio_output@@IEAA_NXZ 000000014007a760 f i libucrt:output.obj
 0001:00079780       ?should_format@?$positional_parameter_base@_WV?$string_output_adapter@_W@__crt_stdio_output@@@__crt_stdio_output@@IEAA_NXZ 000000014007a780 f i libucrt:output.obj
 0001:000797a0       ?should_format@?$standard_base@DV?$stream_output_adapter@D@__crt_stdio_output@@@__crt_stdio_output@@IEAA_NXZ 000000014007a7a0 f i libucrt:output.obj
 0001:000797a4       ?should_format@?$standard_base@DV?$string_output_adapter@D@__crt_stdio_output@@@__crt_stdio_output@@IEAA_NXZ 000000014007a7a4 f i libucrt:output.obj
 0001:000797a8       ?should_format@?$standard_base@_WV?$stream_output_adapter@_W@__crt_stdio_output@@@__crt_stdio_output@@IEAA_NXZ 000000014007a7a8 f i libucrt:output.obj
 0001:000797ac       ?should_format@?$standard_base@_WV?$string_output_adapter@_W@__crt_stdio_output@@@__crt_stdio_output@@IEAA_NXZ 000000014007a7ac f i libucrt:output.obj
 0001:000797b0       ?should_skip_normal_state_processing@?$positional_parameter_base@DV?$stream_output_adapter@D@__crt_stdio_output@@@__crt_stdio_output@@IEAA_NXZ 000000014007a7b0 f i libucrt:output.obj
 0001:000797e4       ?should_skip_normal_state_processing@?$positional_parameter_base@DV?$string_output_adapter@D@__crt_stdio_output@@@__crt_stdio_output@@IEAA_NXZ 000000014007a7e4 f i libucrt:output.obj
 0001:00079818       ?should_skip_normal_state_processing@?$positional_parameter_base@_WV?$stream_output_adapter@_W@__crt_stdio_output@@@__crt_stdio_output@@IEAA_NXZ 000000014007a818 f i libucrt:output.obj
 0001:0007984c       ?should_skip_normal_state_processing@?$positional_parameter_base@_WV?$string_output_adapter@_W@__crt_stdio_output@@@__crt_stdio_output@@IEAA_NXZ 000000014007a84c f i libucrt:output.obj
 0001:00079880       ?should_skip_normal_state_processing@?$standard_base@DV?$stream_output_adapter@D@__crt_stdio_output@@@__crt_stdio_output@@IEAA_NXZ 000000014007a880 f i libucrt:output.obj
 0001:00079884       ?should_skip_normal_state_processing@?$standard_base@DV?$string_output_adapter@D@__crt_stdio_output@@@__crt_stdio_output@@IEAA_NXZ 000000014007a884 f i libucrt:output.obj
 0001:00079888       ?should_skip_normal_state_processing@?$standard_base@_WV?$stream_output_adapter@_W@__crt_stdio_output@@@__crt_stdio_output@@IEAA_NXZ 000000014007a888 f i libucrt:output.obj
 0001:0007988c       ?should_skip_normal_state_processing@?$standard_base@_WV?$string_output_adapter@_W@__crt_stdio_output@@@__crt_stdio_output@@IEAA_NXZ 000000014007a88c f i libucrt:output.obj
 0001:00079890       ?should_skip_type_state_output@?$positional_parameter_base@DV?$stream_output_adapter@D@__crt_stdio_output@@@__crt_stdio_output@@IEBA_NXZ 000000014007a890 f i libucrt:output.obj
 0001:000798b0       ?should_skip_type_state_output@?$positional_parameter_base@DV?$string_output_adapter@D@__crt_stdio_output@@@__crt_stdio_output@@IEBA_NXZ 000000014007a8b0 f i libucrt:output.obj
 0001:000798d0       ?should_skip_type_state_output@?$positional_parameter_base@_WV?$stream_output_adapter@_W@__crt_stdio_output@@@__crt_stdio_output@@IEBA_NXZ 000000014007a8d0 f i libucrt:output.obj
 0001:000798f0       ?should_skip_type_state_output@?$positional_parameter_base@_WV?$string_output_adapter@_W@__crt_stdio_output@@@__crt_stdio_output@@IEBA_NXZ 000000014007a8f0 f i libucrt:output.obj
 0001:00079910       ?should_skip_type_state_output@?$standard_base@DV?$stream_output_adapter@D@__crt_stdio_output@@@__crt_stdio_output@@IEBA_NXZ 000000014007a910 f i libucrt:output.obj
 0001:00079914       ?should_skip_type_state_output@?$standard_base@DV?$string_output_adapter@D@__crt_stdio_output@@@__crt_stdio_output@@IEBA_NXZ 000000014007a914 f i libucrt:output.obj
 0001:00079918       ?should_skip_type_state_output@?$standard_base@_WV?$stream_output_adapter@_W@__crt_stdio_output@@@__crt_stdio_output@@IEBA_NXZ 000000014007a918 f i libucrt:output.obj
 0001:0007991c       ?should_skip_type_state_output@?$standard_base@_WV?$string_output_adapter@_W@__crt_stdio_output@@@__crt_stdio_output@@IEBA_NXZ 000000014007a91c f i libucrt:output.obj
 0001:00079920       ?state_case_dot@?$output_processor@DV?$stream_output_adapter@D@__crt_stdio_output@@V?$format_validation_base@DV?$stream_output_adapter@D@__crt_stdio_output@@@2@@__crt_stdio_output@@AEAA_NXZ 000000014007a920 f i libucrt:output.obj
 0001:00079928       ?state_case_dot@?$output_processor@DV?$stream_output_adapter@D@__crt_stdio_output@@V?$positional_parameter_base@DV?$stream_output_adapter@D@__crt_stdio_output@@@2@@__crt_stdio_output@@AEAA_NXZ 000000014007a928 f i libucrt:output.obj
 0001:00079930       ?state_case_dot@?$output_processor@DV?$stream_output_adapter@D@__crt_stdio_output@@V?$standard_base@DV?$stream_output_adapter@D@__crt_stdio_output@@@2@@__crt_stdio_output@@AEAA_NXZ 000000014007a930 f i libucrt:output.obj
 0001:00079938       ?state_case_dot@?$output_processor@DV?$string_output_adapter@D@__crt_stdio_output@@V?$format_validation_base@DV?$string_output_adapter@D@__crt_stdio_output@@@2@@__crt_stdio_output@@AEAA_NXZ 000000014007a938 f i libucrt:output.obj
 0001:00079940       ?state_case_dot@?$output_processor@DV?$string_output_adapter@D@__crt_stdio_output@@V?$positional_parameter_base@DV?$string_output_adapter@D@__crt_stdio_output@@@2@@__crt_stdio_output@@AEAA_NXZ 000000014007a940 f i libucrt:output.obj
 0001:00079948       ?state_case_dot@?$output_processor@DV?$string_output_adapter@D@__crt_stdio_output@@V?$standard_base@DV?$string_output_adapter@D@__crt_stdio_output@@@2@@__crt_stdio_output@@AEAA_NXZ 000000014007a948 f i libucrt:output.obj
 0001:00079950       ?state_case_dot@?$output_processor@_WV?$stream_output_adapter@_W@__crt_stdio_output@@V?$format_validation_base@_WV?$stream_output_adapter@_W@__crt_stdio_output@@@2@@__crt_stdio_output@@AEAA_NXZ 000000014007a950 f i libucrt:output.obj
 0001:00079958       ?state_case_dot@?$output_processor@_WV?$stream_output_adapter@_W@__crt_stdio_output@@V?$positional_parameter_base@_WV?$stream_output_adapter@_W@__crt_stdio_output@@@2@@__crt_stdio_output@@AEAA_NXZ 000000014007a958 f i libucrt:output.obj
 0001:00079960       ?state_case_dot@?$output_processor@_WV?$stream_output_adapter@_W@__crt_stdio_output@@V?$standard_base@_WV?$stream_output_adapter@_W@__crt_stdio_output@@@2@@__crt_stdio_output@@AEAA_NXZ 000000014007a960 f i libucrt:output.obj
 0001:00079968       ?state_case_dot@?$output_processor@_WV?$string_output_adapter@_W@__crt_stdio_output@@V?$format_validation_base@_WV?$string_output_adapter@_W@__crt_stdio_output@@@2@@__crt_stdio_output@@AEAA_NXZ 000000014007a968 f i libucrt:output.obj
 0001:00079970       ?state_case_dot@?$output_processor@_WV?$string_output_adapter@_W@__crt_stdio_output@@V?$positional_parameter_base@_WV?$string_output_adapter@_W@__crt_stdio_output@@@2@@__crt_stdio_output@@AEAA_NXZ 000000014007a970 f i libucrt:output.obj
 0001:00079978       ?state_case_dot@?$output_processor@_WV?$string_output_adapter@_W@__crt_stdio_output@@V?$standard_base@_WV?$string_output_adapter@_W@__crt_stdio_output@@@2@@__crt_stdio_output@@AEAA_NXZ 000000014007a978 f i libucrt:output.obj
 0001:00079980       ?state_case_flag@?$output_processor@DV?$stream_output_adapter@D@__crt_stdio_output@@V?$format_validation_base@DV?$stream_output_adapter@D@__crt_stdio_output@@@2@@__crt_stdio_output@@AEAA_NXZ 000000014007a980 f i libucrt:output.obj
 0001:000799c4       ?state_case_flag@?$output_processor@DV?$stream_output_adapter@D@__crt_stdio_output@@V?$positional_parameter_base@DV?$stream_output_adapter@D@__crt_stdio_output@@@2@@__crt_stdio_output@@AEAA_NXZ 000000014007a9c4 f i libucrt:output.obj
 0001:00079a08       ?state_case_flag@?$output_processor@DV?$stream_output_adapter@D@__crt_stdio_output@@V?$standard_base@DV?$stream_output_adapter@D@__crt_stdio_output@@@2@@__crt_stdio_output@@AEAA_NXZ 000000014007aa08 f i libucrt:output.obj
 0001:00079a4c       ?state_case_flag@?$output_processor@DV?$string_output_adapter@D@__crt_stdio_output@@V?$format_validation_base@DV?$string_output_adapter@D@__crt_stdio_output@@@2@@__crt_stdio_output@@AEAA_NXZ 000000014007aa4c f i libucrt:output.obj
 0001:00079a90       ?state_case_flag@?$output_processor@DV?$string_output_adapter@D@__crt_stdio_output@@V?$positional_parameter_base@DV?$string_output_adapter@D@__crt_stdio_output@@@2@@__crt_stdio_output@@AEAA_NXZ 000000014007aa90 f i libucrt:output.obj
 0001:00079ad4       ?state_case_flag@?$output_processor@DV?$string_output_adapter@D@__crt_stdio_output@@V?$standard_base@DV?$string_output_adapter@D@__crt_stdio_output@@@2@@__crt_stdio_output@@AEAA_NXZ 000000014007aad4 f i libucrt:output.obj
 0001:00079b18       ?state_case_flag@?$output_processor@_WV?$stream_output_adapter@_W@__crt_stdio_output@@V?$format_validation_base@_WV?$stream_output_adapter@_W@__crt_stdio_output@@@2@@__crt_stdio_output@@AEAA_NXZ 000000014007ab18 f i libucrt:output.obj
 0001:00079b70       ?state_case_flag@?$output_processor@_WV?$stream_output_adapter@_W@__crt_stdio_output@@V?$positional_parameter_base@_WV?$stream_output_adapter@_W@__crt_stdio_output@@@2@@__crt_stdio_output@@AEAA_NXZ 000000014007ab70 f i libucrt:output.obj
 0001:00079bc8       ?state_case_flag@?$output_processor@_WV?$stream_output_adapter@_W@__crt_stdio_output@@V?$standard_base@_WV?$stream_output_adapter@_W@__crt_stdio_output@@@2@@__crt_stdio_output@@AEAA_NXZ 000000014007abc8 f i libucrt:output.obj
 0001:00079c20       ?state_case_flag@?$output_processor@_WV?$string_output_adapter@_W@__crt_stdio_output@@V?$format_validation_base@_WV?$string_output_adapter@_W@__crt_stdio_output@@@2@@__crt_stdio_output@@AEAA_NXZ 000000014007ac20 f i libucrt:output.obj
 0001:00079c78       ?state_case_flag@?$output_processor@_WV?$string_output_adapter@_W@__crt_stdio_output@@V?$positional_parameter_base@_WV?$string_output_adapter@_W@__crt_stdio_output@@@2@@__crt_stdio_output@@AEAA_NXZ 000000014007ac78 f i libucrt:output.obj
 0001:00079cd0       ?state_case_flag@?$output_processor@_WV?$string_output_adapter@_W@__crt_stdio_output@@V?$standard_base@_WV?$string_output_adapter@_W@__crt_stdio_output@@@2@@__crt_stdio_output@@AEAA_NXZ 000000014007acd0 f i libucrt:output.obj
 0001:00079d28       ?state_case_normal@?$output_processor@DV?$stream_output_adapter@D@__crt_stdio_output@@V?$format_validation_base@DV?$stream_output_adapter@D@__crt_stdio_output@@@2@@__crt_stdio_output@@AEAA_NXZ 000000014007ad28 f i libucrt:output.obj
 0001:00079ed0       ?state_case_normal@?$output_processor@DV?$stream_output_adapter@D@__crt_stdio_output@@V?$positional_parameter_base@DV?$stream_output_adapter@D@__crt_stdio_output@@@2@@__crt_stdio_output@@AEAA_NXZ 000000014007aed0 f i libucrt:output.obj
 0001:0007a0b0       ?state_case_normal@?$output_processor@DV?$stream_output_adapter@D@__crt_stdio_output@@V?$standard_base@DV?$stream_output_adapter@D@__crt_stdio_output@@@2@@__crt_stdio_output@@AEAA_NXZ 000000014007b0b0 f i libucrt:output.obj
 0001:0007a258       ?state_case_normal@?$output_processor@DV?$string_output_adapter@D@__crt_stdio_output@@V?$format_validation_base@DV?$string_output_adapter@D@__crt_stdio_output@@@2@@__crt_stdio_output@@AEAA_NXZ 000000014007b258 f i libucrt:output.obj
 0001:0007a3f8       ?state_case_normal@?$output_processor@DV?$string_output_adapter@D@__crt_stdio_output@@V?$positional_parameter_base@DV?$string_output_adapter@D@__crt_stdio_output@@@2@@__crt_stdio_output@@AEAA_NXZ 000000014007b3f8 f i libucrt:output.obj
 0001:0007a5cc       ?state_case_normal@?$output_processor@DV?$string_output_adapter@D@__crt_stdio_output@@V?$standard_base@DV?$string_output_adapter@D@__crt_stdio_output@@@2@@__crt_stdio_output@@AEAA_NXZ 000000014007b5cc f i libucrt:output.obj
 0001:0007a76c       ?state_case_normal@?$output_processor@_WV?$stream_output_adapter@_W@__crt_stdio_output@@V?$format_validation_base@_WV?$stream_output_adapter@_W@__crt_stdio_output@@@2@@__crt_stdio_output@@AEAA_NXZ 000000014007b76c f i libucrt:output.obj
 0001:0007a7e0       ?state_case_normal@?$output_processor@_WV?$stream_output_adapter@_W@__crt_stdio_output@@V?$positional_parameter_base@_WV?$stream_output_adapter@_W@__crt_stdio_output@@@2@@__crt_stdio_output@@AEAA_NXZ 000000014007b7e0 f i libucrt:output.obj
 0001:0007a884       ?state_case_normal@?$output_processor@_WV?$stream_output_adapter@_W@__crt_stdio_output@@V?$standard_base@_WV?$stream_output_adapter@_W@__crt_stdio_output@@@2@@__crt_stdio_output@@AEAA_NXZ 000000014007b884 f i libucrt:output.obj
 0001:0007a8f8       ?state_case_normal@?$output_processor@_WV?$string_output_adapter@_W@__crt_stdio_output@@V?$format_validation_base@_WV?$string_output_adapter@_W@__crt_stdio_output@@@2@@__crt_stdio_output@@AEAA_NXZ 000000014007b8f8 f i libucrt:output.obj
 0001:0007a964       ?state_case_normal@?$output_processor@_WV?$string_output_adapter@_W@__crt_stdio_output@@V?$positional_parameter_base@_WV?$string_output_adapter@_W@__crt_stdio_output@@@2@@__crt_stdio_output@@AEAA_NXZ 000000014007b964 f i libucrt:output.obj
 0001:0007a9fc       ?state_case_normal@?$output_processor@_WV?$string_output_adapter@_W@__crt_stdio_output@@V?$standard_base@_WV?$string_output_adapter@_W@__crt_stdio_output@@@2@@__crt_stdio_output@@AEAA_NXZ 000000014007b9fc f i libucrt:output.obj
 0001:0007aa68       ?state_case_normal_common@?$output_processor@DV?$stream_output_adapter@D@__crt_stdio_output@@V?$format_validation_base@DV?$stream_output_adapter@D@__crt_stdio_output@@@2@@__crt_stdio_output@@AEAA_NXZ 000000014007ba68 f i libucrt:output.obj
 0001:0007abdc       ?state_case_normal_common@?$output_processor@DV?$stream_output_adapter@D@__crt_stdio_output@@V?$positional_parameter_base@DV?$stream_output_adapter@D@__crt_stdio_output@@@2@@__crt_stdio_output@@AEAA_NXZ 000000014007bbdc f i libucrt:output.obj
 0001:0007ad50       ?state_case_normal_common@?$output_processor@DV?$stream_output_adapter@D@__crt_stdio_output@@V?$standard_base@DV?$stream_output_adapter@D@__crt_stdio_output@@@2@@__crt_stdio_output@@AEAA_NXZ 000000014007bd50 f i libucrt:output.obj
 0001:0007aec4       ?state_case_normal_common@?$output_processor@DV?$string_output_adapter@D@__crt_stdio_output@@V?$format_validation_base@DV?$string_output_adapter@D@__crt_stdio_output@@@2@@__crt_stdio_output@@AEAA_NXZ 000000014007bec4 f i libucrt:output.obj
 0001:0007b030       ?state_case_normal_common@?$output_processor@DV?$string_output_adapter@D@__crt_stdio_output@@V?$positional_parameter_base@DV?$string_output_adapter@D@__crt_stdio_output@@@2@@__crt_stdio_output@@AEAA_NXZ 000000014007c030 f i libucrt:output.obj
 0001:0007b19c       ?state_case_normal_common@?$output_processor@DV?$string_output_adapter@D@__crt_stdio_output@@V?$standard_base@DV?$string_output_adapter@D@__crt_stdio_output@@@2@@__crt_stdio_output@@AEAA_NXZ 000000014007c19c f i libucrt:output.obj
 0001:0007b308       ?state_case_normal_common@?$output_processor@_WV?$stream_output_adapter@_W@__crt_stdio_output@@V?$format_validation_base@_WV?$stream_output_adapter@_W@__crt_stdio_output@@@2@@__crt_stdio_output@@AEAA_NXZ 000000014007c308 f i libucrt:output.obj
 0001:0007b37c       ?state_case_normal_common@?$output_processor@_WV?$stream_output_adapter@_W@__crt_stdio_output@@V?$positional_parameter_base@_WV?$stream_output_adapter@_W@__crt_stdio_output@@@2@@__crt_stdio_output@@AEAA_NXZ 000000014007c37c f i libucrt:output.obj
 0001:0007b3f0       ?state_case_normal_common@?$output_processor@_WV?$stream_output_adapter@_W@__crt_stdio_output@@V?$standard_base@_WV?$stream_output_adapter@_W@__crt_stdio_output@@@2@@__crt_stdio_output@@AEAA_NXZ 000000014007c3f0 f i libucrt:output.obj
 0001:0007b464       ?state_case_normal_common@?$output_processor@_WV?$string_output_adapter@_W@__crt_stdio_output@@V?$format_validation_base@_WV?$string_output_adapter@_W@__crt_stdio_output@@@2@@__crt_stdio_output@@AEAA_NXZ 000000014007c464 f i libucrt:output.obj
 0001:0007b4d0       ?state_case_normal_common@?$output_processor@_WV?$string_output_adapter@_W@__crt_stdio_output@@V?$positional_parameter_base@_WV?$string_output_adapter@_W@__crt_stdio_output@@@2@@__crt_stdio_output@@AEAA_NXZ 000000014007c4d0 f i libucrt:output.obj
 0001:0007b53c       ?state_case_normal_common@?$output_processor@_WV?$string_output_adapter@_W@__crt_stdio_output@@V?$standard_base@_WV?$string_output_adapter@_W@__crt_stdio_output@@@2@@__crt_stdio_output@@AEAA_NXZ 000000014007c53c f i libucrt:output.obj
 0001:0007b5a8       ?state_case_normal_tchar@?$output_processor@DV?$stream_output_adapter@D@__crt_stdio_output@@V?$format_validation_base@DV?$stream_output_adapter@D@__crt_stdio_output@@@2@@__crt_stdio_output@@AEAA_ND@Z 000000014007c5a8 f i libucrt:output.obj
 0001:0007b6bc       ?state_case_normal_tchar@?$output_processor@DV?$stream_output_adapter@D@__crt_stdio_output@@V?$positional_parameter_base@DV?$stream_output_adapter@D@__crt_stdio_output@@@2@@__crt_stdio_output@@AEAA_ND@Z 000000014007c6bc f i libucrt:output.obj
 0001:0007b7d0       ?state_case_normal_tchar@?$output_processor@DV?$stream_output_adapter@D@__crt_stdio_output@@V?$standard_base@DV?$stream_output_adapter@D@__crt_stdio_output@@@2@@__crt_stdio_output@@AEAA_ND@Z 000000014007c7d0 f i libucrt:output.obj
 0001:0007b8e4       ?state_case_normal_tchar@?$output_processor@DV?$string_output_adapter@D@__crt_stdio_output@@V?$format_validation_base@DV?$string_output_adapter@D@__crt_stdio_output@@@2@@__crt_stdio_output@@AEAA_ND@Z 000000014007c8e4 f i libucrt:output.obj
 0001:0007b9f8       ?state_case_normal_tchar@?$output_processor@DV?$string_output_adapter@D@__crt_stdio_output@@V?$positional_parameter_base@DV?$string_output_adapter@D@__crt_stdio_output@@@2@@__crt_stdio_output@@AEAA_ND@Z 000000014007c9f8 f i libucrt:output.obj
 0001:0007bb0c       ?state_case_normal_tchar@?$output_processor@DV?$string_output_adapter@D@__crt_stdio_output@@V?$standard_base@DV?$string_output_adapter@D@__crt_stdio_output@@@2@@__crt_stdio_output@@AEAA_ND@Z 000000014007cb0c f i libucrt:output.obj
 0001:0007bc20       ?state_case_normal_tchar@?$output_processor@_WV?$stream_output_adapter@_W@__crt_stdio_output@@V?$format_validation_base@_WV?$stream_output_adapter@_W@__crt_stdio_output@@@2@@__crt_stdio_output@@AEAA_N_W@Z 000000014007cc20 f i libucrt:output.obj
 0001:0007bc28       ?state_case_normal_tchar@?$output_processor@_WV?$stream_output_adapter@_W@__crt_stdio_output@@V?$positional_parameter_base@_WV?$stream_output_adapter@_W@__crt_stdio_output@@@2@@__crt_stdio_output@@AEAA_N_W@Z 000000014007cc28 f i libucrt:output.obj
 0001:0007bc30       ?state_case_normal_tchar@?$output_processor@_WV?$stream_output_adapter@_W@__crt_stdio_output@@V?$standard_base@_WV?$stream_output_adapter@_W@__crt_stdio_output@@@2@@__crt_stdio_output@@AEAA_N_W@Z 000000014007cc30 f i libucrt:output.obj
 0001:0007bc38       ?state_case_normal_tchar@?$output_processor@_WV?$string_output_adapter@_W@__crt_stdio_output@@V?$format_validation_base@_WV?$string_output_adapter@_W@__crt_stdio_output@@@2@@__crt_stdio_output@@AEAA_N_W@Z 000000014007cc38 f i libucrt:output.obj
 0001:0007bc40       ?state_case_normal_tchar@?$output_processor@_WV?$string_output_adapter@_W@__crt_stdio_output@@V?$positional_parameter_base@_WV?$string_output_adapter@_W@__crt_stdio_output@@@2@@__crt_stdio_output@@AEAA_N_W@Z 000000014007cc40 f i libucrt:output.obj
 0001:0007bc48       ?state_case_normal_tchar@?$output_processor@_WV?$string_output_adapter@_W@__crt_stdio_output@@V?$standard_base@_WV?$string_output_adapter@_W@__crt_stdio_output@@@2@@__crt_stdio_output@@AEAA_N_W@Z 000000014007cc48 f i libucrt:output.obj
 0001:0007bc50       ?state_case_percent@?$output_processor@DV?$stream_output_adapter@D@__crt_stdio_output@@V?$format_validation_base@DV?$stream_output_adapter@D@__crt_stdio_output@@@2@@__crt_stdio_output@@AEAA_NXZ 000000014007cc50 f i libucrt:output.obj
 0001:0007bc6c       ?state_case_percent@?$output_processor@DV?$stream_output_adapter@D@__crt_stdio_output@@V?$positional_parameter_base@DV?$stream_output_adapter@D@__crt_stdio_output@@@2@@__crt_stdio_output@@AEAA_NXZ 000000014007cc6c f i libucrt:output.obj
 0001:0007bc88       ?state_case_percent@?$output_processor@DV?$stream_output_adapter@D@__crt_stdio_output@@V?$standard_base@DV?$stream_output_adapter@D@__crt_stdio_output@@@2@@__crt_stdio_output@@AEAA_NXZ 000000014007cc88 f i libucrt:output.obj
 0001:0007bca4       ?state_case_percent@?$output_processor@DV?$string_output_adapter@D@__crt_stdio_output@@V?$format_validation_base@DV?$string_output_adapter@D@__crt_stdio_output@@@2@@__crt_stdio_output@@AEAA_NXZ 000000014007cca4 f i libucrt:output.obj
 0001:0007bcc0       ?state_case_percent@?$output_processor@DV?$string_output_adapter@D@__crt_stdio_output@@V?$positional_parameter_base@DV?$string_output_adapter@D@__crt_stdio_output@@@2@@__crt_stdio_output@@AEAA_NXZ 000000014007ccc0 f i libucrt:output.obj
 0001:0007bcdc       ?state_case_percent@?$output_processor@DV?$string_output_adapter@D@__crt_stdio_output@@V?$standard_base@DV?$string_output_adapter@D@__crt_stdio_output@@@2@@__crt_stdio_output@@AEAA_NXZ 000000014007ccdc f i libucrt:output.obj
 0001:0007bcf8       ?state_case_percent@?$output_processor@_WV?$stream_output_adapter@_W@__crt_stdio_output@@V?$format_validation_base@_WV?$stream_output_adapter@_W@__crt_stdio_output@@@2@@__crt_stdio_output@@AEAA_NXZ 000000014007ccf8 f i libucrt:output.obj
 0001:0007bd14       ?state_case_percent@?$output_processor@_WV?$stream_output_adapter@_W@__crt_stdio_output@@V?$positional_parameter_base@_WV?$stream_output_adapter@_W@__crt_stdio_output@@@2@@__crt_stdio_output@@AEAA_NXZ 000000014007cd14 f i libucrt:output.obj
 0001:0007bd30       ?state_case_percent@?$output_processor@_WV?$stream_output_adapter@_W@__crt_stdio_output@@V?$standard_base@_WV?$stream_output_adapter@_W@__crt_stdio_output@@@2@@__crt_stdio_output@@AEAA_NXZ 000000014007cd30 f i libucrt:output.obj
 0001:0007bd4c       ?state_case_percent@?$output_processor@_WV?$string_output_adapter@_W@__crt_stdio_output@@V?$format_validation_base@_WV?$string_output_adapter@_W@__crt_stdio_output@@@2@@__crt_stdio_output@@AEAA_NXZ 000000014007cd4c f i libucrt:output.obj
 0001:0007bd68       ?state_case_percent@?$output_processor@_WV?$string_output_adapter@_W@__crt_stdio_output@@V?$positional_parameter_base@_WV?$string_output_adapter@_W@__crt_stdio_output@@@2@@__crt_stdio_output@@AEAA_NXZ 000000014007cd68 f i libucrt:output.obj
 0001:0007bd84       ?state_case_percent@?$output_processor@_WV?$string_output_adapter@_W@__crt_stdio_output@@V?$standard_base@_WV?$string_output_adapter@_W@__crt_stdio_output@@@2@@__crt_stdio_output@@AEAA_NXZ 000000014007cd84 f i libucrt:output.obj
 0001:0007bda0       ?state_case_precision@?$output_processor@DV?$stream_output_adapter@D@__crt_stdio_output@@V?$format_validation_base@DV?$stream_output_adapter@D@__crt_stdio_output@@@2@@__crt_stdio_output@@AEAA_NXZ 000000014007cda0 f i libucrt:output.obj
 0001:0007bddc       ?state_case_precision@?$output_processor@DV?$stream_output_adapter@D@__crt_stdio_output@@V?$positional_parameter_base@DV?$stream_output_adapter@D@__crt_stdio_output@@@2@@__crt_stdio_output@@AEAA_NXZ 000000014007cddc f i libucrt:output.obj
 0001:0007be38       ?state_case_precision@?$output_processor@DV?$stream_output_adapter@D@__crt_stdio_output@@V?$standard_base@DV?$stream_output_adapter@D@__crt_stdio_output@@@2@@__crt_stdio_output@@AEAA_NXZ 000000014007ce38 f i libucrt:output.obj
 0001:0007be74       ?state_case_precision@?$output_processor@DV?$string_output_adapter@D@__crt_stdio_output@@V?$format_validation_base@DV?$string_output_adapter@D@__crt_stdio_output@@@2@@__crt_stdio_output@@AEAA_NXZ 000000014007ce74 f i libucrt:output.obj
 0001:0007beb0       ?state_case_precision@?$output_processor@DV?$string_output_adapter@D@__crt_stdio_output@@V?$positional_parameter_base@DV?$string_output_adapter@D@__crt_stdio_output@@@2@@__crt_stdio_output@@AEAA_NXZ 000000014007ceb0 f i libucrt:output.obj
 0001:0007bf0c       ?state_case_precision@?$output_processor@DV?$string_output_adapter@D@__crt_stdio_output@@V?$standard_base@DV?$string_output_adapter@D@__crt_stdio_output@@@2@@__crt_stdio_output@@AEAA_NXZ 000000014007cf0c f i libucrt:output.obj
 0001:0007bf48       ?state_case_precision@?$output_processor@_WV?$stream_output_adapter@_W@__crt_stdio_output@@V?$format_validation_base@_WV?$stream_output_adapter@_W@__crt_stdio_output@@@2@@__crt_stdio_output@@AEAA_NXZ 000000014007cf48 f i libucrt:output.obj
 0001:0007bf88       ?state_case_precision@?$output_processor@_WV?$stream_output_adapter@_W@__crt_stdio_output@@V?$positional_parameter_base@_WV?$stream_output_adapter@_W@__crt_stdio_output@@@2@@__crt_stdio_output@@AEAA_NXZ 000000014007cf88 f i libucrt:output.obj
 0001:0007bfe8       ?state_case_precision@?$output_processor@_WV?$stream_output_adapter@_W@__crt_stdio_output@@V?$standard_base@_WV?$stream_output_adapter@_W@__crt_stdio_output@@@2@@__crt_stdio_output@@AEAA_NXZ 000000014007cfe8 f i libucrt:output.obj
 0001:0007c028       ?state_case_precision@?$output_processor@_WV?$string_output_adapter@_W@__crt_stdio_output@@V?$format_validation_base@_WV?$string_output_adapter@_W@__crt_stdio_output@@@2@@__crt_stdio_output@@AEAA_NXZ 000000014007d028 f i libucrt:output.obj
 0001:0007c068       ?state_case_precision@?$output_processor@_WV?$string_output_adapter@_W@__crt_stdio_output@@V?$positional_parameter_base@_WV?$string_output_adapter@_W@__crt_stdio_output@@@2@@__crt_stdio_output@@AEAA_NXZ 000000014007d068 f i libucrt:output.obj
 0001:0007c0c8       ?state_case_precision@?$output_processor@_WV?$string_output_adapter@_W@__crt_stdio_output@@V?$standard_base@_WV?$string_output_adapter@_W@__crt_stdio_output@@@2@@__crt_stdio_output@@AEAA_NXZ 000000014007d0c8 f i libucrt:output.obj
 0001:0007c108       ?state_case_size@?$output_processor@DV?$stream_output_adapter@D@__crt_stdio_output@@V?$format_validation_base@DV?$stream_output_adapter@D@__crt_stdio_output@@@2@@__crt_stdio_output@@AEAA_NXZ 000000014007d108 f i libucrt:output.obj
 0001:0007c2f0       ?state_case_size@?$output_processor@DV?$stream_output_adapter@D@__crt_stdio_output@@V?$positional_parameter_base@DV?$stream_output_adapter@D@__crt_stdio_output@@@2@@__crt_stdio_output@@AEAA_NXZ 000000014007d2f0 f i libucrt:output.obj
 0001:0007c4d8       ?state_case_size@?$output_processor@DV?$stream_output_adapter@D@__crt_stdio_output@@V?$standard_base@DV?$stream_output_adapter@D@__crt_stdio_output@@@2@@__crt_stdio_output@@AEAA_NXZ 000000014007d4d8 f i libucrt:output.obj
 0001:0007c6c0       ?state_case_size@?$output_processor@DV?$string_output_adapter@D@__crt_stdio_output@@V?$format_validation_base@DV?$string_output_adapter@D@__crt_stdio_output@@@2@@__crt_stdio_output@@AEAA_NXZ 000000014007d6c0 f i libucrt:output.obj
 0001:0007c8a8       ?state_case_size@?$output_processor@DV?$string_output_adapter@D@__crt_stdio_output@@V?$positional_parameter_base@DV?$string_output_adapter@D@__crt_stdio_output@@@2@@__crt_stdio_output@@AEAA_NXZ 000000014007d8a8 f i libucrt:output.obj
 0001:0007ca90       ?state_case_size@?$output_processor@DV?$string_output_adapter@D@__crt_stdio_output@@V?$standard_base@DV?$string_output_adapter@D@__crt_stdio_output@@@2@@__crt_stdio_output@@AEAA_NXZ 000000014007da90 f i libucrt:output.obj
 0001:0007cc78       ?state_case_size@?$output_processor@_WV?$stream_output_adapter@_W@__crt_stdio_output@@V?$format_validation_base@_WV?$stream_output_adapter@_W@__crt_stdio_output@@@2@@__crt_stdio_output@@AEAA_NXZ 000000014007dc78 f i libucrt:output.obj
 0001:0007ce90       ?state_case_size@?$output_processor@_WV?$stream_output_adapter@_W@__crt_stdio_output@@V?$positional_parameter_base@_WV?$stream_output_adapter@_W@__crt_stdio_output@@@2@@__crt_stdio_output@@AEAA_NXZ 000000014007de90 f i libucrt:output.obj
 0001:0007d0a8       ?state_case_size@?$output_processor@_WV?$stream_output_adapter@_W@__crt_stdio_output@@V?$standard_base@_WV?$stream_output_adapter@_W@__crt_stdio_output@@@2@@__crt_stdio_output@@AEAA_NXZ 000000014007e0a8 f i libucrt:output.obj
 0001:0007d2c0       ?state_case_size@?$output_processor@_WV?$string_output_adapter@_W@__crt_stdio_output@@V?$format_validation_base@_WV?$string_output_adapter@_W@__crt_stdio_output@@@2@@__crt_stdio_output@@AEAA_NXZ 000000014007e2c0 f i libucrt:output.obj
 0001:0007d4d8       ?state_case_size@?$output_processor@_WV?$string_output_adapter@_W@__crt_stdio_output@@V?$positional_parameter_base@_WV?$string_output_adapter@_W@__crt_stdio_output@@@2@@__crt_stdio_output@@AEAA_NXZ 000000014007e4d8 f i libucrt:output.obj
 0001:0007d6f0       ?state_case_size@?$output_processor@_WV?$string_output_adapter@_W@__crt_stdio_output@@V?$standard_base@_WV?$string_output_adapter@_W@__crt_stdio_output@@@2@@__crt_stdio_output@@AEAA_NXZ 000000014007e6f0 f i libucrt:output.obj
 0001:0007d908       ?state_case_type@?$output_processor@DV?$stream_output_adapter@D@__crt_stdio_output@@V?$format_validation_base@DV?$stream_output_adapter@D@__crt_stdio_output@@@2@@__crt_stdio_output@@AEAA_NXZ 000000014007e908 f i libucrt:output.obj
 0001:0007de4c       ?state_case_type@?$output_processor@DV?$stream_output_adapter@D@__crt_stdio_output@@V?$positional_parameter_base@DV?$stream_output_adapter@D@__crt_stdio_output@@@2@@__crt_stdio_output@@AEAA_NXZ 000000014007ee4c f i libucrt:output.obj
 0001:0007e3cc       ?state_case_type@?$output_processor@DV?$stream_output_adapter@D@__crt_stdio_output@@V?$standard_base@DV?$stream_output_adapter@D@__crt_stdio_output@@@2@@__crt_stdio_output@@AEAA_NXZ 000000014007f3cc f i libucrt:output.obj
 0001:0007e910       ?state_case_type@?$output_processor@DV?$string_output_adapter@D@__crt_stdio_output@@V?$format_validation_base@DV?$string_output_adapter@D@__crt_stdio_output@@@2@@__crt_stdio_output@@AEAA_NXZ 000000014007f910 f i libucrt:output.obj
 0001:0007ee14       ?state_case_type@?$output_processor@DV?$string_output_adapter@D@__crt_stdio_output@@V?$positional_parameter_base@DV?$string_output_adapter@D@__crt_stdio_output@@@2@@__crt_stdio_output@@AEAA_NXZ 000000014007fe14 f i libucrt:output.obj
 0001:0007f330       ?state_case_type@?$output_processor@DV?$string_output_adapter@D@__crt_stdio_output@@V?$standard_base@DV?$string_output_adapter@D@__crt_stdio_output@@@2@@__crt_stdio_output@@AEAA_NXZ 0000000140080330 f i libucrt:output.obj
 0001:0007f834       ?state_case_type@?$output_processor@_WV?$stream_output_adapter@_W@__crt_stdio_output@@V?$format_validation_base@_WV?$stream_output_adapter@_W@__crt_stdio_output@@@2@@__crt_stdio_output@@AEAA_NXZ 0000000140080834 f i libucrt:output.obj
 0001:0007fe28       ?state_case_type@?$output_processor@_WV?$stream_output_adapter@_W@__crt_stdio_output@@V?$positional_parameter_base@_WV?$stream_output_adapter@_W@__crt_stdio_output@@@2@@__crt_stdio_output@@AEAA_NXZ 0000000140080e28 f i libucrt:output.obj
 0001:00080438       ?state_case_type@?$output_processor@_WV?$stream_output_adapter@_W@__crt_stdio_output@@V?$standard_base@_WV?$stream_output_adapter@_W@__crt_stdio_output@@@2@@__crt_stdio_output@@AEAA_NXZ 0000000140081438 f i libucrt:output.obj
 0001:00080a2c       ?state_case_type@?$output_processor@_WV?$string_output_adapter@_W@__crt_stdio_output@@V?$format_validation_base@_WV?$string_output_adapter@_W@__crt_stdio_output@@@2@@__crt_stdio_output@@AEAA_NXZ 0000000140081a2c f i libucrt:output.obj
 0001:00080fac       ?state_case_type@?$output_processor@_WV?$string_output_adapter@_W@__crt_stdio_output@@V?$positional_parameter_base@_WV?$string_output_adapter@_W@__crt_stdio_output@@@2@@__crt_stdio_output@@AEAA_NXZ 0000000140081fac f i libucrt:output.obj
 0001:00081560       ?state_case_type@?$output_processor@_WV?$string_output_adapter@_W@__crt_stdio_output@@V?$standard_base@_WV?$string_output_adapter@_W@__crt_stdio_output@@@2@@__crt_stdio_output@@AEAA_NXZ 0000000140082560 f i libucrt:output.obj
 0001:00081ae0       ?state_case_width@?$output_processor@DV?$stream_output_adapter@D@__crt_stdio_output@@V?$format_validation_base@DV?$stream_output_adapter@D@__crt_stdio_output@@@2@@__crt_stdio_output@@AEAA_NXZ 0000000140082ae0 f i libucrt:output.obj
 0001:00081b20       ?state_case_width@?$output_processor@DV?$stream_output_adapter@D@__crt_stdio_output@@V?$positional_parameter_base@DV?$stream_output_adapter@D@__crt_stdio_output@@@2@@__crt_stdio_output@@AEAA_NXZ 0000000140082b20 f i libucrt:output.obj
 0001:00081b84       ?state_case_width@?$output_processor@DV?$stream_output_adapter@D@__crt_stdio_output@@V?$standard_base@DV?$stream_output_adapter@D@__crt_stdio_output@@@2@@__crt_stdio_output@@AEAA_NXZ 0000000140082b84 f i libucrt:output.obj
 0001:00081bc4       ?state_case_width@?$output_processor@DV?$string_output_adapter@D@__crt_stdio_output@@V?$format_validation_base@DV?$string_output_adapter@D@__crt_stdio_output@@@2@@__crt_stdio_output@@AEAA_NXZ 0000000140082bc4 f i libucrt:output.obj
 0001:00081c04       ?state_case_width@?$output_processor@DV?$string_output_adapter@D@__crt_stdio_output@@V?$positional_parameter_base@DV?$string_output_adapter@D@__crt_stdio_output@@@2@@__crt_stdio_output@@AEAA_NXZ 0000000140082c04 f i libucrt:output.obj
 0001:00081c68       ?state_case_width@?$output_processor@DV?$string_output_adapter@D@__crt_stdio_output@@V?$standard_base@DV?$string_output_adapter@D@__crt_stdio_output@@@2@@__crt_stdio_output@@AEAA_NXZ 0000000140082c68 f i libucrt:output.obj
 0001:00081ca8       ?state_case_width@?$output_processor@_WV?$stream_output_adapter@_W@__crt_stdio_output@@V?$format_validation_base@_WV?$stream_output_adapter@_W@__crt_stdio_output@@@2@@__crt_stdio_output@@AEAA_NXZ 0000000140082ca8 f i libucrt:output.obj
 0001:00081ce8       ?state_case_width@?$output_processor@_WV?$stream_output_adapter@_W@__crt_stdio_output@@V?$positional_parameter_base@_WV?$stream_output_adapter@_W@__crt_stdio_output@@@2@@__crt_stdio_output@@AEAA_NXZ 0000000140082ce8 f i libucrt:output.obj
 0001:00081d50       ?state_case_width@?$output_processor@_WV?$stream_output_adapter@_W@__crt_stdio_output@@V?$standard_base@_WV?$stream_output_adapter@_W@__crt_stdio_output@@@2@@__crt_stdio_output@@AEAA_NXZ 0000000140082d50 f i libucrt:output.obj
 0001:00081d90       ?state_case_width@?$output_processor@_WV?$string_output_adapter@_W@__crt_stdio_output@@V?$format_validation_base@_WV?$string_output_adapter@_W@__crt_stdio_output@@@2@@__crt_stdio_output@@AEAA_NXZ 0000000140082d90 f i libucrt:output.obj
 0001:00081dd0       ?state_case_width@?$output_processor@_WV?$string_output_adapter@_W@__crt_stdio_output@@V?$positional_parameter_base@_WV?$string_output_adapter@_W@__crt_stdio_output@@@2@@__crt_stdio_output@@AEAA_NXZ 0000000140082dd0 f i libucrt:output.obj
 0001:00081e38       ?state_case_width@?$output_processor@_WV?$string_output_adapter@_W@__crt_stdio_output@@V?$standard_base@_WV?$string_output_adapter@_W@__crt_stdio_output@@@2@@__crt_stdio_output@@AEAA_NXZ 0000000140082e38 f i libucrt:output.obj
 0001:00081e78       ?state_count@?$format_validation_base@DV?$stream_output_adapter@D@__crt_stdio_output@@@__crt_stdio_output@@KAIXZ 0000000140082e78 f i libucrt:output.obj
 0001:00081e80       ?state_count@?$format_validation_base@DV?$string_output_adapter@D@__crt_stdio_output@@@__crt_stdio_output@@KAIXZ 0000000140082e80 f i libucrt:output.obj
 0001:00081e88       ?state_count@?$format_validation_base@_WV?$stream_output_adapter@_W@__crt_stdio_output@@@__crt_stdio_output@@KAIXZ 0000000140082e88 f i libucrt:output.obj
 0001:00081e90       ?state_count@?$format_validation_base@_WV?$string_output_adapter@_W@__crt_stdio_output@@@__crt_stdio_output@@KAIXZ 0000000140082e90 f i libucrt:output.obj
 0001:00081e98       ?state_count@?$standard_base@DV?$stream_output_adapter@D@__crt_stdio_output@@@__crt_stdio_output@@KAIXZ 0000000140082e98 f i libucrt:output.obj
 0001:00081ea0       ?state_count@?$standard_base@DV?$string_output_adapter@D@__crt_stdio_output@@@__crt_stdio_output@@KAIXZ 0000000140082ea0 f i libucrt:output.obj
 0001:00081ea8       ?state_count@?$standard_base@_WV?$stream_output_adapter@_W@__crt_stdio_output@@@__crt_stdio_output@@KAIXZ 0000000140082ea8 f i libucrt:output.obj
 0001:00081eb0       ?state_count@?$standard_base@_WV?$string_output_adapter@_W@__crt_stdio_output@@@__crt_stdio_output@@KAIXZ 0000000140082eb0 f i libucrt:output.obj
 0001:00081eb8       ?state_transition_table@?$format_validation_base@DV?$stream_output_adapter@D@__crt_stdio_output@@@__crt_stdio_output@@KAAEBV?$spectre_mitigated_lookup_table@Ustate_transition_pair@__crt_stdio_output@@$0IA@@2@XZ 0000000140082eb8 f i libucrt:output.obj
 0001:00081ec4       ?state_transition_table@?$format_validation_base@DV?$string_output_adapter@D@__crt_stdio_output@@@__crt_stdio_output@@KAAEBV?$spectre_mitigated_lookup_table@Ustate_transition_pair@__crt_stdio_output@@$0IA@@2@XZ 0000000140082ec4 f i libucrt:output.obj
 0001:00081ed0       ?state_transition_table@?$format_validation_base@_WV?$stream_output_adapter@_W@__crt_stdio_output@@@__crt_stdio_output@@KAAEBV?$spectre_mitigated_lookup_table@Ustate_transition_pair@__crt_stdio_output@@$0IA@@2@XZ 0000000140082ed0 f i libucrt:output.obj
 0001:00081edc       ?state_transition_table@?$format_validation_base@_WV?$string_output_adapter@_W@__crt_stdio_output@@@__crt_stdio_output@@KAAEBV?$spectre_mitigated_lookup_table@Ustate_transition_pair@__crt_stdio_output@@$0IA@@2@XZ 0000000140082edc f i libucrt:output.obj
 0001:00081ee8       ?state_transition_table@?$standard_base@DV?$stream_output_adapter@D@__crt_stdio_output@@@__crt_stdio_output@@KAAEBV?$spectre_mitigated_lookup_table@Ustate_transition_pair@__crt_stdio_output@@$0IA@@2@XZ 0000000140082ee8 f i libucrt:output.obj
 0001:00081ef4       ?state_transition_table@?$standard_base@DV?$string_output_adapter@D@__crt_stdio_output@@@__crt_stdio_output@@KAAEBV?$spectre_mitigated_lookup_table@Ustate_transition_pair@__crt_stdio_output@@$0IA@@2@XZ 0000000140082ef4 f i libucrt:output.obj
 0001:00081f00       ?state_transition_table@?$standard_base@_WV?$stream_output_adapter@_W@__crt_stdio_output@@@__crt_stdio_output@@KAAEBV?$spectre_mitigated_lookup_table@Ustate_transition_pair@__crt_stdio_output@@$0IA@@2@XZ 0000000140082f00 f i libucrt:output.obj
 0001:00081f0c       ?state_transition_table@?$standard_base@_WV?$string_output_adapter@_W@__crt_stdio_output@@@__crt_stdio_output@@KAAEBV?$spectre_mitigated_lookup_table@Ustate_transition_pair@__crt_stdio_output@@$0IA@@2@XZ 0000000140082f0c f i libucrt:output.obj
 0001:00081f18       ?tchar_string@?$common_data@D@__crt_stdio_output@@IEAAAEAPEADD@Z 0000000140082f18 f i libucrt:output.obj
 0001:00081f20       ?tchar_string@?$common_data@D@__crt_stdio_output@@IEAAAEAPEADXZ 0000000140082f20 f i libucrt:output.obj
 0001:00081f28       ?tchar_string@?$common_data@_W@__crt_stdio_output@@IEAAAEAPEA_WXZ 0000000140082f28 f i libucrt:output.obj
 0001:00081f30       ?tchar_string@?$common_data@_W@__crt_stdio_output@@IEAAAEAPEA_W_W@Z 0000000140082f30 f i libucrt:output.obj
 0001:00081f38       ?to_integer_size@__crt_stdio_output@@YA_KW4length_modifier@1@@Z 0000000140082f38 f i libucrt:output.obj
 0001:00081f90       ?type_case_X@?$output_processor@DV?$stream_output_adapter@D@__crt_stdio_output@@V?$format_validation_base@DV?$stream_output_adapter@D@__crt_stdio_output@@@2@@__crt_stdio_output@@AEAA_NXZ 0000000140082f90 f i libucrt:output.obj
 0001:00081f98       ?type_case_X@?$output_processor@DV?$stream_output_adapter@D@__crt_stdio_output@@V?$positional_parameter_base@DV?$stream_output_adapter@D@__crt_stdio_output@@@2@@__crt_stdio_output@@AEAA_NXZ 0000000140082f98 f i libucrt:output.obj
 0001:00081fa0       ?type_case_X@?$output_processor@DV?$stream_output_adapter@D@__crt_stdio_output@@V?$standard_base@DV?$stream_output_adapter@D@__crt_stdio_output@@@2@@__crt_stdio_output@@AEAA_NXZ 0000000140082fa0 f i libucrt:output.obj
 0001:00081fa8       ?type_case_X@?$output_processor@DV?$string_output_adapter@D@__crt_stdio_output@@V?$format_validation_base@DV?$string_output_adapter@D@__crt_stdio_output@@@2@@__crt_stdio_output@@AEAA_NXZ 0000000140082fa8 f i libucrt:output.obj
 0001:00081fb0       ?type_case_X@?$output_processor@DV?$string_output_adapter@D@__crt_stdio_output@@V?$positional_parameter_base@DV?$string_output_adapter@D@__crt_stdio_output@@@2@@__crt_stdio_output@@AEAA_NXZ 0000000140082fb0 f i libucrt:output.obj
 0001:00081fb8       ?type_case_X@?$output_processor@DV?$string_output_adapter@D@__crt_stdio_output@@V?$standard_base@DV?$string_output_adapter@D@__crt_stdio_output@@@2@@__crt_stdio_output@@AEAA_NXZ 0000000140082fb8 f i libucrt:output.obj
 0001:00081fc0       ?type_case_X@?$output_processor@_WV?$stream_output_adapter@_W@__crt_stdio_output@@V?$format_validation_base@_WV?$stream_output_adapter@_W@__crt_stdio_output@@@2@@__crt_stdio_output@@AEAA_NXZ 0000000140082fc0 f i libucrt:output.obj
 0001:00081fc8       ?type_case_X@?$output_processor@_WV?$stream_output_adapter@_W@__crt_stdio_output@@V?$positional_parameter_base@_WV?$stream_output_adapter@_W@__crt_stdio_output@@@2@@__crt_stdio_output@@AEAA_NXZ 0000000140082fc8 f i libucrt:output.obj
 0001:00081fd0       ?type_case_X@?$output_processor@_WV?$stream_output_adapter@_W@__crt_stdio_output@@V?$standard_base@_WV?$stream_output_adapter@_W@__crt_stdio_output@@@2@@__crt_stdio_output@@AEAA_NXZ 0000000140082fd0 f i libucrt:output.obj
 0001:00081fd8       ?type_case_X@?$output_processor@_WV?$string_output_adapter@_W@__crt_stdio_output@@V?$format_validation_base@_WV?$string_output_adapter@_W@__crt_stdio_output@@@2@@__crt_stdio_output@@AEAA_NXZ 0000000140082fd8 f i libucrt:output.obj
 0001:00081fe0       ?type_case_X@?$output_processor@_WV?$string_output_adapter@_W@__crt_stdio_output@@V?$positional_parameter_base@_WV?$string_output_adapter@_W@__crt_stdio_output@@@2@@__crt_stdio_output@@AEAA_NXZ 0000000140082fe0 f i libucrt:output.obj
 0001:00081fe8       ?type_case_X@?$output_processor@_WV?$string_output_adapter@_W@__crt_stdio_output@@V?$standard_base@_WV?$string_output_adapter@_W@__crt_stdio_output@@@2@@__crt_stdio_output@@AEAA_NXZ 0000000140082fe8 f i libucrt:output.obj
 0001:00081ff0       ?type_case_Z@?$output_processor@DV?$stream_output_adapter@D@__crt_stdio_output@@V?$format_validation_base@DV?$stream_output_adapter@D@__crt_stdio_output@@@2@@__crt_stdio_output@@AEAA_NXZ 0000000140082ff0 f i libucrt:output.obj
 0001:0008208c       ?type_case_Z@?$output_processor@DV?$stream_output_adapter@D@__crt_stdio_output@@V?$positional_parameter_base@DV?$stream_output_adapter@D@__crt_stdio_output@@@2@@__crt_stdio_output@@AEAA_NXZ 000000014008308c f i libucrt:output.obj
 0001:0008215c       ?type_case_Z@?$output_processor@DV?$stream_output_adapter@D@__crt_stdio_output@@V?$standard_base@DV?$stream_output_adapter@D@__crt_stdio_output@@@2@@__crt_stdio_output@@AEAA_NXZ 000000014008315c f i libucrt:output.obj
 0001:000821f8       ?type_case_Z@?$output_processor@DV?$string_output_adapter@D@__crt_stdio_output@@V?$format_validation_base@DV?$string_output_adapter@D@__crt_stdio_output@@@2@@__crt_stdio_output@@AEAA_NXZ 00000001400831f8 f i libucrt:output.obj
 0001:00082294       ?type_case_Z@?$output_processor@DV?$string_output_adapter@D@__crt_stdio_output@@V?$positional_parameter_base@DV?$string_output_adapter@D@__crt_stdio_output@@@2@@__crt_stdio_output@@AEAA_NXZ 0000000140083294 f i libucrt:output.obj
 0001:00082364       ?type_case_Z@?$output_processor@DV?$string_output_adapter@D@__crt_stdio_output@@V?$standard_base@DV?$string_output_adapter@D@__crt_stdio_output@@@2@@__crt_stdio_output@@AEAA_NXZ 0000000140083364 f i libucrt:output.obj
 0001:00082400       ?type_case_Z@?$output_processor@_WV?$stream_output_adapter@_W@__crt_stdio_output@@V?$format_validation_base@_WV?$stream_output_adapter@_W@__crt_stdio_output@@@2@@__crt_stdio_output@@AEAA_NXZ 0000000140083400 f i libucrt:output.obj
 0001:0008249c       ?type_case_Z@?$output_processor@_WV?$stream_output_adapter@_W@__crt_stdio_output@@V?$positional_parameter_base@_WV?$stream_output_adapter@_W@__crt_stdio_output@@@2@@__crt_stdio_output@@AEAA_NXZ 000000014008349c f i libucrt:output.obj
 0001:00082558       ?type_case_Z@?$output_processor@_WV?$stream_output_adapter@_W@__crt_stdio_output@@V?$standard_base@_WV?$stream_output_adapter@_W@__crt_stdio_output@@@2@@__crt_stdio_output@@AEAA_NXZ 0000000140083558 f i libucrt:output.obj
 0001:000825f4       ?type_case_Z@?$output_processor@_WV?$string_output_adapter@_W@__crt_stdio_output@@V?$format_validation_base@_WV?$string_output_adapter@_W@__crt_stdio_output@@@2@@__crt_stdio_output@@AEAA_NXZ 00000001400835f4 f i libucrt:output.obj
 0001:00082690       ?type_case_Z@?$output_processor@_WV?$string_output_adapter@_W@__crt_stdio_output@@V?$positional_parameter_base@_WV?$string_output_adapter@_W@__crt_stdio_output@@@2@@__crt_stdio_output@@AEAA_NXZ 0000000140083690 f i libucrt:output.obj
 0001:0008274c       ?type_case_Z@?$output_processor@_WV?$string_output_adapter@_W@__crt_stdio_output@@V?$standard_base@_WV?$string_output_adapter@_W@__crt_stdio_output@@@2@@__crt_stdio_output@@AEAA_NXZ 000000014008374c f i libucrt:output.obj
 0001:000827e8       ?type_case_a@?$output_processor@DV?$stream_output_adapter@D@__crt_stdio_output@@V?$format_validation_base@DV?$stream_output_adapter@D@__crt_stdio_output@@@2@@__crt_stdio_output@@AEAA_NXZ 00000001400837e8 f i libucrt:output.obj
 0001:00082ad0       ?type_case_a@?$output_processor@DV?$stream_output_adapter@D@__crt_stdio_output@@V?$positional_parameter_base@DV?$stream_output_adapter@D@__crt_stdio_output@@@2@@__crt_stdio_output@@AEAA_NXZ 0000000140083ad0 f i libucrt:output.obj
 0001:00082dec       ?type_case_a@?$output_processor@DV?$stream_output_adapter@D@__crt_stdio_output@@V?$standard_base@DV?$stream_output_adapter@D@__crt_stdio_output@@@2@@__crt_stdio_output@@AEAA_NXZ 0000000140083dec f i libucrt:output.obj
 0001:000830d4       ?type_case_a@?$output_processor@DV?$string_output_adapter@D@__crt_stdio_output@@V?$format_validation_base@DV?$string_output_adapter@D@__crt_stdio_output@@@2@@__crt_stdio_output@@AEAA_NXZ 00000001400840d4 f i libucrt:output.obj
 0001:000833bc       ?type_case_a@?$output_processor@DV?$string_output_adapter@D@__crt_stdio_output@@V?$positional_parameter_base@DV?$string_output_adapter@D@__crt_stdio_output@@@2@@__crt_stdio_output@@AEAA_NXZ 00000001400843bc f i libucrt:output.obj
 0001:000836d8       ?type_case_a@?$output_processor@DV?$string_output_adapter@D@__crt_stdio_output@@V?$standard_base@DV?$string_output_adapter@D@__crt_stdio_output@@@2@@__crt_stdio_output@@AEAA_NXZ 00000001400846d8 f i libucrt:output.obj
 0001:000839c0       ?type_case_a@?$output_processor@_WV?$stream_output_adapter@_W@__crt_stdio_output@@V?$format_validation_base@_WV?$stream_output_adapter@_W@__crt_stdio_output@@@2@@__crt_stdio_output@@AEAA_NXZ 00000001400849c0 f i libucrt:output.obj
 0001:00083cc0       ?type_case_a@?$output_processor@_WV?$stream_output_adapter@_W@__crt_stdio_output@@V?$positional_parameter_base@_WV?$stream_output_adapter@_W@__crt_stdio_output@@@2@@__crt_stdio_output@@AEAA_NXZ 0000000140084cc0 f i libucrt:output.obj
 0001:00083ff8       ?type_case_a@?$output_processor@_WV?$stream_output_adapter@_W@__crt_stdio_output@@V?$standard_base@_WV?$stream_output_adapter@_W@__crt_stdio_output@@@2@@__crt_stdio_output@@AEAA_NXZ 0000000140084ff8 f i libucrt:output.obj
 0001:000842f8       ?type_case_a@?$output_processor@_WV?$string_output_adapter@_W@__crt_stdio_output@@V?$format_validation_base@_WV?$string_output_adapter@_W@__crt_stdio_output@@@2@@__crt_stdio_output@@AEAA_NXZ 00000001400852f8 f i libucrt:output.obj
 0001:000845f8       ?type_case_a@?$output_processor@_WV?$string_output_adapter@_W@__crt_stdio_output@@V?$positional_parameter_base@_WV?$string_output_adapter@_W@__crt_stdio_output@@@2@@__crt_stdio_output@@AEAA_NXZ 00000001400855f8 f i libucrt:output.obj
 0001:00084930       ?type_case_a@?$output_processor@_WV?$string_output_adapter@_W@__crt_stdio_output@@V?$standard_base@_WV?$string_output_adapter@_W@__crt_stdio_output@@@2@@__crt_stdio_output@@AEAA_NXZ 0000000140085930 f i libucrt:output.obj
 0001:00084c30       ?type_case_c@?$output_processor@DV?$stream_output_adapter@D@__crt_stdio_output@@V?$format_validation_base@DV?$stream_output_adapter@D@__crt_stdio_output@@@2@@__crt_stdio_output@@AEAA_NXZ 0000000140085c30 f i libucrt:output.obj
 0001:00084c38       ?type_case_c@?$output_processor@DV?$stream_output_adapter@D@__crt_stdio_output@@V?$positional_parameter_base@DV?$stream_output_adapter@D@__crt_stdio_output@@@2@@__crt_stdio_output@@AEAA_NXZ 0000000140085c38 f i libucrt:output.obj
 0001:00084c40       ?type_case_c@?$output_processor@DV?$stream_output_adapter@D@__crt_stdio_output@@V?$standard_base@DV?$stream_output_adapter@D@__crt_stdio_output@@@2@@__crt_stdio_output@@AEAA_NXZ 0000000140085c40 f i libucrt:output.obj
 0001:00084c48       ?type_case_c@?$output_processor@DV?$string_output_adapter@D@__crt_stdio_output@@V?$format_validation_base@DV?$string_output_adapter@D@__crt_stdio_output@@@2@@__crt_stdio_output@@AEAA_NXZ 0000000140085c48 f i libucrt:output.obj
 0001:00084c50       ?type_case_c@?$output_processor@DV?$string_output_adapter@D@__crt_stdio_output@@V?$positional_parameter_base@DV?$string_output_adapter@D@__crt_stdio_output@@@2@@__crt_stdio_output@@AEAA_NXZ 0000000140085c50 f i libucrt:output.obj
 0001:00084c58       ?type_case_c@?$output_processor@DV?$string_output_adapter@D@__crt_stdio_output@@V?$standard_base@DV?$string_output_adapter@D@__crt_stdio_output@@@2@@__crt_stdio_output@@AEAA_NXZ 0000000140085c58 f i libucrt:output.obj
 0001:00084c60       ?type_case_c@?$output_processor@_WV?$stream_output_adapter@_W@__crt_stdio_output@@V?$format_validation_base@_WV?$stream_output_adapter@_W@__crt_stdio_output@@@2@@__crt_stdio_output@@AEAA_NXZ 0000000140085c60 f i libucrt:output.obj
 0001:00084c68       ?type_case_c@?$output_processor@_WV?$stream_output_adapter@_W@__crt_stdio_output@@V?$positional_parameter_base@_WV?$stream_output_adapter@_W@__crt_stdio_output@@@2@@__crt_stdio_output@@AEAA_NXZ 0000000140085c68 f i libucrt:output.obj
 0001:00084c70       ?type_case_c@?$output_processor@_WV?$stream_output_adapter@_W@__crt_stdio_output@@V?$standard_base@_WV?$stream_output_adapter@_W@__crt_stdio_output@@@2@@__crt_stdio_output@@AEAA_NXZ 0000000140085c70 f i libucrt:output.obj
 0001:00084c78       ?type_case_c@?$output_processor@_WV?$string_output_adapter@_W@__crt_stdio_output@@V?$format_validation_base@_WV?$string_output_adapter@_W@__crt_stdio_output@@@2@@__crt_stdio_output@@AEAA_NXZ 0000000140085c78 f i libucrt:output.obj
 0001:00084c80       ?type_case_c@?$output_processor@_WV?$string_output_adapter@_W@__crt_stdio_output@@V?$positional_parameter_base@_WV?$string_output_adapter@_W@__crt_stdio_output@@@2@@__crt_stdio_output@@AEAA_NXZ 0000000140085c80 f i libucrt:output.obj
 0001:00084c88       ?type_case_c@?$output_processor@_WV?$string_output_adapter@_W@__crt_stdio_output@@V?$standard_base@_WV?$string_output_adapter@_W@__crt_stdio_output@@@2@@__crt_stdio_output@@AEAA_NXZ 0000000140085c88 f i libucrt:output.obj
 0001:00084c90       ?type_case_c_tchar@?$output_processor@DV?$stream_output_adapter@D@__crt_stdio_output@@V?$format_validation_base@DV?$stream_output_adapter@D@__crt_stdio_output@@@2@@__crt_stdio_output@@AEAA_ND@Z 0000000140085c90 f i libucrt:output.obj
 0001:00084d98       ?type_case_c_tchar@?$output_processor@DV?$stream_output_adapter@D@__crt_stdio_output@@V?$positional_parameter_base@DV?$stream_output_adapter@D@__crt_stdio_output@@@2@@__crt_stdio_output@@AEAA_ND@Z 0000000140085d98 f i libucrt:output.obj
 0001:00084ef8       ?type_case_c_tchar@?$output_processor@DV?$stream_output_adapter@D@__crt_stdio_output@@V?$standard_base@DV?$stream_output_adapter@D@__crt_stdio_output@@@2@@__crt_stdio_output@@AEAA_ND@Z 0000000140085ef8 f i libucrt:output.obj
 0001:00085000       ?type_case_c_tchar@?$output_processor@DV?$string_output_adapter@D@__crt_stdio_output@@V?$format_validation_base@DV?$string_output_adapter@D@__crt_stdio_output@@@2@@__crt_stdio_output@@AEAA_ND@Z 0000000140086000 f i libucrt:output.obj
 0001:00085108       ?type_case_c_tchar@?$output_processor@DV?$string_output_adapter@D@__crt_stdio_output@@V?$positional_parameter_base@DV?$string_output_adapter@D@__crt_stdio_output@@@2@@__crt_stdio_output@@AEAA_ND@Z 0000000140086108 f i libucrt:output.obj
 0001:00085268       ?type_case_c_tchar@?$output_processor@DV?$string_output_adapter@D@__crt_stdio_output@@V?$standard_base@DV?$string_output_adapter@D@__crt_stdio_output@@@2@@__crt_stdio_output@@AEAA_ND@Z 0000000140086268 f i libucrt:output.obj
 0001:00085370       ?type_case_c_tchar@?$output_processor@_WV?$stream_output_adapter@_W@__crt_stdio_output@@V?$format_validation_base@_WV?$stream_output_adapter@_W@__crt_stdio_output@@@2@@__crt_stdio_output@@AEAA_N_W@Z 0000000140086370 f i libucrt:output.obj
 0001:00085468       ?type_case_c_tchar@?$output_processor@_WV?$stream_output_adapter@_W@__crt_stdio_output@@V?$positional_parameter_base@_WV?$stream_output_adapter@_W@__crt_stdio_output@@@2@@__crt_stdio_output@@AEAA_N_W@Z 0000000140086468 f i libucrt:output.obj
 0001:0008559c       ?type_case_c_tchar@?$output_processor@_WV?$stream_output_adapter@_W@__crt_stdio_output@@V?$standard_base@_WV?$stream_output_adapter@_W@__crt_stdio_output@@@2@@__crt_stdio_output@@AEAA_N_W@Z 000000014008659c f i libucrt:output.obj
 0001:00085694       ?type_case_c_tchar@?$output_processor@_WV?$string_output_adapter@_W@__crt_stdio_output@@V?$format_validation_base@_WV?$string_output_adapter@_W@__crt_stdio_output@@@2@@__crt_stdio_output@@AEAA_N_W@Z 0000000140086694 f i libucrt:output.obj
 0001:0008578c       ?type_case_c_tchar@?$output_processor@_WV?$string_output_adapter@_W@__crt_stdio_output@@V?$positional_parameter_base@_WV?$string_output_adapter@_W@__crt_stdio_output@@@2@@__crt_stdio_output@@AEAA_N_W@Z 000000014008678c f i libucrt:output.obj
 0001:000858c0       ?type_case_c_tchar@?$output_processor@_WV?$string_output_adapter@_W@__crt_stdio_output@@V?$standard_base@_WV?$string_output_adapter@_W@__crt_stdio_output@@@2@@__crt_stdio_output@@AEAA_N_W@Z 00000001400868c0 f i libucrt:output.obj
 0001:000859b8       ?type_case_d@?$output_processor@DV?$stream_output_adapter@D@__crt_stdio_output@@V?$format_validation_base@DV?$stream_output_adapter@D@__crt_stdio_output@@@2@@__crt_stdio_output@@AEAA_NXZ 00000001400869b8 f i libucrt:output.obj
 0001:000859c8       ?type_case_d@?$output_processor@DV?$stream_output_adapter@D@__crt_stdio_output@@V?$positional_parameter_base@DV?$stream_output_adapter@D@__crt_stdio_output@@@2@@__crt_stdio_output@@AEAA_NXZ 00000001400869c8 f i libucrt:output.obj
 0001:000859d8       ?type_case_d@?$output_processor@DV?$stream_output_adapter@D@__crt_stdio_output@@V?$standard_base@DV?$stream_output_adapter@D@__crt_stdio_output@@@2@@__crt_stdio_output@@AEAA_NXZ 00000001400869d8 f i libucrt:output.obj
 0001:000859e8       ?type_case_d@?$output_processor@DV?$string_output_adapter@D@__crt_stdio_output@@V?$format_validation_base@DV?$string_output_adapter@D@__crt_stdio_output@@@2@@__crt_stdio_output@@AEAA_NXZ 00000001400869e8 f i libucrt:output.obj
 0001:000859f8       ?type_case_d@?$output_processor@DV?$string_output_adapter@D@__crt_stdio_output@@V?$positional_parameter_base@DV?$string_output_adapter@D@__crt_stdio_output@@@2@@__crt_stdio_output@@AEAA_NXZ 00000001400869f8 f i libucrt:output.obj
 0001:00085a08       ?type_case_d@?$output_processor@DV?$string_output_adapter@D@__crt_stdio_output@@V?$standard_base@DV?$string_output_adapter@D@__crt_stdio_output@@@2@@__crt_stdio_output@@AEAA_NXZ 0000000140086a08 f i libucrt:output.obj
 0001:00085a18       ?type_case_d@?$output_processor@_WV?$stream_output_adapter@_W@__crt_stdio_output@@V?$format_validation_base@_WV?$stream_output_adapter@_W@__crt_stdio_output@@@2@@__crt_stdio_output@@AEAA_NXZ 0000000140086a18 f i libucrt:output.obj
 0001:00085a28       ?type_case_d@?$output_processor@_WV?$stream_output_adapter@_W@__crt_stdio_output@@V?$positional_parameter_base@_WV?$stream_output_adapter@_W@__crt_stdio_output@@@2@@__crt_stdio_output@@AEAA_NXZ 0000000140086a28 f i libucrt:output.obj
 0001:00085a38       ?type_case_d@?$output_processor@_WV?$stream_output_adapter@_W@__crt_stdio_output@@V?$standard_base@_WV?$stream_output_adapter@_W@__crt_stdio_output@@@2@@__crt_stdio_output@@AEAA_NXZ 0000000140086a38 f i libucrt:output.obj
 0001:00085a48       ?type_case_d@?$output_processor@_WV?$string_output_adapter@_W@__crt_stdio_output@@V?$format_validation_base@_WV?$string_output_adapter@_W@__crt_stdio_output@@@2@@__crt_stdio_output@@AEAA_NXZ 0000000140086a48 f i libucrt:output.obj
 0001:00085a58       ?type_case_d@?$output_processor@_WV?$string_output_adapter@_W@__crt_stdio_output@@V?$positional_parameter_base@_WV?$string_output_adapter@_W@__crt_stdio_output@@@2@@__crt_stdio_output@@AEAA_NXZ 0000000140086a58 f i libucrt:output.obj
 0001:00085a68       ?type_case_d@?$output_processor@_WV?$string_output_adapter@_W@__crt_stdio_output@@V?$standard_base@_WV?$string_output_adapter@_W@__crt_stdio_output@@@2@@__crt_stdio_output@@AEAA_NXZ 0000000140086a68 f i libucrt:output.obj
 0001:00085a78       ?type_case_n@?$output_processor@DV?$stream_output_adapter@D@__crt_stdio_output@@V?$format_validation_base@DV?$stream_output_adapter@D@__crt_stdio_output@@@2@@__crt_stdio_output@@AEAA_NXZ 0000000140086a78 f i libucrt:output.obj
 0001:00085b5c       ?type_case_n@?$output_processor@DV?$stream_output_adapter@D@__crt_stdio_output@@V?$positional_parameter_base@DV?$stream_output_adapter@D@__crt_stdio_output@@@2@@__crt_stdio_output@@AEAA_NXZ 0000000140086b5c f i libucrt:output.obj
 0001:00085c78       ?type_case_n@?$output_processor@DV?$stream_output_adapter@D@__crt_stdio_output@@V?$standard_base@DV?$stream_output_adapter@D@__crt_stdio_output@@@2@@__crt_stdio_output@@AEAA_NXZ 0000000140086c78 f i libucrt:output.obj
 0001:00085d5c       ?type_case_n@?$output_processor@DV?$string_output_adapter@D@__crt_stdio_output@@V?$format_validation_base@DV?$string_output_adapter@D@__crt_stdio_output@@@2@@__crt_stdio_output@@AEAA_NXZ 0000000140086d5c f i libucrt:output.obj
 0001:00085e40       ?type_case_n@?$output_processor@DV?$string_output_adapter@D@__crt_stdio_output@@V?$positional_parameter_base@DV?$string_output_adapter@D@__crt_stdio_output@@@2@@__crt_stdio_output@@AEAA_NXZ 0000000140086e40 f i libucrt:output.obj
 0001:00085f5c       ?type_case_n@?$output_processor@DV?$string_output_adapter@D@__crt_stdio_output@@V?$standard_base@DV?$string_output_adapter@D@__crt_stdio_output@@@2@@__crt_stdio_output@@AEAA_NXZ 0000000140086f5c f i libucrt:output.obj
 0001:00086040       ?type_case_n@?$output_processor@_WV?$stream_output_adapter@_W@__crt_stdio_output@@V?$format_validation_base@_WV?$stream_output_adapter@_W@__crt_stdio_output@@@2@@__crt_stdio_output@@AEAA_NXZ 0000000140087040 f i libucrt:output.obj
 0001:00086124       ?type_case_n@?$output_processor@_WV?$stream_output_adapter@_W@__crt_stdio_output@@V?$positional_parameter_base@_WV?$stream_output_adapter@_W@__crt_stdio_output@@@2@@__crt_stdio_output@@AEAA_NXZ 0000000140087124 f i libucrt:output.obj
 0001:00086240       ?type_case_n@?$output_processor@_WV?$stream_output_adapter@_W@__crt_stdio_output@@V?$standard_base@_WV?$stream_output_adapter@_W@__crt_stdio_output@@@2@@__crt_stdio_output@@AEAA_NXZ 0000000140087240 f i libucrt:output.obj
 0001:00086324       ?type_case_n@?$output_processor@_WV?$string_output_adapter@_W@__crt_stdio_output@@V?$format_validation_base@_WV?$string_output_adapter@_W@__crt_stdio_output@@@2@@__crt_stdio_output@@AEAA_NXZ 0000000140087324 f i libucrt:output.obj
 0001:00086408       ?type_case_n@?$output_processor@_WV?$string_output_adapter@_W@__crt_stdio_output@@V?$positional_parameter_base@_WV?$string_output_adapter@_W@__crt_stdio_output@@@2@@__crt_stdio_output@@AEAA_NXZ 0000000140087408 f i libucrt:output.obj
 0001:00086524       ?type_case_n@?$output_processor@_WV?$string_output_adapter@_W@__crt_stdio_output@@V?$standard_base@_WV?$string_output_adapter@_W@__crt_stdio_output@@@2@@__crt_stdio_output@@AEAA_NXZ 0000000140087524 f i libucrt:output.obj
 0001:00086608       ?type_case_o@?$output_processor@DV?$stream_output_adapter@D@__crt_stdio_output@@V?$format_validation_base@DV?$stream_output_adapter@D@__crt_stdio_output@@@2@@__crt_stdio_output@@AEAA_NXZ 0000000140087608 f i libucrt:output.obj
 0001:00086628       ?type_case_o@?$output_processor@DV?$stream_output_adapter@D@__crt_stdio_output@@V?$positional_parameter_base@DV?$stream_output_adapter@D@__crt_stdio_output@@@2@@__crt_stdio_output@@AEAA_NXZ 0000000140087628 f i libucrt:output.obj
 0001:00086648       ?type_case_o@?$output_processor@DV?$stream_output_adapter@D@__crt_stdio_output@@V?$standard_base@DV?$stream_output_adapter@D@__crt_stdio_output@@@2@@__crt_stdio_output@@AEAA_NXZ 0000000140087648 f i libucrt:output.obj
 0001:00086668       ?type_case_o@?$output_processor@DV?$string_output_adapter@D@__crt_stdio_output@@V?$format_validation_base@DV?$string_output_adapter@D@__crt_stdio_output@@@2@@__crt_stdio_output@@AEAA_NXZ 0000000140087668 f i libucrt:output.obj
 0001:00086688       ?type_case_o@?$output_processor@DV?$string_output_adapter@D@__crt_stdio_output@@V?$positional_parameter_base@DV?$string_output_adapter@D@__crt_stdio_output@@@2@@__crt_stdio_output@@AEAA_NXZ 0000000140087688 f i libucrt:output.obj
 0001:000866a8       ?type_case_o@?$output_processor@DV?$string_output_adapter@D@__crt_stdio_output@@V?$standard_base@DV?$string_output_adapter@D@__crt_stdio_output@@@2@@__crt_stdio_output@@AEAA_NXZ 00000001400876a8 f i libucrt:output.obj
 0001:000866c8       ?type_case_o@?$output_processor@_WV?$stream_output_adapter@_W@__crt_stdio_output@@V?$format_validation_base@_WV?$stream_output_adapter@_W@__crt_stdio_output@@@2@@__crt_stdio_output@@AEAA_NXZ 00000001400876c8 f i libucrt:output.obj
 0001:000866e8       ?type_case_o@?$output_processor@_WV?$stream_output_adapter@_W@__crt_stdio_output@@V?$positional_parameter_base@_WV?$stream_output_adapter@_W@__crt_stdio_output@@@2@@__crt_stdio_output@@AEAA_NXZ 00000001400876e8 f i libucrt:output.obj
 0001:00086708       ?type_case_o@?$output_processor@_WV?$stream_output_adapter@_W@__crt_stdio_output@@V?$standard_base@_WV?$stream_output_adapter@_W@__crt_stdio_output@@@2@@__crt_stdio_output@@AEAA_NXZ 0000000140087708 f i libucrt:output.obj
 0001:00086728       ?type_case_o@?$output_processor@_WV?$string_output_adapter@_W@__crt_stdio_output@@V?$format_validation_base@_WV?$string_output_adapter@_W@__crt_stdio_output@@@2@@__crt_stdio_output@@AEAA_NXZ 0000000140087728 f i libucrt:output.obj
 0001:00086748       ?type_case_o@?$output_processor@_WV?$string_output_adapter@_W@__crt_stdio_output@@V?$positional_parameter_base@_WV?$string_output_adapter@_W@__crt_stdio_output@@@2@@__crt_stdio_output@@AEAA_NXZ 0000000140087748 f i libucrt:output.obj
 0001:00086768       ?type_case_o@?$output_processor@_WV?$string_output_adapter@_W@__crt_stdio_output@@V?$standard_base@_WV?$string_output_adapter@_W@__crt_stdio_output@@@2@@__crt_stdio_output@@AEAA_NXZ 0000000140087768 f i libucrt:output.obj
 0001:00086788       ?type_case_p@?$output_processor@DV?$stream_output_adapter@D@__crt_stdio_output@@V?$format_validation_base@DV?$stream_output_adapter@D@__crt_stdio_output@@@2@@__crt_stdio_output@@AEAA_NXZ 0000000140087788 f i libucrt:output.obj
 0001:000867a4       ?type_case_p@?$output_processor@DV?$stream_output_adapter@D@__crt_stdio_output@@V?$positional_parameter_base@DV?$stream_output_adapter@D@__crt_stdio_output@@@2@@__crt_stdio_output@@AEAA_NXZ 00000001400877a4 f i libucrt:output.obj
 0001:000867c0       ?type_case_p@?$output_processor@DV?$stream_output_adapter@D@__crt_stdio_output@@V?$standard_base@DV?$stream_output_adapter@D@__crt_stdio_output@@@2@@__crt_stdio_output@@AEAA_NXZ 00000001400877c0 f i libucrt:output.obj
 0001:000867dc       ?type_case_p@?$output_processor@DV?$string_output_adapter@D@__crt_stdio_output@@V?$format_validation_base@DV?$string_output_adapter@D@__crt_stdio_output@@@2@@__crt_stdio_output@@AEAA_NXZ 00000001400877dc f i libucrt:output.obj
 0001:000867f8       ?type_case_p@?$output_processor@DV?$string_output_adapter@D@__crt_stdio_output@@V?$positional_parameter_base@DV?$string_output_adapter@D@__crt_stdio_output@@@2@@__crt_stdio_output@@AEAA_NXZ 00000001400877f8 f i libucrt:output.obj
 0001:00086814       ?type_case_p@?$output_processor@DV?$string_output_adapter@D@__crt_stdio_output@@V?$standard_base@DV?$string_output_adapter@D@__crt_stdio_output@@@2@@__crt_stdio_output@@AEAA_NXZ 0000000140087814 f i libucrt:output.obj
 0001:00086830       ?type_case_p@?$output_processor@_WV?$stream_output_adapter@_W@__crt_stdio_output@@V?$format_validation_base@_WV?$stream_output_adapter@_W@__crt_stdio_output@@@2@@__crt_stdio_output@@AEAA_NXZ 0000000140087830 f i libucrt:output.obj
 0001:0008684c       ?type_case_p@?$output_processor@_WV?$stream_output_adapter@_W@__crt_stdio_output@@V?$positional_parameter_base@_WV?$stream_output_adapter@_W@__crt_stdio_output@@@2@@__crt_stdio_output@@AEAA_NXZ 000000014008784c f i libucrt:output.obj
 0001:00086868       ?type_case_p@?$output_processor@_WV?$stream_output_adapter@_W@__crt_stdio_output@@V?$standard_base@_WV?$stream_output_adapter@_W@__crt_stdio_output@@@2@@__crt_stdio_output@@AEAA_NXZ 0000000140087868 f i libucrt:output.obj
 0001:00086884       ?type_case_p@?$output_processor@_WV?$string_output_adapter@_W@__crt_stdio_output@@V?$format_validation_base@_WV?$string_output_adapter@_W@__crt_stdio_output@@@2@@__crt_stdio_output@@AEAA_NXZ 0000000140087884 f i libucrt:output.obj
 0001:000868a0       ?type_case_p@?$output_processor@_WV?$string_output_adapter@_W@__crt_stdio_output@@V?$positional_parameter_base@_WV?$string_output_adapter@_W@__crt_stdio_output@@@2@@__crt_stdio_output@@AEAA_NXZ 00000001400878a0 f i libucrt:output.obj
 0001:000868bc       ?type_case_p@?$output_processor@_WV?$string_output_adapter@_W@__crt_stdio_output@@V?$standard_base@_WV?$string_output_adapter@_W@__crt_stdio_output@@@2@@__crt_stdio_output@@AEAA_NXZ 00000001400878bc f i libucrt:output.obj
 0001:000868d8       ?type_case_s@?$output_processor@DV?$stream_output_adapter@D@__crt_stdio_output@@V?$format_validation_base@DV?$stream_output_adapter@D@__crt_stdio_output@@@2@@__crt_stdio_output@@AEAA_NXZ 00000001400878d8 f i libucrt:output.obj
 0001:00086998       ?type_case_s@?$output_processor@DV?$stream_output_adapter@D@__crt_stdio_output@@V?$positional_parameter_base@DV?$stream_output_adapter@D@__crt_stdio_output@@@2@@__crt_stdio_output@@AEAA_NXZ 0000000140087998 f i libucrt:output.obj
 0001:00086a84       ?type_case_s@?$output_processor@DV?$stream_output_adapter@D@__crt_stdio_output@@V?$standard_base@DV?$stream_output_adapter@D@__crt_stdio_output@@@2@@__crt_stdio_output@@AEAA_NXZ 0000000140087a84 f i libucrt:output.obj
 0001:00086b44       ?type_case_s@?$output_processor@DV?$string_output_adapter@D@__crt_stdio_output@@V?$format_validation_base@DV?$string_output_adapter@D@__crt_stdio_output@@@2@@__crt_stdio_output@@AEAA_NXZ 0000000140087b44 f i libucrt:output.obj
 0001:00086c04       ?type_case_s@?$output_processor@DV?$string_output_adapter@D@__crt_stdio_output@@V?$positional_parameter_base@DV?$string_output_adapter@D@__crt_stdio_output@@@2@@__crt_stdio_output@@AEAA_NXZ 0000000140087c04 f i libucrt:output.obj
 0001:00086cf0       ?type_case_s@?$output_processor@DV?$string_output_adapter@D@__crt_stdio_output@@V?$standard_base@DV?$string_output_adapter@D@__crt_stdio_output@@@2@@__crt_stdio_output@@AEAA_NXZ 0000000140087cf0 f i libucrt:output.obj
 0001:00086db0       ?type_case_s@?$output_processor@_WV?$stream_output_adapter@_W@__crt_stdio_output@@V?$format_validation_base@_WV?$stream_output_adapter@_W@__crt_stdio_output@@@2@@__crt_stdio_output@@AEAA_NXZ 0000000140087db0 f i libucrt:output.obj
 0001:00086e74       ?type_case_s@?$output_processor@_WV?$stream_output_adapter@_W@__crt_stdio_output@@V?$positional_parameter_base@_WV?$stream_output_adapter@_W@__crt_stdio_output@@@2@@__crt_stdio_output@@AEAA_NXZ 0000000140087e74 f i libucrt:output.obj
 0001:00086f58       ?type_case_s@?$output_processor@_WV?$stream_output_adapter@_W@__crt_stdio_output@@V?$standard_base@_WV?$stream_output_adapter@_W@__crt_stdio_output@@@2@@__crt_stdio_output@@AEAA_NXZ 0000000140087f58 f i libucrt:output.obj
 0001:0008701c       ?type_case_s@?$output_processor@_WV?$string_output_adapter@_W@__crt_stdio_output@@V?$format_validation_base@_WV?$string_output_adapter@_W@__crt_stdio_output@@@2@@__crt_stdio_output@@AEAA_NXZ 000000014008801c f i libucrt:output.obj
 0001:000870e0       ?type_case_s@?$output_processor@_WV?$string_output_adapter@_W@__crt_stdio_output@@V?$positional_parameter_base@_WV?$string_output_adapter@_W@__crt_stdio_output@@@2@@__crt_stdio_output@@AEAA_NXZ 00000001400880e0 f i libucrt:output.obj
 0001:000871c4       ?type_case_s@?$output_processor@_WV?$string_output_adapter@_W@__crt_stdio_output@@V?$standard_base@_WV?$string_output_adapter@_W@__crt_stdio_output@@@2@@__crt_stdio_output@@AEAA_NXZ 00000001400881c4 f i libucrt:output.obj
 0001:00087288       ?type_case_s_compute_narrow_string_length@?$output_processor@DV?$stream_output_adapter@D@__crt_stdio_output@@V?$format_validation_base@DV?$stream_output_adapter@D@__crt_stdio_output@@@2@@__crt_stdio_output@@AEAAHHD@Z 0000000140088288 f i libucrt:output.obj
 0001:00087298       ?type_case_s_compute_narrow_string_length@?$output_processor@DV?$stream_output_adapter@D@__crt_stdio_output@@V?$positional_parameter_base@DV?$stream_output_adapter@D@__crt_stdio_output@@@2@@__crt_stdio_output@@AEAAHHD@Z 0000000140088298 f i libucrt:output.obj
 0001:000872a8       ?type_case_s_compute_narrow_string_length@?$output_processor@DV?$stream_output_adapter@D@__crt_stdio_output@@V?$standard_base@DV?$stream_output_adapter@D@__crt_stdio_output@@@2@@__crt_stdio_output@@AEAAHHD@Z 00000001400882a8 f i libucrt:output.obj
 0001:000872b8       ?type_case_s_compute_narrow_string_length@?$output_processor@DV?$string_output_adapter@D@__crt_stdio_output@@V?$format_validation_base@DV?$string_output_adapter@D@__crt_stdio_output@@@2@@__crt_stdio_output@@AEAAHHD@Z 00000001400882b8 f i libucrt:output.obj
 0001:000872c8       ?type_case_s_compute_narrow_string_length@?$output_processor@DV?$string_output_adapter@D@__crt_stdio_output@@V?$positional_parameter_base@DV?$string_output_adapter@D@__crt_stdio_output@@@2@@__crt_stdio_output@@AEAAHHD@Z 00000001400882c8 f i libucrt:output.obj
 0001:000872d8       ?type_case_s_compute_narrow_string_length@?$output_processor@DV?$string_output_adapter@D@__crt_stdio_output@@V?$standard_base@DV?$string_output_adapter@D@__crt_stdio_output@@@2@@__crt_stdio_output@@AEAAHHD@Z 00000001400882d8 f i libucrt:output.obj
 0001:000872e8       ?type_case_s_compute_narrow_string_length@?$output_processor@_WV?$stream_output_adapter@_W@__crt_stdio_output@@V?$format_validation_base@_WV?$stream_output_adapter@_W@__crt_stdio_output@@@2@@__crt_stdio_output@@AEAAHH_W@Z 00000001400882e8 f i libucrt:output.obj
 0001:00087378       ?type_case_s_compute_narrow_string_length@?$output_processor@_WV?$stream_output_adapter@_W@__crt_stdio_output@@V?$positional_parameter_base@_WV?$stream_output_adapter@_W@__crt_stdio_output@@@2@@__crt_stdio_output@@AEAAHH_W@Z 0000000140088378 f i libucrt:output.obj
 0001:00087408       ?type_case_s_compute_narrow_string_length@?$output_processor@_WV?$stream_output_adapter@_W@__crt_stdio_output@@V?$standard_base@_WV?$stream_output_adapter@_W@__crt_stdio_output@@@2@@__crt_stdio_output@@AEAAHH_W@Z 0000000140088408 f i libucrt:output.obj
 0001:00087498       ?type_case_s_compute_narrow_string_length@?$output_processor@_WV?$string_output_adapter@_W@__crt_stdio_output@@V?$format_validation_base@_WV?$string_output_adapter@_W@__crt_stdio_output@@@2@@__crt_stdio_output@@AEAAHH_W@Z 0000000140088498 f i libucrt:output.obj
 0001:00087528       ?type_case_s_compute_narrow_string_length@?$output_processor@_WV?$string_output_adapter@_W@__crt_stdio_output@@V?$positional_parameter_base@_WV?$string_output_adapter@_W@__crt_stdio_output@@@2@@__crt_stdio_output@@AEAAHH_W@Z 0000000140088528 f i libucrt:output.obj
 0001:000875b8       ?type_case_s_compute_narrow_string_length@?$output_processor@_WV?$string_output_adapter@_W@__crt_stdio_output@@V?$standard_base@_WV?$string_output_adapter@_W@__crt_stdio_output@@@2@@__crt_stdio_output@@AEAAHH_W@Z 00000001400885b8 f i libucrt:output.obj
 0001:00087648       ?type_case_u@?$output_processor@DV?$stream_output_adapter@D@__crt_stdio_output@@V?$format_validation_base@DV?$stream_output_adapter@D@__crt_stdio_output@@@2@@__crt_stdio_output@@AEAA_NXZ 0000000140088648 f i libucrt:output.obj
 0001:00087650       ?type_case_u@?$output_processor@DV?$stream_output_adapter@D@__crt_stdio_output@@V?$positional_parameter_base@DV?$stream_output_adapter@D@__crt_stdio_output@@@2@@__crt_stdio_output@@AEAA_NXZ 0000000140088650 f i libucrt:output.obj
 0001:00087658       ?type_case_u@?$output_processor@DV?$stream_output_adapter@D@__crt_stdio_output@@V?$standard_base@DV?$stream_output_adapter@D@__crt_stdio_output@@@2@@__crt_stdio_output@@AEAA_NXZ 0000000140088658 f i libucrt:output.obj
 0001:00087660       ?type_case_u@?$output_processor@DV?$string_output_adapter@D@__crt_stdio_output@@V?$format_validation_base@DV?$string_output_adapter@D@__crt_stdio_output@@@2@@__crt_stdio_output@@AEAA_NXZ 0000000140088660 f i libucrt:output.obj
 0001:00087668       ?type_case_u@?$output_processor@DV?$string_output_adapter@D@__crt_stdio_output@@V?$positional_parameter_base@DV?$string_output_adapter@D@__crt_stdio_output@@@2@@__crt_stdio_output@@AEAA_NXZ 0000000140088668 f i libucrt:output.obj
 0001:00087670       ?type_case_u@?$output_processor@DV?$string_output_adapter@D@__crt_stdio_output@@V?$standard_base@DV?$string_output_adapter@D@__crt_stdio_output@@@2@@__crt_stdio_output@@AEAA_NXZ 0000000140088670 f i libucrt:output.obj
 0001:00087678       ?type_case_u@?$output_processor@_WV?$stream_output_adapter@_W@__crt_stdio_output@@V?$format_validation_base@_WV?$stream_output_adapter@_W@__crt_stdio_output@@@2@@__crt_stdio_output@@AEAA_NXZ 0000000140088678 f i libucrt:output.obj
 0001:00087680       ?type_case_u@?$output_processor@_WV?$stream_output_adapter@_W@__crt_stdio_output@@V?$positional_parameter_base@_WV?$stream_output_adapter@_W@__crt_stdio_output@@@2@@__crt_stdio_output@@AEAA_NXZ 0000000140088680 f i libucrt:output.obj
 0001:00087688       ?type_case_u@?$output_processor@_WV?$stream_output_adapter@_W@__crt_stdio_output@@V?$standard_base@_WV?$stream_output_adapter@_W@__crt_stdio_output@@@2@@__crt_stdio_output@@AEAA_NXZ 0000000140088688 f i libucrt:output.obj
 0001:00087690       ?type_case_u@?$output_processor@_WV?$string_output_adapter@_W@__crt_stdio_output@@V?$format_validation_base@_WV?$string_output_adapter@_W@__crt_stdio_output@@@2@@__crt_stdio_output@@AEAA_NXZ 0000000140088690 f i libucrt:output.obj
 0001:00087698       ?type_case_u@?$output_processor@_WV?$string_output_adapter@_W@__crt_stdio_output@@V?$positional_parameter_base@_WV?$string_output_adapter@_W@__crt_stdio_output@@@2@@__crt_stdio_output@@AEAA_NXZ 0000000140088698 f i libucrt:output.obj
 0001:000876a0       ?type_case_u@?$output_processor@_WV?$string_output_adapter@_W@__crt_stdio_output@@V?$standard_base@_WV?$string_output_adapter@_W@__crt_stdio_output@@@2@@__crt_stdio_output@@AEAA_NXZ 00000001400886a0 f i libucrt:output.obj
 0001:000876a8       ?type_case_x@?$output_processor@DV?$stream_output_adapter@D@__crt_stdio_output@@V?$format_validation_base@DV?$stream_output_adapter@D@__crt_stdio_output@@@2@@__crt_stdio_output@@AEAA_NXZ 00000001400886a8 f i libucrt:output.obj
 0001:000876b0       ?type_case_x@?$output_processor@DV?$stream_output_adapter@D@__crt_stdio_output@@V?$positional_parameter_base@DV?$stream_output_adapter@D@__crt_stdio_output@@@2@@__crt_stdio_output@@AEAA_NXZ 00000001400886b0 f i libucrt:output.obj
 0001:000876b8       ?type_case_x@?$output_processor@DV?$stream_output_adapter@D@__crt_stdio_output@@V?$standard_base@DV?$stream_output_adapter@D@__crt_stdio_output@@@2@@__crt_stdio_output@@AEAA_NXZ 00000001400886b8 f i libucrt:output.obj
 0001:000876c0       ?type_case_x@?$output_processor@DV?$string_output_adapter@D@__crt_stdio_output@@V?$format_validation_base@DV?$string_output_adapter@D@__crt_stdio_output@@@2@@__crt_stdio_output@@AEAA_NXZ 00000001400886c0 f i libucrt:output.obj
 0001:000876c8       ?type_case_x@?$output_processor@DV?$string_output_adapter@D@__crt_stdio_output@@V?$positional_parameter_base@DV?$string_output_adapter@D@__crt_stdio_output@@@2@@__crt_stdio_output@@AEAA_NXZ 00000001400886c8 f i libucrt:output.obj
 0001:000876d0       ?type_case_x@?$output_processor@DV?$string_output_adapter@D@__crt_stdio_output@@V?$standard_base@DV?$string_output_adapter@D@__crt_stdio_output@@@2@@__crt_stdio_output@@AEAA_NXZ 00000001400886d0 f i libucrt:output.obj
 0001:000876d8       ?type_case_x@?$output_processor@_WV?$stream_output_adapter@_W@__crt_stdio_output@@V?$format_validation_base@_WV?$stream_output_adapter@_W@__crt_stdio_output@@@2@@__crt_stdio_output@@AEAA_NXZ 00000001400886d8 f i libucrt:output.obj
 0001:000876e0       ?type_case_x@?$output_processor@_WV?$stream_output_adapter@_W@__crt_stdio_output@@V?$positional_parameter_base@_WV?$stream_output_adapter@_W@__crt_stdio_output@@@2@@__crt_stdio_output@@AEAA_NXZ 00000001400886e0 f i libucrt:output.obj
 0001:000876e8       ?type_case_x@?$output_processor@_WV?$stream_output_adapter@_W@__crt_stdio_output@@V?$standard_base@_WV?$stream_output_adapter@_W@__crt_stdio_output@@@2@@__crt_stdio_output@@AEAA_NXZ 00000001400886e8 f i libucrt:output.obj
 0001:000876f0       ?type_case_x@?$output_processor@_WV?$string_output_adapter@_W@__crt_stdio_output@@V?$format_validation_base@_WV?$string_output_adapter@_W@__crt_stdio_output@@@2@@__crt_stdio_output@@AEAA_NXZ 00000001400886f0 f i libucrt:output.obj
 0001:000876f8       ?type_case_x@?$output_processor@_WV?$string_output_adapter@_W@__crt_stdio_output@@V?$positional_parameter_base@_WV?$string_output_adapter@_W@__crt_stdio_output@@@2@@__crt_stdio_output@@AEAA_NXZ 00000001400886f8 f i libucrt:output.obj
 0001:00087700       ?type_case_x@?$output_processor@_WV?$string_output_adapter@_W@__crt_stdio_output@@V?$standard_base@_WV?$string_output_adapter@_W@__crt_stdio_output@@@2@@__crt_stdio_output@@AEAA_NXZ 0000000140088700 f i libucrt:output.obj
 0001:00087708       ?unset_flag@?$output_processor@DV?$stream_output_adapter@D@__crt_stdio_output@@V?$format_validation_base@DV?$stream_output_adapter@D@__crt_stdio_output@@@2@@__crt_stdio_output@@AEAAXI@Z 0000000140088708 f i libucrt:output.obj
 0001:00087710       ?unset_flag@?$output_processor@DV?$stream_output_adapter@D@__crt_stdio_output@@V?$positional_parameter_base@DV?$stream_output_adapter@D@__crt_stdio_output@@@2@@__crt_stdio_output@@AEAAXI@Z 0000000140088710 f i libucrt:output.obj
 0001:00087718       ?unset_flag@?$output_processor@DV?$stream_output_adapter@D@__crt_stdio_output@@V?$standard_base@DV?$stream_output_adapter@D@__crt_stdio_output@@@2@@__crt_stdio_output@@AEAAXI@Z 0000000140088718 f i libucrt:output.obj
 0001:00087720       ?unset_flag@?$output_processor@DV?$string_output_adapter@D@__crt_stdio_output@@V?$format_validation_base@DV?$string_output_adapter@D@__crt_stdio_output@@@2@@__crt_stdio_output@@AEAAXI@Z 0000000140088720 f i libucrt:output.obj
 0001:00087728       ?unset_flag@?$output_processor@DV?$string_output_adapter@D@__crt_stdio_output@@V?$positional_parameter_base@DV?$string_output_adapter@D@__crt_stdio_output@@@2@@__crt_stdio_output@@AEAAXI@Z 0000000140088728 f i libucrt:output.obj
 0001:00087730       ?unset_flag@?$output_processor@DV?$string_output_adapter@D@__crt_stdio_output@@V?$standard_base@DV?$string_output_adapter@D@__crt_stdio_output@@@2@@__crt_stdio_output@@AEAAXI@Z 0000000140088730 f i libucrt:output.obj
 0001:00087738       ?unset_flag@?$output_processor@_WV?$stream_output_adapter@_W@__crt_stdio_output@@V?$format_validation_base@_WV?$stream_output_adapter@_W@__crt_stdio_output@@@2@@__crt_stdio_output@@AEAAXI@Z 0000000140088738 f i libucrt:output.obj
 0001:00087740       ?unset_flag@?$output_processor@_WV?$stream_output_adapter@_W@__crt_stdio_output@@V?$positional_parameter_base@_WV?$stream_output_adapter@_W@__crt_stdio_output@@@2@@__crt_stdio_output@@AEAAXI@Z 0000000140088740 f i libucrt:output.obj
 0001:00087748       ?unset_flag@?$output_processor@_WV?$stream_output_adapter@_W@__crt_stdio_output@@V?$standard_base@_WV?$stream_output_adapter@_W@__crt_stdio_output@@@2@@__crt_stdio_output@@AEAAXI@Z 0000000140088748 f i libucrt:output.obj
 0001:00087750       ?unset_flag@?$output_processor@_WV?$string_output_adapter@_W@__crt_stdio_output@@V?$format_validation_base@_WV?$string_output_adapter@_W@__crt_stdio_output@@@2@@__crt_stdio_output@@AEAAXI@Z 0000000140088750 f i libucrt:output.obj
 0001:00087758       ?unset_flag@?$output_processor@_WV?$string_output_adapter@_W@__crt_stdio_output@@V?$positional_parameter_base@_WV?$string_output_adapter@_W@__crt_stdio_output@@@2@@__crt_stdio_output@@AEAAXI@Z 0000000140088758 f i libucrt:output.obj
 0001:00087760       ?unset_flag@?$output_processor@_WV?$string_output_adapter@_W@__crt_stdio_output@@V?$standard_base@_WV?$string_output_adapter@_W@__crt_stdio_output@@@2@@__crt_stdio_output@@AEAAXI@Z 0000000140088760 f i libucrt:output.obj
 0001:00087768       ?update_field_width@?$positional_parameter_base@DV?$stream_output_adapter@D@__crt_stdio_output@@@__crt_stdio_output@@IEAA_NXZ 0000000140088768 f i libucrt:output.obj
 0001:00087934       ?update_field_width@?$positional_parameter_base@DV?$string_output_adapter@D@__crt_stdio_output@@@__crt_stdio_output@@IEAA_NXZ 0000000140088934 f i libucrt:output.obj
 0001:00087b00       ?update_field_width@?$positional_parameter_base@_WV?$stream_output_adapter@_W@__crt_stdio_output@@@__crt_stdio_output@@IEAA_NXZ 0000000140088b00 f i libucrt:output.obj
 0001:00087cd0       ?update_field_width@?$positional_parameter_base@_WV?$string_output_adapter@_W@__crt_stdio_output@@@__crt_stdio_output@@IEAA_NXZ 0000000140088cd0 f i libucrt:output.obj
 0001:00087ea0       ?update_field_width@?$standard_base@DV?$stream_output_adapter@D@__crt_stdio_output@@@__crt_stdio_output@@IEAA_NXZ 0000000140088ea0 f i libucrt:output.obj
 0001:00087ebc       ?update_field_width@?$standard_base@DV?$string_output_adapter@D@__crt_stdio_output@@@__crt_stdio_output@@IEAA_NXZ 0000000140088ebc f i libucrt:output.obj
 0001:00087ed8       ?update_field_width@?$standard_base@_WV?$stream_output_adapter@_W@__crt_stdio_output@@@__crt_stdio_output@@IEAA_NXZ 0000000140088ed8 f i libucrt:output.obj
 0001:00087ef4       ?update_field_width@?$standard_base@_WV?$string_output_adapter@_W@__crt_stdio_output@@@__crt_stdio_output@@IEAA_NXZ 0000000140088ef4 f i libucrt:output.obj
 0001:00087f10       ?update_precision@?$positional_parameter_base@DV?$stream_output_adapter@D@__crt_stdio_output@@@__crt_stdio_output@@IEAA_NXZ 0000000140088f10 f i libucrt:output.obj
 0001:000880dc       ?update_precision@?$positional_parameter_base@DV?$string_output_adapter@D@__crt_stdio_output@@@__crt_stdio_output@@IEAA_NXZ 00000001400890dc f i libucrt:output.obj
 0001:000882a8       ?update_precision@?$positional_parameter_base@_WV?$stream_output_adapter@_W@__crt_stdio_output@@@__crt_stdio_output@@IEAA_NXZ 00000001400892a8 f i libucrt:output.obj
 0001:00088478       ?update_precision@?$positional_parameter_base@_WV?$string_output_adapter@_W@__crt_stdio_output@@@__crt_stdio_output@@IEAA_NXZ 0000000140089478 f i libucrt:output.obj
 0001:00088648       ?update_precision@?$standard_base@DV?$stream_output_adapter@D@__crt_stdio_output@@@__crt_stdio_output@@IEAA_NXZ 0000000140089648 f i libucrt:output.obj
 0001:00088664       ?update_precision@?$standard_base@DV?$string_output_adapter@D@__crt_stdio_output@@@__crt_stdio_output@@IEAA_NXZ 0000000140089664 f i libucrt:output.obj
 0001:00088680       ?update_precision@?$standard_base@_WV?$stream_output_adapter@_W@__crt_stdio_output@@@__crt_stdio_output@@IEAA_NXZ 0000000140089680 f i libucrt:output.obj
 0001:0008869c       ?update_precision@?$standard_base@_WV?$string_output_adapter@_W@__crt_stdio_output@@@__crt_stdio_output@@IEAA_NXZ 000000014008969c f i libucrt:output.obj
 0001:000886b8       ?valid@__crt_stdio_stream@@QEBA_NXZ 00000001400896b8 f i libucrt:output.obj
 0001:000886c4       ?validate@?$stream_output_adapter@D@__crt_stdio_output@@QEBA_NAEAV__crt_cached_ptd_host@@@Z 00000001400896c4 f i libucrt:output.obj
 0001:00088714       ?validate@?$stream_output_adapter@_W@__crt_stdio_output@@QEBA_NAEAV__crt_cached_ptd_host@@@Z 0000000140089714 f i libucrt:output.obj
 0001:0008875c       ?validate@?$string_output_adapter@D@__crt_stdio_output@@QEBA_NAEAV__crt_cached_ptd_host@@@Z 000000014008975c f i libucrt:output.obj
 0001:000887a4       ?validate@?$string_output_adapter@_W@__crt_stdio_output@@QEBA_NAEAV__crt_cached_ptd_host@@@Z 00000001400897a4 f i libucrt:output.obj
 0001:000887ec       ?validate_and_store_parameter_data@?$positional_parameter_base@DV?$stream_output_adapter@D@__crt_stdio_output@@@__crt_stdio_output@@AEAA_NAEAUparameter_data@12@W4parameter_type@12@DW4length_modifier@2@@Z 00000001400897ec f i libucrt:output.obj
 0001:00088868       ?validate_and_store_parameter_data@?$positional_parameter_base@DV?$string_output_adapter@D@__crt_stdio_output@@@__crt_stdio_output@@AEAA_NAEAUparameter_data@12@W4parameter_type@12@DW4length_modifier@2@@Z 0000000140089868 f i libucrt:output.obj
 0001:000888e4       ?validate_and_store_parameter_data@?$positional_parameter_base@_WV?$stream_output_adapter@_W@__crt_stdio_output@@@__crt_stdio_output@@AEAA_NAEAUparameter_data@12@W4parameter_type@12@_WW4length_modifier@2@@Z 00000001400898e4 f i libucrt:output.obj
 0001:00088960       ?validate_and_store_parameter_data@?$positional_parameter_base@_WV?$string_output_adapter@_W@__crt_stdio_output@@@__crt_stdio_output@@AEAA_NAEAUparameter_data@12@W4parameter_type@12@_WW4length_modifier@2@@Z 0000000140089960 f i libucrt:output.obj
 0001:000889dc       ?validate_and_update_state_at_beginning_of_format_character@?$positional_parameter_base@DV?$stream_output_adapter@D@__crt_stdio_output@@@__crt_stdio_output@@IEAA_NXZ 00000001400899dc f i libucrt:output.obj
 0001:00088b70       ?validate_and_update_state_at_beginning_of_format_character@?$positional_parameter_base@DV?$string_output_adapter@D@__crt_stdio_output@@@__crt_stdio_output@@IEAA_NXZ 0000000140089b70 f i libucrt:output.obj
 0001:00088d04       ?validate_and_update_state_at_beginning_of_format_character@?$positional_parameter_base@_WV?$stream_output_adapter@_W@__crt_stdio_output@@@__crt_stdio_output@@IEAA_NXZ 0000000140089d04 f i libucrt:output.obj
 0001:00088ea8       ?validate_and_update_state_at_beginning_of_format_character@?$positional_parameter_base@_WV?$string_output_adapter@_W@__crt_stdio_output@@@__crt_stdio_output@@IEAA_NXZ 0000000140089ea8 f i libucrt:output.obj
 0001:0008904c       ?validate_and_update_state_at_beginning_of_format_character@?$standard_base@DV?$stream_output_adapter@D@__crt_stdio_output@@@__crt_stdio_output@@IEAA_NXZ 000000014008a04c f i libucrt:output.obj
 0001:00089050       ?validate_and_update_state_at_beginning_of_format_character@?$standard_base@DV?$string_output_adapter@D@__crt_stdio_output@@@__crt_stdio_output@@IEAA_NXZ 000000014008a050 f i libucrt:output.obj
 0001:00089054       ?validate_and_update_state_at_beginning_of_format_character@?$standard_base@_WV?$stream_output_adapter@_W@__crt_stdio_output@@@__crt_stdio_output@@IEAA_NXZ 000000014008a054 f i libucrt:output.obj
 0001:00089058       ?validate_and_update_state_at_beginning_of_format_character@?$standard_base@_WV?$string_output_adapter@_W@__crt_stdio_output@@@__crt_stdio_output@@IEAA_NXZ 000000014008a058 f i libucrt:output.obj
 0001:0008905c       ?validate_and_update_state_at_end_of_format_string@?$format_validation_base@DV?$stream_output_adapter@D@__crt_stdio_output@@@__crt_stdio_output@@IEAA_NXZ 000000014008a05c f i libucrt:output.obj
 0001:000890b4       ?validate_and_update_state_at_end_of_format_string@?$format_validation_base@DV?$string_output_adapter@D@__crt_stdio_output@@@__crt_stdio_output@@IEAA_NXZ 000000014008a0b4 f i libucrt:output.obj
 0001:0008910c       ?validate_and_update_state_at_end_of_format_string@?$format_validation_base@_WV?$stream_output_adapter@_W@__crt_stdio_output@@@__crt_stdio_output@@IEAA_NXZ 000000014008a10c f i libucrt:output.obj
 0001:00089164       ?validate_and_update_state_at_end_of_format_string@?$format_validation_base@_WV?$string_output_adapter@_W@__crt_stdio_output@@@__crt_stdio_output@@IEAA_NXZ 000000014008a164 f i libucrt:output.obj
 0001:000891bc       ?validate_and_update_state_at_end_of_format_string@?$positional_parameter_base@DV?$stream_output_adapter@D@__crt_stdio_output@@@__crt_stdio_output@@IEAA_NXZ 000000014008a1bc f i libucrt:output.obj
 0001:000892a0       ?validate_and_update_state_at_end_of_format_string@?$positional_parameter_base@DV?$string_output_adapter@D@__crt_stdio_output@@@__crt_stdio_output@@IEAA_NXZ 000000014008a2a0 f i libucrt:output.obj
 0001:00089384       ?validate_and_update_state_at_end_of_format_string@?$positional_parameter_base@_WV?$stream_output_adapter@_W@__crt_stdio_output@@@__crt_stdio_output@@IEAA_NXZ 000000014008a384 f i libucrt:output.obj
 0001:00089468       ?validate_and_update_state_at_end_of_format_string@?$positional_parameter_base@_WV?$string_output_adapter@_W@__crt_stdio_output@@@__crt_stdio_output@@IEAA_NXZ 000000014008a468 f i libucrt:output.obj
 0001:0008954c       ?validate_and_update_state_at_end_of_format_string@?$standard_base@DV?$stream_output_adapter@D@__crt_stdio_output@@@__crt_stdio_output@@IEBA_NXZ 000000014008a54c f i libucrt:output.obj
 0001:00089550       ?validate_and_update_state_at_end_of_format_string@?$standard_base@DV?$string_output_adapter@D@__crt_stdio_output@@@__crt_stdio_output@@IEBA_NXZ 000000014008a550 f i libucrt:output.obj
 0001:00089554       ?validate_and_update_state_at_end_of_format_string@?$standard_base@_WV?$stream_output_adapter@_W@__crt_stdio_output@@@__crt_stdio_output@@IEBA_NXZ 000000014008a554 f i libucrt:output.obj
 0001:00089558       ?validate_and_update_state_at_end_of_format_string@?$standard_base@_WV?$string_output_adapter@_W@__crt_stdio_output@@@__crt_stdio_output@@IEBA_NXZ 000000014008a558 f i libucrt:output.obj
 0001:0008955c       ?validate_state_for_type_case_a@?$positional_parameter_base@DV?$stream_output_adapter@D@__crt_stdio_output@@@__crt_stdio_output@@IEAA_NXZ 000000014008a55c f i libucrt:output.obj
 0001:00089678       ?validate_state_for_type_case_a@?$positional_parameter_base@DV?$string_output_adapter@D@__crt_stdio_output@@@__crt_stdio_output@@IEAA_NXZ 000000014008a678 f i libucrt:output.obj
 0001:00089794       ?validate_state_for_type_case_a@?$positional_parameter_base@_WV?$stream_output_adapter@_W@__crt_stdio_output@@@__crt_stdio_output@@IEAA_NXZ 000000014008a794 f i libucrt:output.obj
 0001:000898b4       ?validate_state_for_type_case_a@?$positional_parameter_base@_WV?$string_output_adapter@_W@__crt_stdio_output@@@__crt_stdio_output@@IEAA_NXZ 000000014008a8b4 f i libucrt:output.obj
 0001:000899d4       ?validate_state_for_type_case_a@?$standard_base@DV?$stream_output_adapter@D@__crt_stdio_output@@@__crt_stdio_output@@IEBA_NXZ 000000014008a9d4 f i libucrt:output.obj
 0001:000899d8       ?validate_state_for_type_case_a@?$standard_base@DV?$string_output_adapter@D@__crt_stdio_output@@@__crt_stdio_output@@IEBA_NXZ 000000014008a9d8 f i libucrt:output.obj
 0001:000899dc       ?validate_state_for_type_case_a@?$standard_base@_WV?$stream_output_adapter@_W@__crt_stdio_output@@@__crt_stdio_output@@IEBA_NXZ 000000014008a9dc f i libucrt:output.obj
 0001:000899e0       ?validate_state_for_type_case_a@?$standard_base@_WV?$string_output_adapter@_W@__crt_stdio_output@@@__crt_stdio_output@@IEBA_NXZ 000000014008a9e0 f i libucrt:output.obj
 0001:000899e4       ?validate_stream_is_ansi_if_required@?$__acrt_stdio_char_traits@D@@SA_NQEAU_iobuf@@@Z 000000014008a9e4 f i libucrt:output.obj
 0001:00089aa8       ?validate_stream_is_ansi_if_required@?$__acrt_stdio_char_traits@_W@@SA_NQEAU_iobuf@@@Z 000000014008aaa8 f i libucrt:output.obj
 0001:00089aac       ?wide_null_string@?$output_processor@DV?$stream_output_adapter@D@__crt_stdio_output@@V?$format_validation_base@DV?$stream_output_adapter@D@__crt_stdio_output@@@2@@__crt_stdio_output@@CAPEA_WXZ 000000014008aaac f i libucrt:output.obj
 0001:00089ab8       ?wide_null_string@?$output_processor@DV?$stream_output_adapter@D@__crt_stdio_output@@V?$positional_parameter_base@DV?$stream_output_adapter@D@__crt_stdio_output@@@2@@__crt_stdio_output@@CAPEA_WXZ 000000014008aab8 f i libucrt:output.obj
 0001:00089ac4       ?wide_null_string@?$output_processor@DV?$stream_output_adapter@D@__crt_stdio_output@@V?$standard_base@DV?$stream_output_adapter@D@__crt_stdio_output@@@2@@__crt_stdio_output@@CAPEA_WXZ 000000014008aac4 f i libucrt:output.obj
 0001:00089ad0       ?wide_null_string@?$output_processor@DV?$string_output_adapter@D@__crt_stdio_output@@V?$format_validation_base@DV?$string_output_adapter@D@__crt_stdio_output@@@2@@__crt_stdio_output@@CAPEA_WXZ 000000014008aad0 f i libucrt:output.obj
 0001:00089adc       ?wide_null_string@?$output_processor@DV?$string_output_adapter@D@__crt_stdio_output@@V?$positional_parameter_base@DV?$string_output_adapter@D@__crt_stdio_output@@@2@@__crt_stdio_output@@CAPEA_WXZ 000000014008aadc f i libucrt:output.obj
 0001:00089ae8       ?wide_null_string@?$output_processor@DV?$string_output_adapter@D@__crt_stdio_output@@V?$standard_base@DV?$string_output_adapter@D@__crt_stdio_output@@@2@@__crt_stdio_output@@CAPEA_WXZ 000000014008aae8 f i libucrt:output.obj
 0001:00089af4       ?wide_null_string@?$output_processor@_WV?$stream_output_adapter@_W@__crt_stdio_output@@V?$format_validation_base@_WV?$stream_output_adapter@_W@__crt_stdio_output@@@2@@__crt_stdio_output@@CAPEA_WXZ 000000014008aaf4 f i libucrt:output.obj
 0001:00089b00       ?wide_null_string@?$output_processor@_WV?$stream_output_adapter@_W@__crt_stdio_output@@V?$positional_parameter_base@_WV?$stream_output_adapter@_W@__crt_stdio_output@@@2@@__crt_stdio_output@@CAPEA_WXZ 000000014008ab00 f i libucrt:output.obj
 0001:00089b0c       ?wide_null_string@?$output_processor@_WV?$stream_output_adapter@_W@__crt_stdio_output@@V?$standard_base@_WV?$stream_output_adapter@_W@__crt_stdio_output@@@2@@__crt_stdio_output@@CAPEA_WXZ 000000014008ab0c f i libucrt:output.obj
 0001:00089b18       ?wide_null_string@?$output_processor@_WV?$string_output_adapter@_W@__crt_stdio_output@@V?$format_validation_base@_WV?$string_output_adapter@_W@__crt_stdio_output@@@2@@__crt_stdio_output@@CAPEA_WXZ 000000014008ab18 f i libucrt:output.obj
 0001:00089b24       ?wide_null_string@?$output_processor@_WV?$string_output_adapter@_W@__crt_stdio_output@@V?$positional_parameter_base@_WV?$string_output_adapter@_W@__crt_stdio_output@@@2@@__crt_stdio_output@@CAPEA_WXZ 000000014008ab24 f i libucrt:output.obj
 0001:00089b30       ?wide_null_string@?$output_processor@_WV?$string_output_adapter@_W@__crt_stdio_output@@V?$standard_base@_WV?$string_output_adapter@_W@__crt_stdio_output@@@2@@__crt_stdio_output@@CAPEA_WXZ 000000014008ab30 f i libucrt:output.obj
 0001:00089b3c       ?write_character@?$output_adapter_common@DV?$stream_output_adapter@D@__crt_stdio_output@@@__crt_stdio_output@@QEBAXDQEAHAEAV__crt_cached_ptd_host@@@Z 000000014008ab3c f i libucrt:output.obj
 0001:00089b9c       ?write_character@?$output_adapter_common@_WV?$stream_output_adapter@_W@__crt_stdio_output@@@__crt_stdio_output@@QEBAX_WQEAHAEAV__crt_cached_ptd_host@@@Z 000000014008ab9c f i libucrt:output.obj
 0001:00089c00       ?write_character@?$string_output_adapter@D@__crt_stdio_output@@QEBA_NDQEAHAEAV__crt_cached_ptd_host@@@Z 000000014008ac00 f i libucrt:output.obj
 0001:00089c58       ?write_character@?$string_output_adapter@_W@__crt_stdio_output@@QEBA_N_WQEAHAEAV__crt_cached_ptd_host@@@Z 000000014008ac58 f i libucrt:output.obj
 0001:00089cb4       ?write_character_without_count_update@?$stream_output_adapter@D@__crt_stdio_output@@QEBA_NDAEAV__crt_cached_ptd_host@@@Z 000000014008acb4 f i libucrt:output.obj
 0001:00089d04       ?write_character_without_count_update@?$stream_output_adapter@_W@__crt_stdio_output@@QEBA_N_WAEAV__crt_cached_ptd_host@@@Z 000000014008ad04 f i libucrt:output.obj
 0001:00089d58       ?write_stored_string_tchar@?$output_processor@DV?$stream_output_adapter@D@__crt_stdio_output@@V?$format_validation_base@DV?$stream_output_adapter@D@__crt_stdio_output@@@2@@__crt_stdio_output@@AEAA_ND@Z 000000014008ad58 f i libucrt:output.obj
 0001:00089ed8       ?write_stored_string_tchar@?$output_processor@DV?$stream_output_adapter@D@__crt_stdio_output@@V?$positional_parameter_base@DV?$stream_output_adapter@D@__crt_stdio_output@@@2@@__crt_stdio_output@@AEAA_ND@Z 000000014008aed8 f i libucrt:output.obj
 0001:0008a058       ?write_stored_string_tchar@?$output_processor@DV?$stream_output_adapter@D@__crt_stdio_output@@V?$standard_base@DV?$stream_output_adapter@D@__crt_stdio_output@@@2@@__crt_stdio_output@@AEAA_ND@Z 000000014008b058 f i libucrt:output.obj
 0001:0008a1d8       ?write_stored_string_tchar@?$output_processor@DV?$string_output_adapter@D@__crt_stdio_output@@V?$format_validation_base@DV?$string_output_adapter@D@__crt_stdio_output@@@2@@__crt_stdio_output@@AEAA_ND@Z 000000014008b1d8 f i libucrt:output.obj
 0001:0008a2f8       ?write_stored_string_tchar@?$output_processor@DV?$string_output_adapter@D@__crt_stdio_output@@V?$positional_parameter_base@DV?$string_output_adapter@D@__crt_stdio_output@@@2@@__crt_stdio_output@@AEAA_ND@Z 000000014008b2f8 f i libucrt:output.obj
 0001:0008a418       ?write_stored_string_tchar@?$output_processor@DV?$string_output_adapter@D@__crt_stdio_output@@V?$standard_base@DV?$string_output_adapter@D@__crt_stdio_output@@@2@@__crt_stdio_output@@AEAA_ND@Z 000000014008b418 f i libucrt:output.obj
 0001:0008a538       ?write_stored_string_tchar@?$output_processor@_WV?$stream_output_adapter@_W@__crt_stdio_output@@V?$format_validation_base@_WV?$stream_output_adapter@_W@__crt_stdio_output@@@2@@__crt_stdio_output@@AEAA_N_W@Z 000000014008b538 f i libucrt:output.obj
 0001:0008a6bc       ?write_stored_string_tchar@?$output_processor@_WV?$stream_output_adapter@_W@__crt_stdio_output@@V?$positional_parameter_base@_WV?$stream_output_adapter@_W@__crt_stdio_output@@@2@@__crt_stdio_output@@AEAA_N_W@Z 000000014008b6bc f i libucrt:output.obj
 0001:0008a840       ?write_stored_string_tchar@?$output_processor@_WV?$stream_output_adapter@_W@__crt_stdio_output@@V?$standard_base@_WV?$stream_output_adapter@_W@__crt_stdio_output@@@2@@__crt_stdio_output@@AEAA_N_W@Z 000000014008b840 f i libucrt:output.obj
 0001:0008a9c4       ?write_stored_string_tchar@?$output_processor@_WV?$string_output_adapter@_W@__crt_stdio_output@@V?$format_validation_base@_WV?$string_output_adapter@_W@__crt_stdio_output@@@2@@__crt_stdio_output@@AEAA_N_W@Z 000000014008b9c4 f i libucrt:output.obj
 0001:0008ab1c       ?write_stored_string_tchar@?$output_processor@_WV?$string_output_adapter@_W@__crt_stdio_output@@V?$positional_parameter_base@_WV?$string_output_adapter@_W@__crt_stdio_output@@@2@@__crt_stdio_output@@AEAA_N_W@Z 000000014008bb1c f i libucrt:output.obj
 0001:0008ac74       ?write_stored_string_tchar@?$output_processor@_WV?$string_output_adapter@_W@__crt_stdio_output@@V?$standard_base@_WV?$string_output_adapter@_W@__crt_stdio_output@@@2@@__crt_stdio_output@@AEAA_N_W@Z 000000014008bc74 f i libucrt:output.obj
 0001:0008adcc       ?write_string@?$stream_output_adapter@D@__crt_stdio_output@@QEBAXQEBDHQEAHAEAV__crt_cached_ptd_host@@@Z 000000014008bdcc f i libucrt:output.obj
 0001:0008adfc       ?write_string@?$stream_output_adapter@_W@__crt_stdio_output@@QEBAXQEB_WHQEAHAEAV__crt_cached_ptd_host@@@Z 000000014008bdfc f i libucrt:output.obj
 0001:0008ae2c       ?write_string@?$string_output_adapter@D@__crt_stdio_output@@QEBAXQEBDHQEAHAEAV__crt_cached_ptd_host@@@Z 000000014008be2c f i libucrt:output.obj
 0001:0008aef8       ?write_string@?$string_output_adapter@_W@__crt_stdio_output@@QEBAXQEB_WHQEAHAEAV__crt_cached_ptd_host@@@Z 000000014008bef8 f i libucrt:output.obj
 0001:0008afc8       ?write_string_impl@?$output_adapter_common@DV?$stream_output_adapter@D@__crt_stdio_output@@@__crt_stdio_output@@IEBAXQEBDHQEAHAEAV__crt_cached_ptd_host@@@Z 000000014008bfc8 f i libucrt:output.obj
 0001:0008b0c8       ?write_string_impl@?$output_adapter_common@_WV?$stream_output_adapter@_W@__crt_stdio_output@@@__crt_stdio_output@@IEBAXQEB_WHQEAHAEAV__crt_cached_ptd_host@@@Z 000000014008c0c8 f i libucrt:output.obj
 0001:0008b1dc       __acrt_isleadbyte_l_noupdate 000000014008c1dc f i libucrt:output.obj
 0001:0008b208       __stdio_common_vfprintf    000000014008c208 f   libucrt:output.obj
 0001:0008b378       __stdio_common_vfprintf_p  000000014008c378 f   libucrt:output.obj
 0001:0008b4e8       __stdio_common_vfprintf_s  000000014008c4e8 f   libucrt:output.obj
 0001:0008b658       __stdio_common_vfwprintf   000000014008c658 f   libucrt:output.obj
 0001:0008b7c8       __stdio_common_vfwprintf_p 000000014008c7c8 f   libucrt:output.obj
 0001:0008b938       __stdio_common_vfwprintf_s 000000014008c938 f   libucrt:output.obj
 0001:0008baa8       __stdio_common_vsnprintf_s 000000014008caa8 f   libucrt:output.obj
 0001:0008bcf4       __stdio_common_vsnwprintf_s 000000014008ccf4 f   libucrt:output.obj
 0001:0008bf44       __stdio_common_vsprintf    000000014008cf44 f   libucrt:output.obj
 0001:0008c22c       __stdio_common_vsprintf_p  000000014008d22c f   libucrt:output.obj
 0001:0008c310       __stdio_common_vsprintf_s  000000014008d310 f   libucrt:output.obj
 0001:0008c468       __stdio_common_vswprintf   000000014008d468 f   libucrt:output.obj
 0001:0008c758       __stdio_common_vswprintf_p 000000014008d758 f   libucrt:output.obj
 0001:0008c83c       __stdio_common_vswprintf_s 000000014008d83c f   libucrt:output.obj
 0001:0008c994       _isdigit_fast_internal     000000014008d994 f i libucrt:output.obj
 0001:0008c9b0       ??$?RE@__crt_internal_free_policy@@QEBAXQEBE@Z 000000014008d9b0 f i libucrt:input.obj
 0001:0008ced8       ??$fill_buffer@D@?$input_processor@DV?$stream_input_adapter@D@__crt_stdio_input@@@__crt_stdio_input@@CAXQEFAD_K1@Z 000000014008ded8 f i libucrt:input.obj
 0001:0008cedc       ??$fill_buffer@D@?$input_processor@DV?$string_input_adapter@D@__crt_stdio_input@@@__crt_stdio_input@@CAXQEFAD_K1@Z 000000014008dedc f i libucrt:input.obj
 0001:0008cee0       ??$fill_buffer@D@?$input_processor@_WV?$stream_input_adapter@_W@__crt_stdio_input@@@__crt_stdio_input@@CAXQEFAD_K1@Z 000000014008dee0 f i libucrt:input.obj
 0001:0008cee4       ??$fill_buffer@D@?$input_processor@_WV?$string_input_adapter@_W@__crt_stdio_input@@@__crt_stdio_input@@CAXQEFAD_K1@Z 000000014008dee4 f i libucrt:input.obj
 0001:0008cee8       ??$fill_buffer@_W@?$input_processor@DV?$stream_input_adapter@D@__crt_stdio_input@@@__crt_stdio_input@@CAXQEFA_W_K1@Z 000000014008dee8 f i libucrt:input.obj
 0001:0008ceec       ??$fill_buffer@_W@?$input_processor@DV?$string_input_adapter@D@__crt_stdio_input@@@__crt_stdio_input@@CAXQEFA_W_K1@Z 000000014008deec f i libucrt:input.obj
 0001:0008cef0       ??$fill_buffer@_W@?$input_processor@_WV?$stream_input_adapter@_W@__crt_stdio_input@@@__crt_stdio_input@@CAXQEFA_W_K1@Z 000000014008def0 f i libucrt:input.obj
 0001:0008cef4       ??$fill_buffer@_W@?$input_processor@_WV?$string_input_adapter@_W@__crt_stdio_input@@@__crt_stdio_input@@CAXQEFA_W_K1@Z 000000014008def4 f i libucrt:input.obj
 0001:0008cef8       ??$getc_nolock@PEAU_iobuf@@@?$__crt_char_traits@D@@SAH$$QEAPEAU_iobuf@@@Z 000000014008def8 f i libucrt:input.obj
 0001:0008cf04       ??$getc_nolock@PEAU_iobuf@@@?$__crt_char_traits@_W@@SAG$$QEAPEAU_iobuf@@@Z 000000014008df04 f i libucrt:input.obj
 0001:0008cf10       ??$istspace@AEBE@?$__crt_char_traits@D@@SAHAEBE@Z 000000014008df10 f i libucrt:input.obj
 0001:0008cf1c       ??$istspace@AEB_W@?$__crt_char_traits@_W@@SAHAEB_W@Z 000000014008df1c f i libucrt:input.obj
 0001:0008cf2c       ??$make_input_adapter_character_source@V?$stream_input_adapter@D@__crt_stdio_input@@@__crt_strtox@@YA?AV?$input_adapter_character_source@V?$stream_input_adapter@D@__crt_stdio_input@@@0@QEAV?$stream_input_adapter@D@__crt_stdio_input@@_KQEA_N@Z 000000014008df2c f i libucrt:input.obj
 0001:0008cf50       ??$make_input_adapter_character_source@V?$stream_input_adapter@_W@__crt_stdio_input@@@__crt_strtox@@YA?AV?$input_adapter_character_source@V?$stream_input_adapter@_W@__crt_stdio_input@@@0@QEAV?$stream_input_adapter@_W@__crt_stdio_input@@_KQEA_N@Z 000000014008df50 f i libucrt:input.obj
 0001:0008cf74       ??$make_input_adapter_character_source@V?$string_input_adapter@D@__crt_stdio_input@@@__crt_strtox@@YA?AV?$input_adapter_character_source@V?$string_input_adapter@D@__crt_stdio_input@@@0@QEAV?$string_input_adapter@D@__crt_stdio_input@@_KQEA_N@Z 000000014008df74 f i libucrt:input.obj
 0001:0008cf98       ??$make_input_adapter_character_source@V?$string_input_adapter@_W@__crt_stdio_input@@@__crt_strtox@@YA?AV?$input_adapter_character_source@V?$string_input_adapter@_W@__crt_stdio_input@@@0@QEAV?$string_input_adapter@_W@__crt_stdio_input@@_KQEA_N@Z 000000014008df98 f i libucrt:input.obj
 0001:0008cfbc       ??$parse_floating_point@V?$input_adapter_character_source@V?$stream_input_adapter@D@__crt_stdio_input@@@__crt_strtox@@M@__crt_strtox@@YA?AW4SLD_STATUS@@QEAU__crt_locale_pointers@@V?$input_adapter_character_source@V?$stream_input_adapter@D@__crt_stdio_input@@@0@QEAM@Z 000000014008dfbc f i libucrt:input.obj
 0001:0008d08c       ??$parse_floating_point@V?$input_adapter_character_source@V?$stream_input_adapter@D@__crt_stdio_input@@@__crt_strtox@@N@__crt_strtox@@YA?AW4SLD_STATUS@@QEAU__crt_locale_pointers@@V?$input_adapter_character_source@V?$stream_input_adapter@D@__crt_stdio_input@@@0@QEAN@Z 000000014008e08c f i libucrt:input.obj
 0001:0008d15c       ??$parse_floating_point@V?$input_adapter_character_source@V?$stream_input_adapter@_W@__crt_stdio_input@@@__crt_strtox@@M@__crt_strtox@@YA?AW4SLD_STATUS@@QEAU__crt_locale_pointers@@V?$input_adapter_character_source@V?$stream_input_adapter@_W@__crt_stdio_input@@@0@QEAM@Z 000000014008e15c f i libucrt:input.obj
 0001:0008d22c       ??$parse_floating_point@V?$input_adapter_character_source@V?$stream_input_adapter@_W@__crt_stdio_input@@@__crt_strtox@@N@__crt_strtox@@YA?AW4SLD_STATUS@@QEAU__crt_locale_pointers@@V?$input_adapter_character_source@V?$stream_input_adapter@_W@__crt_stdio_input@@@0@QEAN@Z 000000014008e22c f i libucrt:input.obj
 0001:0008d2fc       ??$parse_floating_point@V?$input_adapter_character_source@V?$string_input_adapter@D@__crt_stdio_input@@@__crt_strtox@@M@__crt_strtox@@YA?AW4SLD_STATUS@@QEAU__crt_locale_pointers@@V?$input_adapter_character_source@V?$string_input_adapter@D@__crt_stdio_input@@@0@QEAM@Z 000000014008e2fc f i libucrt:input.obj
 0001:0008d3cc       ??$parse_floating_point@V?$input_adapter_character_source@V?$string_input_adapter@D@__crt_stdio_input@@@__crt_strtox@@N@__crt_strtox@@YA?AW4SLD_STATUS@@QEAU__crt_locale_pointers@@V?$input_adapter_character_source@V?$string_input_adapter@D@__crt_stdio_input@@@0@QEAN@Z 000000014008e3cc f i libucrt:input.obj
 0001:0008d49c       ??$parse_floating_point@V?$input_adapter_character_source@V?$string_input_adapter@_W@__crt_stdio_input@@@__crt_strtox@@M@__crt_strtox@@YA?AW4SLD_STATUS@@QEAU__crt_locale_pointers@@V?$input_adapter_character_source@V?$string_input_adapter@_W@__crt_stdio_input@@@0@QEAM@Z 000000014008e49c f i libucrt:input.obj
 0001:0008d56c       ??$parse_floating_point@V?$input_adapter_character_source@V?$string_input_adapter@_W@__crt_stdio_input@@@__crt_strtox@@N@__crt_strtox@@YA?AW4SLD_STATUS@@QEAU__crt_locale_pointers@@V?$input_adapter_character_source@V?$string_input_adapter@_W@__crt_stdio_input@@@0@QEAN@Z 000000014008e56c f i libucrt:input.obj
 0001:0008d63c       ??$parse_floating_point_from_source@V?$input_adapter_character_source@V?$stream_input_adapter@D@__crt_stdio_input@@@__crt_strtox@@@__crt_strtox@@YA?AW4floating_point_parse_result@0@QEAU__crt_locale_pointers@@AEAV?$input_adapter_character_source@V?$stream_input_adapter@D@__crt_stdio_input@@@0@AEAUfloating_point_string@0@@Z 000000014008e63c f i libucrt:input.obj
 0001:0008e010       ??$parse_floating_point_from_source@V?$input_adapter_character_source@V?$stream_input_adapter@_W@__crt_stdio_input@@@__crt_strtox@@@__crt_strtox@@YA?AW4floating_point_parse_result@0@QEAU__crt_locale_pointers@@AEAV?$input_adapter_character_source@V?$stream_input_adapter@_W@__crt_stdio_input@@@0@AEAUfloating_point_string@0@@Z 000000014008f010 f i libucrt:input.obj
 0001:0008f4d0       ??$parse_floating_point_from_source@V?$input_adapter_character_source@V?$string_input_adapter@D@__crt_stdio_input@@@__crt_strtox@@@__crt_strtox@@YA?AW4floating_point_parse_result@0@QEAU__crt_locale_pointers@@AEAV?$input_adapter_character_source@V?$string_input_adapter@D@__crt_stdio_input@@@0@AEAUfloating_point_string@0@@Z 00000001400904d0 f i libucrt:input.obj
 0001:0008fe68       ??$parse_floating_point_from_source@V?$input_adapter_character_source@V?$string_input_adapter@_W@__crt_stdio_input@@@__crt_strtox@@@__crt_strtox@@YA?AW4floating_point_parse_result@0@QEAU__crt_locale_pointers@@AEAV?$input_adapter_character_source@V?$string_input_adapter@_W@__crt_stdio_input@@@0@AEAUfloating_point_string@0@@Z 0000000140090e68 f i libucrt:input.obj
 0001:000912f8       ??$parse_floating_point_possible_infinity@DV?$input_adapter_character_source@V?$stream_input_adapter@D@__crt_stdio_input@@@__crt_strtox@@_K@__crt_strtox@@YA?AW4floating_point_parse_result@0@AEADAEAV?$input_adapter_character_source@V?$stream_input_adapter@D@__crt_stdio_input@@@0@_K@Z 00000001400922f8 f i libucrt:input.obj
 0001:00091540       ??$parse_floating_point_possible_infinity@DV?$input_adapter_character_source@V?$string_input_adapter@D@__crt_stdio_input@@@__crt_strtox@@_K@__crt_strtox@@YA?AW4floating_point_parse_result@0@AEADAEAV?$input_adapter_character_source@V?$string_input_adapter@D@__crt_stdio_input@@@0@_K@Z 0000000140092540 f i libucrt:input.obj
 0001:00091758       ??$parse_floating_point_possible_infinity@_WV?$input_adapter_character_source@V?$stream_input_adapter@_W@__crt_stdio_input@@@__crt_strtox@@_K@__crt_strtox@@YA?AW4floating_point_parse_result@0@AEA_WAEAV?$input_adapter_character_source@V?$stream_input_adapter@_W@__crt_stdio_input@@@0@_K@Z 0000000140092758 f i libucrt:input.obj
 0001:000919f4       ??$parse_floating_point_possible_infinity@_WV?$input_adapter_character_source@V?$string_input_adapter@_W@__crt_stdio_input@@@__crt_strtox@@_K@__crt_strtox@@YA?AW4floating_point_parse_result@0@AEA_WAEAV?$input_adapter_character_source@V?$string_input_adapter@_W@__crt_stdio_input@@@0@_K@Z 00000001400929f4 f i libucrt:input.obj
 0001:00091c74       ??$parse_floating_point_possible_nan@DV?$input_adapter_character_source@V?$stream_input_adapter@D@__crt_stdio_input@@@__crt_strtox@@_K@__crt_strtox@@YA?AW4floating_point_parse_result@0@AEADAEAV?$input_adapter_character_source@V?$stream_input_adapter@D@__crt_stdio_input@@@0@_K@Z 0000000140092c74 f i libucrt:input.obj
 0001:00091f84       ??$parse_floating_point_possible_nan@DV?$input_adapter_character_source@V?$string_input_adapter@D@__crt_stdio_input@@@__crt_strtox@@_K@__crt_strtox@@YA?AW4floating_point_parse_result@0@AEADAEAV?$input_adapter_character_source@V?$string_input_adapter@D@__crt_stdio_input@@@0@_K@Z 0000000140092f84 f i libucrt:input.obj
 0001:0009227c       ??$parse_floating_point_possible_nan@_WV?$input_adapter_character_source@V?$stream_input_adapter@_W@__crt_stdio_input@@@__crt_strtox@@_K@__crt_strtox@@YA?AW4floating_point_parse_result@0@AEA_WAEAV?$input_adapter_character_source@V?$stream_input_adapter@_W@__crt_stdio_input@@@0@_K@Z 000000014009327c f i libucrt:input.obj
 0001:000925ec       ??$parse_floating_point_possible_nan@_WV?$input_adapter_character_source@V?$string_input_adapter@_W@__crt_stdio_input@@@__crt_strtox@@_K@__crt_strtox@@YA?AW4floating_point_parse_result@0@AEA_WAEAV?$input_adapter_character_source@V?$string_input_adapter@_W@__crt_stdio_input@@@0@_K@Z 00000001400935ec f i libucrt:input.obj
 0001:00092960       ??$parse_floating_point_possible_nan_is_ind@DV?$input_adapter_character_source@V?$stream_input_adapter@D@__crt_stdio_input@@@__crt_strtox@@@__crt_strtox@@YA_NAEADAEAV?$input_adapter_character_source@V?$stream_input_adapter@D@__crt_stdio_input@@@0@@Z 0000000140093960 f i libucrt:input.obj
 0001:00092a1c       ??$parse_floating_point_possible_nan_is_ind@DV?$input_adapter_character_source@V?$string_input_adapter@D@__crt_stdio_input@@@__crt_strtox@@@__crt_strtox@@YA_NAEADAEAV?$input_adapter_character_source@V?$string_input_adapter@D@__crt_stdio_input@@@0@@Z 0000000140093a1c f i libucrt:input.obj
 0001:00092ab4       ??$parse_floating_point_possible_nan_is_ind@_WV?$input_adapter_character_source@V?$stream_input_adapter@_W@__crt_stdio_input@@@__crt_strtox@@@__crt_strtox@@YA_NAEA_WAEAV?$input_adapter_character_source@V?$stream_input_adapter@_W@__crt_stdio_input@@@0@@Z 0000000140093ab4 f i libucrt:input.obj
 0001:00092b84       ??$parse_floating_point_possible_nan_is_ind@_WV?$input_adapter_character_source@V?$string_input_adapter@_W@__crt_stdio_input@@@__crt_strtox@@@__crt_strtox@@YA_NAEA_WAEAV?$input_adapter_character_source@V?$string_input_adapter@_W@__crt_stdio_input@@@0@@Z 0000000140093b84 f i libucrt:input.obj
 0001:00092c38       ??$parse_floating_point_possible_nan_is_snan@DV?$input_adapter_character_source@V?$stream_input_adapter@D@__crt_stdio_input@@@__crt_strtox@@@__crt_strtox@@YA_NAEADAEAV?$input_adapter_character_source@V?$stream_input_adapter@D@__crt_stdio_input@@@0@@Z 0000000140093c38 f i libucrt:input.obj
 0001:00092cf4       ??$parse_floating_point_possible_nan_is_snan@DV?$input_adapter_character_source@V?$string_input_adapter@D@__crt_stdio_input@@@__crt_strtox@@@__crt_strtox@@YA_NAEADAEAV?$input_adapter_character_source@V?$string_input_adapter@D@__crt_stdio_input@@@0@@Z 0000000140093cf4 f i libucrt:input.obj
 0001:00092d8c       ??$parse_floating_point_possible_nan_is_snan@_WV?$input_adapter_character_source@V?$stream_input_adapter@_W@__crt_stdio_input@@@__crt_strtox@@@__crt_strtox@@YA_NAEA_WAEAV?$input_adapter_character_source@V?$stream_input_adapter@_W@__crt_stdio_input@@@0@@Z 0000000140093d8c f i libucrt:input.obj
 0001:00092e5c       ??$parse_floating_point_possible_nan_is_snan@_WV?$input_adapter_character_source@V?$string_input_adapter@_W@__crt_stdio_input@@@__crt_strtox@@@__crt_strtox@@YA_NAEA_WAEAV?$input_adapter_character_source@V?$string_input_adapter@_W@__crt_stdio_input@@@0@@Z 0000000140093e5c f i libucrt:input.obj
 0001:00092f10       ??$parse_integer@_KV?$input_adapter_character_source@V?$stream_input_adapter@D@__crt_stdio_input@@@__crt_strtox@@$00@__crt_strtox@@YA_KAEAV__crt_cached_ptd_host@@V?$input_adapter_character_source@V?$stream_input_adapter@D@__crt_stdio_input@@@0@H_N@Z 0000000140093f10 f i libucrt:input.obj
 0001:0009344c       ??$parse_integer@_KV?$input_adapter_character_source@V?$stream_input_adapter@D@__crt_stdio_input@@@__crt_strtox@@@__crt_strtox@@YA_KQEAU__crt_locale_pointers@@V?$input_adapter_character_source@V?$stream_input_adapter@D@__crt_stdio_input@@@0@H_N@Z 000000014009444c f i libucrt:input.obj
 0001:0009358c       ??$parse_integer@_KV?$input_adapter_character_source@V?$stream_input_adapter@_W@__crt_stdio_input@@@__crt_strtox@@$00@__crt_strtox@@YA_KAEAV__crt_cached_ptd_host@@V?$input_adapter_character_source@V?$stream_input_adapter@_W@__crt_stdio_input@@@0@H_N@Z 000000014009458c f i libucrt:input.obj
 0001:000940dc       ??$parse_integer@_KV?$input_adapter_character_source@V?$stream_input_adapter@_W@__crt_stdio_input@@@__crt_strtox@@@__crt_strtox@@YA_KQEAU__crt_locale_pointers@@V?$input_adapter_character_source@V?$stream_input_adapter@_W@__crt_stdio_input@@@0@H_N@Z 00000001400950dc f i libucrt:input.obj
 0001:0009421c       ??$parse_integer@_KV?$input_adapter_character_source@V?$string_input_adapter@D@__crt_stdio_input@@@__crt_strtox@@$00@__crt_strtox@@YA_KAEAV__crt_cached_ptd_host@@V?$input_adapter_character_source@V?$string_input_adapter@D@__crt_stdio_input@@@0@H_N@Z 000000014009521c f i libucrt:input.obj
 0001:00094764       ??$parse_integer@_KV?$input_adapter_character_source@V?$string_input_adapter@D@__crt_stdio_input@@@__crt_strtox@@@__crt_strtox@@YA_KQEAU__crt_locale_pointers@@V?$input_adapter_character_source@V?$string_input_adapter@D@__crt_stdio_input@@@0@H_N@Z 0000000140095764 f i libucrt:input.obj
 0001:000948a4       ??$parse_integer@_KV?$input_adapter_character_source@V?$string_input_adapter@_W@__crt_stdio_input@@@__crt_strtox@@$00@__crt_strtox@@YA_KAEAV__crt_cached_ptd_host@@V?$input_adapter_character_source@V?$string_input_adapter@_W@__crt_stdio_input@@@0@H_N@Z 00000001400958a4 f i libucrt:input.obj
 0001:00095418       ??$parse_integer@_KV?$input_adapter_character_source@V?$string_input_adapter@_W@__crt_stdio_input@@@__crt_strtox@@@__crt_strtox@@YA_KQEAU__crt_locale_pointers@@V?$input_adapter_character_source@V?$string_input_adapter@_W@__crt_stdio_input@@@0@H_N@Z 0000000140096418 f i libucrt:input.obj
 0001:00095558       ??$parse_next_characters_from_source@DV?$input_adapter_character_source@V?$stream_input_adapter@D@__crt_stdio_input@@@__crt_strtox@@@__crt_strtox@@YA_NQEBD0_KAEADAEAV?$input_adapter_character_source@V?$stream_input_adapter@D@__crt_stdio_input@@@0@@Z 0000000140096558 f i libucrt:input.obj
 0001:00095630       ??$parse_next_characters_from_source@DV?$input_adapter_character_source@V?$string_input_adapter@D@__crt_stdio_input@@@__crt_strtox@@@__crt_strtox@@YA_NQEBD0_KAEADAEAV?$input_adapter_character_source@V?$string_input_adapter@D@__crt_stdio_input@@@0@@Z 0000000140096630 f i libucrt:input.obj
 0001:000956d4       ??$parse_next_characters_from_source@_WV?$input_adapter_character_source@V?$stream_input_adapter@_W@__crt_stdio_input@@@__crt_strtox@@@__crt_strtox@@YA_NQEB_W0_KAEA_WAEAV?$input_adapter_character_source@V?$stream_input_adapter@_W@__crt_stdio_input@@@0@@Z 00000001400966d4 f i libucrt:input.obj
 0001:000957bc       ??$parse_next_characters_from_source@_WV?$input_adapter_character_source@V?$string_input_adapter@_W@__crt_stdio_input@@@__crt_strtox@@@__crt_strtox@@YA_NQEB_W0_KAEA_WAEAV?$input_adapter_character_source@V?$string_input_adapter@_W@__crt_stdio_input@@@0@@Z 00000001400967bc f i libucrt:input.obj
 0001:00095884       ??$process_floating_point_specifier_t@M@?$input_processor@DV?$stream_input_adapter@D@__crt_stdio_input@@@__crt_stdio_input@@AEAA_NXZ 0000000140096884 f i libucrt:input.obj
 0001:0009594c       ??$process_floating_point_specifier_t@M@?$input_processor@DV?$string_input_adapter@D@__crt_stdio_input@@@__crt_stdio_input@@AEAA_NXZ 000000014009694c f i libucrt:input.obj
 0001:00095a1c       ??$process_floating_point_specifier_t@M@?$input_processor@_WV?$stream_input_adapter@_W@__crt_stdio_input@@@__crt_stdio_input@@AEAA_NXZ 0000000140096a1c f i libucrt:input.obj
 0001:00095ae4       ??$process_floating_point_specifier_t@M@?$input_processor@_WV?$string_input_adapter@_W@__crt_stdio_input@@@__crt_stdio_input@@AEAA_NXZ 0000000140096ae4 f i libucrt:input.obj
 0001:00095bac       ??$process_floating_point_specifier_t@N@?$input_processor@DV?$stream_input_adapter@D@__crt_stdio_input@@@__crt_stdio_input@@AEAA_NXZ 0000000140096bac f i libucrt:input.obj
 0001:00095c78       ??$process_floating_point_specifier_t@N@?$input_processor@DV?$string_input_adapter@D@__crt_stdio_input@@@__crt_stdio_input@@AEAA_NXZ 0000000140096c78 f i libucrt:input.obj
 0001:00095d48       ??$process_floating_point_specifier_t@N@?$input_processor@_WV?$stream_input_adapter@_W@__crt_stdio_input@@@__crt_stdio_input@@AEAA_NXZ 0000000140096d48 f i libucrt:input.obj
 0001:00095e14       ??$process_floating_point_specifier_t@N@?$input_processor@_WV?$string_input_adapter@_W@__crt_stdio_input@@@__crt_stdio_input@@AEAA_NXZ 0000000140096e14 f i libucrt:input.obj
 0001:00095ee0       ??$process_string_specifier_tchar@D@?$input_processor@DV?$stream_input_adapter@D@__crt_stdio_input@@@__crt_stdio_input@@AEAA_NW4conversion_mode@1@D@Z 0000000140096ee0 f i libucrt:input.obj
 0001:000960d4       ??$process_string_specifier_tchar@D@?$input_processor@DV?$string_input_adapter@D@__crt_stdio_input@@@__crt_stdio_input@@AEAA_NW4conversion_mode@1@D@Z 00000001400970d4 f i libucrt:input.obj
 0001:000962f4       ??$process_string_specifier_tchar@D@?$input_processor@_WV?$stream_input_adapter@_W@__crt_stdio_input@@@__crt_stdio_input@@AEAA_NW4conversion_mode@1@D@Z 00000001400972f4 f i libucrt:input.obj
 0001:00096534       ??$process_string_specifier_tchar@D@?$input_processor@_WV?$string_input_adapter@_W@__crt_stdio_input@@@__crt_stdio_input@@AEAA_NW4conversion_mode@1@D@Z 0000000140097534 f i libucrt:input.obj
 0001:00096788       ??$process_string_specifier_tchar@_W@?$input_processor@DV?$stream_input_adapter@D@__crt_stdio_input@@@__crt_stdio_input@@AEAA_NW4conversion_mode@1@_W@Z 0000000140097788 f i libucrt:input.obj
 0001:000969cc       ??$process_string_specifier_tchar@_W@?$input_processor@DV?$string_input_adapter@D@__crt_stdio_input@@@__crt_stdio_input@@AEAA_NW4conversion_mode@1@_W@Z 00000001400979cc f i libucrt:input.obj
 0001:00096c24       ??$process_string_specifier_tchar@_W@?$input_processor@_WV?$stream_input_adapter@_W@__crt_stdio_input@@@__crt_stdio_input@@AEAA_NW4conversion_mode@1@_W@Z 0000000140097c24 f i libucrt:input.obj
 0001:00096e4c       ??$process_string_specifier_tchar@_W@?$input_processor@_WV?$string_input_adapter@_W@__crt_stdio_input@@@__crt_stdio_input@@AEAA_NW4conversion_mode@1@_W@Z 0000000140097e4c f i libucrt:input.obj
 0001:00097084       ??$reset_buffer@D@?$input_processor@DV?$stream_input_adapter@D@__crt_stdio_input@@@__crt_stdio_input@@CAXQEFAD_K@Z 0000000140098084 f i libucrt:input.obj
 0001:00097090       ??$reset_buffer@D@?$input_processor@DV?$string_input_adapter@D@__crt_stdio_input@@@__crt_stdio_input@@CAXQEFAD_K@Z 0000000140098090 f i libucrt:input.obj
 0001:0009709c       ??$reset_buffer@D@?$input_processor@_WV?$stream_input_adapter@_W@__crt_stdio_input@@@__crt_stdio_input@@CAXQEFAD_K@Z 000000014009809c f i libucrt:input.obj
 0001:000970a8       ??$reset_buffer@D@?$input_processor@_WV?$string_input_adapter@_W@__crt_stdio_input@@@__crt_stdio_input@@CAXQEFAD_K@Z 00000001400980a8 f i libucrt:input.obj
 0001:000970b4       ??$reset_buffer@_W@?$input_processor@DV?$stream_input_adapter@D@__crt_stdio_input@@@__crt_stdio_input@@CAXQEFA_W_K@Z 00000001400980b4 f i libucrt:input.obj
 0001:000970c4       ??$reset_buffer@_W@?$input_processor@DV?$string_input_adapter@D@__crt_stdio_input@@@__crt_stdio_input@@CAXQEFA_W_K@Z 00000001400980c4 f i libucrt:input.obj
 0001:000970d4       ??$reset_buffer@_W@?$input_processor@_WV?$stream_input_adapter@_W@__crt_stdio_input@@@__crt_stdio_input@@CAXQEFA_W_K@Z 00000001400980d4 f i libucrt:input.obj
 0001:000970e4       ??$reset_buffer@_W@?$input_processor@_WV?$string_input_adapter@_W@__crt_stdio_input@@@__crt_stdio_input@@CAXQEFA_W_K@Z 00000001400980e4 f i libucrt:input.obj
 0001:000970f4       ??$skip_whitespace@Vstream_input_adapter@__crt_stdio_input@@D@__crt_stdio_input@@YAHAEAV?$stream_input_adapter@D@0@QEAU__crt_locale_pointers@@@Z 00000001400980f4 f i libucrt:input.obj
 0001:00097158       ??$skip_whitespace@Vstream_input_adapter@__crt_stdio_input@@_W@__crt_stdio_input@@YAGAEAV?$stream_input_adapter@_W@0@QEAU__crt_locale_pointers@@@Z 0000000140098158 f i libucrt:input.obj
 0001:000971b0       ??$skip_whitespace@Vstring_input_adapter@__crt_stdio_input@@D@__crt_stdio_input@@YAHAEAV?$string_input_adapter@D@0@QEAU__crt_locale_pointers@@@Z 00000001400981b0 f i libucrt:input.obj
 0001:00097218       ??$skip_whitespace@Vstring_input_adapter@__crt_stdio_input@@_W@__crt_stdio_input@@YAGAEAV?$string_input_adapter@_W@0@QEAU__crt_locale_pointers@@@Z 0000000140098218 f i libucrt:input.obj
 0001:00097288       ??$tcsnlen@AEBQEBDAEB_K@?$__crt_char_traits@D@@SA_KAEBQEBDAEB_K@Z 0000000140098288 f i libucrt:input.obj
 0001:00097298       ??$tcsnlen@AEBQEB_WAEB_K@?$__crt_char_traits@_W@@SA_KAEBQEB_WAEB_K@Z 0000000140098298 f i libucrt:input.obj
 0001:000972a8       ??$tcstoull@PEBDPEAPEADH@?$__crt_char_traits@D@@SA_K$$QEAPEBD$$QEAPEAPEAD$$QEAH@Z 00000001400982a8 f i libucrt:input.obj
 0001:000972bc       ??$tcstoull@PEB_WPEAPEA_WH@?$__crt_char_traits@_W@@SA_K$$QEAPEB_W$$QEAPEAPEA_W$$QEAH@Z 00000001400982bc f i libucrt:input.obj
 0001:000972d0       ??$ungettc_nolock@AEBGPEAU_iobuf@@@?$__crt_char_traits@_W@@SAGAEBG$$QEAPEAU_iobuf@@@Z 00000001400982d0 f i libucrt:input.obj
 0001:000972e0       ??$ungettc_nolock@AEBHPEAU_iobuf@@@?$__crt_char_traits@D@@SAHAEBH$$QEAPEAU_iobuf@@@Z 00000001400982e0 f i libucrt:input.obj
 0001:000972ec       ??$write_floating_point@M@?$input_processor@DV?$stream_input_adapter@D@__crt_stdio_input@@@__crt_stdio_input@@AEAA_NAEBM@Z 00000001400982ec f i libucrt:input.obj
 0001:00097330       ??$write_floating_point@M@?$input_processor@DV?$string_input_adapter@D@__crt_stdio_input@@@__crt_stdio_input@@AEAA_NAEBM@Z 0000000140098330 f i libucrt:input.obj
 0001:0009737c       ??$write_floating_point@M@?$input_processor@_WV?$stream_input_adapter@_W@__crt_stdio_input@@@__crt_stdio_input@@AEAA_NAEBM@Z 000000014009837c f i libucrt:input.obj
 0001:000973c0       ??$write_floating_point@M@?$input_processor@_WV?$string_input_adapter@_W@__crt_stdio_input@@@__crt_stdio_input@@AEAA_NAEBM@Z 00000001400983c0 f i libucrt:input.obj
 0001:00097404       ??$write_floating_point@N@?$input_processor@DV?$stream_input_adapter@D@__crt_stdio_input@@@__crt_stdio_input@@AEAA_NAEBN@Z 0000000140098404 f i libucrt:input.obj
 0001:0009744c       ??$write_floating_point@N@?$input_processor@DV?$string_input_adapter@D@__crt_stdio_input@@@__crt_stdio_input@@AEAA_NAEBN@Z 000000014009844c f i libucrt:input.obj
 0001:0009749c       ??$write_floating_point@N@?$input_processor@_WV?$stream_input_adapter@_W@__crt_stdio_input@@@__crt_stdio_input@@AEAA_NAEBN@Z 000000014009849c f i libucrt:input.obj
 0001:000974e4       ??$write_floating_point@N@?$input_processor@_WV?$string_input_adapter@_W@__crt_stdio_input@@@__crt_stdio_input@@AEAA_NAEBN@Z 00000001400984e4 f i libucrt:input.obj
 0001:00097538       ??0<lambda_1232a416a9149be513dc40db5f8b835d>@@QEAA@AEAV?$input_adapter_character_source@V?$stream_input_adapter@D@__crt_stdio_input@@@__crt_strtox@@AEADAEA_K@Z 0000000140098538 f i libucrt:input.obj
 0001:00097558       ??0<lambda_156378f40168adef48d7ddfcff3a1264>@@QEAA@AEAV?$input_adapter_character_source@V?$stream_input_adapter@D@__crt_stdio_input@@@__crt_strtox@@AEADAEA_K@Z 0000000140098558 f i libucrt:input.obj
 0001:00097578       ??0<lambda_1db4d925c2db10274e92824f631ccf5d>@@QEAA@AEAV?$input_adapter_character_source@V?$string_input_adapter@D@__crt_stdio_input@@@__crt_strtox@@AEADAEA_K@Z 0000000140098578 f i libucrt:input.obj
 0001:0009758c       ??0<lambda_283d5cd4935f5253d095a945c5771a1b>@@QEAA@AEAV?$input_adapter_character_source@V?$string_input_adapter@_W@__crt_stdio_input@@@__crt_strtox@@AEA_WAEA_K@Z 000000014009858c f i libucrt:input.obj
 0001:000975a0       ??0<lambda_2869a9057330eafa474e853b0696fc23>@@QEAA@AEAV?$input_adapter_character_source@V?$stream_input_adapter@_W@__crt_stdio_input@@@__crt_strtox@@AEA_WAEA_K@Z 00000001400985a0 f i libucrt:input.obj
 0001:000975b4       ??0<lambda_3fab6266ebbbb6a80db50646f7fd7b75>@@QEAA@AEAV?$input_adapter_character_source@V?$stream_input_adapter@_W@__crt_stdio_input@@@__crt_strtox@@AEA_WAEA_K@Z 00000001400985b4 f i libucrt:input.obj
 0001:000975c8       ??0<lambda_6c6d19daa7c7d45df7f17119b7c25976>@@QEAA@AEAV?$input_adapter_character_source@V?$stream_input_adapter@_W@__crt_stdio_input@@@__crt_strtox@@AEA_WAEA_K@Z 00000001400985c8 f i libucrt:input.obj
 0001:000975dc       ??0<lambda_987679f592fad43c4bd3fe4c5bcc8c0e>@@QEAA@AEAV?$input_adapter_character_source@V?$stream_input_adapter@D@__crt_stdio_input@@@__crt_strtox@@AEADAEA_K@Z 00000001400985dc f i libucrt:input.obj
 0001:000975f0       ??0<lambda_a9f975f7e8316be0241b8392d74a98d8>@@QEAA@AEAV?$input_adapter_character_source@V?$string_input_adapter@_W@__crt_stdio_input@@@__crt_strtox@@AEA_WAEA_K@Z 00000001400985f0 f i libucrt:input.obj
 0001:00097604       ??0<lambda_ab71cf08e5e7ad30a15505f224e9f7a9>@@QEAA@AEAV?$input_adapter_character_source@V?$string_input_adapter@_W@__crt_stdio_input@@@__crt_strtox@@AEA_WAEA_K@Z 0000000140098604 f i libucrt:input.obj
 0001:00097644       ??0<lambda_bdd123a27a08a14f93fbf44b617d0736>@@QEAA@AEAV?$input_adapter_character_source@V?$string_input_adapter@D@__crt_stdio_input@@@__crt_strtox@@AEADAEA_K@Z 0000000140098644 f i libucrt:input.obj
 0001:00097664       ??0<lambda_ee7c83d9f0cd4f1299194e0a8d424b67>@@QEAA@AEAV?$input_adapter_character_source@V?$string_input_adapter@D@__crt_stdio_input@@@__crt_strtox@@AEADAEA_K@Z 0000000140098664 f i libucrt:input.obj
 0001:000976a4       ??0?$__crt_unique_heap_ptr@EU__crt_internal_free_policy@@@@QEAA@QEAE@Z 00000001400986a4 f i libucrt:input.obj
 0001:000976ac       ??0?$format_string_parser@D@__crt_stdio_input@@QEAA@_KQEBE@Z 00000001400986ac f i libucrt:input.obj
 0001:000976e8       ??0?$format_string_parser@_W@__crt_stdio_input@@QEAA@_KQEB_W@Z 00000001400986e8 f i libucrt:input.obj
 0001:0009771c       ??0?$input_adapter_character_source@V?$stream_input_adapter@D@__crt_stdio_input@@@__crt_strtox@@QEAA@$$QEAV01@@Z 000000014009871c f i libucrt:input.obj
 0001:00097754       ??0?$input_adapter_character_source@V?$stream_input_adapter@D@__crt_stdio_input@@@__crt_strtox@@QEAA@QEAV?$stream_input_adapter@D@__crt_stdio_input@@_KQEA_N@Z 0000000140098754 f i libucrt:input.obj
 0001:00097778       ??0?$input_adapter_character_source@V?$stream_input_adapter@_W@__crt_stdio_input@@@__crt_strtox@@QEAA@$$QEAV01@@Z 0000000140098778 f i libucrt:input.obj
 0001:000977b0       ??0?$input_adapter_character_source@V?$stream_input_adapter@_W@__crt_stdio_input@@@__crt_strtox@@QEAA@QEAV?$stream_input_adapter@_W@__crt_stdio_input@@_KQEA_N@Z 00000001400987b0 f i libucrt:input.obj
 0001:000977d4       ??0?$input_adapter_character_source@V?$string_input_adapter@D@__crt_stdio_input@@@__crt_strtox@@QEAA@$$QEAV01@@Z 00000001400987d4 f i libucrt:input.obj
 0001:0009780c       ??0?$input_adapter_character_source@V?$string_input_adapter@D@__crt_stdio_input@@@__crt_strtox@@QEAA@QEAV?$string_input_adapter@D@__crt_stdio_input@@_KQEA_N@Z 000000014009880c f i libucrt:input.obj
 0001:00097830       ??0?$input_adapter_character_source@V?$string_input_adapter@_W@__crt_stdio_input@@@__crt_strtox@@QEAA@$$QEAV01@@Z 0000000140098830 f i libucrt:input.obj
 0001:00097868       ??0?$input_adapter_character_source@V?$string_input_adapter@_W@__crt_stdio_input@@@__crt_strtox@@QEAA@QEAV?$string_input_adapter@_W@__crt_stdio_input@@_KQEA_N@Z 0000000140098868 f i libucrt:input.obj
 0001:0009788c       ??0?$input_processor@DV?$stream_input_adapter@D@__crt_stdio_input@@@__crt_stdio_input@@QEAA@AEBV?$stream_input_adapter@D@1@_KQEBDQEAU__crt_locale_pointers@@QEAD@Z 000000014009888c f i libucrt:input.obj
 0001:000978f8       ??0?$input_processor@DV?$string_input_adapter@D@__crt_stdio_input@@@__crt_stdio_input@@QEAA@AEBV?$string_input_adapter@D@1@_KQEBDQEAU__crt_locale_pointers@@QEAD@Z 00000001400988f8 f i libucrt:input.obj
 0001:00097974       ??0?$input_processor@_WV?$stream_input_adapter@_W@__crt_stdio_input@@@__crt_stdio_input@@QEAA@AEBV?$stream_input_adapter@_W@1@_KQEB_WQEAU__crt_locale_pointers@@QEAD@Z 0000000140098974 f i libucrt:input.obj
 0001:000979d0       ??0?$input_processor@_WV?$string_input_adapter@_W@__crt_stdio_input@@@__crt_stdio_input@@QEAA@AEBV?$string_input_adapter@_W@1@_KQEB_WQEAU__crt_locale_pointers@@QEAD@Z 00000001400989d0 f i libucrt:input.obj
 0001:00097a38       ??0?$scanset_buffer@E@__crt_stdio_input@@QEAA@XZ 0000000140098a38 f i libucrt:input.obj
 0001:00097a4c       ??0?$scanset_buffer@_W@__crt_stdio_input@@QEAA@XZ 0000000140098a4c f i libucrt:input.obj
 0001:00097a58       ??0?$scanset_storage@$00@__crt_stdio_input@@QEAA@XZ 0000000140098a58 f i libucrt:input.obj
 0001:00097a6c       ??0?$scanset_storage@$01@__crt_stdio_input@@QEAA@XZ 0000000140098a6c f i libucrt:input.obj
 0001:00097a78       ??0?$stream_input_adapter@D@__crt_stdio_input@@QEAA@QEAU_iobuf@@@Z 0000000140098a78 f i libucrt:input.obj
 0001:00097a88       ??0?$stream_input_adapter@_W@__crt_stdio_input@@QEAA@QEAU_iobuf@@@Z 0000000140098a88 f i libucrt:input.obj
 0001:00097a98       ??0?$string_input_adapter@D@__crt_stdio_input@@QEAA@QEBD_K@Z 0000000140098a98 f i libucrt:input.obj
 0001:00097ab0       ??0?$string_input_adapter@_W@__crt_stdio_input@@QEAA@QEB_W_K@Z 0000000140098ab0 f i libucrt:input.obj
 0001:00097ac8       ??1?$__crt_unique_heap_ptr@EU__crt_internal_free_policy@@@@QEAA@XZ 0000000140098ac8 f i libucrt:input.obj
 0001:00097aec       ??1?$format_string_parser@_W@__crt_stdio_input@@QEAA@XZ 0000000140098aec f i libucrt:input.obj
 0001:00097b10       ??1?$input_adapter_character_source@V?$stream_input_adapter@D@__crt_stdio_input@@@__crt_strtox@@QEAA@XZ 0000000140098b10 f i libucrt:input.obj
 0001:00097b2c       ??1?$input_adapter_character_source@V?$stream_input_adapter@_W@__crt_stdio_input@@@__crt_strtox@@QEAA@XZ 0000000140098b2c f i libucrt:input.obj
 0001:00097b48       ??1?$input_adapter_character_source@V?$string_input_adapter@D@__crt_stdio_input@@@__crt_strtox@@QEAA@XZ 0000000140098b48 f i libucrt:input.obj
 0001:00097b64       ??1?$input_adapter_character_source@V?$string_input_adapter@_W@__crt_stdio_input@@@__crt_strtox@@QEAA@XZ 0000000140098b64 f i libucrt:input.obj
 0001:00097b80       ??1?$input_processor@_WV?$stream_input_adapter@_W@__crt_stdio_input@@@__crt_stdio_input@@QEAA@XZ 0000000140098b80 f i libucrt:input.obj
 0001:00097ba4       ??1?$input_processor@_WV?$string_input_adapter@_W@__crt_stdio_input@@@__crt_stdio_input@@QEAA@XZ 0000000140098ba4 f i libucrt:input.obj
 0001:00097bc8       ??1?$scanset_buffer@_W@__crt_stdio_input@@QEAA@XZ 0000000140098bc8 f i libucrt:input.obj
 0001:00097bec       ??1?$scanset_storage@$01@__crt_stdio_input@@QEAA@XZ 0000000140098bec f i libucrt:input.obj
 0001:00097c10       ??4?$__crt_unique_heap_ptr@EU__crt_internal_free_policy@@@@QEAAAEAV0@$$QEAV0@@Z 0000000140098c10 f i libucrt:input.obj
 0001:00097c54       ??B?$__crt_unique_heap_ptr@EU__crt_internal_free_policy@@@@QEBA_NXZ 0000000140098c54 f i libucrt:input.obj
 0001:00097c6c       ??R<lambda_1232a416a9149be513dc40db5f8b835d>@@QEBA@XZ 0000000140098c6c f i libucrt:input.obj
 0001:00097d10       ??R<lambda_156378f40168adef48d7ddfcff3a1264>@@QEBA@XZ 0000000140098d10 f i libucrt:input.obj
 0001:00097db4       ??R<lambda_1db4d925c2db10274e92824f631ccf5d>@@QEBA@XZ 0000000140098db4 f i libucrt:input.obj
 0001:00097e30       ??R<lambda_283d5cd4935f5253d095a945c5771a1b>@@QEBA@XZ 0000000140098e30 f i libucrt:input.obj
 0001:00097eb8       ??R<lambda_2869a9057330eafa474e853b0696fc23>@@QEBA@XZ 0000000140098eb8 f i libucrt:input.obj
 0001:00097f54       ??R<lambda_3fab6266ebbbb6a80db50646f7fd7b75>@@QEBA@XZ 0000000140098f54 f i libucrt:input.obj
 0001:00097ff0       ??R<lambda_6c6d19daa7c7d45df7f17119b7c25976>@@QEBA@XZ 0000000140098ff0 f i libucrt:input.obj
 0001:0009808c       ??R<lambda_987679f592fad43c4bd3fe4c5bcc8c0e>@@QEBA@XZ 000000014009908c f i libucrt:input.obj
 0001:00098124       ??R<lambda_a9f975f7e8316be0241b8392d74a98d8>@@QEBA@XZ 0000000140099124 f i libucrt:input.obj
 0001:000981ac       ??R<lambda_ab71cf08e5e7ad30a15505f224e9f7a9>@@QEBA@XZ 00000001400991ac f i libucrt:input.obj
 0001:0009833c       ??R<lambda_bdd123a27a08a14f93fbf44b617d0736>@@QEBA@XZ 000000014009933c f i libucrt:input.obj
 0001:000983c4       ??R<lambda_ee7c83d9f0cd4f1299194e0a8d424b67>@@QEBA@XZ 00000001400993c4 f i libucrt:input.obj
 0001:0009854c       ?advance@?$format_string_parser@D@__crt_stdio_input@@QEAA_NXZ 000000014009954c f i libucrt:input.obj
 0001:00098784       ?advance@?$format_string_parser@_W@__crt_stdio_input@@QEAA_NXZ 0000000140099784 f i libucrt:input.obj
 0001:0009897c       ?characters_read@?$stream_input_adapter@D@__crt_stdio_input@@QEBA_KXZ 000000014009997c f i libucrt:input.obj
 0001:00098984       ?characters_read@?$stream_input_adapter@_W@__crt_stdio_input@@QEBA_KXZ 0000000140099984 f i libucrt:input.obj
 0001:0009898c       ?characters_read@?$string_input_adapter@D@__crt_stdio_input@@QEBA_KXZ 000000014009998c f i libucrt:input.obj
 0001:00098998       ?characters_read@?$string_input_adapter@_W@__crt_stdio_input@@QEBA_KXZ 0000000140099998 f i libucrt:input.obj
 0001:000989a8       ?data@?$scanset_storage@$00@__crt_stdio_input@@QEBAPEAEXZ 00000001400999a8 f i libucrt:input.obj
 0001:000989ac       ?data@?$scanset_storage@$01@__crt_stdio_input@@QEBAPEAEXZ 00000001400999ac f i libucrt:input.obj
 0001:00098a04       ?error_code@?$format_string_parser@D@__crt_stdio_input@@QEBAHXZ 0000000140099a04 f i libucrt:input.obj
 0001:00098a08       ?error_code@?$format_string_parser@_W@__crt_stdio_input@@QEBAHXZ 0000000140099a08 f i libucrt:input.obj
 0001:00098a0c       ?get@?$__crt_unique_heap_ptr@EU__crt_internal_free_policy@@@@QEBAPEAEXZ 0000000140099a0c f i libucrt:input.obj
 0001:00098a10       ?get@?$input_adapter_character_source@V?$stream_input_adapter@D@__crt_stdio_input@@@__crt_strtox@@QEAADXZ 0000000140099a10 f i libucrt:input.obj
 0001:00098a5c       ?get@?$input_adapter_character_source@V?$stream_input_adapter@_W@__crt_stdio_input@@@__crt_strtox@@QEAA_WXZ 0000000140099a5c f i libucrt:input.obj
 0001:00098abc       ?get@?$input_adapter_character_source@V?$string_input_adapter@D@__crt_stdio_input@@@__crt_strtox@@QEAADXZ 0000000140099abc f i libucrt:input.obj
 0001:00098afc       ?get@?$input_adapter_character_source@V?$string_input_adapter@_W@__crt_stdio_input@@@__crt_strtox@@QEAA_WXZ 0000000140099afc f i libucrt:input.obj
 0001:00098b58       ?get@?$stream_input_adapter@D@__crt_stdio_input@@QEAAHXZ 0000000140099b58 f i libucrt:input.obj
 0001:00098b80       ?get@?$stream_input_adapter@_W@__crt_stdio_input@@QEAAGXZ 0000000140099b80 f i libucrt:input.obj
 0001:00098bb0       ?get@?$string_input_adapter@D@__crt_stdio_input@@QEAAHXZ 0000000140099bb0 f i libucrt:input.obj
 0001:00098bd4       ?get@?$string_input_adapter@_W@__crt_stdio_input@@QEAAGXZ 0000000140099bd4 f i libucrt:input.obj
 0001:00098bfc       ?invert@?$scanset_buffer@E@__crt_stdio_input@@QEAAXXZ 0000000140099bfc f i libucrt:input.obj
 0001:00098c14       ?invert@?$scanset_buffer@_W@__crt_stdio_input@@QEAAXXZ 0000000140099c14 f i libucrt:input.obj
 0001:00098c84       ?is_character_allowed_in_string@?$input_processor@DV?$stream_input_adapter@D@__crt_stdio_input@@@__crt_stdio_input@@AEBA_NW4conversion_mode@2@H@Z 0000000140099c84 f i libucrt:input.obj
 0001:00098cdc       ?is_character_allowed_in_string@?$input_processor@DV?$string_input_adapter@D@__crt_stdio_input@@@__crt_stdio_input@@AEBA_NW4conversion_mode@2@H@Z 0000000140099cdc f i libucrt:input.obj
 0001:00098d34       ?is_character_allowed_in_string@?$input_processor@_WV?$stream_input_adapter@_W@__crt_stdio_input@@@__crt_stdio_input@@AEBA_NW4conversion_mode@2@G@Z 0000000140099d34 f i libucrt:input.obj
 0001:00098d90       ?is_character_allowed_in_string@?$input_processor@_WV?$string_input_adapter@_W@__crt_stdio_input@@@__crt_stdio_input@@AEBA_NW4conversion_mode@2@G@Z 0000000140099d90 f i libucrt:input.obj
 0001:00098dec       ?is_length_valid@__crt_stdio_input@@YA_NW4conversion_mode@1@W4length_modifier@1@@Z 0000000140099dec f i libucrt:input.obj
 0001:00098e10       ?is_usable@?$scanset_buffer@E@__crt_stdio_input@@QEAA_NXZ 0000000140099e10 f i libucrt:input.obj
 0001:00098e18       ?is_usable@?$scanset_buffer@_W@__crt_stdio_input@@QEAA_NXZ 0000000140099e18 f i libucrt:input.obj
 0001:00098e74       ?is_valid@?$__crt_unique_heap_ptr@EU__crt_internal_free_policy@@@@QEBA_NXZ 0000000140099e74 f i libucrt:input.obj
 0001:00098e80       ?kind@?$format_string_parser@D@__crt_stdio_input@@QEBA?AW4format_directive_kind@2@XZ 0000000140099e80 f i libucrt:input.obj
 0001:00098e84       ?kind@?$format_string_parser@_W@__crt_stdio_input@@QEBA?AW4format_directive_kind@2@XZ 0000000140099e84 f i libucrt:input.obj
 0001:00098e88       ?length@?$format_string_parser@D@__crt_stdio_input@@QEBA_KXZ 0000000140099e88 f i libucrt:input.obj
 0001:00098f70       ?length@?$format_string_parser@_W@__crt_stdio_input@@QEBA_KXZ 0000000140099f70 f i libucrt:input.obj
 0001:00099058       ?literal_character_lead@?$format_string_parser@D@__crt_stdio_input@@QEBAEXZ 000000014009a058 f i libucrt:input.obj
 0001:0009905c       ?literal_character_lead@?$format_string_parser@_W@__crt_stdio_input@@QEBA_WXZ 000000014009a05c f i libucrt:input.obj
 0001:00099064       ?literal_character_trail@?$format_string_parser@D@__crt_stdio_input@@QEBAEXZ 000000014009a064 f i libucrt:input.obj
 0001:00099068       ?mode@?$format_string_parser@D@__crt_stdio_input@@QEBA?AW4conversion_mode@2@XZ 000000014009a068 f i libucrt:input.obj
 0001:0009906c       ?mode@?$format_string_parser@_W@__crt_stdio_input@@QEBA?AW4conversion_mode@2@XZ 000000014009a06c f i libucrt:input.obj
 0001:00099070       ?process@?$input_processor@DV?$stream_input_adapter@D@__crt_stdio_input@@@__crt_stdio_input@@QEAAHXZ 000000014009a070 f i libucrt:input.obj
 0001:00099168       ?process@?$input_processor@DV?$string_input_adapter@D@__crt_stdio_input@@@__crt_stdio_input@@QEAAHXZ 000000014009a168 f i libucrt:input.obj
 0001:00099298       ?process@?$input_processor@_WV?$stream_input_adapter@_W@__crt_stdio_input@@@__crt_stdio_input@@QEAAHXZ 000000014009a298 f i libucrt:input.obj
 0001:00099380       ?process@?$input_processor@_WV?$string_input_adapter@_W@__crt_stdio_input@@@__crt_stdio_input@@QEAAHXZ 000000014009a380 f i libucrt:input.obj
 0001:000994a4       ?process_character_count_specifier@?$input_processor@DV?$stream_input_adapter@D@__crt_stdio_input@@@__crt_stdio_input@@AEAA_NXZ 000000014009a4a4 f i libucrt:input.obj
 0001:000994bc       ?process_character_count_specifier@?$input_processor@DV?$string_input_adapter@D@__crt_stdio_input@@@__crt_stdio_input@@AEAA_NXZ 000000014009a4bc f i libucrt:input.obj
 0001:000994d8       ?process_character_count_specifier@?$input_processor@_WV?$stream_input_adapter@_W@__crt_stdio_input@@@__crt_stdio_input@@AEAA_NXZ 000000014009a4d8 f i libucrt:input.obj
 0001:000994f0       ?process_character_count_specifier@?$input_processor@_WV?$string_input_adapter@_W@__crt_stdio_input@@@__crt_stdio_input@@AEAA_NXZ 000000014009a4f0 f i libucrt:input.obj
 0001:00099510       ?process_conversion_specifier@?$input_processor@DV?$stream_input_adapter@D@__crt_stdio_input@@@__crt_stdio_input@@AEAA_NXZ 000000014009a510 f i libucrt:input.obj
 0001:00099670       ?process_conversion_specifier@?$input_processor@DV?$string_input_adapter@D@__crt_stdio_input@@@__crt_stdio_input@@AEAA_NXZ 000000014009a670 f i libucrt:input.obj
 0001:000997d8       ?process_conversion_specifier@?$input_processor@_WV?$stream_input_adapter@_W@__crt_stdio_input@@@__crt_stdio_input@@AEAA_NXZ 000000014009a7d8 f i libucrt:input.obj
 0001:00099938       ?process_conversion_specifier@?$input_processor@_WV?$string_input_adapter@_W@__crt_stdio_input@@@__crt_stdio_input@@AEAA_NXZ 000000014009a938 f i libucrt:input.obj
 0001:00099aa4       ?process_floating_point_specifier@?$input_processor@DV?$stream_input_adapter@D@__crt_stdio_input@@@__crt_stdio_input@@AEAA_NXZ 000000014009aaa4 f i libucrt:input.obj
 0001:00099b24       ?process_floating_point_specifier@?$input_processor@DV?$string_input_adapter@D@__crt_stdio_input@@@__crt_stdio_input@@AEAA_NXZ 000000014009ab24 f i libucrt:input.obj
 0001:00099bb0       ?process_floating_point_specifier@?$input_processor@_WV?$stream_input_adapter@_W@__crt_stdio_input@@@__crt_stdio_input@@AEAA_NXZ 000000014009abb0 f i libucrt:input.obj
 0001:00099c34       ?process_floating_point_specifier@?$input_processor@_WV?$string_input_adapter@_W@__crt_stdio_input@@@__crt_stdio_input@@AEAA_NXZ 000000014009ac34 f i libucrt:input.obj
 0001:00099cc8       ?process_integer_specifier@?$input_processor@DV?$stream_input_adapter@D@__crt_stdio_input@@@__crt_stdio_input@@AEAA_NI_N@Z 000000014009acc8 f i libucrt:input.obj
 0001:00099da0       ?process_integer_specifier@?$input_processor@DV?$string_input_adapter@D@__crt_stdio_input@@@__crt_stdio_input@@AEAA_NI_N@Z 000000014009ada0 f i libucrt:input.obj
 0001:00099e84       ?process_integer_specifier@?$input_processor@_WV?$stream_input_adapter@_W@__crt_stdio_input@@@__crt_stdio_input@@AEAA_NI_N@Z 000000014009ae84 f i libucrt:input.obj
 0001:00099f64       ?process_integer_specifier@?$input_processor@_WV?$string_input_adapter@_W@__crt_stdio_input@@@__crt_stdio_input@@AEAA_NI_N@Z 000000014009af64 f i libucrt:input.obj
 0001:0009a050       ?process_literal_character@?$input_processor@DV?$stream_input_adapter@D@__crt_stdio_input@@@__crt_stdio_input@@AEAA_NXZ 000000014009b050 f i libucrt:input.obj
 0001:0009a0ac       ?process_literal_character@?$input_processor@DV?$string_input_adapter@D@__crt_stdio_input@@@__crt_stdio_input@@AEAA_NXZ 000000014009b0ac f i libucrt:input.obj
 0001:0009a0e4       ?process_literal_character@?$input_processor@_WV?$stream_input_adapter@_W@__crt_stdio_input@@@__crt_stdio_input@@AEAA_NXZ 000000014009b0e4 f i libucrt:input.obj
 0001:0009a138       ?process_literal_character@?$input_processor@_WV?$string_input_adapter@_W@__crt_stdio_input@@@__crt_stdio_input@@AEAA_NXZ 000000014009b138 f i libucrt:input.obj
 0001:0009a184       ?process_literal_character_tchar@?$input_processor@DV?$stream_input_adapter@D@__crt_stdio_input@@@__crt_stdio_input@@AEAA_ND@Z 000000014009b184 f i libucrt:input.obj
 0001:0009a22c       ?process_literal_character_tchar@?$input_processor@DV?$string_input_adapter@D@__crt_stdio_input@@@__crt_stdio_input@@AEAA_ND@Z 000000014009b22c f i libucrt:input.obj
 0001:0009a2d4       ?process_literal_character_tchar@?$input_processor@_WV?$stream_input_adapter@_W@__crt_stdio_input@@@__crt_stdio_input@@AEAA_N_W@Z 000000014009b2d4 f i libucrt:input.obj
 0001:0009a2d8       ?process_literal_character_tchar@?$input_processor@_WV?$string_input_adapter@_W@__crt_stdio_input@@@__crt_stdio_input@@AEAA_N_W@Z 000000014009b2d8 f i libucrt:input.obj
 0001:0009a2dc       ?process_state@?$input_processor@DV?$stream_input_adapter@D@__crt_stdio_input@@@__crt_stdio_input@@AEAA_NXZ 000000014009b2dc f i libucrt:input.obj
 0001:0009a3b4       ?process_state@?$input_processor@DV?$string_input_adapter@D@__crt_stdio_input@@@__crt_stdio_input@@AEAA_NXZ 000000014009b3b4 f i libucrt:input.obj
 0001:0009a498       ?process_state@?$input_processor@_WV?$stream_input_adapter@_W@__crt_stdio_input@@@__crt_stdio_input@@AEAA_NXZ 000000014009b498 f i libucrt:input.obj
 0001:0009a580       ?process_state@?$input_processor@_WV?$string_input_adapter@_W@__crt_stdio_input@@@__crt_stdio_input@@AEAA_NXZ 000000014009b580 f i libucrt:input.obj
 0001:0009a670       ?process_string_specifier@?$input_processor@DV?$stream_input_adapter@D@__crt_stdio_input@@@__crt_stdio_input@@AEAA_NW4conversion_mode@2@@Z 000000014009b670 f i libucrt:input.obj
 0001:0009a710       ?process_string_specifier@?$input_processor@DV?$string_input_adapter@D@__crt_stdio_input@@@__crt_stdio_input@@AEAA_NW4conversion_mode@2@@Z 000000014009b710 f i libucrt:input.obj
 0001:0009a7bc       ?process_string_specifier@?$input_processor@_WV?$stream_input_adapter@_W@__crt_stdio_input@@@__crt_stdio_input@@AEAA_NW4conversion_mode@2@@Z 000000014009b7bc f i libucrt:input.obj
 0001:0009a864       ?process_string_specifier@?$input_processor@_WV?$string_input_adapter@_W@__crt_stdio_input@@@__crt_stdio_input@@AEAA_NW4conversion_mode@2@@Z 000000014009b864 f i libucrt:input.obj
 0001:0009a918       ?process_whitespace@?$input_processor@DV?$stream_input_adapter@D@__crt_stdio_input@@@__crt_stdio_input@@AEAA_NXZ 000000014009b918 f i libucrt:input.obj
 0001:0009a958       ?process_whitespace@?$input_processor@DV?$string_input_adapter@D@__crt_stdio_input@@@__crt_stdio_input@@AEAA_NXZ 000000014009b958 f i libucrt:input.obj
 0001:0009a9a4       ?process_whitespace@?$input_processor@_WV?$stream_input_adapter@_W@__crt_stdio_input@@@__crt_stdio_input@@AEAA_NXZ 000000014009b9a4 f i libucrt:input.obj
 0001:0009a9e8       ?process_whitespace@?$input_processor@_WV?$string_input_adapter@_W@__crt_stdio_input@@@__crt_stdio_input@@AEAA_NXZ 000000014009b9e8 f i libucrt:input.obj
 0001:0009aa3c       ?release@?$__crt_unique_heap_ptr@EU__crt_internal_free_policy@@@@QEAAXXZ 000000014009ba3c f i libucrt:input.obj
 0001:0009aa60       ?reset@?$scanset_buffer@E@__crt_stdio_input@@QEAAXXZ 000000014009ba60 f i libucrt:input.obj
 0001:0009aa74       ?reset@?$scanset_buffer@_W@__crt_stdio_input@@QEAAXXZ 000000014009ba74 f i libucrt:input.obj
 0001:0009aae0       ?reset_token_state@?$format_string_parser@D@__crt_stdio_input@@AEAAXXZ 000000014009bae0 f i libucrt:input.obj
 0001:0009ab00       ?reset_token_state@?$format_string_parser@_W@__crt_stdio_input@@AEAAXXZ 000000014009bb00 f i libucrt:input.obj
 0001:0009ab1c       ?reset_token_state_for_error@?$format_string_parser@D@__crt_stdio_input@@AEAAXH@Z 000000014009bb1c f i libucrt:input.obj
 0001:0009ab40       ?reset_token_state_for_error@?$format_string_parser@_W@__crt_stdio_input@@AEAAXH@Z 000000014009bb40 f i libucrt:input.obj
 0001:0009ab60       ?restore_state@?$input_adapter_character_source@V?$stream_input_adapter@D@__crt_stdio_input@@@__crt_strtox@@QEAA_N_K@Z 000000014009bb60 f i libucrt:input.obj
 0001:0009ab78       ?restore_state@?$input_adapter_character_source@V?$stream_input_adapter@_W@__crt_stdio_input@@@__crt_strtox@@QEAA_N_K@Z 000000014009bb78 f i libucrt:input.obj
 0001:0009ab90       ?restore_state@?$input_adapter_character_source@V?$string_input_adapter@D@__crt_stdio_input@@@__crt_strtox@@QEAA_N_K@Z 000000014009bb90 f i libucrt:input.obj
 0001:0009aba8       ?restore_state@?$input_adapter_character_source@V?$string_input_adapter@_W@__crt_stdio_input@@@__crt_strtox@@QEAA_N_K@Z 000000014009bba8 f i libucrt:input.obj
 0001:0009abc0       ?save_state@?$input_adapter_character_source@V?$stream_input_adapter@D@__crt_stdio_input@@@__crt_strtox@@QEBA_KXZ 000000014009bbc0 f i libucrt:input.obj
 0001:0009abc8       ?save_state@?$input_adapter_character_source@V?$stream_input_adapter@_W@__crt_stdio_input@@@__crt_strtox@@QEBA_KXZ 000000014009bbc8 f i libucrt:input.obj
 0001:0009abd0       ?save_state@?$input_adapter_character_source@V?$string_input_adapter@D@__crt_stdio_input@@@__crt_strtox@@QEBA_KXZ 000000014009bbd0 f i libucrt:input.obj
 0001:0009abd8       ?save_state@?$input_adapter_character_source@V?$string_input_adapter@_W@__crt_stdio_input@@@__crt_strtox@@QEBA_KXZ 000000014009bbd8 f i libucrt:input.obj
 0001:0009abe0       ?scan_conversion_specifier@?$format_string_parser@D@__crt_stdio_input@@AEAA_NXZ 000000014009bbe0 f i libucrt:input.obj
 0001:0009ae18       ?scan_conversion_specifier@?$format_string_parser@_W@__crt_stdio_input@@AEAA_NXZ 000000014009be18 f i libucrt:input.obj
 0001:0009b050       ?scan_optional_assignment_suppressor@?$format_string_parser@D@__crt_stdio_input@@AEAAXXZ 000000014009c050 f i libucrt:input.obj
 0001:0009b06c       ?scan_optional_assignment_suppressor@?$format_string_parser@_W@__crt_stdio_input@@AEAAXXZ 000000014009c06c f i libucrt:input.obj
 0001:0009b088       ?scan_optional_field_width@?$format_string_parser@D@__crt_stdio_input@@AEAA_NXZ 000000014009c088 f i libucrt:input.obj
 0001:0009b150       ?scan_optional_field_width@?$format_string_parser@_W@__crt_stdio_input@@AEAA_NXZ 000000014009c150 f i libucrt:input.obj
 0001:0009b434       ?scan_optional_length_modifier@?$format_string_parser@D@__crt_stdio_input@@AEAAXXZ 000000014009c434 f i libucrt:input.obj
 0001:0009b5a8       ?scan_optional_length_modifier@?$format_string_parser@_W@__crt_stdio_input@@AEAAXXZ 000000014009c5a8 f i libucrt:input.obj
 0001:0009b73c       ?scan_optional_literal_character_trail_bytes_tchar@?$format_string_parser@D@__crt_stdio_input@@AEAA_ND@Z 000000014009c73c f i libucrt:input.obj
 0001:0009b7b0       ?scan_optional_literal_character_trail_bytes_tchar@?$format_string_parser@_W@__crt_stdio_input@@AEAA_N_W@Z 000000014009c7b0 f i libucrt:input.obj
 0001:0009b7b4       ?scan_optional_wide_modifier@?$format_string_parser@D@__crt_stdio_input@@AEAAXXZ 000000014009c7b4 f i libucrt:input.obj
 0001:0009b7dc       ?scan_optional_wide_modifier@?$format_string_parser@_W@__crt_stdio_input@@AEAAXXZ 000000014009c7dc f i libucrt:input.obj
 0001:0009b824       ?scan_scanset_range@?$format_string_parser@D@__crt_stdio_input@@AEAA_NXZ 000000014009c824 f i libucrt:input.obj
 0001:0009ba20       ?scan_scanset_range@?$format_string_parser@_W@__crt_stdio_input@@AEAA_NXZ 000000014009ca20 f i libucrt:input.obj
 0001:0009bcbc       ?scanset@?$format_string_parser@D@__crt_stdio_input@@QEBAAEBV?$scanset_buffer@E@2@XZ 000000014009ccbc f i libucrt:input.obj
 0001:0009bcc4       ?scanset@?$format_string_parser@_W@__crt_stdio_input@@QEBAAEBV?$scanset_buffer@_W@2@XZ 000000014009ccc4 f i libucrt:input.obj
 0001:0009bccc       ?secure_buffers@?$input_processor@DV?$stream_input_adapter@D@__crt_stdio_input@@@__crt_stdio_input@@AEBA_NXZ 000000014009cccc f i libucrt:input.obj
 0001:0009bcd4       ?secure_buffers@?$input_processor@DV?$string_input_adapter@D@__crt_stdio_input@@@__crt_stdio_input@@AEBA_NXZ 000000014009ccd4 f i libucrt:input.obj
 0001:0009bcdc       ?secure_buffers@?$input_processor@_WV?$stream_input_adapter@_W@__crt_stdio_input@@@__crt_stdio_input@@AEBA_NXZ 000000014009ccdc f i libucrt:input.obj
 0001:0009bce4       ?secure_buffers@?$input_processor@_WV?$string_input_adapter@_W@__crt_stdio_input@@@__crt_stdio_input@@AEBA_NXZ 000000014009cce4 f i libucrt:input.obj
 0001:0009bcec       ?set@?$scanset_buffer@E@__crt_stdio_input@@QEAAXE@Z 000000014009ccec f i libucrt:input.obj
 0001:0009bd10       ?set@?$scanset_buffer@_W@__crt_stdio_input@@QEAAX_W@Z 000000014009cd10 f i libucrt:input.obj
 0001:0009bd94       ?set_wide_for_c_s_or_scanset@?$format_string_parser@D@__crt_stdio_input@@AEAAXXZ 000000014009cd94 f i libucrt:input.obj
 0001:0009bdc0       ?set_wide_for_c_s_or_scanset@?$format_string_parser@_W@__crt_stdio_input@@AEAAXXZ 000000014009cdc0 f i libucrt:input.obj
 0001:0009bdec       ?should_default_to_wide@?$format_string_parser@D@__crt_stdio_input@@AEAA_NE@Z 000000014009cdec f i libucrt:input.obj
 0001:0009bdf8       ?should_default_to_wide@?$format_string_parser@_W@__crt_stdio_input@@AEAA_N_W@Z 000000014009cdf8 f i libucrt:input.obj
 0001:0009be24       ?size@?$scanset_storage@$00@__crt_stdio_input@@QEBA_KXZ 000000014009ce24 f i libucrt:input.obj
 0001:0009be2c       ?size@?$scanset_storage@$01@__crt_stdio_input@@QEBA_KXZ 000000014009ce2c f i libucrt:input.obj
 0001:0009be34       ?suppress_assignment@?$format_string_parser@D@__crt_stdio_input@@QEBA_NXZ 000000014009ce34 f i libucrt:input.obj
 0001:0009be38       ?suppress_assignment@?$format_string_parser@_W@__crt_stdio_input@@QEBA_NXZ 000000014009ce38 f i libucrt:input.obj
 0001:0009be3c       ?test@?$scanset_buffer@E@__crt_stdio_input@@QEBA_NE@Z 000000014009ce3c f i libucrt:input.obj
 0001:0009be68       ?test@?$scanset_buffer@_W@__crt_stdio_input@@QEBA_N_W@Z 000000014009ce68 f i libucrt:input.obj
 0001:0009bef8       ?to_floating_point_length@__crt_stdio_input@@YA_KW4length_modifier@1@@Z 000000014009cef8 f i libucrt:input.obj
 0001:0009bf1c       ?to_integer_length@__crt_stdio_input@@YA_KW4length_modifier@1@@Z 000000014009cf1c f i libucrt:input.obj
 0001:0009bf78       ?unget@?$input_adapter_character_source@V?$stream_input_adapter@D@__crt_stdio_input@@@__crt_strtox@@QEAAXD@Z 000000014009cf78 f i libucrt:input.obj
 0001:0009bfd0       ?unget@?$input_adapter_character_source@V?$stream_input_adapter@_W@__crt_stdio_input@@@__crt_strtox@@QEAAX_W@Z 000000014009cfd0 f i libucrt:input.obj
 0001:0009c028       ?unget@?$input_adapter_character_source@V?$string_input_adapter@D@__crt_stdio_input@@@__crt_strtox@@QEAAXD@Z 000000014009d028 f i libucrt:input.obj
 0001:0009c068       ?unget@?$input_adapter_character_source@V?$string_input_adapter@_W@__crt_stdio_input@@@__crt_strtox@@QEAAX_W@Z 000000014009d068 f i libucrt:input.obj
 0001:0009c0b0       ?unget@?$stream_input_adapter@D@__crt_stdio_input@@QEAAXH@Z 000000014009d0b0 f i libucrt:input.obj
 0001:0009c0d8       ?unget@?$stream_input_adapter@_W@__crt_stdio_input@@QEAAXG@Z 000000014009d0d8 f i libucrt:input.obj
 0001:0009c108       ?unget@?$string_input_adapter@D@__crt_stdio_input@@QEAAXH@Z 000000014009d108 f i libucrt:input.obj
 0001:0009c12c       ?unget@?$string_input_adapter@_W@__crt_stdio_input@@QEAAXG@Z 000000014009d12c f i libucrt:input.obj
 0001:0009c15c       ?validate@?$format_string_parser@D@__crt_stdio_input@@QEBA_NXZ 000000014009d15c f i libucrt:input.obj
 0001:0009c18c       ?validate@?$format_string_parser@_W@__crt_stdio_input@@QEBA_NXZ 000000014009d18c f i libucrt:input.obj
 0001:0009c1bc       ?validate@?$input_adapter_character_source@V?$stream_input_adapter@D@__crt_stdio_input@@@__crt_strtox@@QEBA_NXZ 000000014009d1bc f i libucrt:input.obj
 0001:0009c1f4       ?validate@?$input_adapter_character_source@V?$stream_input_adapter@_W@__crt_stdio_input@@@__crt_strtox@@QEBA_NXZ 000000014009d1f4 f i libucrt:input.obj
 0001:0009c22c       ?validate@?$input_adapter_character_source@V?$string_input_adapter@D@__crt_stdio_input@@@__crt_strtox@@QEBA_NXZ 000000014009d22c f i libucrt:input.obj
 0001:0009c264       ?validate@?$input_adapter_character_source@V?$string_input_adapter@_W@__crt_stdio_input@@@__crt_strtox@@QEBA_NXZ 000000014009d264 f i libucrt:input.obj
 0001:0009c29c       ?validate@?$stream_input_adapter@D@__crt_stdio_input@@QEBA_NXZ 000000014009d29c f i libucrt:input.obj
 0001:0009c2d4       ?validate@?$stream_input_adapter@_W@__crt_stdio_input@@QEBA_NXZ 000000014009d2d4 f i libucrt:input.obj
 0001:0009c304       ?validate@?$string_input_adapter@D@__crt_stdio_input@@QEAA_NXZ 000000014009d304 f i libucrt:input.obj
 0001:0009c340       ?validate@?$string_input_adapter@_W@__crt_stdio_input@@QEAA_NXZ 000000014009d340 f i libucrt:input.obj
 0001:0009c37c       ?width@?$format_string_parser@D@__crt_stdio_input@@QEBA_KXZ 000000014009d37c f i libucrt:input.obj
 0001:0009c384       ?width@?$format_string_parser@_W@__crt_stdio_input@@QEBA_KXZ 000000014009d384 f i libucrt:input.obj
 0001:0009c38c       ?write_character@?$input_processor@DV?$stream_input_adapter@D@__crt_stdio_input@@@__crt_stdio_input@@AEAA_NQEAD_KAEAPEADAEA_KD@Z 000000014009d38c f i libucrt:input.obj
 0001:0009c3a8       ?write_character@?$input_processor@DV?$stream_input_adapter@D@__crt_stdio_input@@@__crt_stdio_input@@AEAA_NQEFA_W_KAEAPEFA_WAEA_KD@Z 000000014009d3a8 f i libucrt:input.obj
 0001:0009c460       ?write_character@?$input_processor@DV?$string_input_adapter@D@__crt_stdio_input@@@__crt_stdio_input@@AEAA_NQEAD_KAEAPEADAEA_KD@Z 000000014009d460 f i libucrt:input.obj
 0001:0009c47c       ?write_character@?$input_processor@DV?$string_input_adapter@D@__crt_stdio_input@@@__crt_stdio_input@@AEAA_NQEFA_W_KAEAPEFA_WAEA_KD@Z 000000014009d47c f i libucrt:input.obj
 0001:0009c538       ?write_character@?$input_processor@_WV?$stream_input_adapter@_W@__crt_stdio_input@@@__crt_stdio_input@@AEAA_NQEAD_KAEAPEADAEA_K_W@Z 000000014009d538 f i libucrt:input.obj
 0001:0009c60c       ?write_character@?$input_processor@_WV?$stream_input_adapter@_W@__crt_stdio_input@@@__crt_stdio_input@@AEAA_NQEFA_W_KAEAPEFA_WAEA_K_W@Z 000000014009d60c f i libucrt:input.obj
 0001:0009c62c       ?write_character@?$input_processor@_WV?$string_input_adapter@_W@__crt_stdio_input@@@__crt_stdio_input@@AEAA_NQEAD_KAEAPEADAEA_K_W@Z 000000014009d62c f i libucrt:input.obj
 0001:0009c700       ?write_character@?$input_processor@_WV?$string_input_adapter@_W@__crt_stdio_input@@@__crt_stdio_input@@AEAA_NQEFA_W_KAEAPEFA_WAEA_K_W@Z 000000014009d700 f i libucrt:input.obj
 0001:0009c720       ?write_integer@?$input_processor@DV?$stream_input_adapter@D@__crt_stdio_input@@@__crt_stdio_input@@AEAA_N_K@Z 000000014009d720 f i libucrt:input.obj
 0001:0009c7b4       ?write_integer@?$input_processor@DV?$string_input_adapter@D@__crt_stdio_input@@@__crt_stdio_input@@AEAA_N_K@Z 000000014009d7b4 f i libucrt:input.obj
 0001:0009c84c       ?write_integer@?$input_processor@_WV?$stream_input_adapter@_W@__crt_stdio_input@@@__crt_stdio_input@@AEAA_N_K@Z 000000014009d84c f i libucrt:input.obj
 0001:0009c8e0       ?write_integer@?$input_processor@_WV?$string_input_adapter@_W@__crt_stdio_input@@@__crt_stdio_input@@AEAA_N_K@Z 000000014009d8e0 f i libucrt:input.obj
 0001:0009c974       __stdio_common_vfscanf     000000014009d974 f   libucrt:input.obj
 0001:0009ca24       __stdio_common_vfwscanf    000000014009da24 f   libucrt:input.obj
 0001:0009cad4       __stdio_common_vsscanf     000000014009dad4 f   libucrt:input.obj
 0001:0009cc44       __stdio_common_vswscanf    000000014009dc44 f   libucrt:input.obj
 0001:0009cda0       _invoke_watson_if_oneof    000000014009dda0 f i libucrt:input.obj
 0001:0009ce94       malloc                     000000014009de94 f   libucrt:malloc.obj
 0001:0009ce9c       labs                       000000014009de9c f   libucrt:labs.obj
 0001:0009cea8       ??$?R_W@__crt_internal_free_policy@@QEBAXQEB_W@Z 000000014009dea8 f i libucrt:system.obj
 0001:0009d204       ??$taccess_s@PEADH@?$__crt_char_traits@D@@SAH$$QEAPEAD$$QEAH@Z 000000014009e204 f i libucrt:system.obj
 0001:0009d210       ??$taccess_s@PEA_WH@?$__crt_char_traits@_W@@SAH$$QEAPEA_W$$QEAH@Z 000000014009e210 f i libucrt:system.obj
 0001:0009d21c       ??$tdupenv_s_crt@PEAPEAD$$TAEAY07$$CBD@?$__crt_char_traits@D@@SAH$$QEAPEAPEAD$$QEA$$TAEAY07$$CBD@Z 000000014009e21c f i libucrt:system.obj
 0001:0009d22c       ??$tdupenv_s_crt@PEAPEA_W$$TAEAY07$$CB_W@?$__crt_char_traits@_W@@SAH$$QEAPEAPEA_W$$QEA$$TAEAY07$$CB_W@Z 000000014009e22c f i libucrt:system.obj
 0001:0009d23c       ??$tspawnve@HAEAPEBDAEAY03PEBD$$T@?$__crt_char_traits@D@@SA_J$$QEAHAEAPEBDAEAY03PEBD$$QEA$$T@Z 000000014009e23c f i libucrt:system.obj
 0001:0009d24c       ??$tspawnve@HAEAPEB_WAEAY03PEB_W$$T@?$__crt_char_traits@_W@@SA_J$$QEAHAEAPEB_WAEAY03PEB_W$$QEA$$T@Z 000000014009e24c f i libucrt:system.obj
 0001:0009d25c       ??$tspawnvpe@HAEAPEBDAEAY03PEBD$$T@?$__crt_char_traits@D@@SA_J$$QEAHAEAPEBDAEAY03PEBD$$QEA$$T@Z 000000014009e25c f i libucrt:system.obj
 0001:0009d26c       ??$tspawnvpe@HAEAPEB_WAEAY03PEB_W$$T@?$__crt_char_traits@_W@@SA_J$$QEAHAEAPEB_WAEAY03PEB_W$$QEA$$T@Z 000000014009e26c f i libucrt:system.obj
 0001:0009d27c       ??0?$__crt_unique_heap_ptr@_WU__crt_internal_free_policy@@@@QEAA@QEA_W@Z 000000014009e27c f i libucrt:system.obj
 0001:0009d284       ??1?$__crt_unique_heap_ptr@_WU__crt_internal_free_policy@@@@QEAA@XZ 000000014009e284 f i libucrt:system.obj
 0001:0009d2a8       ??B?$__crt_unique_heap_ptr@_WU__crt_internal_free_policy@@@@QEBA_NXZ 000000014009e2a8 f i libucrt:system.obj
 0001:0009d2b4       ?get@?$__crt_unique_heap_ptr@_WU__crt_internal_free_policy@@@@QEBAPEA_WXZ 000000014009e2b4 f i libucrt:system.obj
 0001:0009d2b8       ?get_address_of@?$__crt_unique_heap_ptr@DU__crt_internal_free_policy@@@@QEAAPEAPEADXZ 000000014009e2b8 f i libucrt:system.obj
 0001:0009d2bc       ?get_address_of@?$__crt_unique_heap_ptr@_WU__crt_internal_free_policy@@@@QEAAPEAPEA_WXZ 000000014009e2bc f i libucrt:system.obj
 0001:0009d2c0       ?is_valid@?$__crt_unique_heap_ptr@_WU__crt_internal_free_policy@@@@QEBA_NXZ 000000014009e2c0 f i libucrt:system.obj
 0001:0009d2cc       ?release@?$__crt_unique_heap_ptr@_WU__crt_internal_free_policy@@@@QEAAXXZ 000000014009e2cc f i libucrt:system.obj
 0001:0009d2f0       _wsystem                   000000014009e2f0 f   libucrt:system.obj
 0001:0009d488       system                     000000014009e488 f   libucrt:system.obj
 0001:0009d620       ??$?RPEAU__crt_stdio_stream_data@@@__crt_internal_free_policy@@QEBAXQEBQEAU__crt_stdio_stream_data@@@Z 000000014009e620 f i libucrt:_file.obj
 0001:0009d62c       ??0?$__crt_unique_heap_ptr@PEAU__crt_stdio_stream_data@@U__crt_internal_free_policy@@@@QEAA@QEAPEAU__crt_stdio_stream_data@@@Z 000000014009e62c f i libucrt:_file.obj
 0001:0009d634       ??1?$__crt_unique_heap_ptr@PEAU__crt_stdio_stream_data@@U__crt_internal_free_policy@@@@QEAA@XZ 000000014009e634 f i libucrt:_file.obj
 0001:0009d658       ?detach@?$__crt_unique_heap_ptr@PEAU__crt_stdio_stream_data@@U__crt_internal_free_policy@@@@QEAAPEAPEAU__crt_stdio_stream_data@@XZ 000000014009e658 f i libucrt:_file.obj
 0001:0009d664       ?release@?$__crt_unique_heap_ptr@PEAU__crt_stdio_stream_data@@U__crt_internal_free_policy@@@@QEAAXXZ 000000014009e664 f i libucrt:_file.obj
 0001:0009d688       __acrt_initialize_stdio    000000014009e688 f   libucrt:_file.obj
 0001:0009d7f0       __acrt_iob_func            000000014009e7f0 f   libucrt:_file.obj
 0001:0009d808       __acrt_uninitialize_stdio  000000014009e808 f   libucrt:_file.obj
 0001:0009d87c       _get_stream_buffer_pointers 000000014009e87c f   libucrt:_file.obj
 0001:0009d8d4       _lock_file                 000000014009e8d4 f   libucrt:_file.obj
 0001:0009d8e4       _unlock_file               000000014009e8e4 f   libucrt:_file.obj
 0001:0009db70       ??$open_file@AEBQEBDAEBQEBDAEBHPEAU_iobuf@@@?$__crt_char_traits@D@@SAPEAU_iobuf@@AEBQEBD0AEBH$$QEAPEAU1@@Z 000000014009eb70 f i libucrt:freopen.obj
 0001:0009db88       ??$open_file@AEBQEB_WAEBQEB_WAEBHPEAU_iobuf@@@?$__crt_char_traits@_W@@SAPEAU_iobuf@@AEBQEB_W0AEBH$$QEAPEAU1@@Z 000000014009eb88 f i libucrt:freopen.obj
 0001:0009dba0       ?is_in_use@__crt_stdio_stream@@QEBA_NXZ 000000014009eba0 f i libucrt:freopen.obj
 0001:0009dbb0       ?set_flags@__crt_stdio_stream@@QEBA_NJ@Z 000000014009ebb0 f i libucrt:freopen.obj
 0001:0009dbd8       ?unset_flags@__crt_stdio_stream@@QEBA_NJ@Z 000000014009ebd8 f i libucrt:freopen.obj
 0001:0009dc08       _wfreopen                  000000014009ec08 f   libucrt:freopen.obj
 0001:0009dc44       _wfreopen_s                000000014009ec44 f   libucrt:freopen.obj
 0001:0009dc60       freopen                    000000014009ec60 f   libucrt:freopen.obj
 0001:0009dc9c       freopen_s                  000000014009ec9c f   libucrt:freopen.obj
 0001:0009dfa0       ?detach@?$__crt_unique_heap_ptr@DU__crt_internal_free_policy@@@@QEAAPEADXZ 000000014009efa0 f i libucrt:setvbuf.obj
 0001:0009dfc8       setvbuf                    000000014009efc8 f   libucrt:setvbuf.obj
 0001:0009e400       ?unlock@__crt_stdio_stream@@QEBAXXZ 000000014009f400 f i libucrt:fopen.obj
 0001:0009e40c       _fsopen                    000000014009f40c f   libucrt:fopen.obj
 0001:0009e414       _wfopen                    000000014009f414 f   libucrt:fopen.obj
 0001:0009e424       _wfopen_s                  000000014009f424 f   libucrt:fopen.obj
 0001:0009e494       _wfsopen                   000000014009f494 f   libucrt:fopen.obj
 0001:0009e49c       fopen                      000000014009f49c f   libucrt:fopen.obj
 0001:0009e4ac       fopen_s                    000000014009f4ac f   libucrt:fopen.obj
 0001:0009e684       _fclose_nolock             000000014009f684 f   libucrt:fclose.obj
 0001:0009e744       fclose                     000000014009f744 f   libucrt:fclose.obj
 0001:0009e804       ?eof@__crt_stdio_stream@@QEBA_NXZ 000000014009f804 f i libucrt:feoferr.obj
 0001:0009e814       ?error@__crt_stdio_stream@@QEBA_NXZ 000000014009f814 f i libucrt:feoferr.obj
 0001:0009e824       ?has_any_of@__crt_stdio_stream@@QEBA_NJ@Z 000000014009f824 f i libucrt:feoferr.obj
 0001:0009e834       feof                       000000014009f834 f   libucrt:feoferr.obj
 0001:0009e86c       ferror                     000000014009f86c f   libucrt:feoferr.obj
 0001:0009e8a4       ?__acrt_stdio_reset_buffer@@YAXV__crt_stdio_stream@@@Z 000000014009f8a4 f i libucrt:fread.obj
 0001:0009e8b4       ?has_any_buffer@__crt_stdio_stream@@QEBA_NXZ 000000014009f8b4 f i libucrt:fread.obj
 0001:0009e8cc       _fread_nolock              000000014009f8cc f   libucrt:fread.obj
 0001:0009e8f0       _fread_nolock_s            000000014009f8f0 f   libucrt:fread.obj
 0001:0009ebe8       fread                      000000014009fbe8 f   libucrt:fread.obj
 0001:0009ec0c       fread_s                    000000014009fc0c f   libucrt:fread.obj
 0001:0009ed84       ?LongLongSub@@YAJ_J0PEA_J@Z 000000014009fd84 f i libucrt:fseek.obj
 0001:0009f0c8       ?has_all_of@__crt_stdio_stream@@QEBA_NJ@Z 00000001400a00c8 f i libucrt:fseek.obj
 0001:0009f0dc       ?lowio_handle@__crt_stdio_stream@@QEBAHXZ 00000001400a00dc f i libucrt:fseek.obj
 0001:0009f0e8       _fseek_nolock              00000001400a00e8 f   libucrt:fseek.obj
 0001:0009f1ac       _fseeki64                  00000001400a01ac f   libucrt:fseek.obj
 0001:0009f26c       _fseeki64_nolock           00000001400a026c f   libucrt:fseek.obj
 0001:0009f32c       fseek                      00000001400a032c f   libucrt:fseek.obj
 0001:0009fb6c       ?ctrl_z@__crt_stdio_stream@@QEBA_NXZ 00000001400a0b6c f i libucrt:ftell.obj
 0001:0009fb7c       ?has_big_buffer@__crt_stdio_stream@@QEBA_NXZ 00000001400a0b7c f i libucrt:ftell.obj
 0001:0009fb90       ?has_crt_buffer@__crt_stdio_stream@@QEBA_NXZ 00000001400a0b90 f i libucrt:ftell.obj
 0001:0009fba0       ?has_setvbuf_buffer@__crt_stdio_stream@@QEBA_NXZ 00000001400a0ba0 f i libucrt:ftell.obj
 0001:0009fbb0       _ftell_nolock              00000001400a0bb0 f   libucrt:ftell.obj
 0001:0009fc8c       _ftelli64                  00000001400a0c8c f   libucrt:ftell.obj
 0001:0009fd4c       _ftelli64_nolock           00000001400a0d4c f   libucrt:ftell.obj
 0001:0009fe0c       _ftelli64_nolock_internal  00000001400a0e0c f   libucrt:ftell.obj
 0001:0009fe14       _utf8_no_of_trailbytes     00000001400a0e14 f i libucrt:ftell.obj
 0001:0009fe28       ftell                      00000001400a0e28 f   libucrt:ftell.obj
 0001:0009fee8       calloc                     00000001400a0ee8 f   libucrt:calloc.obj
 0001:0009fef0       realloc                    00000001400a0ef0 f   libucrt:realloc.obj
 0001:0009fef8       _abs64                     00000001400a0ef8 f   libucrt:abs.obj
 0001:0009ff08       abs                        00000001400a0f08 f   libucrt:abs.obj
 0001:0009ff14       floorf                     00000001400a0f14 f   libucrt:floorf.obj
 0001:0009ffb0       ??$__acrt_convert_wcs_mbs_cp@D_WV<lambda_7c9dea7b4ca7285d2cdb541a38da6275>@@U__crt_win32_buffer_internal_dynamic_resizing@@@@YAHQEBDAEAV?$__crt_win32_buffer@_WU__crt_win32_buffer_internal_dynamic_resizing@@@@AEBV<lambda_7c9dea7b4ca7285d2cdb541a38da6275>@@I@Z 00000001400a0fb0 f i libucrt:unlink.obj
 0001:000a0188       ??$__acrt_mbs_to_wcs_cp@U__crt_win32_buffer_internal_dynamic_resizing@@@@YAHQEBDAEAV?$__crt_win32_buffer@_WU__crt_win32_buffer_internal_dynamic_resizing@@@@I@Z 00000001400a1188 f i libucrt:unlink.obj
 0001:000a0198       ??0?$__crt_win32_buffer@_WU__crt_win32_buffer_internal_dynamic_resizing@@@@QEAA@XZ 00000001400a1198 f i libucrt:unlink.obj
 0001:000a01bc       ??1?$__crt_win32_buffer@_WU__crt_win32_buffer_internal_dynamic_resizing@@@@QEAA@XZ 00000001400a11bc f i libucrt:unlink.obj
 0001:000a01e8       ??R<lambda_7c9dea7b4ca7285d2cdb541a38da6275>@@QEBA@IQEBDQEA_W_K@Z 00000001400a11e8 f i libucrt:unlink.obj
 0001:000a0218       ?__acrt_get_utf8_acp_compatibility_codepage@@YAIXZ 00000001400a1218 f i libucrt:unlink.obj
 0001:000a0274       ?_deallocate@?$__crt_win32_buffer@_WU__crt_win32_buffer_internal_dynamic_resizing@@@@AEAAXXZ 00000001400a1274 f i libucrt:unlink.obj
 0001:000a02a0       ?allocate@?$__crt_win32_buffer@_WU__crt_win32_buffer_internal_dynamic_resizing@@@@QEAAH_K@Z 00000001400a12a0 f i libucrt:unlink.obj
 0001:000a031c       ?allocate@__crt_win32_buffer_internal_dynamic_resizing@@SAHQEAPEAX_KAEBV__crt_win32_buffer_empty_debug_info@@@Z 00000001400a131c f i libucrt:unlink.obj
 0001:000a034c       ?capacity@?$__crt_win32_buffer@_WU__crt_win32_buffer_internal_dynamic_resizing@@@@QEBA_KXZ 00000001400a134c f i libucrt:unlink.obj
 0001:000a0354       ?data@?$__crt_win32_buffer@_WU__crt_win32_buffer_internal_dynamic_resizing@@@@QEAAPEA_WXZ 00000001400a1354 f i libucrt:unlink.obj
 0001:000a035c       ?deallocate@__crt_win32_buffer_internal_dynamic_resizing@@SAXQEAXAEBV__crt_win32_buffer_empty_debug_info@@@Z 00000001400a135c f i libucrt:unlink.obj
 0001:000a0364       ?debug_info@?$__crt_win32_buffer@_WU__crt_win32_buffer_internal_dynamic_resizing@@@@QEBAAEBV__crt_win32_buffer_empty_debug_info@@XZ 00000001400a1364 f i libucrt:unlink.obj
 0001:000a0368       ?set_to_nullptr@?$__crt_win32_buffer@_WU__crt_win32_buffer_internal_dynamic_resizing@@@@QEAAXXZ 00000001400a1368 f i libucrt:unlink.obj
 0001:000a03b0       ?size@?$__crt_win32_buffer@_WU__crt_win32_buffer_internal_dynamic_resizing@@@@QEAAX_K@Z 00000001400a13b0 f i libucrt:unlink.obj
 0001:000a03b8       _unlink                    00000001400a13b8 f   libucrt:unlink.obj
 0001:000a03c0       remove                     00000001400a13c0 f   libucrt:unlink.obj
 0001:000a0828       ??0__crt_stdio_stream@@QEAA@QEAU__crt_stdio_stream_data@@@Z 00000001400a1828 f i libucrt:fflush.obj
 0001:000a0b50       __acrt_stdio_flush_nolock  00000001400a1b50 f   libucrt:fflush.obj
 0001:000a0c00       _fflush_nolock             00000001400a1c00 f   libucrt:fflush.obj
 0001:000a0d08       _flushall                  00000001400a1d08 f   libucrt:fflush.obj
 0001:000a0d10       fflush                     00000001400a1d10 f   libucrt:fflush.obj
 0001:000a0f10       _fwrite_internal           00000001400a1f10 f   libucrt:fwrite.obj
