 signfile

 Timestamp is 674c1d58 (Sun Dec  1 13:54:56 2024)

 Preferred load address is 0000000140000000

 Start         Length     Name                   Class
 0001:00000000 0000ded0H .text$di                CODE
 0001:0000ded0 000cbd30H .text$mn                CODE
 0001:000d9c00 00001040H .text$mn$00             CODE
 0001:000dac40 00001f40H .text$mn$21             CODE
 0001:000dcb80 00002240H .text$x                 CODE
 0001:000dedc0 0000101bH .text$yd                CODE
 0002:00000000 00000110H .CRT$XCA                DATA
 0002:00000110 00000110H .CRT$XCAA               DATA
 0002:00000220 00000110H .CRT$XCU                DATA
 0002:00000330 00000110H .CRT$XCZ                DATA
 0002:00000440 00000110H .CRT$XIA                DATA
 0002:00000550 00000110H .CRT$XIAA               DATA
 0002:00000660 00000110H .CRT$XIAC               DATA
 0002:00000770 00000140H .CRT$XIC                DATA
 0002:000008b0 00000110H .CRT$XIZ                DATA
 0002:000009c0 00000008H .CRT$XLA                DATA
 0002:000009c8 00000008H .CRT$XLZ                DATA
 0002:000009d0 00000110H .CRT$XPA                DATA
 0002:00000ae0 00000120H .CRT$XPX                DATA
 0002:00000c00 00000110H .CRT$XPXA               DATA
 0002:00000d10 00000110H .CRT$XPZ                DATA
 0002:00000e20 00000110H .CRT$XTA                DATA
 0002:00000f30 00000110H .CRT$XTZ                DATA
 0002:00001040 00019d60H .rdata                  DATA
 0002:0001ada0 000002e0H .rdata$00               DATA
 0002:0001b080 00000200H .rdata$CastGuardVftablesA DATA
 0002:0001b280 000001a0H .rdata$CastGuardVftablesC DATA
 0002:0001b420 00000130H .rdata$T                DATA
 0002:0001b550 00000740H .rdata$r                DATA
 0002:0001bc90 00000188H .rdata$zzzdbg           DATA
 0002:0001be18 00000110H .rtc$IAA                DATA
 0002:0001bf28 00000110H .rtc$IZZ                DATA
 0002:0001c038 00000110H .rtc$TAA                DATA
 0002:0001c148 00000110H .rtc$TZZ                DATA
 0002:0001c258 0000b998H .xdata                  DATA
 0002:00027bf0 00000275H .xdata$x                DATA
 0002:00027e65 00000000H .edata                  DATA
 0003:00000000 00000fd0H .data                   DATA
 0003:00000fd0 000001d0H .data$r                 DATA
 0003:000011a0 00000230H .data$rs                DATA
 0003:000013d0 000022d1H .bss                    DATA
 0004:00000000 00009918H .pdata                  DATA
 0005:00000000 00000f68H .idata$5                DATA
 0005:00000f68 00000104H .idata$2                DATA
 0005:0000106c 00000014H .idata$3                DATA
 0005:00001080 00000f68H .idata$4                DATA
 0005:00001fe8 000018e6H .idata$6                DATA
 0006:00000000 00000108H .tls                    DATA
 0006:00000108 00000109H .tls$                   DATA
 0006:00000211 00000101H .tls$ZZZ                DATA
 0007:00000000 00000175H .00cfg                  DATA
 0008:00000000 00000170H .rsrc$01                DATA
 0008:00000170 000002ccH .rsrc$02                DATA

  Address         Publics by Value              Rva+Base               Lib:Object

 0000:00000000       __AbsoluteZero             0000000000000000     <absolute>
 0000:00000000       ___safe_se_handler_count   0000000000000000     <absolute>
 0000:00000000       ___safe_se_handler_table   0000000000000000     <absolute>
 0000:00000000       __arm64x_extra_rfe_table   0000000000000000     <absolute>
 0000:00000000       __arm64x_extra_rfe_table_size 0000000000000000     <absolute>
 0000:00000000       __arm64x_native_entrypoint 0000000000000000     <absolute>
 0000:00000000       __arm64x_redirection_metadata 0000000000000000     <absolute>
 0000:00000000       __arm64x_redirection_metadata_count 0000000000000000     <absolute>
 0000:00000000       __dynamic_value_reloc_table 0000000000000000     <absolute>
 0000:00000000       __enclave_config           0000000000000000     <absolute>
 0000:00000000       __guard_check_icall_a64n_fptr 0000000000000000     <absolute>
 0000:00000000       __guard_eh_cont_count      0000000000000000     <absolute>
 0000:00000000       __guard_eh_cont_table      0000000000000000     <absolute>
 0000:00000000       __guard_fids_count         0000000000000000     <absolute>
 0000:00000000       __guard_fids_table         0000000000000000     <absolute>
 0000:00000000       __guard_iat_count          0000000000000000     <absolute>
 0000:00000000       __guard_iat_table          0000000000000000     <absolute>
 0000:00000000       __guard_longjmp_count      0000000000000000     <absolute>
 0000:00000000       __guard_longjmp_table      0000000000000000     <absolute>
 0000:00000000       __hybrid_auxiliary_delayload_iat 0000000000000000     <absolute>
 0000:00000000       __hybrid_auxiliary_delayload_iat_copy 0000000000000000     <absolute>
 0000:00000000       __hybrid_auxiliary_iat     0000000000000000     <absolute>
 0000:00000000       __hybrid_auxiliary_iat_copy 0000000000000000     <absolute>
 0000:00000000       __hybrid_code_map          0000000000000000     <absolute>
 0000:00000000       __hybrid_code_map_count    0000000000000000     <absolute>
 0000:00000000       __hybrid_image_info_bitfield 0000000000000000     <absolute>
 0000:00000000       __volatile_metadata        0000000000000000     <absolute>
 0000:00000000       __x64_code_ranges_to_entry_points 0000000000000000     <absolute>
 0000:00000000       __x64_code_ranges_to_entry_points_count 0000000000000000     <absolute>
 0000:00000100       __guard_flags              0000000000000100     <absolute>
 0000:00000000       __ImageBase                0000000140000000     <linker-defined>
 0001:0000ded0       ?_uploadDebugReport@@YAXPEBD_N1@Z 000000014000eed0 f   CrashHandlerNoOp.obj
 0001:0000df10       ??_H@YAXPEAX_K1P6APEAX0@Z@Z 000000014000ef10 f i CrashHandlerNoOp.obj
 0001:0000df90       ?__empty_global_delete@@YAXPEAX@Z 000000014000ef90 f i CrashHandlerNoOp.obj
 0001:0000dfa0       ?__empty_global_delete@@YAXPEAXW4align_val_t@std@@@Z 000000014000efa0 f i CrashHandlerNoOp.obj
 0001:0000dfb0       ?__empty_global_delete@@YAXPEAX_K@Z 000000014000efb0 f i CrashHandlerNoOp.obj
 0001:0000dfc0       ?__empty_global_delete@@YAXPEAX_KW4align_val_t@std@@@Z 000000014000efc0 f i CrashHandlerNoOp.obj
 0001:0000dfe0       ?ShowUsage@@YAXPEBD@Z      000000014000efe0 f   signfile.obj
 0001:0000e2c0       main                       000000014000f2c0 f   signfile.obj
 0001:0000f930       ??$AllocArray@E@@YAPEAE_K@Z 0000000140010930 f i signfile.obj
 0001:0000f960       ??0?$ScopedMem@E@@QEAA@XZ  0000000140010960 f i signfile.obj
 0001:0000f980       ??0AutoFree@@QEAA@XZ       0000000140010980 f i signfile.obj
 0001:0000f9a0       ??0ByteSlice@@QEAA@PEBE_K@Z 00000001400109a0 f i signfile.obj
 0001:0000fa00       ??0StrVec@@QEAA@XZ         0000000140010a00 f i signfile.obj
 0001:0000fa60       ??1?$ScopedMem@E@@QEAA@XZ  0000000140010a60 f i signfile.obj
 0001:0000fa90       ??1AutoFree@@QEAA@XZ       0000000140010a90 f i signfile.obj
 0001:0000fac0       ??B?$ScopedMem@E@@QEBAPEAEXZ 0000000140010ac0 f i signfile.obj
 0001:0000fae0       ??BAutoFree@@QEBAPEADXZ    0000000140010ae0 f i signfile.obj
 0001:0000fb00       ??BByteSlice@@QEAAPEBDXZ   0000000140010b00 f i signfile.obj
 0001:0000fb20       ?Get@?$ScopedMem@E@@QEBAPEAEXZ 0000000140010b20 f i signfile.obj
 0001:0000fb40       ?Get@AutoFree@@QEBAPEADXZ  0000000140010b40 f i signfile.obj
 0001:0000fb60       ?Set@?$ScopedMem@E@@QEAAXPEAE@Z 0000000140010b60 f i signfile.obj
 0001:0000fba0       ?Set@AutoFree@@QEAAXPEBD@Z 0000000140010ba0 f i signfile.obj
 0001:0000fbe0       ?SetCopy@AutoFree@@QEAAXPEBD@Z 0000000140010be0 f i signfile.obj
 0001:0000fc40       ?memchr@@YAPEAXPEAXH_K@Z   0000000140010c40 f i signfile.obj
 0001:0000fc90       ?size@ByteSlice@@QEBA_KXZ  0000000140010c90 f i signfile.obj
 0001:0000fcb0       __local_stdio_printf_options 0000000140010cb0 f i signfile.obj
 0001:0000fcc0       _vfprintf_l                0000000140010cc0 f i signfile.obj
 0001:0000fd20       fprintf                    0000000140010d20 f i signfile.obj
 0001:0000fd82       CertCloseStore             0000000140010d82 f   crypt32:CRYPT32.dll
 0001:0000fd88       CertEnumCertificatesInStore 0000000140010d88 f   crypt32:CRYPT32.dll
 0001:0000fd8e       CertFindCertificateInStore 0000000140010d8e f   crypt32:CRYPT32.dll
 0001:0000fd94       CertFreeCertificateContext 0000000140010d94 f   crypt32:CRYPT32.dll
 0001:0000fd9a       CryptAcquireCertificatePrivateKey 0000000140010d9a f   crypt32:CRYPT32.dll
 0001:0000fda0       CertGetNameStringW         0000000140010da0 f   crypt32:CRYPT32.dll
 0001:0000fda6       CertOpenSystemStoreW       0000000140010da6 f   crypt32:CRYPT32.dll
 0001:0000fdac       IsDebuggerPresent          0000000140010dac f   kernel32:KERNEL32.dll
 0001:0000fdb2       DebugBreak                 0000000140010db2 f   kernel32:KERNEL32.dll
 0001:0000fdb8       GetCommandLineW            0000000140010db8 f   kernel32:KERNEL32.dll
 0001:0000fdbe       CryptReleaseContext        0000000140010dbe f   advapi32:ADVAPI32.dll
 0001:0000fdc4       CryptDestroyKey            0000000140010dc4 f   advapi32:ADVAPI32.dll
 0001:0000fdca       CryptGetUserKey            0000000140010dca f   advapi32:ADVAPI32.dll
 0001:0000fdd0       CryptExportKey             0000000140010dd0 f   advapi32:ADVAPI32.dll
 0001:0000fdd6       CryptCreateHash            0000000140010dd6 f   advapi32:ADVAPI32.dll
 0001:0000fddc       CryptHashData              0000000140010ddc f   advapi32:ADVAPI32.dll
 0001:0000fde2       CryptDestroyHash           0000000140010de2 f   advapi32:ADVAPI32.dll
 0001:0000fde8       CryptSignHashW             0000000140010de8 f   advapi32:ADVAPI32.dll
 0001:0000fdf0       ?BreakIfUnderDebugger@@YAXXZ 0000000140010df0 f   utils:BaseUtil.obj
 0001:0000fe10       ?AllocZero@@YAPEAX_K0@Z    0000000140010e10 f   utils:BaseUtil.obj
 0001:0000fe40       ?limitValue@@YAHHHH@Z      0000000140010e40 f   utils:BaseUtil.obj
 0001:0000fed0       ?limitValue@@YAKKKK@Z      0000000140010ed0 f   utils:BaseUtil.obj
 0001:0000ff60       ?limitValue@@YAMMMM@Z      0000000140010f60 f   utils:BaseUtil.obj
 0001:00010000       ?memdup@@YAPEAXPEBX_K1@Z   0000000140011000 f   utils:BaseUtil.obj
 0001:00010070       ?memeq@@YA_NPEBX0_K@Z      0000000140011070 f   utils:BaseUtil.obj
 0001:000100c0       ?RoundToPowerOf2@@YA_K_K@Z 00000001400110c0 f   utils:BaseUtil.obj
 0001:00010110       ?MurmurHash2@@YAIPEBX_K@Z  0000000140011110 f   utils:BaseUtil.obj
 0001:00010280       ?MurmurHashWStrI@@YAIPEB_W@Z 0000000140011280 f   utils:BaseUtil.obj
 0001:000103a0       ?MurmurHashStrI@@YAIPEBD@Z 00000001400113a0 f   utils:BaseUtil.obj
 0001:00010470       ?RoundUp@@YA_K_K0@Z        0000000140011470 f   utils:BaseUtil.obj
 0001:000104a0       ?RoundUp@@YAHHH@Z          00000001400114a0 f   utils:BaseUtil.obj
 0001:000104e0       ?RoundUp@@YAPEADPEADH@Z    00000001400114e0 f   utils:BaseUtil.obj
 0001:00010540       ?Alloc@Allocator@@SAPEAXPEAU1@_K@Z 0000000140011540 f   utils:BaseUtil.obj
 0001:00010590       ?AllocZero@Allocator@@SAPEAXPEAU1@_K@Z 0000000140011590 f   utils:BaseUtil.obj
 0001:000105e0       ?Free@Allocator@@SAXPEAU1@PEAX@Z 00000001400115e0 f   utils:BaseUtil.obj
 0001:00010640       ?Realloc@Allocator@@SAPEAXPEAU1@PEAX_K@Z 0000000140011640 f   utils:BaseUtil.obj
 0001:000106a0       ?MemDup@Allocator@@SAPEAXPEAU1@PEBX_K2@Z 00000001400116a0 f   utils:BaseUtil.obj
 0001:00010720       ??0PoolAllocator@@QEAA@XZ  0000000140011720 f   utils:BaseUtil.obj
 0001:000107a0       ??1PoolAllocator@@UEAA@XZ  00000001400117a0 f   utils:BaseUtil.obj
 0001:000107f0       ?Realloc@PoolAllocator@@UEAAPEAXPEAX_K@Z 00000001400117f0 f   utils:BaseUtil.obj
 0001:00010820       ?Free@PoolAllocator@@UEAAXPEBX@Z 0000000140011820 f   utils:BaseUtil.obj
 0001:00010840       ?Alloc@PoolAllocator@@UEAAPEAX_K@Z 0000000140011840 f   utils:BaseUtil.obj
 0001:00010ca0       ?FreeAll@PoolAllocator@@QEAAXXZ 0000000140011ca0 f   utils:BaseUtil.obj
 0001:00010d40       ?Reset@PoolAllocator@@QEAAX_N@Z 0000000140011d40 f   utils:BaseUtil.obj
 0001:00010e30       ?At@PoolAllocator@@QEAAPEAXH@Z 0000000140011e30 f   utils:BaseUtil.obj
 0001:00011020       ?Set@AtomicInt@@QEAAHH@Z   0000000140012020 f   utils:BaseUtil.obj
 0001:00011050       ?Inc@AtomicInt@@QEAAHXZ    0000000140012050 f   utils:BaseUtil.obj
 0001:00011070       ?Dec@AtomicInt@@QEAAHXZ    0000000140012070 f   utils:BaseUtil.obj
 0001:00011090       ?Add@AtomicInt@@QEAAHH@Z   0000000140012090 f   utils:BaseUtil.obj
 0001:000110c0       ?Sub@AtomicInt@@QEAAHH@Z   00000001400120c0 f   utils:BaseUtil.obj
 0001:000110f0       ?Get@AtomicInt@@QEBAHXZ    00000001400120f0 f   utils:BaseUtil.obj
 0001:00011120       ?MkFunc0Void@@YA?AUFunc0@@P6AXXZ@Z 0000000140012120 f   utils:BaseUtil.obj
 0001:00011180       ?Get@AtomicBool@@QEBA_NXZ  0000000140012180 f   utils:BaseUtil.obj
 0001:000111d0       ?Set@AtomicBool@@QEAA_N_N@Z 00000001400121d0 f   utils:BaseUtil.obj
 0001:00011230       ?Add@AtomicRefCount@@QEAAHXZ 0000000140012230 f   utils:BaseUtil.obj
 0001:00011250       ?Dec@AtomicRefCount@@QEAAHXZ 0000000140012250 f   utils:BaseUtil.obj
 0001:00011b20       ??$swap@H$0A@@std@@YAXAEAH0@Z 0000000140012b20 f i utils:BaseUtil.obj
 0001:00011b70       ??$swap@K$0A@@std@@YAXAEAK0@Z 0000000140012b70 f i utils:BaseUtil.obj
 0001:00011bc0       ??$swap@M$0A@@std@@YAXAEAM0@Z 0000000140012bc0 f i utils:BaseUtil.obj
 0001:00011c20       ??0Allocator@@QEAA@XZ      0000000140012c20 f i utils:BaseUtil.obj
 0001:00011c40       ??0Func0@@QEAA@XZ          0000000140012c40 f i utils:BaseUtil.obj
 0001:00011c70       ??0ScopedCritSec@@QEAA@PEAU_RTL_CRITICAL_SECTION@@@Z 0000000140012c70 f i utils:BaseUtil.obj
 0001:00011cb0       ??1Allocator@@UEAA@XZ      0000000140012cb0 f i utils:BaseUtil.obj
 0001:00011cc0       ??1ScopedCritSec@@QEAA@XZ  0000000140012cc0 f i utils:BaseUtil.obj
 0001:00011cf0       ??_EAllocator@@UEAAPEAXI@Z 0000000140012cf0 f i utils:BaseUtil.obj
 0001:00011cf0       ??_GAllocator@@UEAAPEAXI@Z 0000000140012cf0 f i utils:BaseUtil.obj
 0001:00011d40       ??_EPoolAllocator@@UEAAPEAXI@Z 0000000140012d40 f i utils:BaseUtil.obj
 0001:00011d40       ??_GPoolAllocator@@UEAAPEAXI@Z 0000000140012d40 f i utils:BaseUtil.obj
 0001:00011d90       ?CrashMe@@YAXXZ            0000000140012d90 f i utils:BaseUtil.obj
 0001:00011db0       _InlineInterlockedAdd      0000000140012db0 f i utils:BaseUtil.obj
 0001:00011de0       ?isLegalUTF8Sequence@@YA_NPEBE0@Z 0000000140012de0 f   utils:StrUtil.obj
 0001:00011e30       ?isLegalUTF8String@@YA_NPEAPEBEPEBE@Z 0000000140012e30 f   utils:StrUtil.obj
 0001:00011ed0       ?utf8StrLen@@YAHPEBE@Z     0000000140012ed0 f   utils:StrUtil.obj
 0001:00011f50       ?utf8RuneLen@@YAHPEBE@Z    0000000140012f50 f   utils:StrUtil.obj
 0001:00011f80       ??0StrSpan@@QEAA@PEBD@Z    0000000140012f80 f   utils:StrUtil.obj
 0001:00011fd0       ??0StrSpan@@QEAA@PEBDH@Z   0000000140012fd0 f   utils:StrUtil.obj
 0001:00012040       ?IsEqual@@YA_NAEBUByteSlice@@0@Z 0000000140013040 f   utils:StrUtil.obj
 0001:00012100       ?Len@str@@YA_KPEB_W@Z      0000000140013100 f   utils:StrUtil.obj
 0001:00012140       ?Len@str@@YA_KPEBD@Z       0000000140013140 f   utils:StrUtil.obj
 0001:00012180       ?Leni@str@@YAHPEB_W@Z      0000000140013180 f   utils:StrUtil.obj
 0001:000121c0       ?Leni@str@@YAHPEBD@Z       00000001400131c0 f   utils:StrUtil.obj
 0001:00012200       ?Free@str@@YAXPEBD@Z       0000000140013200 f   utils:StrUtil.obj
 0001:00012220       ?Free@str@@YAXPEBE@Z       0000000140013220 f   utils:StrUtil.obj
 0001:00012240       ?Free@str@@YAXAEBUStrSpan@@@Z 0000000140013240 f   utils:StrUtil.obj
 0001:00012270       ?Free@str@@YAXPEB_W@Z      0000000140013270 f   utils:StrUtil.obj
 0001:00012290       ?FreePtr@str@@YAXPEAPEBD@Z 0000000140013290 f   utils:StrUtil.obj
 0001:000122c0       ?FreePtr@str@@YAXPEAPEAD@Z 00000001400132c0 f   utils:StrUtil.obj
 0001:000122f0       ?FreePtr@str@@YAXPEAPEB_W@Z 00000001400132f0 f   utils:StrUtil.obj
 0001:00012320       ?FreePtr@str@@YAXPEAPEA_W@Z 0000000140013320 f   utils:StrUtil.obj
 0001:00012350       ?Dup@str@@YAPEADPEAUAllocator@@PEBD_K@Z 0000000140013350 f   utils:StrUtil.obj
 0001:000123b0       ?Dup@str@@YAPEADPEBD_K@Z   00000001400133b0 f   utils:StrUtil.obj
 0001:000123e0       ?Dup@str@@YAPEADAEBUByteSlice@@@Z 00000001400133e0 f   utils:StrUtil.obj
 0001:00012430       ?ReplacePtr@str@@YAXPEAPEBDPEBD@Z 0000000140013430 f   utils:StrUtil.obj
 0001:00012480       ?ReplacePtr@str@@YAXPEAPEADPEBD@Z 0000000140013480 f   utils:StrUtil.obj
 0001:000124b0       ?ReplaceWithCopy@str@@YAXPEAPEBDPEBD@Z 00000001400134b0 f   utils:StrUtil.obj
 0001:00012500       ?ReplaceWithCopy@str@@YAXPEAPEBDAEBUByteSlice@@@Z 0000000140013500 f   utils:StrUtil.obj
 0001:00012570       ?ReplaceWithCopy@str@@YAXPEAPEADPEBD@Z 0000000140013570 f   utils:StrUtil.obj
 0001:000125c0       ?Join@str@@YAPEADPEAUAllocator@@PEBD11@Z 00000001400135c0 f   utils:StrUtil.obj
 0001:000126e0       ?Join@str@@YAPEADPEAUAllocator@@PEBD1111@Z 00000001400136e0 f   utils:StrUtil.obj
 0001:00012890       ?Join@str@@YAPEADPEBD00@Z  0000000140013890 f   utils:StrUtil.obj
 0001:000128d0       ?Eq@str@@YA_NPEBD0@Z       00000001400138d0 f   utils:StrUtil.obj
 0001:00012940       ?Eq@str@@YA_NAEBUByteSlice@@0@Z 0000000140013940 f   utils:StrUtil.obj
 0001:000129e0       ?EqI@str@@YA_NPEBD0@Z      00000001400139e0 f   utils:StrUtil.obj
 0001:00012a50       ?EqIS@str@@YA_NPEBD0@Z     0000000140013a50 f   utils:StrUtil.obj
 0001:00012b90       ?EqN@str@@YA_NPEBD0_K@Z    0000000140013b90 f   utils:StrUtil.obj
 0001:00012c10       ?EqNI@str@@YA_NPEBD0_K@Z   0000000140013c10 f   utils:StrUtil.obj
 0001:00012c90       ?IsEmpty@str@@YA_NPEBD@Z   0000000140013c90 f   utils:StrUtil.obj
 0001:00012cd0       ?StartsWith@str@@YA_NPEBD0@Z 0000000140013cd0 f   utils:StrUtil.obj
 0001:00012d10       ?StartsWith@str@@YA_NPEBEPEBD@Z 0000000140013d10 f   utils:StrUtil.obj
 0001:00012d40       ?StartsWithI@str@@YA_NPEBD0@Z 0000000140013d40 f   utils:StrUtil.obj
 0001:00012dc0       ?EndsWith@str@@YA_NPEBD0@Z 0000000140013dc0 f   utils:StrUtil.obj
 0001:00012e40       ?EndsWithI@str@@YA_NPEBD0@Z 0000000140013e40 f   utils:StrUtil.obj
 0001:00012ec0       ?EqNIx@str@@YA_NPEBD_K0@Z  0000000140013ec0 f   utils:StrUtil.obj
 0001:00012f20       ?ToLowerInPlace@str@@YAPEADPEAD@Z 0000000140013f20 f   utils:StrUtil.obj
 0001:00012f80       ?ToLower@str@@YAPEADPEBD@Z 0000000140013f80 f   utils:StrUtil.obj
 0001:00012fc0       ?ToUpperInPlace@str@@YAPEADPEAD@Z 0000000140013fc0 f   utils:StrUtil.obj
 0001:00013020       ?Utf8Encode@str@@YAXAEAPEADH@Z 0000000140014020 f   utils:StrUtil.obj
 0001:000131d0       ?IsDigit@str@@YA_ND@Z      00000001400141d0 f   utils:StrUtil.obj
 0001:00013210       ?IsWs@str@@YA_ND@Z         0000000140014210 f   utils:StrUtil.obj
 0001:00013250       ?IsAlNum@str@@YA_ND@Z      0000000140014250 f   utils:StrUtil.obj
 0001:000132b0       ?FindChar@str@@YAPEBDPEBDD@Z 00000001400142b0 f   utils:StrUtil.obj
 0001:000132e0       ?FindChar@str@@YAPEADPEADD@Z 00000001400142e0 f   utils:StrUtil.obj
 0001:00013310       ?FindCharLast@str@@YAPEBDPEBDD@Z 0000000140014310 f   utils:StrUtil.obj
 0001:00013340       ?FindCharLast@str@@YAPEADPEADD@Z 0000000140014340 f   utils:StrUtil.obj
 0001:00013370       ?Find@str@@YAPEBDPEBD0@Z   0000000140014370 f   utils:StrUtil.obj
 0001:000133a0       ?FindI@str@@YAPEBDPEBD0@Z  00000001400143a0 f   utils:StrUtil.obj
 0001:00013450       ?BufFind@str@@YAHPEBDH0@Z  0000000140014450 f   utils:StrUtil.obj
 0001:00013510       ?Contains@str@@YA_NPEBD0@Z 0000000140014510 f   utils:StrUtil.obj
 0001:00013570       ?ContainsI@str@@YA_NPEBD0@Z 0000000140014570 f   utils:StrUtil.obj
 0001:000135d0       ?BufFmtV@str@@YA_NPEAD_KPEBD0@Z 00000001400145d0 f   utils:StrUtil.obj
 0001:00013650       ?BufFmt@str@@YA_NPEAD_KPEBDZZ 0000000140014650 f   utils:StrUtil.obj
 0001:000136b0       ?FmtVWithAllocator@str@@YAPEADPEAUAllocator@@PEBDPEAD@Z 00000001400146b0 f   utils:StrUtil.obj
 0001:00013820       ?FmtV@str@@YAPEADPEBDPEAD@Z 0000000140014820 f   utils:StrUtil.obj
 0001:00013850       ?Format@str@@YAPEADPEBDZZ  0000000140014850 f   utils:StrUtil.obj
 0001:000138a0       ?TrimWSInPlace@str@@YA_KPEADW4TrimOpt@1@@Z 00000001400148a0 f   utils:StrUtil.obj
 0001:000139e0       ?TrimWsEnd@str@@YAXPEADAEAPEAD@Z 00000001400149e0 f   utils:StrUtil.obj
 0001:00013a50       ?TransCharsInPlace@str@@YA_KPEADPEBD1@Z 0000000140014a50 f   utils:StrUtil.obj
 0001:00013af0       ?NormalizeWSInPlace@str@@YA_KPEAD@Z 0000000140014af0 f   utils:StrUtil.obj
 0001:00013be0       ?NormalizeNewlinesInPlace@str@@YA_KPEAD0@Z 0000000140014be0 f   utils:StrUtil.obj
 0001:00013d40       ?NormalizeNewlinesInPlace@str@@YA_KPEAD@Z 0000000140014d40 f   utils:StrUtil.obj
 0001:00013d80       ?RemoveCharsInPlace@str@@YA_KPEADPEBD@Z 0000000140014d80 f   utils:StrUtil.obj
 0001:00013e30       ?BufSet@str@@YAHPEADHPEBD@Z 0000000140014e30 f   utils:StrUtil.obj
 0001:00013f20       ?BufAppend@str@@YAHPEADHPEBD@Z 0000000140014f20 f   utils:StrUtil.obj
 0001:00014020       ?MemToHex@str@@YAPEADPEBE_K@Z 0000000140015020 f   utils:StrUtil.obj
 0001:000140d0       ?HexToMem@str@@YA_NPEBDPEAE_K@Z 00000001400150d0 f   utils:StrUtil.obj
 0001:00014170       ?Parse@str@@YAPEBDPEBD0ZZ  0000000140015170 f   utils:StrUtil.obj
 0001:000141e0       ?Parse@str@@YAPEBDPEBD_K0ZZ 00000001400151e0 f   utils:StrUtil.obj
 0001:00014330       ?CmpNatural@str@@YAHPEBD0@Z 0000000140015330 f   utils:StrUtil.obj
 0001:00014670       ?FormatFloatWithThousandSepTemp@str@@YAPEADNK@Z 0000000140015670 f   utils:StrUtil.obj
 0001:00014990       ?FormatNumWithThousandSepTemp@str@@YAPEAD_JK@Z 0000000140015990 f   utils:StrUtil.obj
 0001:00014bb0       ?FormatSizeShortTemp@str@@YAPEAD_JQEAPEBD@Z 0000000140015bb0 f   utils:StrUtil.obj
 0001:00014d90       ?FormatFileSizeTemp@str@@YAPEAD_J@Z 0000000140015d90 f   utils:StrUtil.obj
 0001:00014f50       ?FormatRomanNumeralTemp@str@@YAPEADH@Z 0000000140015f50 f   utils:StrUtil.obj
 0001:00015060       ?IsEmptyOrWhiteSpace@str@@YA_NPEBD@Z 0000000140016060 f   utils:StrUtil.obj
 0001:000150d0       ?Skip@str@@YA_NAEAPEBDPEBD@Z 00000001400160d0 f   utils:StrUtil.obj
 0001:00015130       ?SkipChar@str@@YAPEBDPEBDD@Z 0000000140016130 f   utils:StrUtil.obj
 0001:00015180       ?Dup@str@@YAPEA_WPEAUAllocator@@PEB_W_K@Z 0000000140016180 f   utils:StrUtil.obj
 0001:000151e0       ?Dup@str@@YAPEA_WPEB_W_K@Z 00000001400161e0 f   utils:StrUtil.obj
 0001:00015210       ?Join@str@@YAPEA_WPEB_W00@Z 0000000140016210 f   utils:StrUtil.obj
 0001:00015250       ?Join@str@@YAPEA_WPEAUAllocator@@PEB_W11@Z 0000000140016250 f   utils:StrUtil.obj
 0001:00015370       ?Eq@str@@YA_NPEB_W0@Z      0000000140016370 f   utils:StrUtil.obj
 0001:000153e0       ?EqI@str@@YA_NPEB_W0@Z     00000001400163e0 f   utils:StrUtil.obj
 0001:00015450       ?EqN@str@@YA_NPEB_W0_K@Z   0000000140016450 f   utils:StrUtil.obj
 0001:000154d0       ?IsEmpty@str@@YA_NPEB_W@Z  00000001400164d0 f   utils:StrUtil.obj
 0001:00015510       ?StartsWith@str@@YA_NPEB_W0@Z 0000000140016510 f   utils:StrUtil.obj
 0001:00015550       ?StartsWithI@str@@YA_NPEB_W0@Z 0000000140016550 f   utils:StrUtil.obj
 0001:000155d0       ?EndsWith@str@@YA_NPEB_W0@Z 00000001400165d0 f   utils:StrUtil.obj
 0001:00015660       ?EndsWithI@str@@YA_NPEB_W0@Z 0000000140016660 f   utils:StrUtil.obj
 0001:000156f0       ?ToLower@str@@YAPEA_WPEB_W@Z 00000001400166f0 f   utils:StrUtil.obj
 0001:00015730       ?ToLowerInPlace@str@@YAPEA_WPEA_W@Z 0000000140016730 f   utils:StrUtil.obj
 0001:00015790       ?Parse@str@@YAPEB_WPEB_W0ZZ 0000000140016790 f   utils:StrUtil.obj
 0001:00015e20       ?BufSet@str@@YAHPEA_WHPEB_W@Z 0000000140016e20 f   utils:StrUtil.obj
 0001:00015ef0       ?BufSet@str@@YAHPEA_WHPEBD@Z 0000000140016ef0 f   utils:StrUtil.obj
 0001:00015f30       ?NormalizeWSInPlace@str@@YA_KPEA_W@Z 0000000140016f30 f   utils:StrUtil.obj
 0001:00016040       ?RemoveCharsInPlace@str@@YA_KPEA_WPEB_W@Z 0000000140017040 f   utils:StrUtil.obj
 0001:000160f0       ?FindChar@str@@YAPEB_WPEB_W_W@Z 00000001400170f0 f   utils:StrUtil.obj
 0001:00016120       ?FindChar@str@@YAPEA_WPEA_W_W@Z 0000000140017120 f   utils:StrUtil.obj
 0001:00016150       ?Find@str@@YAPEB_WPEB_W0@Z 0000000140017150 f   utils:StrUtil.obj
 0001:00016180       ?IsWs@str@@YA_N_W@Z        0000000140017180 f   utils:StrUtil.obj
 0001:000161c0       ?IsDigit@str@@YA_N_W@Z     00000001400171c0 f   utils:StrUtil.obj
 0001:00016200       ?IsNonCharacter@str@@YA_N_W@Z 0000000140017200 f   utils:StrUtil.obj
 0001:00016260       ?TransCharsInPlace@str@@YA_KPEA_WPEB_W1@Z 0000000140017260 f   utils:StrUtil.obj
 0001:00016310       ?Replace@str@@YAPEA_WPEB_W00@Z 0000000140017310 f   utils:StrUtil.obj
 0001:00016480       ?ToWCHAR@str@@YAPEA_WPEBD@Z 0000000140017480 f   utils:StrUtil.obj
 0001:000164b0       ?DecodeInPlace@url@@YAXPEAD@Z 00000001400174b0 f   utils:StrUtil.obj
 0001:00016560       ?IsAbsolute@url@@YA_NPEBD@Z 0000000140017560 f   utils:StrUtil.obj
 0001:000165d0       ?GetFullPathTemp@url@@YAPEADPEBD@Z 00000001400175d0 f   utils:StrUtil.obj
 0001:00016630       ?GetFileNameTemp@url@@YAPEADPEBD@Z 0000000140017630 f   utils:StrUtil.obj
 0001:00016710       ?Next@seqstrings@@YAXAEAPEBD@Z 0000000140017710 f   utils:StrUtil.obj
 0001:00016740       ?Next@seqstrings@@YAXAEAPEBDPEAH@Z 0000000140017740 f   utils:StrUtil.obj
 0001:00016810       ?StrToIdx@seqstrings@@YAHPEBD0@Z 0000000140017810 f   utils:StrUtil.obj
 0001:00016890       ?StrToIdxIS@seqstrings@@YAHPEBD0@Z 0000000140017890 f   utils:StrUtil.obj
 0001:00016920       ?IdxToStr@seqstrings@@YAPEBDPEBDH@Z 0000000140017920 f   utils:StrUtil.obj
 0001:000169a0       ??0Str@str@@QEAA@_KPEAUAllocator@@@Z 00000001400179a0 f   utils:StrUtil.obj
 0001:00016a30       ??0Str@str@@QEAA@AEBU01@@Z 0000000140017a30 f   utils:StrUtil.obj
 0001:00016b00       ??4Str@str@@QEAAAEAU01@AEBU01@@Z 0000000140017b00 f   utils:StrUtil.obj
 0001:00016ba0       ??0Str@str@@QEAA@PEBD@Z    0000000140017ba0 f   utils:StrUtil.obj
 0001:00016c20       ??1Str@str@@QEAA@XZ        0000000140017c20 f   utils:StrUtil.obj
 0001:00016c40       ?Reset@Str@str@@QEAAXXZ    0000000140017c40 f   utils:StrUtil.obj
 0001:00016cd0       ?at@Str@str@@QEBAAEAD_K@Z  0000000140017cd0 f   utils:StrUtil.obj
 0001:00016d30       ?at@Str@str@@QEBAAEADH@Z   0000000140017d30 f   utils:StrUtil.obj
 0001:00016d80       ??AStr@str@@QEBAAEADJ@Z    0000000140017d80 f   utils:StrUtil.obj
 0001:00016dd0       ??AStr@str@@QEBAAEADH@Z    0000000140017dd0 f   utils:StrUtil.obj
 0001:00016e20       ?at@Str@str@@QEBAAEADI@Z   0000000140017e20 f   utils:StrUtil.obj
 0001:00016e50       ??AStr@str@@QEBAAEADI@Z    0000000140017e50 f   utils:StrUtil.obj
 0001:00016e80       ?size@Str@str@@QEBA_KXZ    0000000140017e80 f   utils:StrUtil.obj
 0001:00016ea0       ?Size@Str@str@@QEBAHXZ     0000000140017ea0 f   utils:StrUtil.obj
 0001:00016ec0       ?InsertAt@Str@str@@QEAA_N_KD@Z 0000000140017ec0 f   utils:StrUtil.obj
 0001:00016f20       ?AppendChar@Str@str@@QEAA_ND@Z 0000000140017f20 f   utils:StrUtil.obj
 0001:00016f60       ?Append@Str@str@@QEAA_NPEBD_K@Z 0000000140017f60 f   utils:StrUtil.obj
 0001:00016ff0       ?Append@Str@str@@QEAA_NAEBUStrSpan@@@Z 0000000140017ff0 f   utils:StrUtil.obj
 0001:00017040       ?Append@Str@str@@QEAA_NAEBU12@@Z 0000000140018040 f   utils:StrUtil.obj
 0001:00017090       ?RemoveAt@Str@str@@QEAAD_K0@Z 0000000140018090 f   utils:StrUtil.obj
 0001:00017180       ?RemoveLast@Str@str@@QEAADXZ 0000000140018180 f   utils:StrUtil.obj
 0001:000171d0       ?Last@Str@str@@QEBAAEADXZ  00000001400181d0 f   utils:StrUtil.obj
 0001:00017230       ?StealData@Str@str@@QEAAPEADPEAUAllocator@@@Z 0000000140018230 f   utils:StrUtil.obj
 0001:000172d0       ?LendData@Str@str@@QEBAPEADXZ 00000001400182d0 f   utils:StrUtil.obj
 0001:000172f0       ?Contains@Str@str@@QEAA_NPEBD_K@Z 00000001400182f0 f   utils:StrUtil.obj
 0001:000173f0       ?IsEmpty@Str@str@@QEBA_NXZ 00000001400183f0 f   utils:StrUtil.obj
 0001:00017430       ?AsByteSlice@Str@str@@QEBA?AUByteSlice@@XZ 0000000140018430 f   utils:StrUtil.obj
 0001:00017480       ?StealAsByteSlice@Str@str@@QEAA?AUByteSlice@@XZ 0000000140018480 f   utils:StrUtil.obj
 0001:000174e0       ?Append@Str@str@@QEAA_NPEBE_K@Z 00000001400184e0 f   utils:StrUtil.obj
 0001:00017520       ?AppendSlice@Str@str@@QEAA_NAEBUByteSlice@@@Z 0000000140018520 f   utils:StrUtil.obj
 0001:00017580       ?AppendFmt@Str@str@@QEAAXPEBDZZ 0000000140018580 f   utils:StrUtil.obj
 0001:00017600       ?Set@Str@str@@QEAAXPEBD@Z  0000000140018600 f   utils:StrUtil.obj
 0001:00017640       ?Get@Str@str@@QEBAPEADXZ   0000000140018640 f   utils:StrUtil.obj
 0001:00017660       ?CStr@Str@str@@QEBAPEADXZ  0000000140018660 f   utils:StrUtil.obj
 0001:00017680       ?LastChar@Str@str@@QEBADXZ 0000000140018680 f   utils:StrUtil.obj
 0001:000176c0       ??0WStr@str@@QEAA@_KPEAUAllocator@@@Z 00000001400186c0 f   utils:StrUtil.obj
 0001:00017740       ??0WStr@str@@QEAA@AEBU01@@Z 0000000140018740 f   utils:StrUtil.obj
 0001:00017800       ??0WStr@str@@QEAA@PEB_W@Z  0000000140018800 f   utils:StrUtil.obj
 0001:00017870       ??4WStr@str@@QEAAAEAU01@AEBU01@@Z 0000000140018870 f   utils:StrUtil.obj
 0001:00017910       ??1WStr@str@@QEAA@XZ       0000000140018910 f   utils:StrUtil.obj
 0001:00017930       ?Reset@WStr@str@@QEAAXXZ   0000000140018930 f   utils:StrUtil.obj
 0001:000179c0       ?at@WStr@str@@QEBAAEA_W_K@Z 00000001400189c0 f   utils:StrUtil.obj
 0001:00017a20       ?at@WStr@str@@QEBAAEA_WH@Z 0000000140018a20 f   utils:StrUtil.obj
 0001:00017a70       ??AWStr@str@@QEBAAEA_W_K@Z 0000000140018a70 f   utils:StrUtil.obj
 0001:00017aa0       ??AWStr@str@@QEBAAEA_WJ@Z  0000000140018aa0 f   utils:StrUtil.obj
 0001:00017af0       ??AWStr@str@@QEBAAEA_WK@Z  0000000140018af0 f   utils:StrUtil.obj
 0001:00017b20       ??AWStr@str@@QEBAAEA_WH@Z  0000000140018b20 f   utils:StrUtil.obj
 0001:00017b70       ?at@WStr@str@@QEBAAEA_WI@Z 0000000140018b70 f   utils:StrUtil.obj
 0001:00017ba0       ??AWStr@str@@QEBAAEA_WI@Z  0000000140018ba0 f   utils:StrUtil.obj
 0001:00017bd0       ?size@WStr@str@@QEBA_KXZ   0000000140018bd0 f   utils:StrUtil.obj
 0001:00017bf0       ?isize@WStr@str@@QEBAHXZ   0000000140018bf0 f   utils:StrUtil.obj
 0001:00017c10       ?InsertAt@WStr@str@@QEAA_N_KAEB_W@Z 0000000140018c10 f   utils:StrUtil.obj
 0001:00017c70       ?AppendChar@WStr@str@@QEAA_N_W@Z 0000000140018c70 f   utils:StrUtil.obj
 0001:00017cb0       ?Append@WStr@str@@QEAA_NPEB_W_K@Z 0000000140018cb0 f   utils:StrUtil.obj
 0001:00017d40       ?RemoveAt@WStr@str@@QEAA_W_K0@Z 0000000140018d40 f   utils:StrUtil.obj
 0001:00017e40       ?RemoveLast@WStr@str@@QEAA_WXZ 0000000140018e40 f   utils:StrUtil.obj
 0001:00017e90       ?Last@WStr@str@@QEBAAEA_WXZ 0000000140018e90 f   utils:StrUtil.obj
 0001:00017ef0       ?StealData@WStr@str@@QEAAPEA_WXZ 0000000140018ef0 f   utils:StrUtil.obj
 0001:00017f80       ?LendData@WStr@str@@QEBAPEA_WXZ 0000000140018f80 f   utils:StrUtil.obj
 0001:00017fa0       ?Find@WStr@str@@QEBAHAEB_W_K@Z 0000000140018fa0 f   utils:StrUtil.obj
 0001:00018010       ?Contains@WStr@str@@QEBA_NAEB_W@Z 0000000140019010 f   utils:StrUtil.obj
 0001:00018060       ?Remove@WStr@str@@QEAAHAEB_W@Z 0000000140019060 f   utils:StrUtil.obj
 0001:000180c0       ?IsEmpty@WStr@str@@QEBA_NXZ 00000001400190c0 f   utils:StrUtil.obj
 0001:00018100       ?Set@WStr@str@@QEAAXPEB_W@Z 0000000140019100 f   utils:StrUtil.obj
 0001:00018140       ?Get@WStr@str@@QEBAPEA_WXZ 0000000140019140 f   utils:StrUtil.obj
 0001:00018160       ?LastChar@WStr@str@@QEBA_WXZ 0000000140019160 f   utils:StrUtil.obj
 0001:000181a0       ?Replace@str@@YA_NAEAUWStr@1@PEB_W1@Z 00000001400191a0 f   utils:StrUtil.obj
 0001:00018230       ?ParseInt@@YAHPEBD@Z       0000000140019230 f   utils:StrUtil.obj
 0001:00018320       ?IsValidProgramVersion@@YA_NPEBD@Z 0000000140019320 f   utils:StrUtil.obj
 0001:000183f0       ?CompareProgramVersion@@YAHPEBD0@Z 00000001400193f0 f   utils:StrUtil.obj
 0001:00018680       ?IsEqual@@YA_NAEBUStrSpan@@0@Z 0000000140019680 f   utils:StrUtil.obj
 0001:0001ba30       ??$AllocArray@D@@YAPEAD_K@Z 000000014001ca30 f i utils:StrUtil.obj
 0001:0001ba60       ??$AllocArray@D@Allocator@@SAPEADPEAU0@_K@Z 000000014001ca60 f i utils:StrUtil.obj
 0001:0001baa0       ??$max@I@std@@YAAEBIAEBI0@Z 000000014001caa0 f i utils:StrUtil.obj
 0001:0001bb00       ??$min@H@std@@YAAEBHAEBH0@Z 000000014001cb00 f i utils:StrUtil.obj
 0001:0001bb60       ??0?$Span@D@@QEAA@XZ       000000014001cb60 f i utils:StrUtil.obj
 0001:0001bb90       ??0Arg@fmt@@QEAA@PEBD@Z    000000014001cb90 f i utils:StrUtil.obj
 0001:0001bbf0       ??0Arg@fmt@@QEAA@_J@Z      000000014001cbf0 f i utils:StrUtil.obj
 0001:0001bc50       ?CStr@StrSpan@@QEBAPEADXZ  000000014001cc50 f i utils:StrUtil.obj
 0001:0001bc70       ?Len@StrSpan@@QEBAHXZ      000000014001cc70 f i utils:StrUtil.obj
 0001:0001bc90       ?Set@AutoFreeWStr@@QEAAXPEB_W@Z 000000014001cc90 f i utils:StrUtil.obj
 0001:0001bcd0       ?data@ByteSlice@@QEBAPEAEXZ 000000014001ccd0 f i utils:StrUtil.obj
 0001:0001bcf0       ?empty@ByteSlice@@QEBA_NXZ 000000014001ccf0 f i utils:StrUtil.obj
 0001:0001bd30       ?strchr@@YAPEADQEADH@Z     000000014001cd30 f i utils:StrUtil.obj
 0001:0001bd60       ?strrchr@@YAPEADQEADH@Z    000000014001cd60 f i utils:StrUtil.obj
 0001:0001bd90       ?wcschr@@YAPEA_WPEA_W_W@Z  000000014001cd90 f i utils:StrUtil.obj
 0001:0001bdc0       __local_stdio_scanf_options 000000014001cdc0 f i utils:StrUtil.obj
 0001:0001bdd0       _vsprintf_s_l              000000014001cdd0 f i utils:StrUtil.obj
 0001:0001be60       _vsscanf_s_l               000000014001ce60 f i utils:StrUtil.obj
 0001:0001bed0       sprintf_s                  000000014001ced0 f i utils:StrUtil.obj
 0001:0001bf40       sscanf_s                   000000014001cf40 f i utils:StrUtil.obj
 0001:0001bfa0       vsnprintf                  000000014001cfa0 f i utils:StrUtil.obj
 0001:0001c040       vsscanf_s                  000000014001d040 f i utils:StrUtil.obj
 0001:0001c080       ?GetTempAllocator@@YAPEAUAllocator@@XZ 000000014001d080 f   utils:TempAllocator.obj
 0001:0001c170       ?DestroyTempAllocator@@YAXXZ 000000014001d170 f   utils:TempAllocator.obj
 0001:0001c200       ?ResetTempAllocator@@YAXXZ 000000014001d200 f   utils:TempAllocator.obj
 0001:0001c260       ?DupTemp@str@@YAPEADPEBD_K@Z 000000014001d260 f   utils:TempAllocator.obj
 0001:0001c290       ?DupTemp@str@@YAPEA_WPEB_W_K@Z 000000014001d290 f   utils:TempAllocator.obj
 0001:0001c2c0       ?JoinTemp@str@@YAPEADPEBD00@Z 000000014001d2c0 f   utils:TempAllocator.obj
 0001:0001c300       ?JoinTemp@str@@YAPEADPEBD000@Z 000000014001d300 f   utils:TempAllocator.obj
 0001:0001c360       ?JoinTemp@str@@YAPEADPEBD0000@Z 000000014001d360 f   utils:TempAllocator.obj
 0001:0001c3c0       ?JoinTemp@str@@YAPEA_WPEB_W00@Z 000000014001d3c0 f   utils:TempAllocator.obj
 0001:0001c400       ?ReplaceTemp@str@@YAPEADPEBD00@Z 000000014001d400 f   utils:TempAllocator.obj
 0001:0001c680       ?ReplaceNoCaseTemp@str@@YAPEADPEBD00@Z 000000014001d680 f   utils:TempAllocator.obj
 0001:0001c730       ?FormatTemp@str@@YAPEADPEBDZZ 000000014001d730 f   utils:TempAllocator.obj
 0001:0001c7a0       ?ToUtf8Temp@@YAPEADPEB_W_K@Z 000000014001d7a0 f   utils:TempAllocator.obj
 0001:0001c810       ?ToWStrTemp@@YAPEA_WPEBD_K@Z 000000014001d810 f   utils:TempAllocator.obj
 0001:0001c880       ?ToWStrTemp@@YAPEA_WAEBUStr@str@@@Z 000000014001d880 f   utils:TempAllocator.obj
 0001:0001caf0       ?StrLess@@YA_NPEBD0@Z      000000014001daf0 f   utils:StrVec.obj
 0001:0001cb80       ?StrLessNoCase@@YA_NPEBD0@Z 000000014001db80 f   utils:StrVec.obj
 0001:0001cc10       ?StrLessNatural@@YA_NPEBD0@Z 000000014001dc10 f   utils:StrVec.obj
 0001:0001cc60       ?ToByteSlice@@YA?AUByteSlice@@PEBD@Z 000000014001dc60 f   utils:StrVec.obj
 0001:0001ccb0       ??0StrVec@@QEAA@H@Z        000000014001dcb0 f   utils:StrVec.obj
 0001:0001cd30       ??0StrVec@@QEAA@AEBU0@@Z   000000014001dd30 f   utils:StrVec.obj
 0001:0001cdb0       ??4StrVec@@QEAAAEAU0@AEBU0@@Z 000000014001ddb0 f   utils:StrVec.obj
 0001:0001ce10       ??1StrVec@@QEAA@XZ         000000014001de10 f   utils:StrVec.obj
 0001:0001ce40       ?Reset@StrVec@@QEAAXPEAUStrVecPage@@@Z 000000014001de40 f   utils:StrVec.obj
 0001:0001ced0       ?Size@StrVec@@QEBAHXZ      000000014001ded0 f   utils:StrVec.obj
 0001:0001cef0       ?IsEmpty@StrVec@@QEBA_NXZ  000000014001def0 f   utils:StrVec.obj
 0001:0001cf30       ?At@StrVec@@QEBAPEADH@Z    000000014001df30 f   utils:StrVec.obj
 0001:0001cfd0       ?AtSpan@StrVec@@QEBA?AUStrSpan@@H@Z 000000014001dfd0 f   utils:StrVec.obj
 0001:0001d080       ?AtDataRaw@StrVec@@QEBAPEAXH@Z 000000014001e080 f   utils:StrVec.obj
 0001:0001d150       ??AStrVec@@QEBAPEADH@Z     000000014001e150 f   utils:StrVec.obj
 0001:0001d1a0       ?Append@StrVec@@QEAAPEADPEBDH@Z 000000014001e1a0 f   utils:StrVec.obj
 0001:0001d2a0       ?SetAt@StrVec@@QEAAPEADHPEBDH@Z 000000014001e2a0 f   utils:StrVec.obj
 0001:0001d420       ?InsertAt@StrVec@@QEAAPEADHPEBDH@Z 000000014001e420 f   utils:StrVec.obj
 0001:0001d600       ?RemoveAt@StrVec@@QEAAPEADH@Z 000000014001e600 f   utils:StrVec.obj
 0001:0001d6a0       ?RemoveAtFast@StrVec@@QEAAPEADH@Z 000000014001e6a0 f   utils:StrVec.obj
 0001:0001d740       ?Remove@StrVec@@QEAA_NPEBD@Z 000000014001e740 f   utils:StrVec.obj
 0001:0001d7a0       ?Find@StrVec@@QEBAHAEBUStrSpan@@H@Z 000000014001e7a0 f   utils:StrVec.obj
 0001:0001d8c0       ?FindI@StrVec@@QEBAHAEBUStrSpan@@H@Z 000000014001e8c0 f   utils:StrVec.obj
 0001:0001d9e0       ?Contains@StrVec@@QEBA_NPEBDH@Z 000000014001e9e0 f   utils:StrVec.obj
 0001:0001da50       ??0iterator@StrVec@@QEAA@PEBU1@H@Z 000000014001ea50 f   utils:StrVec.obj
 0001:0001db00       ??Diterator@StrVec@@QEBAPEADXZ 000000014001eb00 f   utils:StrVec.obj
 0001:0001db70       ?Span@iterator@StrVec@@QEBA?AUStrSpan@@XZ 000000014001eb70 f   utils:StrVec.obj
 0001:0001dbf0       ??Eiterator@StrVec@@QEAAAEAU01@XZ 000000014001ebf0 f   utils:StrVec.obj
 0001:0001dc20       ??Eiterator@StrVec@@QEAA?AU01@H@Z 000000014001ec20 f   utils:StrVec.obj
 0001:0001dc70       ??Hiterator@StrVec@@QEAAAEAU01@H@Z 000000014001ec70 f   utils:StrVec.obj
 0001:0001dca0       ??8@YA_NAEBUiterator@StrVec@@0@Z 000000014001eca0 f   utils:StrVec.obj
 0001:0001dd00       ??9@YA_NAEBUiterator@StrVec@@0@Z 000000014001ed00 f   utils:StrVec.obj
 0001:0001dd60       ?begin@StrVec@@QEBA?AUiterator@1@XZ 000000014001ed60 f   utils:StrVec.obj
 0001:0001dd90       ?end@StrVec@@QEBA?AUiterator@1@XZ 000000014001ed90 f   utils:StrVec.obj
 0001:0001ddd0       ?AppendIfNotExists@@YAHPEAUStrVec@@PEBDH@Z 000000014001edd0 f   utils:StrVec.obj
 0001:0001de50       ?Sort@@YAXPEAUStrVec@@P6A_NPEBD1@Z@Z 000000014001ee50 f   utils:StrVec.obj
 0001:0001deb0       ?SortIndex@@YAXPEAUStrVec@@P6A_NPEBD1@Z@Z 000000014001eeb0 f   utils:StrVec.obj
 0001:0001df80       ?SortNoCase@@YAXPEAUStrVec@@@Z 000000014001ef80 f   utils:StrVec.obj
 0001:0001dfb0       ?SortNatural@@YAXPEAUStrVec@@@Z 000000014001efb0 f   utils:StrVec.obj
 0001:0001dfe0       ?Split@@YAHPEAUStrVec@@PEBD1_NH@Z 000000014001efe0 f   utils:StrVec.obj
 0001:0001e170       ?Join@@YAPEADPEAUStrVec@@PEBD@Z 000000014001f170 f   utils:StrVec.obj
 0001:0001e210       ?JoinTemp@@YAPEADPEAUStrVec@@PEBD@Z 000000014001f210 f   utils:StrVec.obj
 0001:0001e2b0       ?StrVecPageNext@@YAPEAUStrVecPage@@PEAU1@@Z 000000014001f2b0 f   utils:StrVec.obj
 0001:0001e2d0       ?StrVecPageSize@@YAHPEAUStrVecPage@@@Z 000000014001f2d0 f   utils:StrVec.obj
 0001:0001e2f0       ?At@StrVecPage@@QEBAPEADH@Z 000000014001f2f0 f   utils:StrVec.obj
 0001:0001e330       ?AtSpan@StrVecPage@@QEBA?AUStrSpan@@H@Z 000000014001f330 f   utils:StrVec.obj
 0001:0001e390       ?AtDataRaw@StrVecPage@@QEBAPEAXH@Z 000000014001f390 f   utils:StrVec.obj
 0001:0001e3d0       ?RemoveAt@StrVecPage@@QEAAPEADH@Z 000000014001f3d0 f   utils:StrVec.obj
 0001:0001e4d0       ?RemoveAtFast@StrVecPage@@QEAAPEADH@Z 000000014001f4d0 f   utils:StrVec.obj
 0001:0001e5c0       ?AtHelper@StrVecPage@@QEBAPEADHPEAH@Z 000000014001f5c0 f   utils:StrVec.obj
 0001:0001e6a0       ?BytesLeft@StrVecPage@@QEAAHXZ 000000014001f6a0 f   utils:StrVec.obj
 0001:0001e740       ?Append@StrVecPage@@QEAAPEADPEBDH@Z 000000014001f740 f   utils:StrVec.obj
 0001:0001e780       ?Append@StrVecPage@@QEAAPEADAEBUStrSpan@@@Z 000000014001f780 f   utils:StrVec.obj
 0001:0001e7e0       ?SetAt@StrVecPage@@QEAAPEADHPEBDH@Z 000000014001f7e0 f   utils:StrVec.obj
 0001:0001e950       ?InsertAt@StrVecPage@@QEAAPEADHPEBDH@Z 000000014001f950 f   utils:StrVec.obj
 0001:00020580       ??$<move>@AEAU?$pair@PEAUStrVecPage@@H@std@@@@YA$$QEAU?$pair@PEAUStrVecPage@@H@std@@AEAU01@@Z 0000000140021580 f i utils:StrVec.obj
 0001:00020590       ??$?0AEAPEAHAEAPEAH$0A@@?$pair@PEAHPEAH@std@@QEAA@AEAPEAH0@Z 0000000140021590 f i utils:StrVec.obj
 0001:000205e0       ??$?0AEAPEAUStrVecPage@@AEAH$0A@@?$pair@PEAUStrVecPage@@H@std@@QEAA@AEAPEAUStrVecPage@@AEAH@Z 00000001400215e0 f i utils:StrVec.obj
 0001:00020630       ??$?0AEAPEAUStrVecPage@@H$0A@@?$pair@PEAUStrVecPage@@H@std@@QEAA@AEAPEAUStrVecPage@@$$QEAH@Z 0000000140021630 f i utils:StrVec.obj
 0001:00020680       ??$?0AEAPEA_KAEAPEA_K$0A@@?$pair@PEA_KPEA_K@std@@QEAA@AEAPEA_K0@Z 0000000140021680 f i utils:StrVec.obj
 0001:00020770       ??$AllocArray@H@@YAPEAH_K@Z 0000000140021770 f i utils:StrVec.obj
 0001:000207a0       ??$_Adl_verify_range@PEAHPEAH@std@@YAXAEBQEAH0@Z 00000001400217a0 f i utils:StrVec.obj
 0001:000207b0       ??$_Adl_verify_range@PEA_KPEA_K@std@@YAXAEBQEA_K0@Z 00000001400217b0 f i utils:StrVec.obj
 0001:000207c0       ??$_Copy_backward_memmove@PEAHPEAH@std@@YAPEAHPEAH00@Z 00000001400217c0 f i utils:StrVec.obj
 0001:00020890       ??$_Copy_backward_memmove@PEA_KPEA_K@std@@YAPEA_KPEA_K00@Z 0000000140021890 f i utils:StrVec.obj
 0001:00020960       ??$_Get_unwrapped@AEBQEAH@std@@YA?A_TAEBQEAH@Z 0000000140021960 f i utils:StrVec.obj
 0001:00020980       ??$_Get_unwrapped@AEBQEA_K@std@@YA?A_TAEBQEA_K@Z 0000000140021980 f i utils:StrVec.obj
 0001:000212d0       ??$_Move_backward_unchecked@PEAHPEAH@std@@YAPEAHPEAH00@Z 00000001400222d0 f i utils:StrVec.obj
 0001:00021370       ??$_Move_backward_unchecked@PEA_KPEA_K@std@@YAPEA_KPEA_K00@Z 0000000140022370 f i utils:StrVec.obj
 0001:00021410       ??$_Next_iter@PEAH@std@@YAPEAHPEAH@Z 0000000140022410 f i utils:StrVec.obj
 0001:00021430       ??$_Next_iter@PEA_K@std@@YAPEA_KPEA_K@Z 0000000140022430 f i utils:StrVec.obj
 0001:000224b0       ??$_Prev_iter@PEAH@std@@YAPEAHPEAH@Z 00000001400234b0 f i utils:StrVec.obj
 0001:000224d0       ??$_Prev_iter@PEA_K@std@@YAPEA_KPEA_K@Z 00000001400234d0 f i utils:StrVec.obj
 0001:00022a90       ??$_To_address@PEAH@std@@YA?A_PAEBQEAH@Z 0000000140023a90 f i utils:StrVec.obj
 0001:00022ac0       ??$_To_address@PEA_K@std@@YA?A_PAEBQEA_K@Z 0000000140023ac0 f i utils:StrVec.obj
 0001:00022af0       ??$get@$00PEAUStrVecPage@@H@std@@YA$$QEAH$$QEAU?$pair@PEAUStrVecPage@@H@0@@Z 0000000140023af0 f i utils:StrVec.obj
 0001:00022b10       ??$get@$0A@PEAUStrVecPage@@H@std@@YA$$QEAPEAUStrVecPage@@$$QEAU?$pair@PEAUStrVecPage@@H@0@@Z 0000000140023b10 f i utils:StrVec.obj
 0001:00022c60       ??$swap@_K$0A@@std@@YAXAEA_K0@Z 0000000140023c60 f i utils:StrVec.obj
 0001:00022cb0       ??$to_address@H@std@@YAPEAHQEAH@Z 0000000140023cb0 f i utils:StrVec.obj
 0001:00022cc0       ??$to_address@_K@std@@YAPEA_KQEA_K@Z 0000000140023cc0 f i utils:StrVec.obj
 0001:00022cd0       ??0StrSpan@@QEAA@XZ        0000000140023cd0 f i utils:StrVec.obj
 0001:00022d00       ?Size@?$Span@D@@QEBAHXZ    0000000140023d00 f i utils:StrVec.obj
 0001:00022d20       ?is_constant_evaluated@std@@YA_NXZ 0000000140023d20 f i utils:StrVec.obj
 0001:00022d30       ?CouldBeArg@@YA_NPEBD@Z    0000000140023d30 f   utils:CmdLineArgsIter.obj
 0001:00022d80       ?ParseCmdLine@@YAXPEB_WAEAUStrVec@@@Z 0000000140023d80 f   utils:CmdLineArgsIter.obj
 0001:00022e30       ?ParseCmdLine@@YAXPEBDAEAUStrVec@@@Z 0000000140023e30 f   utils:CmdLineArgsIter.obj
 0001:00022e70       ?QuoteCmdLineArgTemp@@YAPEADPEAD@Z 0000000140023e70 f   utils:CmdLineArgsIter.obj
 0001:00023060       ??0CmdLineArgsIter@@QEAA@PEB_W@Z 0000000140024060 f   utils:CmdLineArgsIter.obj
 0001:000230f0       ?NextArg@CmdLineArgsIter@@QEAAPEBDXZ 00000001400240f0 f   utils:CmdLineArgsIter.obj
 0001:00023170       ?EatParam@CmdLineArgsIter@@QEAAPEBDXZ 0000000140024170 f   utils:CmdLineArgsIter.obj
 0001:000231d0       ?RewindParam@CmdLineArgsIter@@QEAAXXZ 00000001400241d0 f   utils:CmdLineArgsIter.obj
 0001:00023220       ?AdditionalParam@CmdLineArgsIter@@QEBAPEBDH@Z 0000000140024220 f   utils:CmdLineArgsIter.obj
 0001:00023300       ?at@CmdLineArgsIter@@QEBAPEADH@Z 0000000140024300 f   utils:CmdLineArgsIter.obj
 0001:00023330       ?ParamsTemp@CmdLineArgsIter@@QEAAPEADXZ 0000000140024330 f   utils:CmdLineArgsIter.obj
 0001:000235a0       ?CalcMD5Digest@@YAXPEBXHQEAE@Z 00000001400245a0 f   utils:CryptoUtil.obj
 0001:00023600       ?CalcSHA1Digest@@YAXPEBXHQEAE@Z 0000000140024600 f   utils:CryptoUtil.obj
 0001:00023660       ?CalcSHA2Digest@@YAXPEBXHQEAE@Z 0000000140024660 f   utils:CryptoUtil.obj
 0001:000236c0       ?VerifySHA1Signature@@YA_NPEBX_KPEBD01@Z 00000001400246c0 f   utils:CryptoUtil.obj
 0001:000240e0       ??$max@_K@std@@YAAEB_KAEB_K0@Z 00000001400250e0 f i utils:CryptoUtil.obj
 0001:00024140       ??0?$Vec@E@@QEAA@_KPEAUAllocator@@@Z 0000000140025140 f i utils:CryptoUtil.obj
 0001:00024200       ??1?$Vec@E@@QEAA@XZ        0000000140025200 f i utils:CryptoUtil.obj
 0001:00024220       ?Append@?$Vec@E@@QEAA_NAEBE@Z 0000000140025220 f i utils:CryptoUtil.obj
 0001:00024260       ?EnsureCap@?$Vec@E@@IEAA_N_K@Z 0000000140025260 f i utils:CryptoUtil.obj
 0001:000242b0       ?EnsureCapSlow@?$Vec@E@@IEAA_N_K@Z 00000001400252b0 f i utils:CryptoUtil.obj
 0001:000244a0       ?FreeEls@?$Vec@E@@IEAAXXZ  00000001400254a0 f i utils:CryptoUtil.obj
 0001:00024500       ?InsertAt@?$Vec@E@@QEAA_N_KAEBE@Z 0000000140025500 f i utils:CryptoUtil.obj
 0001:00024570       ?MakeSpaceAt@?$Vec@E@@IEAAPEAE_K0@Z 0000000140025570 f i utils:CryptoUtil.obj
 0001:00024690       ?Reset@?$Vec@E@@QEAAXXZ    0000000140025690 f i utils:CryptoUtil.obj
 0001:00024710       ?StealData@?$Vec@E@@QEAAPEAEXZ 0000000140025710 f i utils:CryptoUtil.obj
 0001:000247c0       ?size@?$Vec@E@@QEBA_KXZ    00000001400257c0 f i utils:CryptoUtil.obj
 0001:000247e0       ?IsSep@path@@YA_ND@Z       00000001400257e0 f   utils:FileUtil.obj
 0001:00024820       ?GetExtTemp@path@@YAPEADPEBD@Z 0000000140025820 f   utils:FileUtil.obj
 0001:00024870       ?GetBaseNameTemp@path@@YAPEADPEBD@Z 0000000140025870 f   utils:FileUtil.obj
 0001:000248e0       ?GetPathNoExtTemp@path@@YAPEADPEBD@Z 00000001400258e0 f   utils:FileUtil.obj
 0001:00024950       ?GetDirTemp@path@@YAPEADPEBD@Z 0000000140025950 f   utils:FileUtil.obj
 0001:00024a50       ?GetDirTemp@path@@YAPEA_WPEB_W@Z 0000000140025a50 f   utils:FileUtil.obj
 0001:00024b60       ?Join@path@@YAPEADPEAUAllocator@@PEBD1@Z 0000000140025b60 f   utils:FileUtil.obj
 0001:00024bf0       ?Join@path@@YAPEADPEBD0@Z  0000000140025bf0 f   utils:FileUtil.obj
 0001:00024c20       ?Join@path@@YAPEA_WPEB_W00@Z 0000000140025c20 f   utils:FileUtil.obj
 0001:00024c70       ?JoinTemp@path@@YAPEADPEBD00@Z 0000000140025c70 f   utils:FileUtil.obj
 0001:00024d40       ?JoinTemp@path@@YAPEA_WPEB_W00@Z 0000000140025d40 f   utils:FileUtil.obj
 0001:00024e10       ?IsDirectory@path@@YA_NPEBD@Z 0000000140025e10 f   utils:FileUtil.obj
 0001:00024e80       ?NormalizeTemp@path@@YAPEADPEBD@Z 0000000140025e80 f   utils:FileUtil.obj
 0001:00024ee0       ?ShortPathTemp@path@@YAPEADPEBD@Z 0000000140025ee0 f   utils:FileUtil.obj
 0001:00024f90       ?IsSame@path@@YA_NPEBD0@Z  0000000140025f90 f   utils:FileUtil.obj
 0001:00025200       ?HasVariableDriveLetter@path@@YA_NPEBD@Z 0000000140026200 f   utils:FileUtil.obj
 0001:000252b0       ?IsOnFixedDrive@path@@YA_NPEBD@Z 00000001400262b0 f   utils:FileUtil.obj
 0001:00025370       ?IsAbsolute@path@@YA_NPEBD@Z 0000000140026370 f   utils:FileUtil.obj
 0001:000253c0       ?Match@path@@YA_NPEBD0@Z   00000001400263c0 f   utils:FileUtil.obj
 0001:00025440       ?GetType@path@@YA?AW4Type@1@PEBD@Z 0000000140026440 f   utils:FileUtil.obj
 0001:000254c0       ?GetTempFilePathTemp@@YAPEADPEBD@Z 00000001400264c0 f   utils:FileUtil.obj
 0001:000255c0       ?GetPathInExeDirTemp@@YAPEADPEBD@Z 00000001400265c0 f   utils:FileUtil.obj
 0001:00025610       ?Exists@file@@YA_NPEBD@Z   0000000140026610 f   utils:FileUtil.obj
 0001:000256a0       ?OpenFILE@file@@YAPEAU_iobuf@@PEBD@Z 00000001400266a0 f   utils:FileUtil.obj
 0001:00025710       ?OpenReadOnly@file@@YAPEAXPEBD@Z 0000000140026710 f   utils:FileUtil.obj
 0001:00025770       ?ReadFileWithAllocator@file@@YA?AUByteSlice@@PEBDPEAUAllocator@@@Z 0000000140026770 f   utils:FileUtil.obj
 0001:00025a20       ?ReadFile@file@@YA?AUByteSlice@@PEBD@Z 0000000140026a20 f   utils:FileUtil.obj
 0001:00025a50       ?ReadN@file@@YAHPEBDPEAD_K@Z 0000000140026a50 f   utils:FileUtil.obj
 0001:00025b30       ?WriteFile@file@@YA_NPEBDAEBUByteSlice@@@Z 0000000140026b30 f   utils:FileUtil.obj
 0001:00025ca0       ?GetSize@file@@YA_JPEBD@Z  0000000140026ca0 f   utils:FileUtil.obj
 0001:00025da0       ?Delete@file@@YA_NPEBD@Z   0000000140026da0 f   utils:FileUtil.obj
 0001:00025e30       ?DeleteFileToTrash@file@@YA_NPEBD@Z 0000000140026e30 f   utils:FileUtil.obj
 0001:00025f20       ?GetModificationTime@file@@YA?AU_FILETIME@@PEBD@Z 0000000140026f20 f   utils:FileUtil.obj
 0001:00025fb0       ?SetModificationTime@file@@YA_NPEBDU_FILETIME@@@Z 0000000140026fb0 f   utils:FileUtil.obj
 0001:000260a0       ?GetAttributes@file@@YAKPEBD@Z 00000001400270a0 f   utils:FileUtil.obj
 0001:000260e0       ?SetAttributes@file@@YA_NPEBDK@Z 00000001400270e0 f   utils:FileUtil.obj
 0001:00026140       ?StartsWithN@file@@YA_NPEBD0_K@Z 0000000140027140 f   utils:FileUtil.obj
 0001:000261b0       ?StartsWith@file@@YA_NPEBD0@Z 00000001400271b0 f   utils:FileUtil.obj
 0001:000261f0       ?GetZoneIdentifier@file@@YAHPEBD@Z 00000001400271f0 f   utils:FileUtil.obj
 0001:00026260       ?SetZoneIdentifier@file@@YA_NPEBDH@Z 0000000140027260 f   utils:FileUtil.obj
 0001:00026310       ?DeleteZoneIdentifier@file@@YA_NPEBD@Z 0000000140027310 f   utils:FileUtil.obj
 0001:00026350       ?Copy@file@@YA_NPEBD0_N@Z  0000000140027350 f   utils:FileUtil.obj
 0001:000263d0       ?Exists@dir@@YA_NPEB_W@Z   00000001400273d0 f   utils:FileUtil.obj
 0001:00026450       ?Exists@dir@@YA_NPEBD@Z    0000000140027450 f   utils:FileUtil.obj
 0001:000264f0       ?Create@dir@@YA_NPEBD@Z    00000001400274f0 f   utils:FileUtil.obj
 0001:00026560       ?CreateForFile@dir@@YA_NPEBD@Z 0000000140027560 f   utils:FileUtil.obj
 0001:00026590       ?CreateAll@dir@@YA_NPEBD@Z 0000000140027590 f   utils:FileUtil.obj
 0001:000265f0       ?RemoveAll@dir@@YA_NPEBD@Z 00000001400275f0 f   utils:FileUtil.obj
 0001:000266e0       ?FileTimeEq@@YA_NAEBU_FILETIME@@0@Z 00000001400276e0 f   utils:FileUtil.obj
 0001:00027790       ??$AllocArrayTemp@D@@YAPEAD_K@Z 0000000140028790 f i utils:FileUtil.obj
 0001:000277c0       ??$AllocArrayTemp@_W@@YAPEA_W_K@Z 00000001400287c0 f i utils:FileUtil.obj
 0001:00027800       ??$addOverflows@_K@@YA_N_K0@Z 0000000140028800 f i utils:FileUtil.obj
 0001:00027890       ??0AutoCloseHandle@@QEAA@PEAX@Z 0000000140028890 f i utils:FileUtil.obj
 0001:000278c0       ??0ByteSlice@@QEAA@XZ      00000001400288c0 f i utils:FileUtil.obj
 0001:000278f0       ??1AutoCloseHandle@@QEAA@XZ 00000001400288f0 f i utils:FileUtil.obj
 0001:00027930       ??BAutoCloseHandle@@QEBAPEAXXZ 0000000140028930 f i utils:FileUtil.obj
 0001:00027950       ?IsValid@AutoCloseHandle@@QEBA_NXZ 0000000140028950 f i utils:FileUtil.obj
 0001:000279a0       ?Format@fmt@@YAPEADPEBDAEBUArg@1@11111@Z 00000001400289a0 f   utils:StrFormat.obj
 0001:00027bd0       ?FormatTemp@fmt@@YAPEADPEBDUArg@1@@Z 0000000140028bd0 f   utils:StrFormat.obj
 0001:00027c40       ?FormatTemp@fmt@@YAPEADPEBDUArg@1@1@Z 0000000140028c40 f   utils:StrFormat.obj
 0001:00027cc0       ?FormatTemp@fmt@@YAPEADPEBDUArg@1@11@Z 0000000140028cc0 f   utils:StrFormat.obj
 0001:00027d40       ?Eval@Fmt@fmt@@QEAA_NPEAPEBUArg@2@H@Z 0000000140028d40 f   utils:StrFormat.obj
 0001:00028ba0       ?FormatTemp@fmt@@YAPEADPEBDPEAPEBUArg@1@H@Z 0000000140029ba0 f   utils:StrFormat.obj
 0001:00028d10       ?FormatTemp@fmt@@YAPEADPEBDAEBUArg@1@11111@Z 0000000140029d10 f   utils:StrFormat.obj
 0001:00029360       ??$__builtin_array_init_helper@UInst@fmt@@@@YAXPEAUInst@fmt@@_K@Z 000000014002a360 f i utils:StrFormat.obj
 0001:00029450       ??0Fmt@fmt@@QEAA@XZ        000000014002a450 f i utils:StrFormat.obj
 0001:00029540       ??1Fmt@fmt@@QEAA@XZ        000000014002a540 f i utils:StrFormat.obj
 0001:00029570       ?Utf8ToWStr@strconv@@YAPEA_WPEBD_KPEAUAllocator@@@Z 000000014002a570 f   utils:StrconvUtil.obj
 0001:00029680       ?WStrToUtf8@strconv@@YAPEADPEB_W_KPEAUAllocator@@@Z 000000014002a680 f   utils:StrconvUtil.obj
 0001:000296c0       ?WStrToCodePage@strconv@@YAPEADIPEB_W_KPEAUAllocator@@@Z 000000014002a6c0 f   utils:StrconvUtil.obj
 0001:00029860       ?ToMultiByteTemp@strconv@@YAPEADPEBDII@Z 000000014002a860 f   utils:StrconvUtil.obj
 0001:00029960       ?StrCPToWStr@strconv@@YAPEA_WPEBDIH@Z 000000014002a960 f   utils:StrconvUtil.obj
 0001:00029a40       ?StrCPToWStrTemp@strconv@@YAPEA_WPEBDIH@Z 000000014002aa40 f   utils:StrconvUtil.obj
 0001:00029b20       ?StrToUtf8Temp@strconv@@YAPEADPEBDI@Z 000000014002ab20 f   utils:StrconvUtil.obj
 0001:00029b50       ?UnknownToUtf8Temp@strconv@@YAPEADPEBD@Z 000000014002ab50 f   utils:StrconvUtil.obj
 0001:00029d80       ?WStrToAnsi@strconv@@YAPEADPEB_W@Z 000000014002ad80 f   utils:StrconvUtil.obj
 0001:00029db0       ?Utf8ToAnsi@strconv@@YAPEADPEBD@Z 000000014002adb0 f   utils:StrconvUtil.obj
 0001:00029df0       ?AnsiToWStrTemp@strconv@@YAPEA_WPEBD_K@Z 000000014002adf0 f   utils:StrconvUtil.obj
 0001:00029e20       ?AnsiToUtf8@strconv@@YAPEADPEBD_K@Z 000000014002ae20 f   utils:StrconvUtil.obj
 0001:00029e70       ?ToUtf8@@YAPEADPEB_W_K@Z   000000014002ae70 f   utils:StrconvUtil.obj
 0001:00029ea0       ?ToWStr@@YAPEA_WPEBD_K@Z   000000014002aea0 f   utils:StrconvUtil.obj
 0001:0002a120       ??$AllocArray@_W@@YAPEA_W_K@Z 000000014002b120 f i utils:StrconvUtil.obj
 0001:0002a150       ??$AllocArray@_W@Allocator@@SAPEA_WPEAU0@_K@Z 000000014002b150 f i utils:StrconvUtil.obj
 0001:0002a190       ??$swap@D$0A@@std@@YAXAEAD0@Z 000000014002b190 f i utils:StrconvUtil.obj
 0001:0002a1e0       ?ToBool@@YA_NH@Z           000000014002b1e0 f   utils:WinUtil.obj
 0001:0002a210       ?NextSubclassId@@YA_KXZ    000000014002b210 f   utils:WinUtil.obj
 0001:0002a240       ?ClientRECT@@YA?AUtagRECT@@PEAUHWND__@@@Z 000000014002b240 f   utils:WinUtil.obj
 0001:0002a270       ?ClientRect@@YA?AURect@@PEAUHWND__@@@Z 000000014002b270 f   utils:WinUtil.obj
 0001:0002a300       ?WindowRect@@YA?AURect@@PEAUHWND__@@@Z 000000014002b300 f   utils:WinUtil.obj
 0001:0002a390       ?MapRectToWindow@@YA?AURect@@U1@PEAUHWND__@@1@Z 000000014002b390 f   utils:WinUtil.obj
 0001:0002a430       ?EditSelectAll@@YAXPEAUHWND__@@@Z 000000014002b430 f   utils:WinUtil.obj
 0001:0002a460       ?EditIdealDy@@YAHPEAUHWND__@@_NH@Z 000000014002b460 f   utils:WinUtil.obj
 0001:0002a590       ?EditImplementCtrlBack@@YAXPEAUHWND__@@@Z 000000014002b590 f   utils:WinUtil.obj
 0001:0002a730       ?ListBox_AppendString_NoSort@@YAXPEAUHWND__@@PEB_W@Z 000000014002b730 f   utils:WinUtil.obj
 0001:0002a770       ?ListBoxGetTopIndex@@YAHPEAUHWND__@@@Z 000000014002b770 f   utils:WinUtil.obj
 0001:0002a7b0       ?ListBoxSetTopIndex@@YA_NPEAUHWND__@@H@Z 000000014002b7b0 f   utils:WinUtil.obj
 0001:0002a810       ?IsValidHandle@@YA_NPEAX@Z 000000014002b810 f   utils:WinUtil.obj
 0001:0002a850       ?SafeCloseHandle@@YA_NPEAPEAX@Z 000000014002b850 f   utils:WinUtil.obj
 0001:0002a8c0       ?FillWndClassEx@@YAXAEAUtagWNDCLASSEXW@@PEB_WP6A_JPEAUHWND__@@I_K_J@Z@Z 000000014002b8c0 f   utils:WinUtil.obj
 0001:0002a950       ?MoveWindow@@YAXPEAUHWND__@@URect@@@Z 000000014002b950 f   utils:WinUtil.obj
 0001:0002a9b0       ?MoveWindow@@YAXPEAUHWND__@@PEAUtagRECT@@@Z 000000014002b9b0 f   utils:WinUtil.obj
 0001:0002aa30       ?IsOs64@@YA_NXZ            000000014002ba30 f   utils:WinUtil.obj
 0001:0002aa70       ?IsProcess64@@YA_NXZ       000000014002ba70 f   utils:WinUtil.obj
 0001:0002aa80       ?IsProcess32@@YA_NXZ       000000014002ba80 f   utils:WinUtil.obj
 0001:0002aa90       ?IsArmBuild@@YA_NXZ        000000014002ba90 f   utils:WinUtil.obj
 0001:0002aaa0       ?IsRunningInWow64@@YA_NXZ  000000014002baa0 f   utils:WinUtil.obj
 0001:0002ab20       ?IsProcessAndOsArchSame@@YA_NXZ 000000014002bb20 f   utils:WinUtil.obj
 0001:0002ab70       ?GetOsVersion@@YA_NAEAU_OSVERSIONINFOEXW@@@Z 000000014002bb70 f   utils:WinUtil.obj
 0001:0002abd0       ?OsNameFromVerTemp@@YAPEADAEBU_OSVERSIONINFOEXW@@@Z 000000014002bbd0 f   utils:WinUtil.obj
 0001:0002ad90       ?GetWindowsVerTemp@@YAPEADXZ 000000014002bd90 f   utils:WinUtil.obj
 0001:0002ae20       ?GetEnvVariableTemp@@YAPEADPEBD@Z 000000014002be20 f   utils:WinUtil.obj
 0001:0002af40       ?GetLastErrorStrTemp@@YAPEADK@Z 000000014002bf40 f   utils:WinUtil.obj
 0001:0002b0e0       ?LogLastError@@YAXK@Z      000000014002c0e0 f   utils:WinUtil.obj
 0001:0002b140       ?DbgOutLastError@@YAXK@Z   000000014002c140 f   utils:WinUtil.obj
 0001:0002b170       ?RegKeyNameTemp@@YAPEBDPEAUHKEY__@@@Z 000000014002c170 f   utils:WinUtil.obj
 0001:0002b1c0       ?RegKeyNameWTemp@@YAPEBDPEAUHKEY__@@@Z 000000014002c1c0 f   utils:WinUtil.obj
 0001:0002b200       ?RegKeyExists@@YA_NPEAUHKEY__@@PEBD@Z 000000014002c200 f   utils:WinUtil.obj
 0001:0002b280       ?ReadRegStrTemp@@YAPEADPEAUHKEY__@@PEBD1@Z 000000014002c280 f   utils:WinUtil.obj
 0001:0002b420       ?LoggedReadRegStrTemp@@YAPEADPEAUHKEY__@@PEBD1@Z 000000014002c420 f   utils:WinUtil.obj
 0001:0002b490       ?ReadRegStr2Temp@@YAPEADPEBD0@Z 000000014002c490 f   utils:WinUtil.obj
 0001:0002b4f0       ?LoggedReadRegStr2Temp@@YAPEADPEBD0@Z 000000014002c4f0 f   utils:WinUtil.obj
 0001:0002b550       ?WriteRegStr@@YA_NPEAUHKEY__@@PEBD11@Z 000000014002c550 f   utils:WinUtil.obj
 0001:0002b620       ?LoggedWriteRegStr@@YA_NPEAUHKEY__@@PEBD11@Z 000000014002c620 f   utils:WinUtil.obj
 0001:0002b750       ?ReadRegDWORD@@YA_NPEAUHKEY__@@PEBD1AEAK@Z 000000014002c750 f   utils:WinUtil.obj
 0001:0002b800       ?WriteRegDWORD@@YA_NPEAUHKEY__@@PEBD1K@Z 000000014002c800 f   utils:WinUtil.obj
 0001:0002b8a0       ?LoggedWriteRegDWORD@@YA_NPEAUHKEY__@@PEBD1K@Z 000000014002c8a0 f   utils:WinUtil.obj
 0001:0002b9d0       ?LoggedWriteRegNone@@YA_NPEAUHKEY__@@PEBD1@Z 000000014002c9d0 f   utils:WinUtil.obj
 0001:0002ba90       ?CreateRegKey@@YA_NPEAUHKEY__@@PEBD@Z 000000014002ca90 f   utils:WinUtil.obj
 0001:0002bb30       ?DeleteRegKey@@YA_NPEAUHKEY__@@PEBD_N@Z 000000014002cb30 f   utils:WinUtil.obj
 0001:0002bbc0       ?LoggedDeleteRegKey@@YA_NPEAUHKEY__@@PEBD_N@Z 000000014002cbc0 f   utils:WinUtil.obj
 0001:0002bca0       ?DeleteRegValue@@YA_NPEAUHKEY__@@PEBD1@Z 000000014002cca0 f   utils:WinUtil.obj
 0001:0002bd30       ?LoggedDeleteRegValue@@YA_NPEAUHKEY__@@PEBD1@Z 000000014002cd30 f   utils:WinUtil.obj
 0001:0002be00       ?CLSIDFromString@@YAJPEBDPEAU_GUID@@@Z 000000014002ce00 f   utils:WinUtil.obj
 0001:0002be40       ?GetSpecialFolderTemp@@YAPEADH_N@Z 000000014002ce40 f   utils:WinUtil.obj
 0001:0002bef0       ?GetTempDirTemp@@YAPEADXZ  000000014002cef0 f   utils:WinUtil.obj
 0001:0002bfa0       ?GetSelfExePathTemp@@YAPEADXZ 000000014002cfa0 f   utils:WinUtil.obj
 0001:0002c0b0       ?GetSelfExeDirTemp@@YAPEADXZ 000000014002d0b0 f   utils:WinUtil.obj
 0001:0002c0e0       ?ChangeCurrDirToDocuments@@YAXXZ 000000014002d0e0 f   utils:WinUtil.obj
 0001:0002c130       ?FileTimeDiffInSecs@@YAHAEBU_FILETIME@@0@Z 000000014002d130 f   utils:WinUtil.obj
 0001:0002c1a0       ?ResolveLnkTemp@@YAPEADPEBD@Z 000000014002d1a0 f   utils:WinUtil.obj
 0001:0002c4f0       ?CreateShortcut@@YA_NPEBD000H@Z 000000014002d4f0 f   utils:WinUtil.obj
 0001:0002c840       ?GetDataObjectForFile@@YAPEAUIDataObject@@PEBDPEAUHWND__@@@Z 000000014002d840 f   utils:WinUtil.obj
 0001:0002cab0       ?LaunchProcessWithCmdLine@@YAPEAXPEBD0@Z 000000014002dab0 f   utils:WinUtil.obj
 0001:0002cbd0       ?LaunchProcessInDir@@YAPEAXPEBD0K@Z 000000014002dbd0 f   utils:WinUtil.obj
 0001:0002ccd0       ?CreateProcessHelper@@YA_NPEBD0@Z 000000014002dcd0 f   utils:WinUtil.obj
 0001:0002cd70       ?LaunchFileShell@@YA_NPEBD00_N@Z 000000014002dd70 f   utils:WinUtil.obj
 0001:0002cea0       ?LaunchBrowser@@YA_NPEBD@Z 000000014002dea0 f   utils:WinUtil.obj
 0001:0002ced0       ?OpenPathInExplorer@@YAXPEBD@Z 000000014002ded0 f   utils:WinUtil.obj
 0001:0002cf20       ?RunNonElevated@@YAXPEBD@Z 000000014002df20 f   utils:WinUtil.obj
 0001:0002d090       ?LaunchElevated@@YA_NPEBD0@Z 000000014002e090 f   utils:WinUtil.obj
 0001:0002d0d0       ?IsProcessRunningElevated@@YA_NXZ 000000014002e0d0 f   utils:WinUtil.obj
 0001:0002d1d0       ?CanTalkToProcess@@YA_NK@Z 000000014002e1d0 f   utils:WinUtil.obj
 0001:0002d220       ?GetAccountType@@YAKXZ     000000014002e220 f   utils:WinUtil.obj
 0001:0002d240       ?GetOriginalAccountType@@YAKXZ 000000014002e240 f   utils:WinUtil.obj
 0001:0002d260       ?DisableDataExecution@@YAXXZ 000000014002e260 f   utils:WinUtil.obj
 0001:0002d2e0       ?RedirectIOToConsole@@YA_NXZ 000000014002e2e0 f   utils:WinUtil.obj
 0001:0002d3d0       ?RedirectIOToExistingConsole@@YA_NXZ 000000014002e3d0 f   utils:WinUtil.obj
 0001:0002d420       ?HandleRedirectedConsoleOnShutdown@@YAXXZ 000000014002e420 f   utils:WinUtil.obj
 0001:0002d470       ?IsKeyPressed@@YA_NH@Z     000000014002e470 f   utils:WinUtil.obj
 0001:0002d4d0       ?IsShiftPressed@@YA_NXZ    000000014002e4d0 f   utils:WinUtil.obj
 0001:0002d4f0       ?IsAltPressed@@YA_NXZ      000000014002e4f0 f   utils:WinUtil.obj
 0001:0002d510       ?IsCtrlPressed@@YA_NXZ     000000014002e510 f   utils:WinUtil.obj
 0001:0002d530       ?ShiftRectToWorkArea@@YA?AURect@@U1@PEAUHWND__@@_N@Z 000000014002e530 f   utils:WinUtil.obj
 0001:0002d710       ?GetWorkAreaRect@@YA?AURect@@U1@PEAUHWND__@@@Z 000000014002e710 f   utils:WinUtil.obj
 0001:0002d820       ?LimitWindowSizeToScreen@@YAXPEAUHWND__@@AEAUtagSIZE@@@Z 000000014002e820 f   utils:WinUtil.obj
 0001:0002d920       ?GetFullscreenRect@@YA?AURect@@PEAUHWND__@@@Z 000000014002e920 f   utils:WinUtil.obj
 0001:0002da00       ?GetVirtualScreenRect@@YA?AURect@@XZ 000000014002ea00 f   utils:WinUtil.obj
 0001:0002da70       ?DrawRect@@YAXPEAUHDC__@@AEBURect@@@Z 000000014002ea70 f   utils:WinUtil.obj
 0001:0002db50       ?FillRect@@YAXPEAUHDC__@@AEBURect@@PEAUHBRUSH__@@@Z 000000014002eb50 f   utils:WinUtil.obj
 0001:0002dbd0       ?FillRect@@YAXPEAUHDC__@@AEBURect@@K@Z 000000014002ebd0 f   utils:WinUtil.obj
 0001:0002dc80       ?DrawLine@@YAXPEAUHDC__@@AEBURect@@@Z 000000014002ec80 f   utils:WinUtil.obj
 0001:0002dcf0       ?DrawCenteredText@@YAXPEAUHDC__@@URect@@PEBD_N@Z 000000014002ecf0 f   utils:WinUtil.obj
 0001:0002ddf0       ?HwndMeasureText@@YA?AUSize@@PEAUHWND__@@PEBDPEAUHFONT__@@@Z 000000014002edf0 f   utils:WinUtil.obj
 0001:0002de80       ?FontDyPx@@YAHPEAUHWND__@@PEAUHFONT__@@@Z 000000014002ee80 f   utils:WinUtil.obj
 0001:0002dec0       ?HdcDrawText@@YAHPEAUHDC__@@PEBDPEAUtagRECT@@IPEAUHFONT__@@@Z 000000014002eec0 f   utils:WinUtil.obj
 0001:0002df70       ?HdcDrawText@@YAHPEAUHDC__@@PEBDAEBURect@@IPEAUHFONT__@@@Z 000000014002ef70 f   utils:WinUtil.obj
 0001:0002e010       ?HdcDrawText@@YAHPEAUHDC__@@PEBDAEBUPoint@@IPEAUHFONT__@@@Z 000000014002f010 f   utils:WinUtil.obj
 0001:0002e0d0       ?HdcMeasureText@@YA?AUSize@@PEAUHDC__@@PEBDIPEAUHFONT__@@@Z 000000014002f0d0 f   utils:WinUtil.obj
 0001:0002e2d0       ?HdcMeasureText@@YA?AUSize@@PEAUHDC__@@PEBDPEAUHFONT__@@@Z 000000014002f2d0 f   utils:WinUtil.obj
 0001:0002e330       ?HwndSetFocus@@YAPEAUHWND__@@PEAU1@@Z 000000014002f330 f   utils:WinUtil.obj
 0001:0002e350       ?HwndIsFocused@@YA_NPEAUHWND__@@@Z 000000014002f350 f   utils:WinUtil.obj
 0001:0002e390       ?IsCursorOverWindow@@YA_NPEAUHWND__@@@Z 000000014002f390 f   utils:WinUtil.obj
 0001:0002e3f0       ?HwndGetParent@@YAPEAUHWND__@@PEAU1@@Z 000000014002f3f0 f   utils:WinUtil.obj
 0001:0002e410       ?HwndGetClassName@@YAPEADPEAUHWND__@@@Z 000000014002f410 f   utils:WinUtil.obj
 0001:0002e4c0       ?HwndGetCursorPos@@YA?AUPoint@@PEAUHWND__@@@Z 000000014002f4c0 f   utils:WinUtil.obj
 0001:0002e560       ?MapWindowPoints@@YAHPEAUHWND__@@0PEAUPoint@@H@Z 000000014002f560 f   utils:WinUtil.obj
 0001:0002e6c0       ?HwndScreenToClient@@YAXPEAUHWND__@@AEAUPoint@@@Z 000000014002f6c0 f   utils:WinUtil.obj
 0001:0002e720       ?HwndMakeVisible@@YAXPEAUHWND__@@@Z 000000014002f720 f   utils:WinUtil.obj
 0001:0002e760       ?IsMouseOverRect@@YA_NPEAUHWND__@@AEBURect@@@Z 000000014002f760 f   utils:WinUtil.obj
 0001:0002e7a0       ?CenterDialog@@YAXPEAUHWND__@@0@Z 000000014002f7a0 f   utils:WinUtil.obj
 0001:0002e960       ?SetDlgItemFont@@YAXPEAUHWND__@@HPEAUHFONT__@@@Z 000000014002f960 f   utils:WinUtil.obj
 0001:0002e9b0       ?GetDefaultPrinterNameTemp@@YAPEADXZ 000000014002f9b0 f   utils:WinUtil.obj
 0001:0002ea30       ?CopyTextToClipboard@@YA_NPEBD@Z 000000014002fa30 f   utils:WinUtil.obj
 0001:0002ea50       ?AppendTextToClipboard@@YA_NPEBD@Z 000000014002fa50 f   utils:WinUtil.obj
 0001:0002ea70       ?CopyImageToClipboard@@YA_NPEAUHBITMAP__@@_N@Z 000000014002fa70 f   utils:WinUtil.obj
 0001:0002ead0       ?IsWindowStyleSet@@YA_NPEAUHWND__@@K@Z 000000014002fad0 f   utils:WinUtil.obj
 0001:0002eb10       ?IsWindowStyleExSet@@YA_NPEAUHWND__@@K@Z 000000014002fb10 f   utils:WinUtil.obj
 0001:0002eb80       ?SetWindowStyle@@YAXPEAUHWND__@@K_N@Z 000000014002fb80 f   utils:WinUtil.obj
 0001:0002ebc0       ?SetWindowExStyle@@YAXPEAUHWND__@@K_N@Z 000000014002fbc0 f   utils:WinUtil.obj
 0001:0002ec00       ?HwndIsRtl@@YA_NPEAUHWND__@@@Z 000000014002fc00 f   utils:WinUtil.obj
 0001:0002ec40       ?HwndSetRtl@@YAXPEAUHWND__@@_N@Z 000000014002fc40 f   utils:WinUtil.obj
 0001:0002ec70       ?ChildPosWithinParent@@YA?AURect@@PEAUHWND__@@@Z 000000014002fc70 f   utils:WinUtil.obj
 0001:0002ecf0       ?GetMenuFont@@YAPEAUHFONT__@@XZ 000000014002fcf0 f   utils:WinUtil.obj
 0001:0002ed90       ?CreateSimpleFont@@YAPEAUHFONT__@@PEAUHDC__@@PEBDH@Z 000000014002fd90 f   utils:WinUtil.obj
 0001:0002ef10       ?GetDefaultGuiFont@@YAPEAUHFONT__@@_N0@Z 000000014002ff10 f   utils:WinUtil.obj
 0001:0002f060       ?GetDefaultGuiFontOfSize@@YAPEAUHFONT__@@H@Z 0000000140030060 f   utils:WinUtil.obj
 0001:0002f140       ?GetUserGuiFont@@YAPEAUHFONT__@@PEBDH@Z 0000000140030140 f   utils:WinUtil.obj
 0001:0002f2c0       ?GetSizeOfDefaultGuiFont@@YAHXZ 00000001400302c0 f   utils:WinUtil.obj
 0001:0002f340       ?DeleteCreatedFonts@@YAXXZ 0000000140030340 f   utils:WinUtil.obj
 0001:0002f3e0       ?CreateStreamFromData@@YAPEAUIStream@@AEBUByteSlice@@@Z 00000001400303e0 f   utils:WinUtil.obj
 0001:0002f580       ?GetDataFromStream@@YA?AUByteSlice@@PEAUIStream@@PEAJ@Z 0000000140030580 f   utils:WinUtil.obj
 0001:0002f630       ?GetStreamOrFileData@@YA?AUByteSlice@@PEAUIStream@@PEBD@Z 0000000140030630 f   utils:WinUtil.obj
 0001:0002f6b0       ?ReadDataFromStream@@YA_NPEAUIStream@@PEAX_K2@Z 00000001400306b0 f   utils:WinUtil.obj
 0001:0002f800       ?GuessTextCodepage@@YAIPEBD_KI@Z 0000000140030800 f   utils:WinUtil.obj
 0001:0002f990       ?NormalizeString@@YAPEADPEBDH@Z 0000000140030990 f   utils:WinUtil.obj
 0001:0002fac0       ?ResizeHwndToClientArea@@YAXPEAUHWND__@@HH_N@Z 0000000140030ac0 f   utils:WinUtil.obj
 0001:0002fc20       ?ResizeWindow@@YAXPEAUHWND__@@HH@Z 0000000140030c20 f   utils:WinUtil.obj
 0001:0002fcd0       ?MessageBoxWarningSimple@@YAXPEAUHWND__@@PEB_W1@Z 0000000140030cd0 f   utils:WinUtil.obj
 0001:0002fd30       ?MessageBoxNYI@@YAXPEAUHWND__@@@Z 0000000140030d30 f   utils:WinUtil.obj
 0001:0002fd60       ?RegisterServerDLL@@YA_NPEBD0@Z 0000000140030d60 f   utils:WinUtil.obj
 0001:0002fd90       ?UnRegisterServerDLL@@YA_NPEBD0@Z 0000000140030d90 f   utils:WinUtil.obj
 0001:0002fdd0       ?RegisterOrUnregisterServerDLL@@YA_NPEBD_N0@Z 0000000140030dd0 f   utils:WinUtil.obj
 0001:00030030       ?MenuSetChecked@@YAXPEAUHMENU__@@H_N@Z 0000000140031030 f   utils:WinUtil.obj
 0001:000300b0       ?MenuSetEnabled@@YA_NPEAUHMENU__@@H_N@Z 00000001400310b0 f   utils:WinUtil.obj
 0001:00030150       ?MenuRemove@@YAXPEAUHMENU__@@H@Z 0000000140031150 f   utils:WinUtil.obj
 0001:000301a0       ?MenuEmpty@@YAXPEAUHMENU__@@@Z 00000001400311a0 f   utils:WinUtil.obj
 0001:000301d0       ?MenuSetText@@YAXPEAUHMENU__@@HPEB_W@Z 00000001400311d0 f   utils:WinUtil.obj
 0001:00030320       ?MenuSetText@@YAXPEAUHMENU__@@HPEBD@Z 0000000140031320 f   utils:WinUtil.obj
 0001:00030370       ?MenuToSafeStringTemp@@YAPEADPEBD@Z 0000000140031370 f   utils:WinUtil.obj
 0001:000303b0       ??0DoubleBuffer@@QEAA@PEAUHWND__@@URect@@@Z 00000001400313b0 f   utils:WinUtil.obj
 0001:00030580       ??1DoubleBuffer@@QEAA@XZ   0000000140031580 f   utils:WinUtil.obj
 0001:000305d0       ?GetDC@DoubleBuffer@@QEBAPEAUHDC__@@XZ 00000001400315d0 f   utils:WinUtil.obj
 0001:00030600       ?Flush@DoubleBuffer@@QEBAXPEAUHDC__@@@Z 0000000140031600 f   utils:WinUtil.obj
 0001:000306b0       ??0DeferWinPosHelper@@QEAA@XZ 00000001400316b0 f   utils:WinUtil.obj
 0001:000306e0       ??1DeferWinPosHelper@@QEAA@XZ 00000001400316e0 f   utils:WinUtil.obj
 0001:00030700       ?End@DeferWinPosHelper@@QEAAXXZ 0000000140031700 f   utils:WinUtil.obj
 0001:00030740       ?SetWindowPos@DeferWinPosHelper@@QEAAXPEAUHWND__@@URect@@@Z 0000000140031740 f   utils:WinUtil.obj
 0001:000307c0       ?SetWindowPos@DeferWinPosHelper@@QEAAXPEAUHWND__@@0HHHHI@Z 00000001400317c0 f   utils:WinUtil.obj
 0001:00030830       ?MoveWindow@DeferWinPosHelper@@QEAAXPEAUHWND__@@HHHHH@Z 0000000140031830 f   utils:WinUtil.obj
 0001:000308b0       ?MoveWindow@DeferWinPosHelper@@QEAAXPEAUHWND__@@URect@@@Z 00000001400318b0 f   utils:WinUtil.obj
 0001:00030910       ?GetSize@BlittableBitmap@@QEAA?AUSize@@XZ 0000000140031910 f   utils:WinUtil.obj
 0001:00030940       ??0RenderedBitmap@@QEAA@PEAUHBITMAP__@@USize@@PEAX@Z 0000000140031940 f   utils:WinUtil.obj
 0001:000309d0       ??1RenderedBitmap@@UEAA@XZ 00000001400319d0 f   utils:WinUtil.obj
 0001:00030a50       ?Clone@RenderedBitmap@@QEBAPEAU1@XZ 0000000140031a50 f   utils:WinUtil.obj
 0001:00030ae0       ?GetBitmap@RenderedBitmap@@QEBAPEAUHBITMAP__@@XZ 0000000140031ae0 f   utils:WinUtil.obj
 0001:00030b00       ?IsValid@RenderedBitmap@@UEAA_NXZ 0000000140031b00 f   utils:WinUtil.obj
 0001:00030b40       ?Blit@RenderedBitmap@@UEAA_NPEAUHDC__@@URect@@@Z 0000000140031b40 f   utils:WinUtil.obj
 0001:00030b90       ?InitAllCommonControls@@YAXXZ 0000000140031b90 f   utils:WinUtil.obj
 0001:00030bd0       ?GetBitmapSize@@YA?AUSize@@PEAUHBITMAP__@@@Z 0000000140031bd0 f   utils:WinUtil.obj
 0001:00030c20       ?GetBitmapPixels@@YAPEAUBitmapPixels@@PEAUHBITMAP__@@@Z 0000000140031c20 f   utils:WinUtil.obj
 0001:00030f60       ?FinalizeBitmapPixels@@YAXPEAUBitmapPixels@@@Z 0000000140031f60 f   utils:WinUtil.obj
 0001:00030ff0       ?GetPixel@@YAKPEAUBitmapPixels@@HH@Z 0000000140031ff0 f   utils:WinUtil.obj
 0001:00031190       ?UpdateBitmapColors@@YAXPEAUHBITMAP__@@KK@Z 0000000140032190 f   utils:WinUtil.obj
 0001:000319b0       ?SerializeBitmap@@YA?AUByteSlice@@PEAUHBITMAP__@@@Z 00000001400329b0 f   utils:WinUtil.obj
 0001:00031b70       ?CreateMemoryBitmap@@YAPEAUHBITMAP__@@USize@@PEAPEAX@Z 0000000140032b70 f   utils:WinUtil.obj
 0001:00031cc0       ?BlitHBITMAP@@YA_NPEAUHBITMAP__@@PEAUHDC__@@URect@@@Z 0000000140032cc0 f   utils:WinUtil.obj
 0001:00031e80       ?GetProcessRunningTime@@YANXZ 0000000140032e80 f   utils:WinUtil.obj
 0001:00031f80       ?VariantInitBstr@@YAXAEAUtagVARIANT@@PEB_W@Z 0000000140032f80 f   utils:WinUtil.obj
 0001:00031fd0       ?LoadDataResource@@YA?AUStrSpan@@H@Z 0000000140032fd0 f   utils:WinUtil.obj
 0001:00032160       ?DDEExecute@@YA_NPEB_W00@Z 0000000140033160 f   utils:WinUtil.obj
 0001:00032380       ?RectInflateTB@@YAXAEAUtagRECT@@HH@Z 0000000140033380 f   utils:WinUtil.obj
 0001:000323c0       ?DivideRectH@@YAXAEBUtagRECT@@HHAEAU1@11@Z 00000001400333c0 f   utils:WinUtil.obj
 0001:00032460       ?DivideRectV@@YAXAEBUtagRECT@@HHAEAU1@11@Z 0000000140033460 f   utils:WinUtil.obj
 0001:000324f0       ?GetCachedCursor@@YAPEAUHICON__@@PEA_W@Z 00000001400334f0 f   utils:WinUtil.obj
 0001:000325c0       ?SetCursorCached@@YAXPEA_W@Z 00000001400335c0 f   utils:WinUtil.obj
 0001:00032620       ?DeleteCachedCursors@@YAXXZ 0000000140033620 f   utils:WinUtil.obj
 0001:00032690       ?GetMeasurementSystem@@YAHXZ 0000000140033690 f   utils:WinUtil.obj
 0001:000326f0       ?TrackMouseLeave@@YA_NPEAUHWND__@@@Z 00000001400336f0 f   utils:WinUtil.obj
 0001:00032770       ?LockDataResource@@YA_NHPEAULoadedDataResource@@@Z 0000000140033770 f   utils:WinUtil.obj
 0001:00032860       ?GetInstance@@YAPEAUHINSTANCE__@@XZ 0000000140033860 f   utils:WinUtil.obj
 0001:00032870       ?ButtonGetIdealSize@@YA?AUSize@@PEAUHWND__@@@Z 0000000140033870 f   utils:WinUtil.obj
 0001:00032920       ?IsValidDelayType@@YA_NH@Z 0000000140033920 f   utils:WinUtil.obj
 0001:00032960       ?HwndResizeClientSize@@YAXPEAUHWND__@@HH@Z 0000000140033960 f   utils:WinUtil.obj
 0001:00032ae0       ?HwndGetTextLen@@YA_KPEAUHWND__@@@Z 0000000140033ae0 f   utils:WinUtil.obj
 0001:00032b10       ?HwndGetTextWTemp@@YAPEA_WPEAUHWND__@@@Z 0000000140033b10 f   utils:WinUtil.obj
 0001:00032b80       ?HwndGetTextTemp@@YAPEADPEAUHWND__@@@Z 0000000140033b80 f   utils:WinUtil.obj
 0001:00032c00       ?HwndSetText@@YAXPEAUHWND__@@PEBD@Z 0000000140033c00 f   utils:WinUtil.obj
 0001:00032c80       ?HwndHasFrameThickness@@YA_NPEAUHWND__@@@Z 0000000140033c80 f   utils:WinUtil.obj
 0001:00032cb0       ?HwndHasCaption@@YA_NPEAUHWND__@@@Z 0000000140033cb0 f   utils:WinUtil.obj
 0001:00032ce0       ?HwndSetDlgItemText@@YAXPEAUHWND__@@HPEBD@Z 0000000140033ce0 f   utils:WinUtil.obj
 0001:00032d30       ?CbAddString@@YAXPEAUHWND__@@PEBD@Z 0000000140033d30 f   utils:WinUtil.obj
 0001:00032d80       ?CbSetCurrentSelection@@YAXPEAUHWND__@@H@Z 0000000140033d80 f   utils:WinUtil.obj
 0001:00032dc0       ?HwndGetIcon@@YAPEAUHICON__@@PEAUHWND__@@@Z 0000000140033dc0 f   utils:WinUtil.obj
 0001:00032e00       ?HwndSetIcon@@YAPEAUHICON__@@PEAUHWND__@@PEAU1@@Z 0000000140033e00 f   utils:WinUtil.obj
 0001:00032e60       ?HwndRepaintNow@@YAXPEAUHWND__@@@Z 0000000140033e60 f   utils:WinUtil.obj
 0001:00032eb0       ?HwndScheduleRepaint@@YAXPEAUHWND__@@@Z 0000000140033eb0 f   utils:WinUtil.obj
 0001:00032ef0       ?HwndGetFont@@YAPEAUHFONT__@@PEAUHWND__@@@Z 0000000140033ef0 f   utils:WinUtil.obj
 0001:00032f30       ?HwndSetFont@@YAXPEAUHWND__@@PEAUHFONT__@@@Z 0000000140033f30 f   utils:WinUtil.obj
 0001:00032f80       ?HwndPositionToTheRightOf@@YAXPEAUHWND__@@0@Z 0000000140033f80 f   utils:WinUtil.obj
 0001:00033080       ?HwndPositionInCenterOf@@YAXPEAUHWND__@@0@Z 0000000140034080 f   utils:WinUtil.obj
 0001:000331c0       ?HwndSendCommand@@YAXPEAUHWND__@@H@Z 00000001400341c0 f   utils:WinUtil.obj
 0001:00033200       ?HwndDestroyWindowSafe@@YAXPEAPEAUHWND__@@@Z 0000000140034200 f   utils:WinUtil.obj
 0001:00033260       ?HwndToForeground@@YAXPEAUHWND__@@@Z 0000000140034260 f   utils:WinUtil.obj
 0001:000332a0       ?HwndSetVisibility@@YAXPEAUHWND__@@_N@Z 00000001400342a0 f   utils:WinUtil.obj
 0001:000332f0       ?DeleteObjectSafe@@YA_NPEAPEAX@Z 00000001400342f0 f   utils:WinUtil.obj
 0001:00033350       ?DeleteBrushSafe@@YA_NPEAPEAUHBRUSH__@@@Z 0000000140034350 f   utils:WinUtil.obj
 0001:00033370       ?DestroyIconSafe@@YA_NPEAPEAUHICON__@@@Z 0000000140034370 f   utils:WinUtil.obj
 0001:000333d0       ?TbSetButtonInfo@@YAXPEAUHWND__@@HPEAUTBBUTTONINFOW@@@Z 00000001400343d0 f   utils:WinUtil.obj
 0001:00033440       ?TbGetPadding@@YAXPEAUHWND__@@PEAH1@Z 0000000140034440 f   utils:WinUtil.obj
 0001:000334b0       ?TbSetPadding@@YAXPEAUHWND__@@HH@Z 00000001400344b0 f   utils:WinUtil.obj
 0001:00033540       ?TbGetMetrics@@YAXPEAUHWND__@@PEAUTBMETRICS@@@Z 0000000140034540 f   utils:WinUtil.obj
 0001:00033580       ?TbSetMetrics@@YAXPEAUHWND__@@PEAUTBMETRICS@@@Z 0000000140034580 f   utils:WinUtil.obj
 0001:000335c0       ?TbGetRect@@YAXPEAUHWND__@@HPEAUtagRECT@@@Z 00000001400345c0 f   utils:WinUtil.obj
 0001:00033630       ?TreeViewExpandRecursively@@YAXPEAUHWND__@@PEAU_TREEITEM@@I_N@Z 0000000140034630 f   utils:WinUtil.obj
 0001:000336f0       ?AddPathToRecentDocs@@YAXPEBD@Z 00000001400346f0 f   utils:WinUtil.obj
 0001:00033730       ?HGLOBALToStrTemp@@YAPEADPEAX_N@Z 0000000140034730 f   utils:WinUtil.obj
 0001:000337b0       ?MemToHGLOBAL@@YAPEAXPEAXHI@Z 00000001400347b0 f   utils:WinUtil.obj
 0001:00033830       ?StrToHGLOBAL@@YAPEAXPEBDI@Z 0000000140034830 f   utils:WinUtil.obj
 0001:00033870       ?AtomToStrTemp@@YAPEADG@Z  0000000140034870 f   utils:WinUtil.obj
 0001:000338f0       ?MsgBox@@YAHPEAUHWND__@@PEBD1I@Z 00000001400348f0 f   utils:WinUtil.obj
 0001:00033960       ?CpuID@@YAIXZ              0000000140034960 f   utils:WinUtil.obj
 0001:00033d50       ?TimeNow@@YA?AT_LARGE_INTEGER@@XZ 0000000140034d50 f   utils:WinUtil.obj
 0001:00033d70       ?TimeDiffSecs@@YANAEBT_LARGE_INTEGER@@0@Z 0000000140034d70 f   utils:WinUtil.obj
 0001:00033dd0       ?TimeDiffMs@@YANAEBT_LARGE_INTEGER@@0@Z 0000000140034dd0 f   utils:WinUtil.obj
 0001:00033e40       ?IsPEFileSigned@@YA_NPEBD@Z 0000000140034e40 f   utils:WinUtil.obj
 0001:00037c40       ??$AllocStruct@UBitmapPixels@@@@YAPEAUBitmapPixels@@XZ 0000000140038c40 f i utils:WinUtil.obj
 0001:00037c60       ??$IID_PPV_ARGS_Helper@UIMultiLanguage2@@@@YAPEAPEAXPEAPEAUIMultiLanguage2@@@Z 0000000140038c60 f i utils:WinUtil.obj
 0001:00037c70       ??$IID_PPV_ARGS_Helper@UIShellLinkW@@@@YAPEAPEAXPEAPEAUIShellLinkW@@@Z 0000000140038c70 f i utils:WinUtil.obj
 0001:00037c80       ??$IsMaskSet@J@bit@@YA_NJJ@Z 0000000140038c80 f i utils:WinUtil.obj
 0001:00037cd0       ??$IsMaskSet@K@bit@@YA_NKK@Z 0000000140038cd0 f i utils:WinUtil.obj
 0001:00037d20       ??$ListInsertFront@UCreatedFontInfo@@@@YAXPEAPEAUCreatedFontInfo@@PEAU0@@Z 0000000140038d20 f i utils:WinUtil.obj
 0001:00037d60       ??$ListLen@UCreatedFontInfo@@@@YAHPEAUCreatedFontInfo@@@Z 0000000140038d60 f i utils:WinUtil.obj
 0001:00037dc0       ??$QueryInterface@UIPersistFile@@@IUnknown@@QEAAJPEAPEAUIPersistFile@@@Z 0000000140038dc0 f i utils:WinUtil.obj
 0001:00037e10       ??$max@H@std@@YAAEBHAEBH0@Z 0000000140038e10 f i utils:WinUtil.obj
 0001:00037e70       ??0?$ScopedComPtr@UIMultiLanguage2@@@@QEAA@XZ 0000000140038e70 f i utils:WinUtil.obj
 0001:00037e90       ??0?$ScopedComPtr@UIShellFolder@@@@QEAA@XZ 0000000140038e90 f i utils:WinUtil.obj
 0001:00037eb0       ??0?$ScopedComPtr@UIShellLinkW@@@@QEAA@XZ 0000000140038eb0 f i utils:WinUtil.obj
 0001:00037ed0       ??0?$ScopedComPtr@UIStream@@@@QEAA@XZ 0000000140038ed0 f i utils:WinUtil.obj
 0001:00037ef0       ??0?$ScopedComQIPtr@UIPersistFile@@@@QEAA@PEAUIUnknown@@@Z 0000000140038ef0 f i utils:WinUtil.obj
 0001:00037f50       ??0?$ScopedGdiObj@PEAUHBITMAP__@@@@QEAA@PEAUHBITMAP__@@@Z 0000000140038f50 f i utils:WinUtil.obj
 0001:00037f80       ??0?$ScopedGdiObj@PEAUHBRUSH__@@@@QEAA@PEAUHBRUSH__@@@Z 0000000140038f80 f i utils:WinUtil.obj
 0001:00037fb0       ??0?$ScopedMem@E@@QEAA@PEAE@Z 0000000140038fb0 f i utils:WinUtil.obj
 0001:00037fe0       ??0?$ScopedMem@_W@@QEAA@PEA_W@Z 0000000140038fe0 f i utils:WinUtil.obj
 0001:00038010       ??0?$bitset@$0CA@@std@@QEAA@XZ 0000000140039010 f i utils:WinUtil.obj
 0001:00038040       ??0?$bitset@$0CA@@std@@QEAA@_K@Z 0000000140039040 f i utils:WinUtil.obj
 0001:000380a0       ??0AutoFreeWStr@@QEAA@PEA_W@Z 00000001400390a0 f i utils:WinUtil.obj
 0001:000380f0       ??0AutoReleaseDC@@QEAA@PEAUHWND__@@@Z 00000001400390f0 f i utils:WinUtil.obj
 0001:00038150       ??0BlittableBitmap@@QEAA@XZ 0000000140039150 f i utils:WinUtil.obj
 0001:000381b0       ??0CreatedFontInfo@@QEAA@XZ 00000001400391b0 f i utils:WinUtil.obj
 0001:00038220       ??0Point@@QEAA@XZ          0000000140039220 f i utils:WinUtil.obj
 0001:00038250       ??0ScopedCom@@QEAA@XZ      0000000140039250 f i utils:WinUtil.obj
 0001:00038280       ??0ScopedSelectFont@@QEAA@PEAUHDC__@@PEAUHFONT__@@@Z 0000000140039280 f i utils:WinUtil.obj
 0001:00038300       ??0Size@@QEAA@XZ           0000000140039300 f i utils:WinUtil.obj
 0001:00038330       ??0reference@?$bitset@$0CA@@std@@AEAA@AEAV12@_K@Z 0000000140039330 f i utils:WinUtil.obj
 0001:00038370       ??1?$ScopedComPtr@UIMultiLanguage2@@@@QEAA@XZ 0000000140039370 f i utils:WinUtil.obj
 0001:000383b0       ??1?$ScopedComPtr@UIShellFolder@@@@QEAA@XZ 00000001400393b0 f i utils:WinUtil.obj
 0001:000383f0       ??1?$ScopedComPtr@UIShellLinkW@@@@QEAA@XZ 00000001400393f0 f i utils:WinUtil.obj
 0001:00038430       ??1?$ScopedComPtr@UIStream@@@@QEAA@XZ 0000000140039430 f i utils:WinUtil.obj
 0001:00038470       ??1?$ScopedComQIPtr@UIPersistFile@@@@QEAA@XZ 0000000140039470 f i utils:WinUtil.obj
 0001:000384b0       ??1?$ScopedGdiObj@PEAUHBITMAP__@@@@QEAA@XZ 00000001400394b0 f i utils:WinUtil.obj
 0001:000384e0       ??1?$ScopedGdiObj@PEAUHBRUSH__@@@@QEAA@XZ 00000001400394e0 f i utils:WinUtil.obj
 0001:00038510       ??1?$ScopedMem@_W@@QEAA@XZ 0000000140039510 f i utils:WinUtil.obj
 0001:00038540       ??1AutoFreeWStr@@QEAA@XZ   0000000140039540 f i utils:WinUtil.obj
 0001:00038570       ??1AutoReleaseDC@@QEAA@XZ  0000000140039570 f i utils:WinUtil.obj
 0001:000385a0       ??1BlittableBitmap@@UEAA@XZ 00000001400395a0 f i utils:WinUtil.obj
 0001:000385c0       ??1ScopedCom@@QEAA@XZ      00000001400395c0 f i utils:WinUtil.obj
 0001:000385e0       ??1ScopedSelectFont@@QEAA@XZ 00000001400395e0 f i utils:WinUtil.obj
 0001:00038620       ??1reference@?$bitset@$0CA@@std@@QEAA@XZ 0000000140039620 f i utils:WinUtil.obj
 0001:00038630       ??A?$bitset@$0CA@@std@@QEAA?AVreference@01@_K@Z 0000000140039630 f i utils:WinUtil.obj
 0001:00038680       ??B?$ScopedComPtr@UIShellLinkW@@@@QEBAPEAUIShellLinkW@@XZ 0000000140039680 f i utils:WinUtil.obj
 0001:000386a0       ??B?$ScopedComPtr@UIStream@@@@QEBAPEAUIStream@@XZ 00000001400396a0 f i utils:WinUtil.obj
 0001:000386c0       ??B?$ScopedComQIPtr@UIPersistFile@@@@QEBAPEAUIPersistFile@@XZ 00000001400396c0 f i utils:WinUtil.obj
 0001:000386e0       ??B?$ScopedGdiObj@PEAUHBITMAP__@@@@QEBAPEAUHBITMAP__@@XZ 00000001400396e0 f i utils:WinUtil.obj
 0001:00038700       ??B?$ScopedGdiObj@PEAUHBRUSH__@@@@QEBAPEAUHBRUSH__@@XZ 0000000140039700 f i utils:WinUtil.obj
 0001:00038720       ??B?$ScopedMem@_W@@QEBAPEA_WXZ 0000000140039720 f i utils:WinUtil.obj
 0001:00038740       ??BAutoFreeWStr@@QEBAPEA_WXZ 0000000140039740 f i utils:WinUtil.obj
 0001:00038760       ??BAutoReleaseDC@@QEBAPEAUHDC__@@XZ 0000000140039760 f i utils:WinUtil.obj
 0001:00038780       ??Breference@?$bitset@$0CA@@std@@QEBA_NXZ 0000000140039780 f i utils:WinUtil.obj
 0001:000387c0       ??C?$ScopedComPtr@UIMultiLanguage2@@@@QEBAPEAUIMultiLanguage2@@XZ 00000001400397c0 f i utils:WinUtil.obj
 0001:000387e0       ??C?$ScopedComPtr@UIShellFolder@@@@QEBAPEAUIShellFolder@@XZ 00000001400397e0 f i utils:WinUtil.obj
 0001:00038800       ??C?$ScopedComPtr@UIShellLinkW@@@@QEBAPEAUIShellLinkW@@XZ 0000000140039800 f i utils:WinUtil.obj
 0001:00038820       ??C?$ScopedComPtr@UIStream@@@@QEBAPEAUIStream@@XZ 0000000140039820 f i utils:WinUtil.obj
 0001:00038840       ??C?$ScopedComQIPtr@UIPersistFile@@@@QEBAPEAUIPersistFile@@XZ 0000000140039840 f i utils:WinUtil.obj
 0001:00038860       ??I?$ScopedComPtr@UIShellFolder@@@@QEAAPEAPEAUIShellFolder@@XZ 0000000140039860 f i utils:WinUtil.obj
 0001:00038870       ??I?$ScopedComPtr@UIStream@@@@QEAAPEAPEAUIStream@@XZ 0000000140039870 f i utils:WinUtil.obj
 0001:00038880       ??_EBlittableBitmap@@UEAAPEAXI@Z 0000000140039880 f i utils:WinUtil.obj
 0001:00038880       ??_GBlittableBitmap@@UEAAPEAXI@Z 0000000140039880 f i utils:WinUtil.obj
 0001:000388d0       ??_ERenderedBitmap@@UEAAPEAXI@Z 00000001400398d0 f i utils:WinUtil.obj
 0001:000388d0       ??_GRenderedBitmap@@UEAAPEAXI@Z 00000001400398d0 f i utils:WinUtil.obj
 0001:00038920       ?Create@?$ScopedComPtr@UIMultiLanguage2@@@@QEAA_NU_GUID@@@Z 0000000140039920 f i utils:WinUtil.obj
 0001:00038a00       ?Create@?$ScopedComPtr@UIShellLinkW@@@@QEAA_NU_GUID@@@Z 0000000140039a00 f i utils:WinUtil.obj
 0001:00038ae0       ?Get@AutoFreeWStr@@QEBAPEA_WXZ 0000000140039ae0 f i utils:WinUtil.obj
 0001:00038b00       ?_Subscript@?$bitset@$0CA@@std@@AEBA_N_K@Z 0000000140039b00 f i utils:WinUtil.obj
 0001:00038ba0       ?_Validate@?$bitset@$0CA@@std@@CAX_K@Z 0000000140039ba0 f i utils:WinUtil.obj
 0001:00038bb0       ?abs@@YAJJ@Z               0000000140039bb0 f i utils:WinUtil.obj
 0001:00038bd0       ?mul255@@YAHHH@Z           0000000140039bd0 f i utils:WinUtil.obj
 0001:00038c20       ?tobool@@YA_NH@Z           0000000140039c20 f i utils:WinUtil.obj
 0001:00038e40       ?log@@YAXPEBD_N@Z          0000000140039e40 f   utils:Log.obj
 0001:000391a0       ?loga@@YAXPEBD@Z           000000014003a1a0 f   utils:Log.obj
 0001:000391d0       ?logf@@YAXPEBDZZ           000000014003a1d0 f   utils:Log.obj
 0001:00039260       ?logfa@@YAXPEBDZZ          000000014003a260 f   utils:Log.obj
 0001:000392d0       ?StartLogToFile@@YAXPEBD_N@Z 000000014003a2d0 f   utils:Log.obj
 0001:00039340       ?WriteCurrentLogToFile@@YA_NPEBD@Z 000000014003a340 f   utils:Log.obj
 0001:000393e0       ?DestroyLogging@@YAXXZ     000000014003a3e0 f   utils:Log.obj
 0001:00039700       ??0AutoFree@@QEAA@PEBD@Z   000000014003a700 f i utils:Log.obj
 0001:00039740       ??0HeapAllocator@@QEAA@_K@Z 000000014003a740 f i utils:Log.obj
 0001:000397a0       ??0Mutex@@QEAA@XZ          000000014003a7a0 f i utils:Log.obj
 0001:000397d0       ??1HeapAllocator@@UEAA@XZ  000000014003a7d0 f i utils:Log.obj
 0001:00039820       ??1Mutex@@QEAA@XZ          000000014003a820 f i utils:Log.obj
 0001:00039850       ??_EHeapAllocator@@UEAAPEAXI@Z 000000014003a850 f i utils:Log.obj
 0001:00039850       ??_GHeapAllocator@@UEAAPEAXI@Z 000000014003a850 f i utils:Log.obj
 0001:000398a0       ??_GStr@str@@QEAAPEAXI@Z   000000014003a8a0 f i utils:Log.obj
 0001:000398f0       ?Alloc@HeapAllocator@@UEAAPEAX_K@Z 000000014003a8f0 f i utils:Log.obj
 0001:00039930       ?Free@HeapAllocator@@UEAAXPEBX@Z 000000014003a930 f i utils:Log.obj
 0001:00039970       ?Lock@Mutex@@QEAAXXZ       000000014003a970 f i utils:Log.obj
 0001:000399a0       ?Realloc@HeapAllocator@@UEAAPEAXPEAX_K@Z 000000014003a9a0 f i utils:Log.obj
 0001:000399e0       ?Unlock@Mutex@@QEAAXXZ     000000014003a9e0 f i utils:Log.obj
 0001:00039a10       ??0Point@@QEAA@HH@Z        000000014003aa10 f   utils:GeomUtil.obj
 0001:00039a50       ?IsEmpty@Point@@QEBA_NXZ   000000014003aa50 f   utils:GeomUtil.obj
 0001:00039a90       ?Eq@Point@@QEBA_NHH@Z      000000014003aa90 f   utils:GeomUtil.obj
 0001:00039ae0       ??8Point@@QEBA_NAEBU0@@Z   000000014003aae0 f   utils:GeomUtil.obj
 0001:00039b30       ??9Point@@QEBA_NAEBU0@@Z   000000014003ab30 f   utils:GeomUtil.obj
 0001:00039b80       ??0PointF@@QEAA@MM@Z       000000014003ab80 f   utils:GeomUtil.obj
 0001:00039bc0       ?IsEmpty@PointF@@QEBA_NXZ  000000014003abc0 f   utils:GeomUtil.obj
 0001:00039c20       ??8PointF@@QEBA_NAEBU0@@Z  000000014003ac20 f   utils:GeomUtil.obj
 0001:00039c80       ??9PointF@@QEBA_NAEBU0@@Z  000000014003ac80 f   utils:GeomUtil.obj
 0001:00039cd0       ??0Size@@QEAA@HH@Z         000000014003acd0 f   utils:GeomUtil.obj
 0001:00039d10       ?IsEmpty@Size@@QEBA_NXZ    000000014003ad10 f   utils:GeomUtil.obj
 0001:00039d50       ?Equals@Size@@QEBA_NAEBU1@@Z 000000014003ad50 f   utils:GeomUtil.obj
 0001:00039da0       ??8Size@@QEBA_NAEBU0@@Z    000000014003ada0 f   utils:GeomUtil.obj
 0001:00039df0       ??9Size@@QEBA_NAEBU0@@Z    000000014003adf0 f   utils:GeomUtil.obj
 0001:00039e40       ??0SizeF@@QEAA@MM@Z        000000014003ae40 f   utils:GeomUtil.obj
 0001:00039e80       ?IsEmpty@SizeF@@QEBA_NXZ   000000014003ae80 f   utils:GeomUtil.obj
 0001:00039ee0       ??8SizeF@@QEBA_NAEBU0@@Z   000000014003aee0 f   utils:GeomUtil.obj
 0001:00039f40       ??9SizeF@@QEBA_NAEBU0@@Z   000000014003af40 f   utils:GeomUtil.obj
 0001:00039f90       ??0Rect@@QEAA@UtagRECT@@@Z 000000014003af90 f   utils:GeomUtil.obj
 0001:0003a030       ??0Rect@@QEAA@VRectF@Gdiplus@@@Z 000000014003b030 f   utils:GeomUtil.obj
 0001:0003a0c0       ??0Rect@@QEAA@HHHH@Z       000000014003b0c0 f   utils:GeomUtil.obj
 0001:0003a110       ??0Rect@@QEAA@UPoint@@0@Z  000000014003b110 f   utils:GeomUtil.obj
 0001:0003a170       ?EqSize@Rect@@QEBA_NHH@Z   000000014003b170 f   utils:GeomUtil.obj
 0001:0003a1c0       ?Right@Rect@@QEBAHXZ       000000014003b1c0 f   utils:GeomUtil.obj
 0001:0003a1e0       ?Bottom@Rect@@QEBAHXZ      000000014003b1e0 f   utils:GeomUtil.obj
 0001:0003a200       ?FromXY@Rect@@SA?AU1@HHHH@Z 000000014003b200 f   utils:GeomUtil.obj
 0001:0003a290       ?FromXY@Rect@@SA?AU1@UPoint@@0@Z 000000014003b290 f   utils:GeomUtil.obj
 0001:0003a2e0       ?IsZero@Rect@@QEBA_NXZ     000000014003b2e0 f   utils:GeomUtil.obj
 0001:0003a340       ?IsEmpty@Rect@@QEBA_NXZ    000000014003b340 f   utils:GeomUtil.obj
 0001:0003a380       ?Contains@Rect@@QEBA_NHH@Z 000000014003b380 f   utils:GeomUtil.obj
 0001:0003a3f0       ?Contains@Rect@@QEBA_NUPoint@@@Z 000000014003b3f0 f   utils:GeomUtil.obj
 0001:0003a420       ?Intersect@Rect@@QEBA?AU1@U1@@Z 000000014003b420 f   utils:GeomUtil.obj
 0001:0003a550       ?Union@Rect@@QEBA?AU1@U1@@Z 000000014003b550 f   utils:GeomUtil.obj
 0001:0003a6d0       ?Offset@Rect@@QEAAXHH@Z    000000014003b6d0 f   utils:GeomUtil.obj
 0001:0003a710       ?Inflate@Rect@@QEAAXHH@Z   000000014003b710 f   utils:GeomUtil.obj
 0001:0003a780       ?SubTB@Rect@@QEAAXHH@Z     000000014003b780 f   utils:GeomUtil.obj
 0001:0003a7e0       ?SubLR@Rect@@QEAAXHH@Z     000000014003b7e0 f   utils:GeomUtil.obj
 0001:0003a840       ?TL@Rect@@QEBA?AUPoint@@XZ 000000014003b840 f   utils:GeomUtil.obj
 0001:0003a880       ?BR@Rect@@QEBA?AUPoint@@XZ 000000014003b880 f   utils:GeomUtil.obj
 0001:0003a8d0       ?Size@Rect@@QEBA?AU0@XZ    000000014003b8d0 f   utils:GeomUtil.obj
 0001:0003a910       ?SetSize@Rect@@QEAAXAEBUSize@@@Z 000000014003b910 f   utils:GeomUtil.obj
 0001:0003a940       ?SetPos@Rect@@QEAAXAEBUPoint@@@Z 000000014003b940 f   utils:GeomUtil.obj
 0001:0003a970       ?Equals@Rect@@QEBA_NAEBU1@@Z 000000014003b970 f   utils:GeomUtil.obj
 0001:0003a9f0       ??8Rect@@QEBA_NAEBU0@@Z    000000014003b9f0 f   utils:GeomUtil.obj
 0001:0003aa70       ??9Rect@@QEBA_NAEBU0@@Z    000000014003ba70 f   utils:GeomUtil.obj
 0001:0003aac0       ??0RectF@@QEAA@UtagRECT@@@Z 000000014003bac0 f   utils:GeomUtil.obj
 0001:0003ab70       ??0RectF@@QEAA@V0Gdiplus@@@Z 000000014003bb70 f   utils:GeomUtil.obj
 0001:0003ac10       ??0RectF@@QEAA@MMMM@Z      000000014003bc10 f   utils:GeomUtil.obj
 0001:0003ac80       ??0RectF@@QEAA@UPointF@@USizeF@@@Z 000000014003bc80 f   utils:GeomUtil.obj
 0001:0003ace0       ??0RectF@@QEAA@UPointF@@0@Z 000000014003bce0 f   utils:GeomUtil.obj
 0001:0003ad50       ?EqSize@RectF@@QEBA_NMM@Z  000000014003bd50 f   utils:GeomUtil.obj
 0001:0003adb0       ?Right@RectF@@QEBAMXZ      000000014003bdb0 f   utils:GeomUtil.obj
 0001:0003add0       ?Bottom@RectF@@QEBAMXZ     000000014003bdd0 f   utils:GeomUtil.obj
 0001:0003adf0       ?FromXY@RectF@@SA?AU1@MMMM@Z 000000014003bdf0 f   utils:GeomUtil.obj
 0001:0003ae90       ?FromXY@RectF@@SA?AU1@UPointF@@0@Z 000000014003be90 f   utils:GeomUtil.obj
 0001:0003aee0       ?Round@RectF@@QEBA?AURect@@XZ 000000014003bee0 f   utils:GeomUtil.obj
 0001:0003afc0       ?IsEmpty@RectF@@QEBA_NXZ   000000014003bfc0 f   utils:GeomUtil.obj
 0001:0003b020       ?Contains@RectF@@QEBA_NUPointF@@@Z 000000014003c020 f   utils:GeomUtil.obj
 0001:0003b0b0       ?Intersect@RectF@@QEBA?AU1@U1@@Z 000000014003c0b0 f   utils:GeomUtil.obj
 0001:0003b220       ?Union@RectF@@QEAA?AU1@U1@@Z 000000014003c220 f   utils:GeomUtil.obj
 0001:0003b3e0       ?Offset@RectF@@QEAAXMM@Z   000000014003c3e0 f   utils:GeomUtil.obj
 0001:0003b430       ?Inflate@RectF@@QEAAXMM@Z  000000014003c430 f   utils:GeomUtil.obj
 0001:0003b4d0       ?TL@RectF@@QEBA?AUPointF@@XZ 000000014003c4d0 f   utils:GeomUtil.obj
 0001:0003b510       ?BR@RectF@@QEBA?AUPointF@@XZ 000000014003c510 f   utils:GeomUtil.obj
 0001:0003b570       ?Size@RectF@@QEBA?AUSizeF@@XZ 000000014003c570 f   utils:GeomUtil.obj
 0001:0003b5b0       ??8RectF@@QEBA_NAEBU0@@Z   000000014003c5b0 f   utils:GeomUtil.obj
 0001:0003b640       ??9RectF@@QEBA_NAEBU0@@Z   000000014003c640 f   utils:GeomUtil.obj
 0001:0003b690       ?RectDx@@YAHAEBUtagRECT@@@Z 000000014003c690 f   utils:GeomUtil.obj
 0001:0003b6b0       ?RectDy@@YAHAEBUtagRECT@@@Z 000000014003c6b0 f   utils:GeomUtil.obj
 0001:0003b6d0       ?ToPointFl@@YA?AUPointF@@UPoint@@@Z 000000014003c6d0 f   utils:GeomUtil.obj
 0001:0003b710       ?ToGdipPoint@@YA?AVPoint@Gdiplus@@U1@@Z 000000014003c710 f   utils:GeomUtil.obj
 0001:0003b750       ?ToPoint@@YA?AUPoint@@UPointF@@@Z 000000014003c750 f   utils:GeomUtil.obj
 0001:0003b790       ?ToGdipPointF@@YA?AVPointF@Gdiplus@@U1@@Z 000000014003c790 f   utils:GeomUtil.obj
 0001:0003b7d0       ?ToPOINT@@YA?AUtagPOINT@@AEBUPoint@@@Z 000000014003c7d0 f   utils:GeomUtil.obj
 0001:0003b800       ?ToSIZE@@YA?AUtagSIZE@@USize@@@Z 000000014003c800 f   utils:GeomUtil.obj
 0001:0003b830       ?ToSizeFl@@YA?AUSizeF@@USize@@@Z 000000014003c830 f   utils:GeomUtil.obj
 0001:0003b870       ?ToSize@@YA?AUSize@@USizeF@@@Z 000000014003c870 f   utils:GeomUtil.obj
 0001:0003b8e0       ?ToRectF@@YA?AURectF@@AEBURect@@@Z 000000014003c8e0 f   utils:GeomUtil.obj
 0001:0003b940       ?ToRECT@@YA?AUtagRECT@@AEBURect@@@Z 000000014003c940 f   utils:GeomUtil.obj
 0001:0003b9b0       ?ToRECT@@YA?AUtagRECT@@AEBURectF@@@Z 000000014003c9b0 f   utils:GeomUtil.obj
 0001:0003ba30       ?ToRect@@YA?AURect@@AEBURectF@@@Z 000000014003ca30 f   utils:GeomUtil.obj
 0001:0003baf0       ?ToRect@@YA?AURect@@AEBUtagRECT@@@Z 000000014003caf0 f   utils:GeomUtil.obj
 0001:0003bb70       ?ToGdipRect@@YA?AVRect@Gdiplus@@AEBU1@@Z 000000014003cb70 f   utils:GeomUtil.obj
 0001:0003bbc0       ?ToGdipRectF@@YA?AVRectF@Gdiplus@@AEBURect@@@Z 000000014003cbc0 f   utils:GeomUtil.obj
 0001:0003bc30       ?ToGdipRect@@YA?AVRect@Gdiplus@@AEBURectF@@@Z 000000014003cc30 f   utils:GeomUtil.obj
 0001:0003bc80       ?ToGdipRectF@@YA?AVRectF@Gdiplus@@AEBU1@@Z 000000014003cc80 f   utils:GeomUtil.obj
 0001:0003bce0       ?NormalizeRotation@@YAHH@Z 000000014003cce0 f   utils:GeomUtil.obj
 0001:0003c630       ??$max@M@std@@YAAEBMAEBM0@Z 000000014003d630 f i utils:GeomUtil.obj
 0001:0003c690       ??$min@M@std@@YAAEBMAEBM0@Z 000000014003d690 f i utils:GeomUtil.obj
 0001:0003c6f0       ??0Point@Gdiplus@@QEAA@HH@Z 000000014003d6f0 f i utils:GeomUtil.obj
 0001:0003c730       ??0PointF@Gdiplus@@QEAA@MM@Z 000000014003d730 f i utils:GeomUtil.obj
 0001:0003c780       ??0Rect@@QEAA@XZ           000000014003d780 f i utils:GeomUtil.obj
 0001:0003c7d0       ??0Rect@Gdiplus@@QEAA@HHHH@Z 000000014003d7d0 f i utils:GeomUtil.obj
 0001:0003c830       ??0RectF@@QEAA@XZ          000000014003d830 f i utils:GeomUtil.obj
 0001:0003c880       ??0RectF@Gdiplus@@QEAA@MMMM@Z 000000014003d880 f i utils:GeomUtil.obj
 0001:0003c900       ?MkGray@@YAKE@Z            000000014003d900 f   utils:ColorUtil.obj
 0001:0003c930       ?MkColor@@YAKEEEE@Z        000000014003d930 f   utils:ColorUtil.obj
 0001:0003c990       ?UnpackColor@@YAXKAEAE00@Z 000000014003d990 f   utils:ColorUtil.obj
 0001:0003c9f0       ?UnpackColor@@YAXKAEAE000@Z 000000014003d9f0 f   utils:ColorUtil.obj
 0001:0003ca70       ?IsSpecialColor@@YA_NK@Z   000000014003da70 f   utils:ColorUtil.obj
 0001:0003cab0       ?ParseColor@@YAXAEAUParsedColor@@PEBD@Z 000000014003dab0 f   utils:ColorUtil.obj
 0001:0003ccf0       ?ParseColor@@YA_NPEAKPEBD@Z 000000014003dcf0 f   utils:ColorUtil.obj
 0001:0003cd60       ?ParseColor@@YAKPEBDK@Z    000000014003dd60 f   utils:ColorUtil.obj
 0001:0003cda0       ?SerializeColorTemp@@YAPEADK@Z 000000014003dda0 f   utils:ColorUtil.obj
 0001:0003ce50       ?MkPdfColor@@YA_KEEEE@Z    000000014003de50 f   utils:ColorUtil.obj
 0001:0003cec0       ?UnpackPdfColor@@YAX_KAEAE111@Z 000000014003dec0 f   utils:ColorUtil.obj
 0001:0003cf50       ?SerializePdfColor@@YAX_KAEAUStr@str@@@Z 000000014003df50 f   utils:ColorUtil.obj
 0001:0003cfc0       ?AdjustLightness@@YAKKM@Z  000000014003dfc0 f   utils:ColorUtil.obj
 0001:0003d380       ?AdjustLightness2@@YAKKM@Z 000000014003e380 f   utils:ColorUtil.obj
 0001:0003d460       ?GetLightness@@YAMK@Z      000000014003e460 f   utils:ColorUtil.obj
 0001:0003d4f0       ?IsLightColor@@YA_NK@Z     000000014003e4f0 f   utils:ColorUtil.obj
 0001:0003d5a0       ?Unblend@@YA?AVColor@Gdiplus@@KE@Z 000000014003e5a0 f   utils:ColorUtil.obj
 0001:0003d750       ?GdiRgbFromCOLORREF@@YA?AVColor@Gdiplus@@K@Z 000000014003e750 f   utils:ColorUtil.obj
 0001:0003d7a0       ?GdiRgbaFromCOLORREF@@YA?AVColor@Gdiplus@@K@Z 000000014003e7a0 f   utils:ColorUtil.obj
 0001:0003d7d0       ?GetRed@@YAEK@Z            000000014003e7d0 f   utils:ColorUtil.obj
 0001:0003d7f0       ?GetGreen@@YAEK@Z          000000014003e7f0 f   utils:ColorUtil.obj
 0001:0003d810       ?GetBlue@@YAEK@Z           000000014003e810 f   utils:ColorUtil.obj
 0001:0003d830       ?GetAlpha@@YAEK@Z          000000014003e830 f   utils:ColorUtil.obj
 0001:0003dc20       ??$max@E@std@@YAAEBEAEBE0@Z 000000014003ec20 f i utils:ColorUtil.obj
 0001:0003dc80       ??$min@E@std@@YAAEBEAEBE0@Z 000000014003ec80 f i utils:ColorUtil.obj
 0001:0003dce0       ??0Color@Gdiplus@@QEAA@EEE@Z 000000014003ece0 f i utils:ColorUtil.obj
 0001:0003dd30       ??0Color@Gdiplus@@QEAA@EEEE@Z 000000014003ed30 f i utils:ColorUtil.obj
 0001:0003dd90       ??0Color@Gdiplus@@QEAA@K@Z 000000014003ed90 f i utils:ColorUtil.obj
 0001:0003ddb0       ??0ParsedColor@@QEAA@XZ    000000014003edb0 f i utils:ColorUtil.obj
 0001:0003de00       ?MakeARGB@Color@Gdiplus@@SAKEEEE@Z 000000014003ee00 f i utils:ColorUtil.obj
 0001:0003de50       ?DpiGetForHwnd@@YAHPEAUHWND__@@@Z 000000014003ee50 f   utils:Dpi.obj
 0001:0003df20       ?DpiGet@@YAHPEAUHWND__@@@Z 000000014003ef20 f   utils:Dpi.obj
 0001:0003df60       ?DpiScale@@YAHPEAUHWND__@@H@Z 000000014003ef60 f   utils:Dpi.obj
 0001:0003dfb0       ?DpiScale@@YAXPEAUHWND__@@AEAH1@Z 000000014003efb0 f   utils:Dpi.obj
 0001:0003e030       ?DpiScale@@YAHPEAUHDC__@@H@Z 000000014003f030 f   utils:Dpi.obj
 0001:0003e100       ??0ScopedGetDC@@QEAA@PEAUHWND__@@@Z 000000014003f100 f i utils:Dpi.obj
 0001:0003e170       ??1ScopedGetDC@@QEAA@XZ    000000014003f170 f i utils:Dpi.obj
 0001:0003e1a0       ??BScopedGetDC@@QEBAPEAUHDC__@@XZ 000000014003f1a0 f i utils:Dpi.obj
 0001:0003e1c0       ?InitDynCalls@@YAXXZ       000000014003f1c0 f   utils:WinDynCalls.obj
 0001:0003e730       ?IsAppThemed@theme@@YA_NXZ 000000014003f730 f   utils:WinDynCalls.obj
 0001:0003e770       ?OpenThemeData@theme@@YAPEAXPEAUHWND__@@PEB_W@Z 000000014003f770 f   utils:WinDynCalls.obj
 0001:0003e7c0       ?CloseThemeData@theme@@YAJPEAX@Z 000000014003f7c0 f   utils:WinDynCalls.obj
 0001:0003e800       ?DrawThemeBackground@theme@@YAJPEAXPEAUHDC__@@HHPEBUtagRECT@@2@Z 000000014003f800 f   utils:WinDynCalls.obj
 0001:0003e870       ?IsThemeActive@theme@@YAHXZ 000000014003f870 f   utils:WinDynCalls.obj
 0001:0003e8a0       ?IsThemeBackgroundPartiallyTransparent@theme@@YAHPEAXHH@Z 000000014003f8a0 f   utils:WinDynCalls.obj
 0001:0003e8f0       ?GetThemeColor@theme@@YAJPEAXHHHPEAK@Z 000000014003f8f0 f   utils:WinDynCalls.obj
 0001:0003e950       ?IsCompositionEnabled@dwm@@YAHXZ 000000014003f950 f   utils:WinDynCalls.obj
 0001:0003e990       ?ExtendFrameIntoClientArea@dwm@@YAJPEAUHWND__@@PEBU_MARGINS@@@Z 000000014003f990 f   utils:WinDynCalls.obj
 0001:0003e9e0       ?DefaultWindowProc@dwm@@YAHPEAUHWND__@@I_K_JPEA_J@Z 000000014003f9e0 f   utils:WinDynCalls.obj
 0001:0003ea40       ?GetWindowAttribute@dwm@@YAJPEAUHWND__@@KPEAXK@Z 000000014003fa40 f   utils:WinDynCalls.obj
 0001:0003eaa0       ?SetWindowAttribute@dwm@@YAJPEAUHWND__@@KPEAXK@Z 000000014003faa0 f   utils:WinDynCalls.obj
 0001:0003eb00       ?SetCaptionColor@dwm@@YAJPEAUHWND__@@K@Z 000000014003fb00 f   utils:WinDynCalls.obj
 0001:0003eb40       ?SupportsGestures@touch@@YA_NXZ 000000014003fb40 f   utils:WinDynCalls.obj
 0001:0003eb80       ?GetGestureInfo@touch@@YAHPEAUHGESTUREINFO__@@PEAUtagGESTUREINFO@@@Z 000000014003fb80 f   utils:WinDynCalls.obj
 0001:0003ebd0       ?CloseGestureInfoHandle@touch@@YAHPEAUHGESTUREINFO__@@@Z 000000014003fbd0 f   utils:WinDynCalls.obj
 0001:0003ec10       ?SetGestureConfig@touch@@YAHPEAUHWND__@@KIPEAUtagGESTURECONFIG@@I@Z 000000014003fc10 f   utils:WinDynCalls.obj
 0001:0003ec70       ?NoDllHijacking@@YAXXZ     000000014003fc70 f   utils:WinDynCalls.obj
 0001:0003ecb0       ?PrioritizeSystemDirectoriesForDllLoad@@YAXXZ 000000014003fcb0 f   utils:WinDynCalls.obj
 0001:0003f0c8       __GSHandlerCheck           00000001400400c8 f   LIBCMT:gshandler.obj
 0001:0003f0ec       __GSHandlerCheckCommon     00000001400400ec f   LIBCMT:gshandler.obj
 0001:0003f170       __security_check_cookie    0000000140040170 f   LIBCMT:amdsecgs.obj
 0001:0003f4a8       ?configure_argv@__scrt_narrow_argv_policy@@SAHXZ 00000001400404a8 f i LIBCMT:exe_main.obj
 0001:0003f4c4       ?initialize_environment@__scrt_narrow_environment_policy@@SAHXZ 00000001400404c4 f i LIBCMT:exe_main.obj
 0001:0003f510       ?set_app_type@__scrt_main_policy@@SAXXZ 0000000140040510 f i LIBCMT:exe_main.obj
 0001:0003f51c       ?set_commode@__scrt_file_policy@@SAXXZ 000000014004051c f i LIBCMT:exe_main.obj
 0001:0003f53c       ?set_fmode@__scrt_file_policy@@SAXXZ 000000014004053c f i LIBCMT:exe_main.obj
 0001:0003f558       mainCRTStartup             0000000140040558 f   LIBCMT:exe_main.obj
 0001:0003f570       ??3@YAXPEAX_K@Z            0000000140040570 f   LIBCMT:delete_scalar_size.obj
 0001:0003f578       __raise_securityfailure    0000000140040578 f   LIBCMT:gs_report.obj
 0001:0003f5bc       __report_gsfailure         00000001400405bc f   LIBCMT:gs_report.obj
 0001:0003f6c4       __report_rangecheckfailure 00000001400406c4 f   LIBCMT:gs_report.obj
 0001:0003f6e0       __report_securityfailure   00000001400406e0 f   LIBCMT:gs_report.obj
 0001:0003f7a4       __report_securityfailureEx 00000001400407a4 f   LIBCMT:gs_report.obj
 0001:0003fa10       ??2@YAPEAX_K@Z             0000000140040a10 f   LIBCMT:new_scalar.obj
 0001:0003fa70       __chkstk                   0000000140040a70 f   LIBCMT:chkstk.obj
 0001:0003fa70       _alloca_probe              0000000140040a70 f   LIBCMT:chkstk.obj
 0001:0003fb70       NtCurrentTeb               0000000140040b70 f i LIBCMT:utility.obj
 0001:0003fb7c       __scrt_acquire_startup_lock 0000000140040b7c f   LIBCMT:utility.obj
 0001:0003fbc4       __scrt_dllmain_after_initialize_c 0000000140040bc4 f   LIBCMT:utility.obj
 0001:0003fc08       __scrt_dllmain_before_initialize_c 0000000140040c08 f   LIBCMT:utility.obj
 0001:0003fc24       __scrt_dllmain_crt_thread_attach 0000000140040c24 f   LIBCMT:utility.obj
 0001:0003fc58       __scrt_dllmain_crt_thread_detach 0000000140040c58 f   LIBCMT:utility.obj
 0001:0003fc74       __scrt_dllmain_exception_filter 0000000140040c74 f   LIBCMT:utility.obj
 0001:0003fcec       __scrt_dllmain_uninitialize_c 0000000140040cec f   LIBCMT:utility.obj
 0001:0003fd28       __scrt_dllmain_uninitialize_critical 0000000140040d28 f   LIBCMT:utility.obj
 0001:0003fd44       __scrt_initialize_crt      0000000140040d44 f   LIBCMT:utility.obj
 0001:0003fd8c       __scrt_initialize_onexit_tables 0000000140040d8c f   LIBCMT:utility.obj
 0001:0003fe3c       __scrt_is_nonwritable_in_current_image 0000000140040e3c f   LIBCMT:utility.obj
 0001:0003fefc       __scrt_release_startup_lock 0000000140040efc f   LIBCMT:utility.obj
 0001:0003ff2c       __scrt_uninitialize_crt    0000000140040f2c f   LIBCMT:utility.obj
 0001:0003ff60       _onexit                    0000000140040f60 f   LIBCMT:utility.obj
 0001:0003ffa8       at_quick_exit              0000000140040fa8 f   LIBCMT:utility.obj
 0001:0003ffcc       atexit                     0000000140040fcc f   LIBCMT:utility.obj
 0001:00040070       __security_init_cookie     0000000140041070 f   LIBCMT:gs_support.obj
 0001:00040148       _matherr                   0000000140041148 f   LIBCMT:matherr.obj
 0001:0004014c       _get_startup_argv_mode     000000014004114c f   LIBCMT:argv_mode.obj
 0001:00040154       _get_startup_commit_mode   0000000140041154 f   LIBCMT:commit_mode.obj
 0001:00040158       _get_startup_file_mode     0000000140041158 f   LIBCMT:file_mode.obj
 0001:00040160       _get_startup_new_mode      0000000140041160 f   LIBCMT:new_mode.obj
 0001:00040164       _get_startup_thread_locale_mode 0000000140041164 f   LIBCMT:thread_locale.obj
 0001:00040168       ?__scrt_initialize_type_info@@YAXXZ 0000000140041168 f   LIBCMT:tncleanup.obj
 0001:0004017c       ?__scrt_uninitialize_type_info@@YAXXZ 000000014004117c f   LIBCMT:tncleanup.obj
 0001:0004018c       _should_initialize_environment 000000014004118c f   LIBCMT:env_mode.obj
 0001:00040190       _initialize_invalid_parameter_handler 0000000140041190 f   LIBCMT:invalid_parameter_handler.obj
 0001:00040194       _initialize_denormal_control 0000000140041194 f   LIBCMT:denormal_control.obj
 0001:00040198       __scrt_initialize_default_local_stdio_options 0000000140041198 f   LIBCMT:default_local_stdio_options.obj
 0001:000401bc       __scrt_is_user_matherr_present 00000001400411bc f   LIBCMT:matherr_detection.obj
 0001:000401cc       __scrt_get_dyn_tls_init_callback 00000001400411cc f   LIBCMT:dyn_tls_init.obj
 0001:000401d8       __scrt_get_dyn_tls_dtor_callback 00000001400411d8 f   LIBCMT:dyn_tls_dtor.obj
 0001:000401e4       __crt_debugger_hook        00000001400411e4 f   LIBCMT:utility_desktop.obj
 0001:000401f0       __scrt_fastfail            00000001400411f0 f   LIBCMT:utility_desktop.obj
 0001:0004038c       __scrt_get_show_window_mode 000000014004138c f   LIBCMT:utility_desktop.obj
 0001:000403d4       __scrt_initialize_mta      00000001400413d4 f   LIBCMT:utility_desktop.obj
 0001:000403dc       __scrt_initialize_winrt    00000001400413dc f   LIBCMT:utility_desktop.obj
 0001:000403e0       __scrt_is_managed_app      00000001400413e0 f   LIBCMT:utility_desktop.obj
 0001:00040448       __scrt_set_unhandled_exception_filter 0000000140041448 f   LIBCMT:utility_desktop.obj
 0001:0004045c       __scrt_exe_initialize_mta  000000014004145c f   LIBCMT:utility_desktop.obj
 0001:0004045c       __scrt_stub_for_initialize_mta 000000014004145c f   LIBCMT:utility_desktop.obj
 0001:00040460       __scrt_unhandled_exception_filter 0000000140041460 f   LIBCMT:utility_desktop.obj
 0001:000404d4       _RTC_Initialize            00000001400414d4 f   LIBCMT:initsect.obj
 0001:00040520       _RTC_Terminate             0000000140041520 f   LIBCMT:initsect.obj
 0001:0004056c       _guard_check_icall_nop     000000014004156c f i LIBCMT:guard_support.obj
 0001:00040570       ReadNoFence64              0000000140041570 f i LIBCMT:guard_support.obj
 0001:00040574       ReadPointerNoFence         0000000140041574 f i LIBCMT:guard_support.obj
 0001:00040578       __castguard_check_failure_debugbreak 0000000140041578 f i LIBCMT:guard_support.obj
 0001:0004059c       __castguard_check_failure_fastfail 000000014004159c f i LIBCMT:guard_support.obj
 0001:000405c8       __castguard_check_failure_nop 00000001400415c8 f i LIBCMT:guard_support.obj
 0001:000405cc       __castguard_check_failure_os_handled 00000001400415cc f i LIBCMT:guard_support.obj
 0001:00040628       __castguard_check_failure_user_handled 0000000140041628 f i LIBCMT:guard_support.obj
 0001:000406b4       __castguard_set_user_handler 00000001400416b4 f i LIBCMT:guard_support.obj
 0001:000406c4       __castguard_slow_path_check_debugbreak 00000001400416c4 f i LIBCMT:guard_support.obj
 0001:00040708       __castguard_slow_path_check_fastfail 0000000140041708 f i LIBCMT:guard_support.obj
 0001:00040750       __castguard_slow_path_check_nop 0000000140041750 f i LIBCMT:guard_support.obj
 0001:00040754       __castguard_slow_path_check_os_handled 0000000140041754 f i LIBCMT:guard_support.obj
 0001:000407b4       __castguard_slow_path_check_user_handled 00000001400417b4 f i LIBCMT:guard_support.obj
 0001:00040838       _guard_icall_checks_enforced 0000000140041838 f i LIBCMT:guard_support.obj
 0001:00040854       _guard_rf_checks_enforced  0000000140041854 f i LIBCMT:guard_support.obj
 0001:00040858       ??3@YAXPEAX@Z              0000000140041858 f   LIBCMT:delete_scalar.obj
 0001:00040860       ??0bad_alloc@std@@AEAA@QEBD@Z 0000000140041860 f i LIBCMT:throw_bad_alloc.obj
 0001:0004087c       ??0bad_alloc@std@@QEAA@AEBV01@@Z 000000014004187c f i LIBCMT:throw_bad_alloc.obj
 0001:000408c8       ??0bad_alloc@std@@QEAA@XZ  00000001400418c8 f i LIBCMT:throw_bad_alloc.obj
 0001:000408f0       ??0bad_array_new_length@std@@QEAA@AEBV01@@Z 00000001400418f0 f i LIBCMT:throw_bad_alloc.obj
 0001:0004093c       ??0bad_array_new_length@std@@QEAA@XZ 000000014004193c f i LIBCMT:throw_bad_alloc.obj
 0001:00040964       ??0exception@std@@QEAA@AEBV01@@Z 0000000140041964 f i LIBCMT:throw_bad_alloc.obj
 0001:000409a4       ??0exception@std@@QEAA@QEBDH@Z 00000001400419a4 f i LIBCMT:throw_bad_alloc.obj
 0001:000409c0       ??1bad_alloc@std@@UEAA@XZ  00000001400419c0 f i LIBCMT:throw_bad_alloc.obj
 0001:000409d8       ??1bad_array_new_length@std@@UEAA@XZ 00000001400419d8 f i LIBCMT:throw_bad_alloc.obj
 0001:000409f0       ??1exception@std@@UEAA@XZ  00000001400419f0 f i LIBCMT:throw_bad_alloc.obj
 0001:00040a08       ??_Ebad_alloc@std@@UEAAPEAXI@Z 0000000140041a08 f i LIBCMT:throw_bad_alloc.obj
 0001:00040a08       ??_Gbad_alloc@std@@UEAAPEAXI@Z 0000000140041a08 f i LIBCMT:throw_bad_alloc.obj
 0001:00040a5c       ??_Ebad_array_new_length@std@@UEAAPEAXI@Z 0000000140041a5c f i LIBCMT:throw_bad_alloc.obj
 0001:00040a5c       ??_Gbad_array_new_length@std@@UEAAPEAXI@Z 0000000140041a5c f i LIBCMT:throw_bad_alloc.obj
 0001:00040ab0       ??_Eexception@std@@UEAAPEAXI@Z 0000000140041ab0 f i LIBCMT:throw_bad_alloc.obj
 0001:00040ab0       ??_Gexception@std@@UEAAPEAXI@Z 0000000140041ab0 f i LIBCMT:throw_bad_alloc.obj
 0001:00040b04       ?__scrt_throw_std_bad_alloc@@YAXXZ 0000000140041b04 f   LIBCMT:throw_bad_alloc.obj
 0001:00040b2c       ?__scrt_throw_std_bad_array_new_length@@YAXXZ 0000000140041b2c f   LIBCMT:throw_bad_alloc.obj
 0001:00040b54       ?what@exception@std@@UEBAPEBDXZ 0000000140041b54 f i LIBCMT:throw_bad_alloc.obj
 0001:00040b6c       __isa_available_init       0000000140041b6c f   LIBCMT:cpu_disp.obj
 0001:00040ee8       __scrt_is_ucrt_dll_in_use  0000000140041ee8 f   LIBCMT:ucrt_detection.obj
 0001:00040f00       ??1type_info@@UEAA@XZ      0000000140041f00 f   LIBCMT:std_type_info_static.obj
 0001:00040f10       ??_Etype_info@@UEAAPEAXI@Z 0000000140041f10 f i LIBCMT:std_type_info_static.obj
 0001:00040f10       ??_Gtype_info@@UEAAPEAXI@Z 0000000140041f10 f i LIBCMT:std_type_info_static.obj
 0001:00040f50       ??$__crt_interlocked_exchange_pointer@$$A6AXXZP6AXXZ@@YAP6AXXZPEDS6AXXZQ6AXXZ@Z 0000000140041f50 f i libvcruntime:purevirt.obj
 0001:00040f58       ??$__crt_interlocked_read_pointer@$$A6AXXZ@@YAP6AXXZPEDS6AXXZ@Z 0000000140041f58 f i libvcruntime:purevirt.obj
 0001:00040f60       ?__crt_interlocked_read_64@@YA_JPED_J@Z 0000000140041f60 f i libvcruntime:purevirt.obj
 0001:00040f68       _get_purecall_handler      0000000140041f68 f   libvcruntime:purevirt.obj
 0001:00040f74       _purecall                  0000000140041f74 f   libvcruntime:purevirt.obj
 0001:00040f94       _set_purecall_handler      0000000140041f94 f   libvcruntime:purevirt.obj
 0001:00040fb0       strchr                     0000000140041fb0 f   libvcruntime:strchr.obj
 0001:0004104c       strrchr                    000000014004204c f   libvcruntime:strrchr.obj
 0001:000411d4       strstr                     00000001400421d4 f   libvcruntime:strstr.obj
 0001:0004143c       wcschr                     000000014004243c f   libvcruntime:wcschr.obj
 0001:000414d4       wcsstr                     00000001400424d4 f   libvcruntime:wcsstr.obj
 0001:00041768       __C_specific_handler       0000000140042768 f   libvcruntime:riscchandler.obj
 0001:00041a04       __vcrt_initialize          0000000140042a04 f   libvcruntime:initialization.obj
 0001:00041a38       __vcrt_thread_attach       0000000140042a38 f   libvcruntime:initialization.obj
 0001:00041a54       __vcrt_thread_detach       0000000140042a54 f   libvcruntime:initialization.obj
 0001:00041a68       __vcrt_uninitialize        0000000140042a68 f   libvcruntime:initialization.obj
 0001:00041a88       __vcrt_uninitialize_critical 0000000140042a88 f   libvcruntime:initialization.obj
 0001:00041ab0       ??$?RD@__crt_internal_free_policy@@QEBAXQEBD@Z 0000000140042ab0 f i libvcruntime:std_type_info.obj
 0001:00041abc       ??$?RX@__crt_internal_free_policy@@QEBAXQEBX@Z 0000000140042abc f i libvcruntime:std_type_info.obj
 0001:00041ac8       ??$__crt_interlocked_compare_exchange_pointer@$$CBDPEAD$$T@@YAPEBDPEDSEBDQEAD$$T@Z 0000000140042ac8 f i libvcruntime:std_type_info.obj
 0001:00041ad4       ??$__crt_interlocked_read_pointer@$$CBD@@YAPEBDPEDSEBD@Z 0000000140042ad4 f i libvcruntime:std_type_info.obj
 0001:00041adc       ??0?$__crt_unique_heap_ptr@DU__crt_internal_free_policy@@@@QEAA@QEAD@Z 0000000140042adc f i libvcruntime:std_type_info.obj
 0001:00041ae4       ??0?$__crt_unique_heap_ptr@XU__crt_internal_free_policy@@@@QEAA@QEAX@Z 0000000140042ae4 f i libvcruntime:std_type_info.obj
 0001:00041aec       ??1?$__crt_unique_heap_ptr@DU__crt_internal_free_policy@@@@QEAA@XZ 0000000140042aec f i libvcruntime:std_type_info.obj
 0001:00041b10       ??1?$__crt_unique_heap_ptr@XU__crt_internal_free_policy@@@@QEAA@XZ 0000000140042b10 f i libvcruntime:std_type_info.obj
 0001:00041b34       ??B?$__crt_unique_heap_ptr@DU__crt_internal_free_policy@@@@QEBA_NXZ 0000000140042b34 f i libvcruntime:std_type_info.obj
 0001:00041b40       ??B?$__crt_unique_heap_ptr@XU__crt_internal_free_policy@@@@QEBA_NXZ 0000000140042b40 f i libvcruntime:std_type_info.obj
 0001:00041b64       ?detach@?$__crt_unique_heap_ptr@XU__crt_internal_free_policy@@@@QEAAPEAXXZ 0000000140042b64 f i libvcruntime:std_type_info.obj
 0001:00041b70       ?get@?$__crt_unique_heap_ptr@DU__crt_internal_free_policy@@@@QEBAPEADXZ 0000000140042b70 f i libvcruntime:std_type_info.obj
 0001:00041b74       ?get@?$__crt_unique_heap_ptr@XU__crt_internal_free_policy@@@@QEBAPEAXXZ 0000000140042b74 f i libvcruntime:std_type_info.obj
 0001:00041b78       ?is_valid@?$__crt_unique_heap_ptr@DU__crt_internal_free_policy@@@@QEBA_NXZ 0000000140042b78 f i libvcruntime:std_type_info.obj
 0001:00041b84       ?is_valid@?$__crt_unique_heap_ptr@XU__crt_internal_free_policy@@@@QEBA_NXZ 0000000140042b84 f i libvcruntime:std_type_info.obj
 0001:00041b90       ?release@?$__crt_unique_heap_ptr@DU__crt_internal_free_policy@@@@QEAAXXZ 0000000140042b90 f i libvcruntime:std_type_info.obj
 0001:00041bb4       ?release@?$__crt_unique_heap_ptr@XU__crt_internal_free_policy@@@@QEAAXXZ 0000000140042bb4 f i libvcruntime:std_type_info.obj
 0001:00041bd8       __std_type_info_compare    0000000140042bd8 f   libvcruntime:std_type_info.obj
 0001:00041c08       __std_type_info_destroy_list 0000000140042c08 f   libvcruntime:std_type_info.obj
 0001:00041c3c       __std_type_info_hash       0000000140042c3c f   libvcruntime:std_type_info.obj
 0001:00041c84       __std_type_info_name       0000000140042c84 f   libvcruntime:std_type_info.obj
 0001:00041de0       __DestructExceptionObject  0000000140042de0 f   libvcruntime:ehhelpers.obj
 0001:00041e68       ?_CallMemberFunction0@@YAXQEAX0@Z 0000000140042e68 f i libvcruntime:ehhelpers.obj
 0001:00041edc       ?raw_name@type_info@@QEBAPEBDXZ 0000000140042edc f i libvcruntime:ehhelpers.obj
 0001:00041ee4       _IsExceptionObjectToBeDestroyed 0000000140042ee4 f   libvcruntime:ehhelpers.obj
 0001:00041f20       _SetWinRTOutOfMemoryExceptionCallback 0000000140042f20 f   libvcruntime:ehhelpers.obj
 0001:00041f2c       __AdjustPointer            0000000140042f2c f   libvcruntime:ehhelpers.obj
 0001:00041f58       __FrameUnwindFilter        0000000140042f58 f   libvcruntime:ehhelpers.obj
 0001:00041fd8       __GetPlatformExceptionInfo 0000000140042fd8 f   libvcruntime:ehhelpers.obj
 0001:0004204c       __current_exception        000000014004304c f   libvcruntime:ehhelpers.obj
 0001:00042064       __current_exception_context 0000000140043064 f   libvcruntime:ehhelpers.obj
 0001:0004207c       __processing_throw         000000014004307c f   libvcruntime:ehhelpers.obj
 0001:00042094       __std_terminate            0000000140043094 f   libvcruntime:ehhelpers.obj
 0001:000420a0       _is_exception_typeof       00000001400430a0 f   libvcruntime:ehhelpers.obj
 0001:00042170       ??$?RD@__crt_public_free_policy@@QEBAXQEBD@Z 0000000140043170 f i libvcruntime:std_exception.obj
 0001:0004217c       ??0?$__crt_unique_heap_ptr@DU__crt_public_free_policy@@@@QEAA@QEAD@Z 000000014004317c f i libvcruntime:std_exception.obj
 0001:00042184       ??1?$__crt_unique_heap_ptr@DU__crt_public_free_policy@@@@QEAA@XZ 0000000140043184 f i libvcruntime:std_exception.obj
 0001:000421a8       ??B?$__crt_unique_heap_ptr@DU__crt_public_free_policy@@@@QEBA_NXZ 00000001400431a8 f i libvcruntime:std_exception.obj
 0001:000421b4       ?detach@?$__crt_unique_heap_ptr@DU__crt_public_free_policy@@@@QEAAPEADXZ 00000001400431b4 f i libvcruntime:std_exception.obj
 0001:000421c0       ?get@?$__crt_unique_heap_ptr@DU__crt_public_free_policy@@@@QEBAPEADXZ 00000001400431c0 f i libvcruntime:std_exception.obj
 0001:000421c4       ?is_valid@?$__crt_unique_heap_ptr@DU__crt_public_free_policy@@@@QEBA_NXZ 00000001400431c4 f i libvcruntime:std_exception.obj
 0001:000421d0       ?release@?$__crt_unique_heap_ptr@DU__crt_public_free_policy@@@@QEAAXXZ 00000001400431d0 f i libvcruntime:std_exception.obj
 0001:000421f4       __std_exception_copy       00000001400431f4 f   libvcruntime:std_exception.obj
 0001:000422a4       __std_exception_destroy    00000001400432a4 f   libvcruntime:std_exception.obj
 0001:000422d4       _CxxThrowException         00000001400432d4 f   libvcruntime:throw.obj
 0001:000423f0       _NLG_Notify                00000001400433f0 f   libvcruntime:notify.obj
 0001:00042420       __NLG_Dispatch2            0000000140043420 f   libvcruntime:notify.obj
 0001:00042430       __NLG_Return2              0000000140043430 f   libvcruntime:notify.obj
 0001:0004243c       __except_validate_context_record 000000014004343c f   libvcruntime:jbcxrval.obj
 0001:00042480       __except_validate_jump_buffer 0000000140043480 f   libvcruntime:jbcxrval.obj
 0001:000424d0       __except_validate_jump_buffer_common 00000001400434d0 f i libvcruntime:jbcxrval.obj
 0001:00042544       ??$?RU__vcrt_ptd@@@__crt_internal_free_policy@@QEBAXQEBU__vcrt_ptd@@@Z 0000000140043544 f i libvcruntime:per_thread_data.obj
 0001:00042550       ??0?$__crt_unique_heap_ptr@U__vcrt_ptd@@U__crt_internal_free_policy@@@@QEAA@QEAU__vcrt_ptd@@@Z 0000000140043550 f i libvcruntime:per_thread_data.obj
 0001:00042578       ??1?$__crt_unique_heap_ptr@U__vcrt_ptd@@U__crt_internal_free_policy@@@@QEAA@XZ 0000000140043578 f i libvcruntime:per_thread_data.obj
 0001:000425a8       ??B?$__crt_unique_heap_ptr@U__vcrt_ptd@@U__crt_internal_free_policy@@@@QEBA_NXZ 00000001400435a8 f i libvcruntime:per_thread_data.obj
 0001:000425b4       ?detach@?$__crt_unique_heap_ptr@U__vcrt_ptd@@U__crt_internal_free_policy@@@@QEAAPEAU__vcrt_ptd@@XZ 00000001400435b4 f i libvcruntime:per_thread_data.obj
 0001:000425c0       ?get@?$__crt_unique_heap_ptr@U__vcrt_ptd@@U__crt_internal_free_policy@@@@QEBAPEAU__vcrt_ptd@@XZ 00000001400435c0 f i libvcruntime:per_thread_data.obj
 0001:000425c4       ?is_valid@?$__crt_unique_heap_ptr@U__vcrt_ptd@@U__crt_internal_free_policy@@@@QEBA_NXZ 00000001400435c4 f i libvcruntime:per_thread_data.obj
 0001:000425d0       ?release@?$__crt_unique_heap_ptr@U__vcrt_ptd@@U__crt_internal_free_policy@@@@QEAAXXZ 00000001400435d0 f i libvcruntime:per_thread_data.obj
 0001:00042628       __vcrt_freefls             0000000140043628 f   libvcruntime:per_thread_data.obj
 0001:00042650       __vcrt_freeptd_for_this_thread 0000000140043650 f   libvcruntime:per_thread_data.obj
 0001:000426a8       __vcrt_getptd              00000001400436a8 f   libvcruntime:per_thread_data.obj
 0001:000426c8       __vcrt_getptd_noexit       00000001400436c8 f   libvcruntime:per_thread_data.obj
 0001:000427b8       __vcrt_getptd_noinit       00000001400437b8 f   libvcruntime:per_thread_data.obj
 0001:00042818       __vcrt_initialize_ptd      0000000140043818 f   libvcruntime:per_thread_data.obj
 0001:00042870       __vcrt_uninitialize_ptd    0000000140043870 f   libvcruntime:per_thread_data.obj
 0001:0004289c       __vcrt_initialize_locks    000000014004389c f   libvcruntime:locks.obj
 0001:000428f4       __vcrt_lock                00000001400438f4 f   libvcruntime:locks.obj
 0001:00042914       __vcrt_uninitialize_locks  0000000140043914 f   libvcruntime:locks.obj
 0001:00042958       __vcrt_unlock              0000000140043958 f   libvcruntime:locks.obj
 0001:00042978       ??$?0$00@DName@@QEAA@PEBDU?$StringLifeSelector@$00@@@Z 0000000140043978 f i libvcruntime:undname.obj
 0001:000429c8       ??$?0$00@pcharNode@@QEAA@PEBDHU?$StringLifeSelector@$00@@@Z 00000001400439c8 f i libvcruntime:undname.obj
 0001:000429e4       ??$?0$01@DName@@QEAA@PEBDU?$StringLifeSelector@$01@@@Z 00000001400439e4 f i libvcruntime:undname.obj
 0001:00042a34       ??$?0$01@pcharNode@@QEAA@PEBDHU?$StringLifeSelector@$01@@@Z 0000000140043a34 f i libvcruntime:undname.obj
 0001:00042ac4       ??$?0$0A@@DName@@QEAA@PEBDU?$StringLifeSelector@$0A@@@@Z 0000000140043ac4 f i libvcruntime:undname.obj
 0001:00042b14       ??$?0$0A@@pcharNode@@QEAA@PEBDHU?$StringLifeSelector@$0A@@@@Z 0000000140043b14 f i libvcruntime:undname.obj
 0001:00042ba4       ??$?0_K$0A@@?$optional@_K@std@@QEAA@$$QEA_K@Z 0000000140043ba4 f i libvcruntime:undname.obj
 0001:00042bb8       ??$?0_K@?$_Optional_construct_base@_K@std@@QEAA@Uin_place_t@1@$$QEA_K@Z 0000000140043bb8 f i libvcruntime:undname.obj
 0001:00042bcc       ??$?0_K@?$_Optional_destruct_base@_K$00@std@@QEAA@Uin_place_t@1@$$QEA_K@Z 0000000140043bcc f i libvcruntime:undname.obj
 0001:00042be0       ??$append@VDNameNode@@@DName@@AEAAXPEBVDNameNode@@@Z 0000000140043be0 f i libvcruntime:undname.obj
 0001:00042c5c       ??$append@VDNameStatusNode@@@DName@@AEAAXPEBVDNameStatusNode@@@Z 0000000140043c5c f i libvcruntime:undname.obj
 0001:00042cd8       ??$append@VcharNode@@@DName@@AEAAXPEBVcharNode@@@Z 0000000140043cd8 f i libvcruntime:undname.obj
 0001:00042d54       ??$append@VpDNameNode@@@DName@@AEAAXPEBVpDNameNode@@@Z 0000000140043d54 f i libvcruntime:undname.obj
 0001:00042dd0       ??$append@VpcharNode@@@DName@@AEAAXPEBVpcharNode@@@Z 0000000140043dd0 f i libvcruntime:undname.obj
 0001:00042e4c       ??$doPchar@$00@DName@@AEAAXPEBDH@Z 0000000140043e4c f i libvcruntime:undname.obj
 0001:00042f08       ??$doPchar@$01@DName@@AEAAXPEBDH@Z 0000000140043f08 f i libvcruntime:undname.obj
 0001:00042fc4       ??$doPchar@$0A@@DName@@AEAAXPEBDH@Z 0000000140043fc4 f i libvcruntime:undname.obj
 0001:00043080       ??$forward@_K@std@@YA$$QEA_KAEA_K@Z 0000000140044080 f i libvcruntime:undname.obj
 0001:000431e4       ??0?$_Optional_construct_base@_K@std@@QEAA@XZ 00000001400441e4 f i libvcruntime:undname.obj
 0001:000431f0       ??0?$_Optional_destruct_base@_K$00@std@@QEAA@XZ 00000001400441f0 f i libvcruntime:undname.obj
 0001:000431fc       ??0?$optional@_K@std@@QEAA@XZ 00000001400441fc f i libvcruntime:undname.obj
 0001:00043208       ??0Block@_HeapManager@@QEAA@XZ 0000000140044208 f i libvcruntime:undname.obj
 0001:00043214       ??0DName@@QEAA@AEAPEBDD@Z  0000000140044214 f   libvcruntime:undname.obj
 0001:000432f4       ??0DName@@QEAA@AEBUStringLiteral@@@Z 00000001400442f4 f   libvcruntime:undname.obj
 0001:0004332c       ??0DName@@QEAA@AEBV0@@Z    000000014004432c f i libvcruntime:undname.obj
 0001:00043340       ??0DName@@QEAA@D@Z         0000000140044340 f   libvcruntime:undname.obj
 0001:00043368       ??0DName@@QEAA@PEAV0@@Z    0000000140044368 f   libvcruntime:undname.obj
 0001:0004340c       ??0DName@@QEAA@W4DNameStatus@@@Z 000000014004440c f   libvcruntime:undname.obj
 0001:00043448       ??0DName@@QEAA@XZ          0000000140044448 f i libvcruntime:undname.obj
 0001:00043458       ??0DName@@QEAA@_J@Z        0000000140044458 f   libvcruntime:undname.obj
 0001:00043524       ??0DName@@QEAA@_K@Z        0000000140044524 f   libvcruntime:undname.obj
 0001:000435d0       ??0DNameNode@@IEAA@XZ      00000001400445d0 f i libvcruntime:undname.obj
 0001:000435e4       ??0Replicator@@QEAA@XZ     00000001400445e4 f i libvcruntime:undname.obj
 0001:00043620       ??0UnDecorator@@QEAA@PEBDP6APEADJ@ZK@Z 0000000140044620 f i libvcruntime:undname.obj
 0001:000436f4       ??0_Nontrivial_dummy_type@std@@QEAA@XZ 00000001400446f4 f i libvcruntime:undname.obj
 0001:000436f8       ??0charNode@@QEAA@D@Z      00000001400446f8 f i libvcruntime:undname.obj
 0001:00043710       ??0pDNameNode@@QEAA@PEAVDName@@@Z 0000000140044710 f   libvcruntime:undname.obj
 0001:00043740       ??0pairNode@@QEAA@PEBVDNameNode@@0@Z 0000000140044740 f i libvcruntime:undname.obj
 0001:00043768       ??2@YAPEAX_KAEAV_HeapManager@@H@Z 0000000140044768 f   libvcruntime:undname.obj
 0001:0004379c       ??4DName@@QEAAAEAV0@AEBUStringLiteral@@@Z 000000014004479c f   libvcruntime:undname.obj
 0001:000437cc       ??4DName@@QEAAAEAV0@AEBV0@@Z 00000001400447cc f   libvcruntime:undname.obj
 0001:000437e0       ??4DName@@QEAAAEAV0@D@Z    00000001400447e0 f i libvcruntime:undname.obj
 0001:00043808       ??4DName@@QEAAAEAV0@PEAV0@@Z 0000000140044808 f   libvcruntime:undname.obj
 0001:0004389c       ??4DName@@QEAAAEAV0@W4DNameStatus@@@Z 000000014004489c f   libvcruntime:undname.obj
 0001:000438c4       ??AReplicator@@QEBA?AVDName@@H@Z 00000001400448c4 f   libvcruntime:undname.obj
 0001:00043914       ??B?$optional@_K@std@@QEBA_NXZ 0000000140044914 f i libvcruntime:undname.obj
 0001:00043918       ??D?$_Optional_construct_base@_K@std@@QEGAAAEA_KXZ 0000000140044918 f i libvcruntime:undname.obj
 0001:0004391c       ??H@YA?AVDName@@AEBUStringLiteral@@AEBV0@@Z 000000014004491c f i libvcruntime:undname.obj
 0001:00043960       ??H@YA?AVDName@@DAEBV0@@Z  0000000140044960 f i libvcruntime:undname.obj
 0001:000439b4       ??H@YA?AVDName@@W4DNameStatus@@AEBV0@@Z 00000001400449b4 f i libvcruntime:undname.obj
 0001:000439f8       ??HDName@@QEBA?AV0@AEBUStringLiteral@@@Z 00000001400449f8 f   libvcruntime:undname.obj
 0001:00043a2c       ??HDName@@QEBA?AV0@AEBV0@@Z 0000000140044a2c f   libvcruntime:undname.obj
 0001:00043a60       ??HDName@@QEBA?AV0@D@Z     0000000140044a60 f   libvcruntime:undname.obj
 0001:00043a94       ??HDName@@QEBA?AV0@PEAV0@@Z 0000000140044a94 f   libvcruntime:undname.obj
 0001:00043ac8       ??HDName@@QEBA?AV0@W4DNameStatus@@@Z 0000000140044ac8 f   libvcruntime:undname.obj
 0001:00043afc       ??HStringLiteral@@QEBA?AU0@H@Z 0000000140044afc f i libvcruntime:undname.obj
 0001:00043b18       ??YDName@@QEAAAEAV0@AEBUStringLiteral@@@Z 0000000140044b18 f   libvcruntime:undname.obj
 0001:00043bb8       ??YDName@@QEAAAEAV0@AEBV0@@Z 0000000140044bb8 f   libvcruntime:undname.obj
 0001:00043c98       ??YDName@@QEAAAEAV0@D@Z    0000000140044c98 f   libvcruntime:undname.obj
 0001:00043d20       ??YDName@@QEAAAEAV0@PEAV0@@Z 0000000140044d20 f   libvcruntime:undname.obj
 0001:00043dd8       ??YDName@@QEAAAEAV0@W4DNameStatus@@@Z 0000000140044dd8 f   libvcruntime:undname.obj
 0001:00043e60       ??YReplicator@@QEAAAEAV0@AEBVDName@@@Z 0000000140044e60 f   libvcruntime:undname.obj
 0001:00043ed0       ??_5DName@@QEAAAEAV0@AEBV0@@Z 0000000140044ed0 f   libvcruntime:undname.obj
 0001:00043ef0       ??__K_l@@YA?AUStringLiteral@@PEBD_K@Z 0000000140044ef0 f i libvcruntime:undname.obj
 0001:00043f00       ?Constructor@_HeapManager@@QEAAXP6APEAX_K@ZP6AXPEAX@Z@Z 0000000140044f00 f i libvcruntime:undname.obj
 0001:00043f1c       ?Destructor@_HeapManager@@QEAAXXZ 0000000140044f1c f i libvcruntime:undname.obj
 0001:00043f78       ?UScore@UnDecorator@@SA?AUStringLiteral@@W4Tokens@@@Z 0000000140044f78 f   libvcruntime:undname.obj
 0001:00043fd8       ?composeDeclaration@UnDecorator@@CA?AVDName@@AEBV2@@Z 0000000140044fd8 f i libvcruntime:undname.obj
 0001:0004538c       ?doAccessSpecifiers@UnDecorator@@SAHXZ 000000014004638c f i libvcruntime:undname.obj
 0001:000453a0       ?doAllocationLanguage@UnDecorator@@SAHXZ 00000001400463a0 f i libvcruntime:undname.obj
 0001:000453b4       ?doAllocationModel@UnDecorator@@SAHXZ 00000001400463b4 f i libvcruntime:undname.obj
 0001:000453c8       ?doEcsu@UnDecorator@@SAHXZ 00000001400463c8 f i libvcruntime:undname.obj
 0001:000453dc       ?doEllipsis@UnDecorator@@SAHXZ 00000001400463dc f i libvcruntime:undname.obj
 0001:000453f0       ?doFunctionReturns@UnDecorator@@SAHXZ 00000001400463f0 f i libvcruntime:undname.obj
 0001:00045404       ?doMSKeywords@UnDecorator@@SAHXZ 0000000140046404 f i libvcruntime:undname.obj
 0001:00045418       ?doMemberTypes@UnDecorator@@SAHXZ 0000000140046418 f i libvcruntime:undname.obj
 0001:0004542c       ?doNameOnly@UnDecorator@@SAHXZ 000000014004642c f i libvcruntime:undname.obj
 0001:0004543c       ?doNoIdentCharCheck@UnDecorator@@SAHXZ 000000014004643c f i libvcruntime:undname.obj
 0001:0004544c       ?doPchar@DName@@AEAAXD@Z   000000014004644c f   libvcruntime:undname.obj
 0001:000454b0       ?doPtr64@UnDecorator@@SAHXZ 00000001400464b0 f i libvcruntime:undname.obj
 0001:000454c4       ?doRestrictionSpec@UnDecorator@@SAHXZ 00000001400464c4 f i libvcruntime:undname.obj
 0001:000454d8       ?doThisTypes@UnDecorator@@SAHXZ 00000001400464d8 f i libvcruntime:undname.obj
 0001:000454f0       ?doThrowTypes@UnDecorator@@SAHXZ 00000001400464f0 f i libvcruntime:undname.obj
 0001:00045504       ?doTypeOnly@UnDecorator@@SAHXZ 0000000140046504 f i libvcruntime:undname.obj
 0001:00045514       ?doUnderScore@UnDecorator@@SAHXZ 0000000140046514 f i libvcruntime:undname.obj
 0001:00045524       ?getAddressOf@UnDecorator@@CA?AVDName@@XZ 0000000140046524 f   libvcruntime:undname.obj
 0001:000455d8       ?getArgumentList@UnDecorator@@CA?AVDName@@XZ 00000001400465d8 f   libvcruntime:undname.obj
 0001:000457d0       ?getArgumentTypes@UnDecorator@@CA?AVDName@@XZ 00000001400467d0 f   libvcruntime:undname.obj
 0001:00045970       ?getArrayAccess@UnDecorator@@CA?AVDName@@XZ 0000000140046970 f   libvcruntime:undname.obj
 0001:00045a30       ?getArrayObject@UnDecorator@@CA?AVDName@@XZ 0000000140046a30 f   libvcruntime:undname.obj
 0001:00045b34       ?getArrayType@UnDecorator@@CA?AVDName@@AEBV2@@Z 0000000140046b34 f i libvcruntime:undname.obj
 0001:00045e28       ?getBasedType@UnDecorator@@CA?AVDName@@XZ 0000000140046e28 f   libvcruntime:undname.obj
 0001:00045f5c       ?getBasicDataType@UnDecorator@@CA?AVDName@@AEBV2@@Z 0000000140046f5c f   libvcruntime:undname.obj
 0001:000466e0       ?getCHPEName@UnDecorator@@QEAAPEADPEADH@Z 00000001400476e0 f i libvcruntime:undname.obj
 0001:00046844       ?getCallIndex@UnDecorator@@CA?AVDName@@XZ 0000000140047844 f i libvcruntime:undname.obj
 0001:00046864       ?getCallingConvention@UnDecorator@@CA?AVDName@@XZ 0000000140047864 f   libvcruntime:undname.obj
 0001:000469cc       ?getDataIndirectType@UnDecorator@@CA?AVDName@@AEBV2@W4IndirectionKind@@0H@Z 00000001400479cc f   libvcruntime:undname.obj
 0001:0004772c       ?getDataIndirectType@UnDecorator@@CA?AVDName@@XZ 000000014004872c f i libvcruntime:undname.obj
 0001:00047774       ?getDataType@UnDecorator@@CA?AVDName@@PEAV2@@Z 0000000140048774 f   libvcruntime:undname.obj
 0001:000478cc       ?getDecoratedName@UnDecorator@@CA?AVDName@@XZ 00000001400488cc f   libvcruntime:undname.obj
 0001:00047c6c       ?getDimension@UnDecorator@@CA?AVDName@@_N@Z 0000000140048c6c f   libvcruntime:undname.obj
 0001:00047e08       ?getDispatchTarget@UnDecorator@@CA?AVDName@@XZ 0000000140048e08 f   libvcruntime:undname.obj
 0001:00047e7c       ?getDisplacement@UnDecorator@@CA?AVDName@@XZ 0000000140048e7c f i libvcruntime:undname.obj
 0001:00047e9c       ?getECSUDataType@UnDecorator@@CA?AVDName@@XZ 0000000140048e9c f   libvcruntime:undname.obj
 0001:00048114       ?getECSUName@UnDecorator@@CA?AVDName@@XZ 0000000140049114 f i libvcruntime:undname.obj
 0001:00048130       ?getEnumType@UnDecorator@@CA?AVDName@@XZ 0000000140049130 f i libvcruntime:undname.obj
 0001:000482a0       ?getExtendedDataIndirectType@UnDecorator@@CA?AVDName@@AEAW4IndirectionKind@@AEA_NH@Z 00000001400492a0 f   libvcruntime:undname.obj
 0001:000485ac       ?getExternalDataType@UnDecorator@@CA?AVDName@@AEBV2@@Z 00000001400495ac f i libvcruntime:undname.obj
 0001:0004869c       ?getFloatingPoint@UnDecorator@@CA?AVDName@@H@Z 000000014004969c f   libvcruntime:undname.obj
 0001:0004885c       ?getFunctionIndirectType@UnDecorator@@CA?AVDName@@AEBV2@@Z 000000014004985c f   libvcruntime:undname.obj
 0001:00048ee0       ?getGuardNumber@UnDecorator@@CA?AVDName@@XZ 0000000140049ee0 f i libvcruntime:undname.obj
 0001:00048f00       ?getLastChar@DName@@QEBADXZ 0000000140049f00 f i libvcruntime:undname.obj
 0001:00048f20       ?getLastChar@DNameStatusNode@@UEBADXZ 0000000140049f20 f i libvcruntime:undname.obj
 0001:00048f30       ?getLastChar@charNode@@UEBADXZ 0000000140049f30 f i libvcruntime:undname.obj
 0001:00048f34       ?getLastChar@pDNameNode@@UEBADXZ 0000000140049f34 f i libvcruntime:undname.obj
 0001:00048f68       ?getLastChar@pairNode@@UEBADXZ 0000000140049f68 f i libvcruntime:undname.obj
 0001:00048fac       ?getLastChar@pcharNode@@UEBADXZ 0000000140049fac f i libvcruntime:undname.obj
 0001:00048fc8       ?getLexicalFrame@UnDecorator@@CA?AVDName@@XZ 0000000140049fc8 f i libvcruntime:undname.obj
 0001:00049044       ?getMemberAccess@UnDecorator@@CA?AVDName@@XZ 000000014004a044 f   libvcruntime:undname.obj
 0001:000490fc       ?getMemoryWithBuffer@_HeapManager@@QEAAPEAX_K@Z 000000014004a0fc f   libvcruntime:undname.obj
 0001:000491b0       ?getMemoryWithoutBuffer@_HeapManager@@QEAAPEAX_K@Z 000000014004a1b0 f   libvcruntime:undname.obj
 0001:000491c8       ?getNoexcept@UnDecorator@@CA?AVDName@@XZ 000000014004a1c8 f   libvcruntime:undname.obj
 0001:00049244       ?getNumberOfDimensions@UnDecorator@@CAHXZ 000000014004a244 f   libvcruntime:undname.obj
 0001:000492b4       ?getOperatorName@UnDecorator@@CA?AVDName@@_NPEA_N@Z 000000014004a2b4 f i libvcruntime:undname.obj
 0001:00049eb8       ?getPointerToMember@UnDecorator@@CA?AVDName@@XZ 000000014004aeb8 f   libvcruntime:undname.obj
 0001:00049fec       ?getPointerType@UnDecorator@@CA?AVDName@@AEBV2@0@Z 000000014004afec f i libvcruntime:undname.obj
 0001:0004a010       ?getPointerTypeArray@UnDecorator@@CA?AVDName@@AEBV2@0@Z 000000014004b010 f i libvcruntime:undname.obj
 0001:0004a030       ?getPrimaryDataType@UnDecorator@@CA?AVDName@@AEBV2@@Z 000000014004b030 f   libvcruntime:undname.obj
 0001:0004a398       ?getPtrRefDataType@UnDecorator@@CA?AVDName@@AEBV2@H@Z 000000014004b398 f   libvcruntime:undname.obj
 0001:0004a5d8       ?getPtrRefType@UnDecorator@@CA?AVDName@@AEBV2@0W4IndirectionKind@@@Z 000000014004b5d8 f   libvcruntime:undname.obj
 0001:0004a838       ?getReferenceType@UnDecorator@@CA?AVDName@@AEBV2@0W4IndirectionKind@@@Z 000000014004b838 f i libvcruntime:undname.obj
 0001:0004a854       ?getRestrictionSpec@UnDecorator@@CA?AVDName@@XZ 000000014004b854 f   libvcruntime:undname.obj
 0001:0004aaa4       ?getReturnType@UnDecorator@@CA?AVDName@@PEAV2@@Z 000000014004baa4 f   libvcruntime:undname.obj
 0001:0004aae8       ?getScope@UnDecorator@@CA?AVDName@@XZ 000000014004bae8 f   libvcruntime:undname.obj
 0001:0004b0cc       ?getScopedName@UnDecorator@@CA?AVDName@@XZ 000000014004c0cc f   libvcruntime:undname.obj
 0001:0004b25c       ?getSignedDimension@UnDecorator@@CA?AVDName@@XZ 000000014004c25c f   libvcruntime:undname.obj
 0001:0004b304       ?getStorageConvention@UnDecorator@@CA?AVDName@@XZ 000000014004c304 f i libvcruntime:undname.obj
 0001:0004b34c       ?getString@DName@@QEBAPEADPEAD0@Z 000000014004c34c f i libvcruntime:undname.obj
 0001:0004b36c       ?getString@DName@@QEBAPEADPEADH@Z 000000014004c36c f i libvcruntime:undname.obj
 0001:0004b424       ?getString@DNameStatusNode@@UEBAPEADPEAD0@Z 000000014004c424 f i libvcruntime:undname.obj
 0001:0004b47c       ?getString@charNode@@UEBAPEADPEAD0@Z 000000014004c47c f i libvcruntime:undname.obj
 0001:0004b494       ?getString@pDNameNode@@UEBAPEADPEAD0@Z 000000014004c494 f i libvcruntime:undname.obj
 0001:0004b4cc       ?getString@pairNode@@UEBAPEADPEAD0@Z 000000014004c4cc f i libvcruntime:undname.obj
 0001:0004b52c       ?getString@pcharNode@@UEBAPEADPEAD0@Z 000000014004c52c f i libvcruntime:undname.obj
 0001:0004b570       ?getStringEncoding@UnDecorator@@CA?AVDName@@W4PrefixKind@@H@Z 000000014004c570 f   libvcruntime:undname.obj
 0001:0004b6c0       ?getStringHelper@@YAPEADPEADPEBD1H@Z 000000014004c6c0 f i libvcruntime:undname.obj
 0001:0004b6f8       ?getStringObject@UnDecorator@@CA?AVDName@@XZ 000000014004c6f8 f   libvcruntime:undname.obj
 0001:0004b7ac       ?getSymbolName@UnDecorator@@CA?AVDName@@XZ 000000014004c7ac f i libvcruntime:undname.obj
 0001:0004b80c       ?getTemplateArgumentList@UnDecorator@@CA?AVDName@@XZ 000000014004c80c f   libvcruntime:undname.obj
 0001:0004bab0       ?getTemplateName@UnDecorator@@CA?AVDName@@_N@Z 000000014004cab0 f   libvcruntime:undname.obj
 0001:0004be08       ?getTemplateNonTypeArgument@UnDecorator@@CA?AVDName@@XZ 000000014004ce08 f   libvcruntime:undname.obj
 0001:0004c4ac       ?getTemplateTypeArgument@UnDecorator@@CA?AVDName@@XZ 000000014004d4ac f   libvcruntime:undname.obj
 0001:0004c670       ?getThisType@UnDecorator@@CA?AVDName@@XZ 000000014004d670 f i libvcruntime:undname.obj
 0001:0004c6c0       ?getThrowTypes@UnDecorator@@CA?AVDName@@XZ 000000014004d6c0 f   libvcruntime:undname.obj
 0001:0004c6ec       ?getTypeEncoding@UnDecorator@@CAHXZ 000000014004d6ec f i libvcruntime:undname.obj
 0001:0004cb90       ?getUndecoratedName@UnDecorator@@QEAAPEADPEADH@Z 000000014004db90 f i libvcruntime:undname.obj
 0001:0004cd48       ?getUnionObject@UnDecorator@@CA?AVDName@@XZ 000000014004dd48 f   libvcruntime:undname.obj
 0001:0004ce54       ?getVCallThunkType@UnDecorator@@CA?AVDName@@XZ 000000014004de54 f i libvcruntime:undname.obj
 0001:0004cee8       ?getValue@UnDecorator@@CA?AV?$optional@_K@std@@XZ 000000014004dee8 f   libvcruntime:undname.obj
 0001:0004cf3c       ?getValueObject@UnDecorator@@CA?AVDName@@XZ 000000014004df3c f   libvcruntime:undname.obj
 0001:0004d120       ?getVbTableType@UnDecorator@@CA?AVDName@@AEBV2@@Z 000000014004e120 f i libvcruntime:undname.obj
 0001:0004d13c       ?getVdispMapType@UnDecorator@@CA?AVDName@@AEBV2@@Z 000000014004e13c f i libvcruntime:undname.obj
 0001:0004d1d8       ?getVfTableType@UnDecorator@@CA?AVDName@@AEBV2@@Z 000000014004e1d8 f i libvcruntime:undname.obj
 0001:0004d464       ?getZName@UnDecorator@@CA?AVDName@@_N0@Z 000000014004e464 f   libvcruntime:undname.obj
 0001:0004d7f0       ?get_current_character_and_increment_buffer@UnDecorator@@CADXZ 000000014004e7f0 f i libvcruntime:undname.obj
 0001:0004d810       ?haveTemplateParameters@UnDecorator@@SAHXZ 000000014004e810 f i libvcruntime:undname.obj
 0001:0004d820       ?increment_buffer@UnDecorator@@CA_N_K@Z 000000014004e820 f i libvcruntime:undname.obj
 0001:0004d858       ?increment_buffer_no_check@UnDecorator@@CAXXZ 000000014004e858 f i libvcruntime:undname.obj
 0001:0004d864       ?increment_buffer_no_check@UnDecorator@@CAX_K@Z 000000014004e864 f i libvcruntime:undname.obj
 0001:0004d870       ?isArray@DName@@QEBAHXZ    000000014004e870 f i libvcruntime:undname.obj
 0001:0004d87c       ?isComArray@DName@@QEBAHXZ 000000014004e87c f i libvcruntime:undname.obj
 0001:0004d888       ?isEmpty@DName@@QEBAHXZ    000000014004e888 f i libvcruntime:undname.obj
 0001:0004d894       ?isFull@Replicator@@QEBAHXZ 000000014004e894 f i libvcruntime:undname.obj
 0001:0004d8a0       ?isNoTE@DName@@QEBAHXZ     000000014004e8a0 f i libvcruntime:undname.obj
 0001:0004d8ac       ?isPinPtr@DName@@QEBAHXZ   000000014004e8ac f i libvcruntime:undname.obj
 0001:0004d8b8       ?isPtrRef@DName@@QEBAHXZ   000000014004e8b8 f i libvcruntime:undname.obj
 0001:0004d8c4       ?isUDC@DName@@QEBAHXZ      000000014004e8c4 f i libvcruntime:undname.obj
 0001:0004d8e0       ?isUDTThunk@DName@@QEBAHXZ 000000014004e8e0 f i libvcruntime:undname.obj
 0001:0004d8fc       ?isVCallThunk@DName@@QEBAHXZ 000000014004e8fc f i libvcruntime:undname.obj
 0001:0004d908       ?isValid@DName@@QEBAHXZ    000000014004e908 f i libvcruntime:undname.obj
 0001:0004d914       ?length@DName@@QEBAHXZ     000000014004e914 f i libvcruntime:undname.obj
 0001:0004d934       ?length@DNameStatusNode@@UEBAHXZ 000000014004e934 f i libvcruntime:undname.obj
 0001:0004d938       ?length@charNode@@UEBAHXZ  000000014004e938 f i libvcruntime:undname.obj
 0001:0004d940       ?length@pDNameNode@@UEBAHXZ 000000014004e940 f i libvcruntime:undname.obj
 0001:0004d974       ?length@pairNode@@UEBAHXZ  000000014004e974 f i libvcruntime:undname.obj
 0001:0004d9cc       ?length@pcharNode@@UEBAHXZ 000000014004e9cc f i libvcruntime:undname.obj
 0001:0004d9d0       ?make@DNameStatusNode@@SAPEBV1@W4DNameStatus@@@Z 000000014004e9d0 f i libvcruntime:undname.obj
 0001:0004d9f8       ?parseDecoratedName@UnDecorator@@CA?AVDName@@XZ 000000014004e9f8 f   libvcruntime:undname.obj
 0001:0004db54       ?raw_length@DNameStatusNode@@UEBAHXZ 000000014004eb54 f i libvcruntime:undname.obj
 0001:0004db58       ?raw_length@charNode@@UEBAHXZ 000000014004eb58 f i libvcruntime:undname.obj
 0001:0004db60       ?raw_length@pDNameNode@@UEBAHXZ 000000014004eb60 f i libvcruntime:undname.obj
 0001:0004db64       ?raw_length@pairNode@@UEBAHXZ 000000014004eb64 f i libvcruntime:undname.obj
 0001:0004db68       ?raw_length@pcharNode@@UEBAHXZ 000000014004eb68 f i libvcruntime:undname.obj
 0001:0004db6c       ?setIsArray@DName@@QEAAXXZ 000000014004eb6c f i libvcruntime:undname.obj
 0001:0004db74       ?setIsComArray@DName@@QEAAXXZ 000000014004eb74 f i libvcruntime:undname.obj
 0001:0004db7c       ?setIsNoTE@DName@@QEAAXXZ  000000014004eb7c f i libvcruntime:undname.obj
 0001:0004db84       ?setIsPinPtr@DName@@QEAAXXZ 000000014004eb84 f i libvcruntime:undname.obj
 0001:0004db8c       ?setIsUDC@DName@@QEAAXXZ   000000014004eb8c f i libvcruntime:undname.obj
 0001:0004db9c       ?setIsVCallThunk@DName@@QEAAXXZ 000000014004eb9c f i libvcruntime:undname.obj
 0001:0004dba4       ?setPtrRef@DName@@QEAAAEAV1@XZ 000000014004eba4 f i libvcruntime:undname.obj
 0001:0004dbb0       ?status@DName@@QEBA?AW4DNameStatus@@XZ 000000014004ebb0 f i libvcruntime:undname.obj
 0001:0004dc28       __unDName                  000000014004ec28 f   libvcruntime:undname.obj
 0001:0004dc58       __unDNameEx                000000014004ec58 f   libvcruntime:undname.obj
 0001:0004dd80       snprintf                   000000014004ed80 f i libvcruntime:undname.obj
 0001:0004ddec       unDNameGenerateCHPE        000000014004edec f   libvcruntime:undname.obj
 0001:0004df88       ??$__crt_interlocked_exchange_pointer@UHINSTANCE__@@PEAU1@@@YAPEAUHINSTANCE__@@PEDSEAU0@QEAU0@@Z 000000014004ef88 f i libvcruntime:winapi_downlevel.obj
 0001:0004df90       ??$__crt_interlocked_exchange_pointer@UHINSTANCE__@@PEAX@@YAPEAUHINSTANCE__@@PEDSEAU0@QEAX@Z 000000014004ef90 f i libvcruntime:winapi_downlevel.obj
 0001:0004df98       ??$__crt_interlocked_exchange_pointer@XPEAX@@YAPEAXPEDSEAXQEAX@Z 000000014004ef98 f i libvcruntime:winapi_downlevel.obj
 0001:0004dfa0       ??$__crt_interlocked_read_pointer@UHINSTANCE__@@@@YAPEAUHINSTANCE__@@PEDSEAU0@@Z 000000014004efa0 f i libvcruntime:winapi_downlevel.obj
 0001:0004dfa8       ??$__crt_interlocked_read_pointer@X@@YAPEAXPEDSEAX@Z 000000014004efa8 f i libvcruntime:winapi_downlevel.obj
 0001:0004e630       __vcrt_FlsAlloc            000000014004f630 f   libvcruntime:winapi_downlevel.obj
 0001:0004e688       __vcrt_FlsFree             000000014004f688 f   libvcruntime:winapi_downlevel.obj
 0001:0004e6e0       __vcrt_FlsGetValue         000000014004f6e0 f   libvcruntime:winapi_downlevel.obj
 0001:0004e738       __vcrt_FlsSetValue         000000014004f738 f   libvcruntime:winapi_downlevel.obj
 0001:0004e7a0       __vcrt_InitializeCriticalSectionEx 000000014004f7a0 f   libvcruntime:winapi_downlevel.obj
 0001:0004e81c       ??$?0AEAViterator@TryBlockMap4@FH4@@AEAV012@$0A@@?$pair@Viterator@TryBlockMap4@FH4@@V123@@std@@QEAA@AEAViterator@TryBlockMap4@FH4@@0@Z 000000014004f81c f i libvcruntime:risctrnsctrl.obj
 0001:0004e838       ??$?0AEAViterator@TryBlockMap@__FrameHandler3@@AEAV012@$0A@@?$pair@Viterator@TryBlockMap@__FrameHandler3@@V123@@std@@QEAA@AEAViterator@TryBlockMap@__FrameHandler3@@0@Z 000000014004f838 f i libvcruntime:risctrnsctrl.obj
 0001:0004ea20       ??$_CallSETranslator@V__FrameHandler3@@@@YAHPEAUEHExceptionRecord@@PEA_KPEAU_CONTEXT@@PEAU_xDISPATCHER_CONTEXT@@PEBU_s_FuncInfo@@K1H@Z 000000014004fa20 f i libvcruntime:risctrnsctrl.obj
 0001:0004ea88       ??$_CallSETranslator@V__FrameHandler4@@@@YAHPEAUEHExceptionRecord@@PEA_KPEAU_CONTEXT@@PEAU_xDISPATCHER_CONTEXT@@PEAUFuncInfo4@FH4@@K1H@Z 000000014004fa88 f i libvcruntime:risctrnsctrl.obj
 0001:0004eaf0       ??$forward@AEAViterator@TryBlockMap4@FH4@@@std@@YAAEAViterator@TryBlockMap4@FH4@@AEAV123@@Z 000000014004faf0 f i libvcruntime:risctrnsctrl.obj
 0001:0004eaf4       ??$forward@AEAViterator@TryBlockMap@__FrameHandler3@@@std@@YAAEAViterator@TryBlockMap@__FrameHandler3@@AEAV123@@Z 000000014004faf4 f i libvcruntime:risctrnsctrl.obj
 0001:0004eaf8       ??0FuncInfo4@FH4@@QEAA@XZ  000000014004faf8 f i libvcruntime:risctrnsctrl.obj
 0001:0004eb10       ??0FuncInfoHeader@FH4@@QEAA@XZ 000000014004fb10 f i libvcruntime:risctrnsctrl.obj
 0001:0004eb18       ??0iterator@TryBlockMap4@FH4@@QEAA@AEAV12@I@Z 000000014004fb18 f i libvcruntime:risctrnsctrl.obj
 0001:0004eb28       ??0iterator@TryBlockMap@__FrameHandler3@@QEAA@AEAV12@I@Z 000000014004fb28 f i libvcruntime:risctrnsctrl.obj
 0001:0004eb38       ??4iterator@TryBlockMap4@FH4@@QEAAAEAV012@AEBV012@@Z 000000014004fb38 f i libvcruntime:risctrnsctrl.obj
 0001:0004eb44       ??9iterator@TryBlockMap4@FH4@@QEBA_NAEBV012@@Z 000000014004fb44 f i libvcruntime:risctrnsctrl.obj
 0001:0004eb50       ??Diterator@TryBlockMap4@FH4@@QEAA?AUTryBlockMapEntry4@2@XZ 000000014004fb50 f i libvcruntime:risctrnsctrl.obj
 0001:0004eb64       ??Eiterator@TryBlockMap4@FH4@@QEAAAEAV012@XZ 000000014004fb64 f i libvcruntime:risctrnsctrl.obj
 0001:0004ec28       ?CatchTryBlock@__FrameHandler3@@SAPEBU_s_TryBlockMapEntry@@PEBU_s_FuncInfo@@H@Z 000000014004fc28 f   libvcruntime:risctrnsctrl.obj
 0001:0004eca4       ?DecompFuncInfo@FH4@@YA_JPEAEAEAUFuncInfo4@1@_KH@Z 000000014004fca4 f i libvcruntime:risctrnsctrl.obj
 0001:0004ecbc       ?DecompFuncInfo@FH4@@YA_JPEAEAEAUFuncInfo4@1@_KH_N@Z 000000014004fcbc f i libvcruntime:risctrnsctrl.obj
 0001:0004ee40       ?DecompTryBlock@TryBlockMap4@FH4@@AEAAXXZ 000000014004fe40 f i libvcruntime:risctrnsctrl.obj
 0001:0004eef8       ?ExecutionInCatch@__FrameHandler3@@SA_NPEAU_xDISPATCHER_CONTEXT@@PEBU_s_FuncInfo@@@Z 000000014004fef8 f   libvcruntime:risctrnsctrl.obj
 0001:0004ef2c       ?ExecutionInCatch@__FrameHandler4@@SA_NPEAU_xDISPATCHER_CONTEXT@@PEAUFuncInfo4@FH4@@@Z 000000014004ff2c f   libvcruntime:risctrnsctrl.obj
 0001:0004ef34       ?FrameUnwindToEmptyState@__FrameHandler3@@SAXPEA_KPEAU_xDISPATCHER_CONTEXT@@PEBU_s_FuncInfo@@@Z 000000014004ff34 f   libvcruntime:risctrnsctrl.obj
 0001:0004efb4       ?FrameUnwindToEmptyState@__FrameHandler4@@SAXPEA_KPEAU_xDISPATCHER_CONTEXT@@PEAUFuncInfo4@FH4@@@Z 000000014004ffb4 f   libvcruntime:risctrnsctrl.obj
 0001:0004eff4       ?GetEstablisherFrame@__FrameHandler3@@SAPEA_KPEA_KPEAU_xDISPATCHER_CONTEXT@@PEBU_s_FuncInfo@@0@Z 000000014004fff4 f   libvcruntime:risctrnsctrl.obj
 0001:0004f0f8       ?GetEstablisherFrame@__FrameHandler4@@SAPEA_KPEA_KPEAU_xDISPATCHER_CONTEXT@@PEAUFuncInfo4@FH4@@0@Z 00000001400500f8 f   libvcruntime:risctrnsctrl.obj
 0001:0004f124       ?GetRangeOfTrysToCheck@__FrameHandler3@@SA?AU?$pair@Viterator@TryBlockMap@__FrameHandler3@@V123@@std@@AEAVTryBlockMap@1@HPEAU_xDISPATCHER_CONTEXT@@PEBU_s_FuncInfo@@H@Z 0000000140050124 f   libvcruntime:risctrnsctrl.obj
 0001:0004f2a4       ?GetRangeOfTrysToCheck@__FrameHandler4@@SA?AU?$pair@Viterator@TryBlockMap4@FH4@@V123@@std@@AEAVTryBlockMap4@FH4@@HPEAU_xDISPATCHER_CONTEXT@@PEAUFuncInfo4@5@H@Z 00000001400502a4 f   libvcruntime:risctrnsctrl.obj
 0001:0004f468       ?ReadInt@FH4@@YAHPEAPEAE@Z 0000000140050468 f i libvcruntime:risctrnsctrl.obj
 0001:0004f478       ?ReadUnsigned@FH4@@YAIPEAPEAE@Z 0000000140050478 f i libvcruntime:risctrnsctrl.obj
 0001:0004f4b4       ?UnwindNestedFrames@__FrameHandler3@@SAXPEA_KPEAUEHExceptionRecord@@PEAU_CONTEXT@@0PEAXPEBU_s_FuncInfo@@HHPEBU_s_HandlerType@@PEAU_xDISPATCHER_CONTEXT@@E@Z 00000001400504b4 f   libvcruntime:risctrnsctrl.obj
 0001:0004f5f8       ?UnwindNestedFrames@__FrameHandler4@@SAXPEA_KPEAUEHExceptionRecord@@PEAU_CONTEXT@@0PEAXPEAUFuncInfo4@FH4@@HHPEAUHandlerType4@5@PEAU_xDISPATCHER_CONTEXT@@E@Z 00000001400505f8 f   libvcruntime:risctrnsctrl.obj
 0001:0004f760       ?begin@TryBlockMap4@FH4@@QEAA?AViterator@12@XZ 0000000140050760 f i libvcruntime:risctrnsctrl.obj
 0001:0004f770       ?end@TryBlockMap4@FH4@@QEAA?AViterator@12@XZ 0000000140050770 f i libvcruntime:risctrnsctrl.obj
 0001:0004f780       ?imageRelToByteBuffer@FH4@@YAPEAE_KH@Z 0000000140050780 f i libvcruntime:risctrnsctrl.obj
 0001:0004f788       ?incrementToSentinel@iterator@TryBlockMap4@FH4@@QEAAXXZ 0000000140050788 f i libvcruntime:risctrnsctrl.obj
 0001:0004f78c       ?setBuffer@TryBlockMap4@FH4@@QEAAXViterator@12@@Z 000000014005078c f i libvcruntime:risctrnsctrl.obj
 0001:0004f9c0       _CreateFrameInfo           00000001400509c0 f   libvcruntime:risctrnsctrl.obj
 0001:0004fa08       _FindAndUnlinkFrame        0000000140050a08 f   libvcruntime:risctrnsctrl.obj
 0001:0004fa70       _GetImageBase              0000000140050a70 f   libvcruntime:risctrnsctrl.obj
 0001:0004fa88       _GetThrowImageBase         0000000140050a88 f   libvcruntime:risctrnsctrl.obj
 0001:0004faa0       _SetImageBase              0000000140050aa0 f   libvcruntime:risctrnsctrl.obj
 0001:0004fac0       _SetThrowImageBase         0000000140050ac0 f   libvcruntime:risctrnsctrl.obj
 0001:0004fae0       __CxxFrameHandler          0000000140050ae0 f   libvcruntime:risctrnsctrl.obj
 0001:0004fae8       __CxxFrameHandler2         0000000140050ae8 f   libvcruntime:risctrnsctrl.obj
 0001:0004faf0       __CxxFrameHandler3         0000000140050af0 f   libvcruntime:risctrnsctrl.obj
 0001:0004fb98       __CxxFrameHandler4         0000000140050b98 f   libvcruntime:risctrnsctrl.obj
 0001:0004fc88       ?GetCurrentState@__FrameHandler3@@SAHPEA_KPEAU_xDISPATCHER_CONTEXT@@PEBU_s_FuncInfo@@@Z 0000000140050c88 f   libvcruntime:ehstate.obj
 0001:0004fcb8       ?GetUnwindTryBlock@__FrameHandler3@@SAHPEA_KPEAU_xDISPATCHER_CONTEXT@@PEBU_s_FuncInfo@@@Z 0000000140050cb8 f   libvcruntime:ehstate.obj
 0001:0004fcec       ?SetState@__FrameHandler3@@SAXPEA_KPEBU_s_FuncInfo@@H@Z 0000000140050cec f   libvcruntime:ehstate.obj
 0001:0004fcfc       ?SetUnwindTryBlock@__FrameHandler3@@SAXPEA_KPEAU_xDISPATCHER_CONTEXT@@PEBU_s_FuncInfo@@H@Z 0000000140050cfc f   libvcruntime:ehstate.obj
 0001:0004fd48       ?StateFromControlPc@__FrameHandler3@@SAHPEBU_s_FuncInfo@@PEAU_xDISPATCHER_CONTEXT@@@Z 0000000140050d48 f   libvcruntime:ehstate.obj
 0001:0004fd54       ?StateFromControlPc@__FrameHandler4@@SAHPEAUFuncInfo4@FH4@@PEAU_xDISPATCHER_CONTEXT@@@Z 0000000140050d54 f   libvcruntime:ehstate.obj
 0001:0004fd60       ?StateFromIp@__FrameHandler3@@SAHPEBU_s_FuncInfo@@PEAU_xDISPATCHER_CONTEXT@@_K@Z 0000000140050d60 f   libvcruntime:ehstate.obj
 0001:0004fde0       ?StateFromIp@__FrameHandler4@@SAHPEAUFuncInfo4@FH4@@PEAU_xDISPATCHER_CONTEXT@@_K@Z 0000000140050de0 f   libvcruntime:ehstate.obj
 0001:0004ff08       ?__FuncRelToRealOffset@@YA_KPEAU_xDISPATCHER_CONTEXT@@I@Z 0000000140050f08 f i libvcruntime:ehstate.obj
 0001:0004ff1c       ?__RVAtoRealOffset@@YA_KPEAU_xDISPATCHER_CONTEXT@@H@Z 0000000140050f1c f i libvcruntime:ehstate.obj
 0001:00051b28       ??$TypeMatchHelper@V__FrameHandler3@@@@YAHPEBU_s_HandlerType@@PEBU_s_CatchableType@@PEBU_s_ThrowInfo@@@Z 0000000140052b28 f i libvcruntime:frame.obj
 0001:00051cb4       ??$TypeMatchHelper@V__FrameHandler4@@@@YAHPEAUHandlerType4@FH4@@PEBU_s_CatchableType@@PEBU_s_ThrowInfo@@@Z 0000000140052cb4 f i libvcruntime:frame.obj
 0001:00051e54       ??$__InternalCxxFrameHandler@V__FrameHandler3@@@@YA?AW4_EXCEPTION_DISPOSITION@@PEAUEHExceptionRecord@@PEA_KPEAU_CONTEXT@@PEAU_xDISPATCHER_CONTEXT@@PEBU_s_FuncInfo@@H1E@Z 0000000140052e54 f i libvcruntime:frame.obj
 0001:00052118       ??$__InternalCxxFrameHandler@V__FrameHandler4@@@@YA?AW4_EXCEPTION_DISPOSITION@@PEAUEHExceptionRecord@@PEA_KPEAU_CONTEXT@@PEAU_xDISPATCHER_CONTEXT@@PEAUFuncInfo4@FH4@@H1E@Z 0000000140053118 f i libvcruntime:frame.obj
 0001:00052454       ??$__InternalCxxFrameHandlerWrapper@V__FrameHandler3@@@@YA?AW4_EXCEPTION_DISPOSITION@@PEAUEHExceptionRecord@@PEA_KPEAU_CONTEXT@@PEAU_xDISPATCHER_CONTEXT@@PEBU_s_FuncInfo@@H1E@Z 0000000140053454 f i libvcruntime:frame.obj
 0001:0005245c       ??$__InternalCxxFrameHandlerWrapper@V__FrameHandler4@@@@YA?AW4_EXCEPTION_DISPOSITION@@PEAUEHExceptionRecord@@PEA_KPEAU_CONTEXT@@PEAU_xDISPATCHER_CONTEXT@@PEAUFuncInfo4@FH4@@H1E@Z 000000014005345c f i libvcruntime:frame.obj
 0001:000524bc       ??0HandlerMap4@FH4@@QEAA@PEBUTryBlockMapEntry4@1@_KH@Z 00000001400534bc f i libvcruntime:frame.obj
 0001:00052560       ??0HandlerMap@__FrameHandler3@@QEAA@PEBU_s_TryBlockMapEntry@@_KI@Z 0000000140053560 f i libvcruntime:frame.obj
 0001:0005257c       ??0HandlerType4@FH4@@QEAA@XZ 000000014005357c f i libvcruntime:frame.obj
 0001:00052598       ??0TryBlockMap4@FH4@@QEAA@PEBUFuncInfo4@1@_K@Z 0000000140053598 f i libvcruntime:frame.obj
 0001:000526b8       ??0TryBlockMap@__FrameHandler3@@QEAA@PEBU_s_FuncInfo@@_K@Z 00000001400536b8 f i libvcruntime:frame.obj
 0001:000526c8       ??0UWMap4@FH4@@QEAA@PEBUFuncInfo4@1@_K@Z 00000001400536c8 f i libvcruntime:frame.obj
 0001:00052728       ??0bad_exception@std@@QEAA@AEBV01@@Z 0000000140053728 f i libvcruntime:frame.obj
 0001:00052774       ??0bad_exception@std@@QEAA@XZ 0000000140053774 f i libvcruntime:frame.obj
 0001:0005279c       ??0iterator@HandlerMap4@FH4@@QEAA@AEAV12@I@Z 000000014005379c f i libvcruntime:frame.obj
 0001:000527ac       ??0iterator@HandlerMap@__FrameHandler3@@QEAA@AEAV12@I@Z 00000001400537ac f i libvcruntime:frame.obj
 0001:000527bc       ??0iterator@UWMap4@FH4@@QEAA@AEAV12@PEAE@Z 00000001400537bc f i libvcruntime:frame.obj
 0001:000527cc       ??1bad_exception@std@@UEAA@XZ 00000001400537cc f i libvcruntime:frame.obj
 0001:000527e4       ??4iterator@UWMap4@FH4@@QEAAAEAV012@AEBV012@@Z 00000001400537e4 f i libvcruntime:frame.obj
 0001:0005280c       ??8iterator@HandlerMap4@FH4@@QEBA_NAEBV012@@Z 000000014005380c f i libvcruntime:frame.obj
 0001:00052818       ??8iterator@HandlerMap@__FrameHandler3@@QEBA_NAEBV012@@Z 0000000140053818 f i libvcruntime:frame.obj
 0001:00052824       ??8type_info@@QEBA_NAEBV0@@Z 0000000140053824 f i libvcruntime:frame.obj
 0001:00052848       ??9iterator@HandlerMap4@FH4@@QEBA_NAEBV012@@Z 0000000140053848 f i libvcruntime:frame.obj
 0001:00052854       ??9iterator@HandlerMap@__FrameHandler3@@QEBA_NAEBV012@@Z 0000000140053854 f i libvcruntime:frame.obj
 0001:00052860       ??Diterator@HandlerMap4@FH4@@QEAA?AUHandlerType4@2@XZ 0000000140053860 f i libvcruntime:frame.obj
 0001:00052888       ??Diterator@HandlerMap@__FrameHandler3@@QEAA?BU_s_HandlerType@@XZ 0000000140053888 f i libvcruntime:frame.obj
 0001:000528b4       ??Diterator@TryBlockMap@__FrameHandler3@@QEAA?BU_s_TryBlockMapEntry@@XZ 00000001400538b4 f i libvcruntime:frame.obj
 0001:000528ec       ??Diterator@UWMap4@FH4@@QEAA?AUUnwindMapEntry4@2@XZ 00000001400538ec f i libvcruntime:frame.obj
 0001:00052954       ??Eiterator@HandlerMap4@FH4@@QEAAAEAV012@XZ 0000000140053954 f i libvcruntime:frame.obj
 0001:00052978       ??Eiterator@HandlerMap@__FrameHandler3@@QEAAAEAV012@XZ 0000000140053978 f i libvcruntime:frame.obj
 0001:00052980       ??Eiterator@TryBlockMap@__FrameHandler3@@QEAAAEAV012@XZ 0000000140053980 f i libvcruntime:frame.obj
 0001:00052988       ??Eiterator@UWMap4@FH4@@QEAAAEAV012@XZ 0000000140053988 f i libvcruntime:frame.obj
 0001:000529b0       ??Giterator@UWMap4@FH4@@QEBA_JAEBV012@@Z 00000001400539b0 f i libvcruntime:frame.obj
 0001:000529bc       ??Miterator@TryBlockMap4@FH4@@QEBA_NAEBV012@@Z 00000001400539bc f i libvcruntime:frame.obj
 0001:000529c8       ??Miterator@TryBlockMap@__FrameHandler3@@QEBA_NAEBV012@@Z 00000001400539c8 f i libvcruntime:frame.obj
 0001:000529d4       ??Oiterator@UWMap4@FH4@@QEBA_NAEBV012@@Z 00000001400539d4 f i libvcruntime:frame.obj
 0001:000529e4       ??Piterator@UWMap4@FH4@@QEBA_NAEBV012@@Z 00000001400539e4 f i libvcruntime:frame.obj
 0001:000529f4       ??_Ebad_exception@std@@UEAAPEAXI@Z 00000001400539f4 f i libvcruntime:frame.obj
 0001:000529f4       ??_Gbad_exception@std@@UEAAPEAXI@Z 00000001400539f4 f i libvcruntime:frame.obj
 0001:00052a48       ?BuildCatchObject@__FrameHandler3@@SAXPEAUEHExceptionRecord@@PEAXPEBU_s_HandlerType@@PEBU_s_CatchableType@@@Z 0000000140053a48 f   libvcruntime:frame.obj
 0001:00052a50       ?BuildCatchObject@__FrameHandler4@@SAXPEAUEHExceptionRecord@@PEAXPEAUHandlerType4@FH4@@PEBU_s_CatchableType@@@Z 0000000140053a50 f   libvcruntime:frame.obj
 0001:00052a58       ?BuildCatchObjectHelper@__FrameHandler3@@SAHPEAUEHExceptionRecord@@PEAXPEBU_s_HandlerType@@PEBU_s_CatchableType@@@Z 0000000140053a58 f   libvcruntime:frame.obj
 0001:00052a60       ?BuildCatchObjectHelper@__FrameHandler4@@SAHPEAUEHExceptionRecord@@PEAXPEAUHandlerType4@FH4@@PEBU_s_CatchableType@@@Z 0000000140053a60 f   libvcruntime:frame.obj
 0001:00052a68       ?CxxCallCatchBlock@__FrameHandler3@@SAPEAXPEAU_EXCEPTION_RECORD@@@Z 0000000140053a68 f   libvcruntime:frame.obj
 0001:00052ccc       ?CxxCallCatchBlock@__FrameHandler4@@SAPEAXPEAU_EXCEPTION_RECORD@@@Z 0000000140053ccc f   libvcruntime:frame.obj
 0001:00052fac       ?DecompHandler@HandlerMap4@FH4@@AEAAXXZ 0000000140053fac f i libvcruntime:frame.obj
 0001:00053288       ?FrameUnwindToState@__FrameHandler3@@SAXPEA_KPEAU_xDISPATCHER_CONTEXT@@PEBU_s_FuncInfo@@H@Z 0000000140054288 f   libvcruntime:frame.obj
 0001:00053474       ?FrameUnwindToState@__FrameHandler4@@SAXPEA_KPEAU_xDISPATCHER_CONTEXT@@PEAUFuncInfo4@FH4@@H@Z 0000000140054474 f   libvcruntime:frame.obj
 0001:0005383c       ?GetHandlerSearchState@__FrameHandler3@@SAHPEA_KPEAU_xDISPATCHER_CONTEXT@@PEBU_s_FuncInfo@@@Z 000000014005483c f i libvcruntime:frame.obj
 0001:000538f8       ?GetHandlerSearchState@__FrameHandler4@@SAHPEA_KPEAU_xDISPATCHER_CONTEXT@@PEAUFuncInfo4@FH4@@@Z 00000001400548f8 f i libvcruntime:frame.obj
 0001:00053974       ?GetMaxState@__FrameHandler3@@SAHPEAU_xDISPATCHER_CONTEXT@@PEBU_s_FuncInfo@@@Z 0000000140054974 f i libvcruntime:frame.obj
 0001:00053978       ?GetMaxState@__FrameHandler4@@SAHPEAU_xDISPATCHER_CONTEXT@@PEAUFuncInfo4@FH4@@@Z 0000000140054978 f i libvcruntime:frame.obj
 0001:00053b94       ?ReadEntry@UWMap4@FH4@@AEAAXPEAPEAE@Z 0000000140054b94 f i libvcruntime:frame.obj
 0001:00053c58       ?TypeMatch@__FrameHandler3@@SAHPEBU_s_HandlerType@@PEBU_s_CatchableType@@PEBU_s_ThrowInfo@@@Z 0000000140054c58 f   libvcruntime:frame.obj
 0001:00053c60       ?TypeMatch@__FrameHandler4@@SAHPEAUHandlerType4@FH4@@PEBU_s_CatchableType@@PEBU_s_ThrowInfo@@@Z 0000000140054c60 f   libvcruntime:frame.obj
 0001:00053c68       ?WalkBack@UWMap4@FH4@@AEAAXPEAPEAE@Z 0000000140054c68 f i libvcruntime:frame.obj
 0001:00053cac       ?WalkBack@iterator@UWMap4@FH4@@QEAAXXZ 0000000140054cac f i libvcruntime:frame.obj
 0001:00053cf8       ?WalkForward@UWMap4@FH4@@AEAAXPEAPEAE@Z 0000000140054cf8 f i libvcruntime:frame.obj
 0001:00053d00       ?_CallMemberFunction1@@YAXQEAX00@Z 0000000140054d00 f i libvcruntime:frame.obj
 0001:00053d0c       ?_CallMemberFunction2@@YAXQEAX00H@Z 0000000140054d0c f i libvcruntime:frame.obj
 0001:00053d3c       ?begin@HandlerMap4@FH4@@QEAA?AViterator@12@XZ 0000000140054d3c f i libvcruntime:frame.obj
 0001:00053d4c       ?begin@HandlerMap@__FrameHandler3@@QEAA?AViterator@12@XZ 0000000140054d4c f i libvcruntime:frame.obj
 0001:00053d5c       ?begin@UWMap4@FH4@@QEAA?AViterator@12@XZ 0000000140054d5c f i libvcruntime:frame.obj
 0001:00053d70       ?end@HandlerMap4@FH4@@QEAA?AViterator@12@XZ 0000000140054d70 f i libvcruntime:frame.obj
 0001:00053d80       ?end@HandlerMap@__FrameHandler3@@QEAA?AViterator@12@XZ 0000000140054d80 f i libvcruntime:frame.obj
 0001:00053d90       ?getESTypes@__FrameHandler3@@SAPEBU_s_ESTypeList@@PEBU_s_FuncInfo@@@Z 0000000140054d90 f i libvcruntime:frame.obj
 0001:00053dc4       ?getESTypes@__FrameHandler4@@SAPEBU_s_ESTypeList@@PEAUFuncInfo4@FH4@@@Z 0000000140054dc4 f i libvcruntime:frame.obj
 0001:00053dc8       ?getLastEntry@HandlerMap4@FH4@@QEAAPEAUHandlerType4@2@XZ 0000000140054dc8 f i libvcruntime:frame.obj
 0001:00053e2c       ?getLastEntry@HandlerMap@__FrameHandler3@@QEAAPEBU_s_HandlerType@@XZ 0000000140054e2c f i libvcruntime:frame.obj
 0001:00053e44       ?getMagicNum@__FrameHandler3@@SAIPEBU_s_FuncInfo@@@Z 0000000140054e44 f i libvcruntime:frame.obj
 0001:00053e50       ?getMagicNum@__FrameHandler4@@SAIPEAUFuncInfo4@FH4@@@Z 0000000140054e50 f i libvcruntime:frame.obj
 0001:00053e58       ?getNumTryBlocks@TryBlockMap4@FH4@@QEAAIXZ 0000000140054e58 f i libvcruntime:frame.obj
 0001:00053e5c       ?getNumTryBlocks@TryBlockMap@__FrameHandler3@@QEAAIXZ 0000000140054e5c f i libvcruntime:frame.obj
 0001:00053e64       ?getStartStop@UWMap4@FH4@@QEAAXHHAEAViterator@12@0@Z 0000000140054e64 f i libvcruntime:frame.obj
 0001:00053f68       ?getStateFromIterators@UWMap4@FH4@@SAHAEBViterator@12@H0H0@Z 0000000140054f68 f i libvcruntime:frame.obj
 0001:00054044       ?isEHs@__FrameHandler3@@SA_NPEBU_s_FuncInfo@@@Z 0000000140055044 f i libvcruntime:frame.obj
 0001:0005404c       ?isEHs@__FrameHandler4@@SA_NPEAUFuncInfo4@FH4@@@Z 000000014005504c f i libvcruntime:frame.obj
 0001:00054058       ?isNoExcept@__FrameHandler3@@SA_NPEBU_s_FuncInfo@@@Z 0000000140055058 f i libvcruntime:frame.obj
 0001:00054064       ?isNoExcept@__FrameHandler4@@SA_NPEAUFuncInfo4@FH4@@@Z 0000000140055064 f i libvcruntime:frame.obj
 0001:00054070       ?reset@HandlerType4@FH4@@QEAAXXZ 0000000140055070 f i libvcruntime:frame.obj
 0001:0005408c       ?resetBuffer@HandlerMap4@FH4@@QEAAXXZ 000000014005508c f i libvcruntime:frame.obj
 0001:0005409c       ?setBuffer@HandlerMap4@FH4@@QEAAXI@Z 000000014005509c f i libvcruntime:frame.obj
 0001:000540e4       __BuildCatchObject         00000001400550e4 f   libvcruntime:frame.obj
 0001:000540ec       __BuildCatchObjectHelper   00000001400550ec f   libvcruntime:frame.obj
 0001:000540f4       __TypeMatch                00000001400550f4 f   libvcruntime:frame.obj
 0001:000540fc       __vcrt_EncodePointer       00000001400550fc f i libvcruntime:frame.obj
 0001:00054160       _CallSettingFrame          0000000140055160 f   libvcruntime:handlers.obj
 0001:000541b0       _CallSettingFrame_LookupContinuationIndex 00000001400551b0 f   libvcruntime:handlers.obj
 0001:000541f0       _CallSettingFrame_NotifyContinuationAddr 00000001400551f0 f   libvcruntime:handlers.obj
 0001:00054220       _CallSettingFrameEncoded   0000000140055220 f   libvcruntime:handlers.obj
 0001:000542f4       strcpy_s                   00000001400552f4 f   libucrt:strcpy_s.obj
 0001:0005436c       free                       000000014005536c f   libucrt:free.obj
 0001:00054384       ??$?RPEAU__crt_stdio_stream_data@@@__crt_internal_free_policy@@QEBAXQEBQEAU__crt_stdio_stream_data@@@Z 0000000140055384 f i libucrt:_file.obj
 0001:00054390       ??0?$__crt_unique_heap_ptr@PEAU__crt_stdio_stream_data@@U__crt_internal_free_policy@@@@QEAA@QEAPEAU__crt_stdio_stream_data@@@Z 0000000140055390 f i libucrt:_file.obj
 0001:00054398       ??0__crt_stdio_stream@@QEAA@QEAU_iobuf@@@Z 0000000140055398 f i libucrt:_file.obj
 0001:000543a0       ??1?$__crt_unique_heap_ptr@PEAU__crt_stdio_stream_data@@U__crt_internal_free_policy@@@@QEAA@XZ 00000001400553a0 f i libucrt:_file.obj
 0001:000543c4       ??C__crt_stdio_stream@@QEBAPEAU__crt_stdio_stream_data@@XZ 00000001400553c4 f i libucrt:_file.obj
 0001:000543c8       ?detach@?$__crt_unique_heap_ptr@PEAU__crt_stdio_stream_data@@U__crt_internal_free_policy@@@@QEAAPEAPEAU__crt_stdio_stream_data@@XZ 00000001400553c8 f i libucrt:_file.obj
 0001:000543d4       ?release@?$__crt_unique_heap_ptr@PEAU__crt_stdio_stream_data@@U__crt_internal_free_policy@@@@QEAAXXZ 00000001400553d4 f i libucrt:_file.obj
 0001:000543f8       __acrt_initialize_stdio    00000001400553f8 f   libucrt:_file.obj
 0001:00054560       __acrt_iob_func            0000000140055560 f   libucrt:_file.obj
 0001:00054578       __acrt_uninitialize_stdio  0000000140055578 f   libucrt:_file.obj
 0001:000545ec       _get_stream_buffer_pointers 00000001400555ec f   libucrt:_file.obj
 0001:00054644       _lock_file                 0000000140055644 f   libucrt:_file.obj
 0001:00054654       _unlock_file               0000000140055654 f   libucrt:_file.obj
 0001:00054664       ??$?0AEBV?$stream_output_adapter@D@__crt_stdio_output@@AEB_KAEBQEBDAEAV__crt_cached_ptd_host@@AEBQEAD@?$format_validation_base@DV?$stream_output_adapter@D@__crt_stdio_output@@@__crt_stdio_output@@IEAA@AEBV?$stream_output_adapter@D@1@AEB_KAEBQEBDAEAV__crt_cached_ptd_host@@AEBQEAD@Z 0000000140055664 f i libucrt:output.obj
 0001:000546f0       ??$?0AEBV?$stream_output_adapter@D@__crt_stdio_output@@AEB_KAEBQEBDAEAV__crt_cached_ptd_host@@AEBQEAD@?$positional_parameter_base@DV?$stream_output_adapter@D@__crt_stdio_output@@@__crt_stdio_output@@IEAA@AEBV?$stream_output_adapter@D@1@AEB_KAEBQEBDAEAV__crt_cached_ptd_host@@AEBQEAD@Z 00000001400556f0 f i libucrt:output.obj
 0001:000547a0       ??$?0AEBV?$stream_output_adapter@D@__crt_stdio_output@@AEB_KAEBQEBDAEAV__crt_cached_ptd_host@@AEBQEAD@?$standard_base@DV?$stream_output_adapter@D@__crt_stdio_output@@@__crt_stdio_output@@IEAA@AEBV?$stream_output_adapter@D@1@AEB_KAEBQEBDAEAV__crt_cached_ptd_host@@AEBQEAD@Z 00000001400557a0 f i libucrt:output.obj
 0001:0005482c       ??$?0AEBV?$stream_output_adapter@_W@__crt_stdio_output@@AEB_KAEBQEB_WAEAV__crt_cached_ptd_host@@AEBQEAD@?$format_validation_base@_WV?$stream_output_adapter@_W@__crt_stdio_output@@@__crt_stdio_output@@IEAA@AEBV?$stream_output_adapter@_W@1@AEB_KAEBQEB_WAEAV__crt_cached_ptd_host@@AEBQEAD@Z 000000014005582c f i libucrt:output.obj
 0001:000548c0       ??$?0AEBV?$stream_output_adapter@_W@__crt_stdio_output@@AEB_KAEBQEB_WAEAV__crt_cached_ptd_host@@AEBQEAD@?$positional_parameter_base@_WV?$stream_output_adapter@_W@__crt_stdio_output@@@__crt_stdio_output@@IEAA@AEBV?$stream_output_adapter@_W@1@AEB_KAEBQEB_WAEAV__crt_cached_ptd_host@@AEBQEAD@Z 00000001400558c0 f i libucrt:output.obj
 0001:00054978       ??$?0AEBV?$stream_output_adapter@_W@__crt_stdio_output@@AEB_KAEBQEB_WAEAV__crt_cached_ptd_host@@AEBQEAD@?$standard_base@_WV?$stream_output_adapter@_W@__crt_stdio_output@@@__crt_stdio_output@@IEAA@AEBV?$stream_output_adapter@_W@1@AEB_KAEBQEB_WAEAV__crt_cached_ptd_host@@AEBQEAD@Z 0000000140055978 f i libucrt:output.obj
 0001:00054a0c       ??$?0AEBV?$string_output_adapter@D@__crt_stdio_output@@AEB_KAEBQEBDAEAV__crt_cached_ptd_host@@AEBQEAD@?$format_validation_base@DV?$string_output_adapter@D@__crt_stdio_output@@@__crt_stdio_output@@IEAA@AEBV?$string_output_adapter@D@1@AEB_KAEBQEBDAEAV__crt_cached_ptd_host@@AEBQEAD@Z 0000000140055a0c f i libucrt:output.obj
 0001:00054a98       ??$?0AEBV?$string_output_adapter@D@__crt_stdio_output@@AEB_KAEBQEBDAEAV__crt_cached_ptd_host@@AEBQEAD@?$positional_parameter_base@DV?$string_output_adapter@D@__crt_stdio_output@@@__crt_stdio_output@@IEAA@AEBV?$string_output_adapter@D@1@AEB_KAEBQEBDAEAV__crt_cached_ptd_host@@AEBQEAD@Z 0000000140055a98 f i libucrt:output.obj
 0001:00054b48       ??$?0AEBV?$string_output_adapter@D@__crt_stdio_output@@AEB_KAEBQEBDAEAV__crt_cached_ptd_host@@AEBQEAD@?$standard_base@DV?$string_output_adapter@D@__crt_stdio_output@@@__crt_stdio_output@@IEAA@AEBV?$string_output_adapter@D@1@AEB_KAEBQEBDAEAV__crt_cached_ptd_host@@AEBQEAD@Z 0000000140055b48 f i libucrt:output.obj
 0001:00054bd4       ??$?0AEBV?$string_output_adapter@_W@__crt_stdio_output@@AEB_KAEBQEB_WAEAV__crt_cached_ptd_host@@AEBQEAD@?$format_validation_base@_WV?$string_output_adapter@_W@__crt_stdio_output@@@__crt_stdio_output@@IEAA@AEBV?$string_output_adapter@_W@1@AEB_KAEBQEB_WAEAV__crt_cached_ptd_host@@AEBQEAD@Z 0000000140055bd4 f i libucrt:output.obj
 0001:00054c68       ??$?0AEBV?$string_output_adapter@_W@__crt_stdio_output@@AEB_KAEBQEB_WAEAV__crt_cached_ptd_host@@AEBQEAD@?$positional_parameter_base@_WV?$string_output_adapter@_W@__crt_stdio_output@@@__crt_stdio_output@@IEAA@AEBV?$string_output_adapter@_W@1@AEB_KAEBQEB_WAEAV__crt_cached_ptd_host@@AEBQEAD@Z 0000000140055c68 f i libucrt:output.obj
 0001:00054d20       ??$?0AEBV?$string_output_adapter@_W@__crt_stdio_output@@AEB_KAEBQEB_WAEAV__crt_cached_ptd_host@@AEBQEAD@?$standard_base@_WV?$string_output_adapter@_W@__crt_stdio_output@@@__crt_stdio_output@@IEAA@AEBV?$string_output_adapter@_W@1@AEB_KAEBQEB_WAEAV__crt_cached_ptd_host@@AEBQEAD@Z 0000000140055d20 f i libucrt:output.obj
 0001:000550b4       ??$__crt_interlocked_read@J@@YAJPEDJ@Z 00000001400560b4 f i libucrt:output.obj
 0001:000550b8       ??$_tcstol_internal@DPEAPEAD$0A@@@YAJAEAV__crt_cached_ptd_host@@QEBDQEAPEADH@Z 00000001400560b8 f i libucrt:output.obj
 0001:000550f4       ??$_tcstol_internal@_WPEAPEA_W$0A@@@YAJAEAV__crt_cached_ptd_host@@QEB_WQEAPEA_WH@Z 00000001400560f4 f i libucrt:output.obj
 0001:00056690       ??$count@D@formatting_buffer@__crt_stdio_output@@QEBA_KXZ 0000000140057690 f i libucrt:output.obj
 0001:000566b4       ??$count@_W@formatting_buffer@__crt_stdio_output@@QEBA_KXZ 00000001400576b4 f i libucrt:output.obj
 0001:000566d8       ??$data@D@formatting_buffer@__crt_stdio_output@@QEAAPEADXZ 00000001400576d8 f i libucrt:output.obj
 0001:000566ec       ??$data@_W@formatting_buffer@__crt_stdio_output@@QEAAPEA_WXZ 00000001400576ec f i libucrt:output.obj
 0001:00056700       ??$ensure_buffer_is_big_enough@D@formatting_buffer@__crt_stdio_output@@QEAA_N_KAEAV__crt_cached_ptd_host@@@Z 0000000140057700 f i libucrt:output.obj
 0001:000567d4       ??$ensure_buffer_is_big_enough@_W@formatting_buffer@__crt_stdio_output@@QEAA_N_KAEAV__crt_cached_ptd_host@@@Z 00000001400577d4 f i libucrt:output.obj
 0001:000568ac       ??$extract_argument_from_va_list@C_J@?$positional_parameter_base@DV?$stream_output_adapter@D@__crt_stdio_output@@@__crt_stdio_output@@IEAA_NAEA_J@Z 00000001400578ac f i libucrt:output.obj
 0001:000569f8       ??$extract_argument_from_va_list@C_J@?$positional_parameter_base@DV?$string_output_adapter@D@__crt_stdio_output@@@__crt_stdio_output@@IEAA_NAEA_J@Z 00000001400579f8 f i libucrt:output.obj
 0001:00056b44       ??$extract_argument_from_va_list@C_J@?$positional_parameter_base@_WV?$stream_output_adapter@_W@__crt_stdio_output@@@__crt_stdio_output@@IEAA_NAEA_J@Z 0000000140057b44 f i libucrt:output.obj
 0001:00056c94       ??$extract_argument_from_va_list@C_J@?$positional_parameter_base@_WV?$string_output_adapter@_W@__crt_stdio_output@@@__crt_stdio_output@@IEAA_NAEA_J@Z 0000000140057c94 f i libucrt:output.obj
 0001:00056de4       ??$extract_argument_from_va_list@C_J@?$standard_base@DV?$stream_output_adapter@D@__crt_stdio_output@@@__crt_stdio_output@@IEAA_NAEA_J@Z 0000000140057de4 f i libucrt:output.obj
 0001:00056e00       ??$extract_argument_from_va_list@C_J@?$standard_base@DV?$string_output_adapter@D@__crt_stdio_output@@@__crt_stdio_output@@IEAA_NAEA_J@Z 0000000140057e00 f i libucrt:output.obj
 0001:00056e1c       ??$extract_argument_from_va_list@C_J@?$standard_base@_WV?$stream_output_adapter@_W@__crt_stdio_output@@@__crt_stdio_output@@IEAA_NAEA_J@Z 0000000140057e1c f i libucrt:output.obj
 0001:00056e38       ??$extract_argument_from_va_list@C_J@?$standard_base@_WV?$string_output_adapter@_W@__crt_stdio_output@@@__crt_stdio_output@@IEAA_NAEA_J@Z 0000000140057e38 f i libucrt:output.obj
 0001:00056e54       ??$extract_argument_from_va_list@E_J@?$positional_parameter_base@DV?$stream_output_adapter@D@__crt_stdio_output@@@__crt_stdio_output@@IEAA_NAEA_J@Z 0000000140057e54 f i libucrt:output.obj
 0001:00056fa0       ??$extract_argument_from_va_list@E_J@?$positional_parameter_base@DV?$string_output_adapter@D@__crt_stdio_output@@@__crt_stdio_output@@IEAA_NAEA_J@Z 0000000140057fa0 f i libucrt:output.obj
 0001:000570ec       ??$extract_argument_from_va_list@E_J@?$positional_parameter_base@_WV?$stream_output_adapter@_W@__crt_stdio_output@@@__crt_stdio_output@@IEAA_NAEA_J@Z 00000001400580ec f i libucrt:output.obj
 0001:00057238       ??$extract_argument_from_va_list@E_J@?$positional_parameter_base@_WV?$string_output_adapter@_W@__crt_stdio_output@@@__crt_stdio_output@@IEAA_NAEA_J@Z 0000000140058238 f i libucrt:output.obj
 0001:00057384       ??$extract_argument_from_va_list@E_J@?$standard_base@DV?$stream_output_adapter@D@__crt_stdio_output@@@__crt_stdio_output@@IEAA_NAEA_J@Z 0000000140058384 f i libucrt:output.obj
 0001:000573a0       ??$extract_argument_from_va_list@E_J@?$standard_base@DV?$string_output_adapter@D@__crt_stdio_output@@@__crt_stdio_output@@IEAA_NAEA_J@Z 00000001400583a0 f i libucrt:output.obj
 0001:000573bc       ??$extract_argument_from_va_list@E_J@?$standard_base@_WV?$stream_output_adapter@_W@__crt_stdio_output@@@__crt_stdio_output@@IEAA_NAEA_J@Z 00000001400583bc f i libucrt:output.obj
 0001:000573d8       ??$extract_argument_from_va_list@E_J@?$standard_base@_WV?$string_output_adapter@_W@__crt_stdio_output@@@__crt_stdio_output@@IEAA_NAEA_J@Z 00000001400583d8 f i libucrt:output.obj
 0001:000573f4       ??$extract_argument_from_va_list@F_J@?$positional_parameter_base@DV?$stream_output_adapter@D@__crt_stdio_output@@@__crt_stdio_output@@IEAA_NAEA_J@Z 00000001400583f4 f i libucrt:output.obj
 0001:00057540       ??$extract_argument_from_va_list@F_J@?$positional_parameter_base@DV?$string_output_adapter@D@__crt_stdio_output@@@__crt_stdio_output@@IEAA_NAEA_J@Z 0000000140058540 f i libucrt:output.obj
 0001:0005768c       ??$extract_argument_from_va_list@F_J@?$positional_parameter_base@_WV?$stream_output_adapter@_W@__crt_stdio_output@@@__crt_stdio_output@@IEAA_NAEA_J@Z 000000014005868c f i libucrt:output.obj
 0001:000577dc       ??$extract_argument_from_va_list@F_J@?$positional_parameter_base@_WV?$string_output_adapter@_W@__crt_stdio_output@@@__crt_stdio_output@@IEAA_NAEA_J@Z 00000001400587dc f i libucrt:output.obj
 0001:0005792c       ??$extract_argument_from_va_list@F_J@?$standard_base@DV?$stream_output_adapter@D@__crt_stdio_output@@@__crt_stdio_output@@IEAA_NAEA_J@Z 000000014005892c f i libucrt:output.obj
 0001:00057948       ??$extract_argument_from_va_list@F_J@?$standard_base@DV?$string_output_adapter@D@__crt_stdio_output@@@__crt_stdio_output@@IEAA_NAEA_J@Z 0000000140058948 f i libucrt:output.obj
 0001:00057964       ??$extract_argument_from_va_list@F_J@?$standard_base@_WV?$stream_output_adapter@_W@__crt_stdio_output@@@__crt_stdio_output@@IEAA_NAEA_J@Z 0000000140058964 f i libucrt:output.obj
 0001:00057980       ??$extract_argument_from_va_list@F_J@?$standard_base@_WV?$string_output_adapter@_W@__crt_stdio_output@@@__crt_stdio_output@@IEAA_NAEA_J@Z 0000000140058980 f i libucrt:output.obj
 0001:0005799c       ??$extract_argument_from_va_list@GD@?$positional_parameter_base@DV?$stream_output_adapter@D@__crt_stdio_output@@@__crt_stdio_output@@IEAA_NAEAD@Z 000000014005899c f i libucrt:output.obj
 0001:00057ae4       ??$extract_argument_from_va_list@GD@?$positional_parameter_base@DV?$string_output_adapter@D@__crt_stdio_output@@@__crt_stdio_output@@IEAA_NAEAD@Z 0000000140058ae4 f i libucrt:output.obj
 0001:00057c2c       ??$extract_argument_from_va_list@GD@?$standard_base@DV?$stream_output_adapter@D@__crt_stdio_output@@@__crt_stdio_output@@IEAA_NAEAD@Z 0000000140058c2c f i libucrt:output.obj
 0001:00057c48       ??$extract_argument_from_va_list@GD@?$standard_base@DV?$string_output_adapter@D@__crt_stdio_output@@@__crt_stdio_output@@IEAA_NAEAD@Z 0000000140058c48 f i libucrt:output.obj
 0001:00057c64       ??$extract_argument_from_va_list@G_J@?$positional_parameter_base@DV?$stream_output_adapter@D@__crt_stdio_output@@@__crt_stdio_output@@IEAA_NAEA_J@Z 0000000140058c64 f i libucrt:output.obj
 0001:00057db0       ??$extract_argument_from_va_list@G_J@?$positional_parameter_base@DV?$string_output_adapter@D@__crt_stdio_output@@@__crt_stdio_output@@IEAA_NAEA_J@Z 0000000140058db0 f i libucrt:output.obj
 0001:00057efc       ??$extract_argument_from_va_list@G_J@?$positional_parameter_base@_WV?$stream_output_adapter@_W@__crt_stdio_output@@@__crt_stdio_output@@IEAA_NAEA_J@Z 0000000140058efc f i libucrt:output.obj
 0001:00058048       ??$extract_argument_from_va_list@G_J@?$positional_parameter_base@_WV?$string_output_adapter@_W@__crt_stdio_output@@@__crt_stdio_output@@IEAA_NAEA_J@Z 0000000140059048 f i libucrt:output.obj
 0001:00058194       ??$extract_argument_from_va_list@G_J@?$standard_base@DV?$stream_output_adapter@D@__crt_stdio_output@@@__crt_stdio_output@@IEAA_NAEA_J@Z 0000000140059194 f i libucrt:output.obj
 0001:000581b0       ??$extract_argument_from_va_list@G_J@?$standard_base@DV?$string_output_adapter@D@__crt_stdio_output@@@__crt_stdio_output@@IEAA_NAEA_J@Z 00000001400591b0 f i libucrt:output.obj
 0001:000581cc       ??$extract_argument_from_va_list@G_J@?$standard_base@_WV?$stream_output_adapter@_W@__crt_stdio_output@@@__crt_stdio_output@@IEAA_NAEA_J@Z 00000001400591cc f i libucrt:output.obj
 0001:000581e8       ??$extract_argument_from_va_list@G_J@?$standard_base@_WV?$string_output_adapter@_W@__crt_stdio_output@@@__crt_stdio_output@@IEAA_NAEA_J@Z 00000001400591e8 f i libucrt:output.obj
 0001:00058204       ??$extract_argument_from_va_list@H_J@?$positional_parameter_base@DV?$stream_output_adapter@D@__crt_stdio_output@@@__crt_stdio_output@@IEAA_NAEA_J@Z 0000000140059204 f i libucrt:output.obj
 0001:0005834c       ??$extract_argument_from_va_list@H_J@?$positional_parameter_base@DV?$string_output_adapter@D@__crt_stdio_output@@@__crt_stdio_output@@IEAA_NAEA_J@Z 000000014005934c f i libucrt:output.obj
 0001:00058494       ??$extract_argument_from_va_list@H_J@?$positional_parameter_base@_WV?$stream_output_adapter@_W@__crt_stdio_output@@@__crt_stdio_output@@IEAA_NAEA_J@Z 0000000140059494 f i libucrt:output.obj
 0001:000585e0       ??$extract_argument_from_va_list@H_J@?$positional_parameter_base@_WV?$string_output_adapter@_W@__crt_stdio_output@@@__crt_stdio_output@@IEAA_NAEA_J@Z 00000001400595e0 f i libucrt:output.obj
 0001:0005872c       ??$extract_argument_from_va_list@H_J@?$standard_base@DV?$stream_output_adapter@D@__crt_stdio_output@@@__crt_stdio_output@@IEAA_NAEA_J@Z 000000014005972c f i libucrt:output.obj
 0001:00058748       ??$extract_argument_from_va_list@H_J@?$standard_base@DV?$string_output_adapter@D@__crt_stdio_output@@@__crt_stdio_output@@IEAA_NAEA_J@Z 0000000140059748 f i libucrt:output.obj
 0001:00058764       ??$extract_argument_from_va_list@H_J@?$standard_base@_WV?$stream_output_adapter@_W@__crt_stdio_output@@@__crt_stdio_output@@IEAA_NAEA_J@Z 0000000140059764 f i libucrt:output.obj
 0001:00058780       ??$extract_argument_from_va_list@H_J@?$standard_base@_WV?$string_output_adapter@_W@__crt_stdio_output@@@__crt_stdio_output@@IEAA_NAEA_J@Z 0000000140059780 f i libucrt:output.obj
 0001:0005879c       ??$extract_argument_from_va_list@I_J@?$positional_parameter_base@DV?$stream_output_adapter@D@__crt_stdio_output@@@__crt_stdio_output@@IEAA_NAEA_J@Z 000000014005979c f i libucrt:output.obj
 0001:000588e4       ??$extract_argument_from_va_list@I_J@?$positional_parameter_base@DV?$string_output_adapter@D@__crt_stdio_output@@@__crt_stdio_output@@IEAA_NAEA_J@Z 00000001400598e4 f i libucrt:output.obj
 0001:00058a2c       ??$extract_argument_from_va_list@I_J@?$positional_parameter_base@_WV?$stream_output_adapter@_W@__crt_stdio_output@@@__crt_stdio_output@@IEAA_NAEA_J@Z 0000000140059a2c f i libucrt:output.obj
 0001:00058b78       ??$extract_argument_from_va_list@I_J@?$positional_parameter_base@_WV?$string_output_adapter@_W@__crt_stdio_output@@@__crt_stdio_output@@IEAA_NAEA_J@Z 0000000140059b78 f i libucrt:output.obj
 0001:00058cc4       ??$extract_argument_from_va_list@I_J@?$standard_base@DV?$stream_output_adapter@D@__crt_stdio_output@@@__crt_stdio_output@@IEAA_NAEA_J@Z 0000000140059cc4 f i libucrt:output.obj
 0001:00058ce0       ??$extract_argument_from_va_list@I_J@?$standard_base@DV?$string_output_adapter@D@__crt_stdio_output@@@__crt_stdio_output@@IEAA_NAEA_J@Z 0000000140059ce0 f i libucrt:output.obj
 0001:00058cfc       ??$extract_argument_from_va_list@I_J@?$standard_base@_WV?$stream_output_adapter@_W@__crt_stdio_output@@@__crt_stdio_output@@IEAA_NAEA_J@Z 0000000140059cfc f i libucrt:output.obj
 0001:00058d18       ??$extract_argument_from_va_list@I_J@?$standard_base@_WV?$string_output_adapter@_W@__crt_stdio_output@@@__crt_stdio_output@@IEAA_NAEA_J@Z 0000000140059d18 f i libucrt:output.obj
 0001:00058d34       ??$extract_argument_from_va_list@PEADPEAD@?$positional_parameter_base@DV?$stream_output_adapter@D@__crt_stdio_output@@@__crt_stdio_output@@IEAA_NAEAPEAD@Z 0000000140059d34 f i libucrt:output.obj
 0001:00058e7c       ??$extract_argument_from_va_list@PEADPEAD@?$positional_parameter_base@DV?$string_output_adapter@D@__crt_stdio_output@@@__crt_stdio_output@@IEAA_NAEAPEAD@Z 0000000140059e7c f i libucrt:output.obj
 0001:00058fc4       ??$extract_argument_from_va_list@PEADPEAD@?$positional_parameter_base@_WV?$stream_output_adapter@_W@__crt_stdio_output@@@__crt_stdio_output@@IEAA_NAEAPEAD@Z 0000000140059fc4 f i libucrt:output.obj
 0001:00059110       ??$extract_argument_from_va_list@PEADPEAD@?$positional_parameter_base@_WV?$string_output_adapter@_W@__crt_stdio_output@@@__crt_stdio_output@@IEAA_NAEAPEAD@Z 000000014005a110 f i libucrt:output.obj
 0001:0005925c       ??$extract_argument_from_va_list@PEADPEAD@?$standard_base@DV?$stream_output_adapter@D@__crt_stdio_output@@@__crt_stdio_output@@IEAA_NAEAPEAD@Z 000000014005a25c f i libucrt:output.obj
 0001:00059278       ??$extract_argument_from_va_list@PEADPEAD@?$standard_base@DV?$string_output_adapter@D@__crt_stdio_output@@@__crt_stdio_output@@IEAA_NAEAPEAD@Z 000000014005a278 f i libucrt:output.obj
 0001:00059294       ??$extract_argument_from_va_list@PEADPEAD@?$standard_base@_WV?$stream_output_adapter@_W@__crt_stdio_output@@@__crt_stdio_output@@IEAA_NAEAPEAD@Z 000000014005a294 f i libucrt:output.obj
 0001:000592b0       ??$extract_argument_from_va_list@PEADPEAD@?$standard_base@_WV?$string_output_adapter@_W@__crt_stdio_output@@@__crt_stdio_output@@IEAA_NAEAPEAD@Z 000000014005a2b0 f i libucrt:output.obj
 0001:000592cc       ??$extract_argument_from_va_list@PEAUansi_string@?1??type_case_Z@?$output_processor@DV?$stream_output_adapter@D@__crt_stdio_output@@V?$format_validation_base@DV?$stream_output_adapter@D@__crt_stdio_output@@@2@@__crt_stdio_output@@AEAA_NXZ@PEAU1?1??234@AEAA_NXZ@@?$standard_base@DV?$stream_output_adapter@D@__crt_stdio_output@@@__crt_stdio_output@@IEAA_NAEAPEAUansi_string@?1??type_case_Z@?$output_processor@DV?$stream_output_adapter@D@__crt_stdio_output@@V?$format_validation_base@DV?$stream_output_adapter@D@__crt_stdio_output@@@2@@1@AEAA_NXZ@@Z 000000014005a2cc f i libucrt:output.obj
 0001:000592e8       ??$extract_argument_from_va_list@PEAUansi_string@?1??type_case_Z@?$output_processor@DV?$stream_output_adapter@D@__crt_stdio_output@@V?$positional_parameter_base@DV?$stream_output_adapter@D@__crt_stdio_output@@@2@@__crt_stdio_output@@AEAA_NXZ@PEAU1?1??234@AEAA_NXZ@@?$positional_parameter_base@DV?$stream_output_adapter@D@__crt_stdio_output@@@__crt_stdio_output@@IEAA_NAEAPEAUansi_string@?1??type_case_Z@?$output_processor@DV?$stream_output_adapter@D@__crt_stdio_output@@V?$positional_parameter_base@DV?$stream_output_adapter@D@__crt_stdio_output@@@2@@1@AEAA_NXZ@@Z 000000014005a2e8 f i libucrt:output.obj
 0001:00059430       ??$extract_argument_from_va_list@PEAUansi_string@?1??type_case_Z@?$output_processor@DV?$stream_output_adapter@D@__crt_stdio_output@@V?$positional_parameter_base@DV?$stream_output_adapter@D@__crt_stdio_output@@@2@@__crt_stdio_output@@AEAA_NXZ@PEAU1?1??234@AEAA_NXZ@@?$standard_base@DV?$stream_output_adapter@D@__crt_stdio_output@@@__crt_stdio_output@@IEAA_NAEAPEAUansi_string@?1??type_case_Z@?$output_processor@DV?$stream_output_adapter@D@__crt_stdio_output@@V?$positional_parameter_base@DV?$stream_output_adapter@D@__crt_stdio_output@@@2@@1@AEAA_NXZ@@Z 000000014005a430 f i libucrt:output.obj
 0001:0005944c       ??$extract_argument_from_va_list@PEAUansi_string@?1??type_case_Z@?$output_processor@DV?$stream_output_adapter@D@__crt_stdio_output@@V?$standard_base@DV?$stream_output_adapter@D@__crt_stdio_output@@@2@@__crt_stdio_output@@AEAA_NXZ@PEAU1?1??234@AEAA_NXZ@@?$standard_base@DV?$stream_output_adapter@D@__crt_stdio_output@@@__crt_stdio_output@@IEAA_NAEAPEAUansi_string@?1??type_case_Z@?$output_processor@DV?$stream_output_adapter@D@__crt_stdio_output@@V?$standard_base@DV?$stream_output_adapter@D@__crt_stdio_output@@@2@@1@AEAA_NXZ@@Z 000000014005a44c f i libucrt:output.obj
 0001:00059468       ??$extract_argument_from_va_list@PEAUansi_string@?1??type_case_Z@?$output_processor@DV?$string_output_adapter@D@__crt_stdio_output@@V?$format_validation_base@DV?$string_output_adapter@D@__crt_stdio_output@@@2@@__crt_stdio_output@@AEAA_NXZ@PEAU1?1??234@AEAA_NXZ@@?$standard_base@DV?$string_output_adapter@D@__crt_stdio_output@@@__crt_stdio_output@@IEAA_NAEAPEAUansi_string@?1??type_case_Z@?$output_processor@DV?$string_output_adapter@D@__crt_stdio_output@@V?$format_validation_base@DV?$string_output_adapter@D@__crt_stdio_output@@@2@@1@AEAA_NXZ@@Z 000000014005a468 f i libucrt:output.obj
 0001:00059484       ??$extract_argument_from_va_list@PEAUansi_string@?1??type_case_Z@?$output_processor@DV?$string_output_adapter@D@__crt_stdio_output@@V?$positional_parameter_base@DV?$string_output_adapter@D@__crt_stdio_output@@@2@@__crt_stdio_output@@AEAA_NXZ@PEAU1?1??234@AEAA_NXZ@@?$positional_parameter_base@DV?$string_output_adapter@D@__crt_stdio_output@@@__crt_stdio_output@@IEAA_NAEAPEAUansi_string@?1??type_case_Z@?$output_processor@DV?$string_output_adapter@D@__crt_stdio_output@@V?$positional_parameter_base@DV?$string_output_adapter@D@__crt_stdio_output@@@2@@1@AEAA_NXZ@@Z 000000014005a484 f i libucrt:output.obj
 0001:000595cc       ??$extract_argument_from_va_list@PEAUansi_string@?1??type_case_Z@?$output_processor@DV?$string_output_adapter@D@__crt_stdio_output@@V?$positional_parameter_base@DV?$string_output_adapter@D@__crt_stdio_output@@@2@@__crt_stdio_output@@AEAA_NXZ@PEAU1?1??234@AEAA_NXZ@@?$standard_base@DV?$string_output_adapter@D@__crt_stdio_output@@@__crt_stdio_output@@IEAA_NAEAPEAUansi_string@?1??type_case_Z@?$output_processor@DV?$string_output_adapter@D@__crt_stdio_output@@V?$positional_parameter_base@DV?$string_output_adapter@D@__crt_stdio_output@@@2@@1@AEAA_NXZ@@Z 000000014005a5cc f i libucrt:output.obj
 0001:000595e8       ??$extract_argument_from_va_list@PEAUansi_string@?1??type_case_Z@?$output_processor@DV?$string_output_adapter@D@__crt_stdio_output@@V?$standard_base@DV?$string_output_adapter@D@__crt_stdio_output@@@2@@__crt_stdio_output@@AEAA_NXZ@PEAU1?1??234@AEAA_NXZ@@?$standard_base@DV?$string_output_adapter@D@__crt_stdio_output@@@__crt_stdio_output@@IEAA_NAEAPEAUansi_string@?1??type_case_Z@?$output_processor@DV?$string_output_adapter@D@__crt_stdio_output@@V?$standard_base@DV?$string_output_adapter@D@__crt_stdio_output@@@2@@1@AEAA_NXZ@@Z 000000014005a5e8 f i libucrt:output.obj
 0001:00059604       ??$extract_argument_from_va_list@PEAUansi_string@?1??type_case_Z@?$output_processor@_WV?$stream_output_adapter@_W@__crt_stdio_output@@V?$format_validation_base@_WV?$stream_output_adapter@_W@__crt_stdio_output@@@2@@__crt_stdio_output@@AEAA_NXZ@PEAU1?1??234@AEAA_NXZ@@?$standard_base@_WV?$stream_output_adapter@_W@__crt_stdio_output@@@__crt_stdio_output@@IEAA_NAEAPEAUansi_string@?1??type_case_Z@?$output_processor@_WV?$stream_output_adapter@_W@__crt_stdio_output@@V?$format_validation_base@_WV?$stream_output_adapter@_W@__crt_stdio_output@@@2@@1@AEAA_NXZ@@Z 000000014005a604 f i libucrt:output.obj
 0001:00059620       ??$extract_argument_from_va_list@PEAUansi_string@?1??type_case_Z@?$output_processor@_WV?$stream_output_adapter@_W@__crt_stdio_output@@V?$positional_parameter_base@_WV?$stream_output_adapter@_W@__crt_stdio_output@@@2@@__crt_stdio_output@@AEAA_NXZ@PEAU1?1??234@AEAA_NXZ@@?$positional_parameter_base@_WV?$stream_output_adapter@_W@__crt_stdio_output@@@__crt_stdio_output@@IEAA_NAEAPEAUansi_string@?1??type_case_Z@?$output_processor@_WV?$stream_output_adapter@_W@__crt_stdio_output@@V?$positional_parameter_base@_WV?$stream_output_adapter@_W@__crt_stdio_output@@@2@@1@AEAA_NXZ@@Z 000000014005a620 f i libucrt:output.obj
 0001:0005976c       ??$extract_argument_from_va_list@PEAUansi_string@?1??type_case_Z@?$output_processor@_WV?$stream_output_adapter@_W@__crt_stdio_output@@V?$positional_parameter_base@_WV?$stream_output_adapter@_W@__crt_stdio_output@@@2@@__crt_stdio_output@@AEAA_NXZ@PEAU1?1??234@AEAA_NXZ@@?$standard_base@_WV?$stream_output_adapter@_W@__crt_stdio_output@@@__crt_stdio_output@@IEAA_NAEAPEAUansi_string@?1??type_case_Z@?$output_processor@_WV?$stream_output_adapter@_W@__crt_stdio_output@@V?$positional_parameter_base@_WV?$stream_output_adapter@_W@__crt_stdio_output@@@2@@1@AEAA_NXZ@@Z 000000014005a76c f i libucrt:output.obj
 0001:00059788       ??$extract_argument_from_va_list@PEAUansi_string@?1??type_case_Z@?$output_processor@_WV?$stream_output_adapter@_W@__crt_stdio_output@@V?$standard_base@_WV?$stream_output_adapter@_W@__crt_stdio_output@@@2@@__crt_stdio_output@@AEAA_NXZ@PEAU1?1??234@AEAA_NXZ@@?$standard_base@_WV?$stream_output_adapter@_W@__crt_stdio_output@@@__crt_stdio_output@@IEAA_NAEAPEAUansi_string@?1??type_case_Z@?$output_processor@_WV?$stream_output_adapter@_W@__crt_stdio_output@@V?$standard_base@_WV?$stream_output_adapter@_W@__crt_stdio_output@@@2@@1@AEAA_NXZ@@Z 000000014005a788 f i libucrt:output.obj
 0001:000597a4       ??$extract_argument_from_va_list@PEAUansi_string@?1??type_case_Z@?$output_processor@_WV?$string_output_adapter@_W@__crt_stdio_output@@V?$format_validation_base@_WV?$string_output_adapter@_W@__crt_stdio_output@@@2@@__crt_stdio_output@@AEAA_NXZ@PEAU1?1??234@AEAA_NXZ@@?$standard_base@_WV?$string_output_adapter@_W@__crt_stdio_output@@@__crt_stdio_output@@IEAA_NAEAPEAUansi_string@?1??type_case_Z@?$output_processor@_WV?$string_output_adapter@_W@__crt_stdio_output@@V?$format_validation_base@_WV?$string_output_adapter@_W@__crt_stdio_output@@@2@@1@AEAA_NXZ@@Z 000000014005a7a4 f i libucrt:output.obj
 0001:000597c0       ??$extract_argument_from_va_list@PEAUansi_string@?1??type_case_Z@?$output_processor@_WV?$string_output_adapter@_W@__crt_stdio_output@@V?$positional_parameter_base@_WV?$string_output_adapter@_W@__crt_stdio_output@@@2@@__crt_stdio_output@@AEAA_NXZ@PEAU1?1??234@AEAA_NXZ@@?$positional_parameter_base@_WV?$string_output_adapter@_W@__crt_stdio_output@@@__crt_stdio_output@@IEAA_NAEAPEAUansi_string@?1??type_case_Z@?$output_processor@_WV?$string_output_adapter@_W@__crt_stdio_output@@V?$positional_parameter_base@_WV?$string_output_adapter@_W@__crt_stdio_output@@@2@@1@AEAA_NXZ@@Z 000000014005a7c0 f i libucrt:output.obj
 0001:0005990c       ??$extract_argument_from_va_list@PEAUansi_string@?1??type_case_Z@?$output_processor@_WV?$string_output_adapter@_W@__crt_stdio_output@@V?$positional_parameter_base@_WV?$string_output_adapter@_W@__crt_stdio_output@@@2@@__crt_stdio_output@@AEAA_NXZ@PEAU1?1??234@AEAA_NXZ@@?$standard_base@_WV?$string_output_adapter@_W@__crt_stdio_output@@@__crt_stdio_output@@IEAA_NAEAPEAUansi_string@?1??type_case_Z@?$output_processor@_WV?$string_output_adapter@_W@__crt_stdio_output@@V?$positional_parameter_base@_WV?$string_output_adapter@_W@__crt_stdio_output@@@2@@1@AEAA_NXZ@@Z 000000014005a90c f i libucrt:output.obj
 0001:00059928       ??$extract_argument_from_va_list@PEAUansi_string@?1??type_case_Z@?$output_processor@_WV?$string_output_adapter@_W@__crt_stdio_output@@V?$standard_base@_WV?$string_output_adapter@_W@__crt_stdio_output@@@2@@__crt_stdio_output@@AEAA_NXZ@PEAU1?1??234@AEAA_NXZ@@?$standard_base@_WV?$string_output_adapter@_W@__crt_stdio_output@@@__crt_stdio_output@@IEAA_NAEAPEAUansi_string@?1??type_case_Z@?$output_processor@_WV?$string_output_adapter@_W@__crt_stdio_output@@V?$standard_base@_WV?$string_output_adapter@_W@__crt_stdio_output@@@2@@1@AEAA_NXZ@@Z 000000014005a928 f i libucrt:output.obj
 0001:00059944       ??$extract_argument_from_va_list@PEAXPEAX@?$positional_parameter_base@DV?$stream_output_adapter@D@__crt_stdio_output@@@__crt_stdio_output@@IEAA_NAEAPEAX@Z 000000014005a944 f i libucrt:output.obj
 0001:00059a8c       ??$extract_argument_from_va_list@PEAXPEAX@?$positional_parameter_base@DV?$string_output_adapter@D@__crt_stdio_output@@@__crt_stdio_output@@IEAA_NAEAPEAX@Z 000000014005aa8c f i libucrt:output.obj
 0001:00059bd4       ??$extract_argument_from_va_list@PEAXPEAX@?$positional_parameter_base@_WV?$stream_output_adapter@_W@__crt_stdio_output@@@__crt_stdio_output@@IEAA_NAEAPEAX@Z 000000014005abd4 f i libucrt:output.obj
 0001:00059d20       ??$extract_argument_from_va_list@PEAXPEAX@?$positional_parameter_base@_WV?$string_output_adapter@_W@__crt_stdio_output@@@__crt_stdio_output@@IEAA_NAEAPEAX@Z 000000014005ad20 f i libucrt:output.obj
 0001:00059e6c       ??$extract_argument_from_va_list@PEAXPEAX@?$standard_base@DV?$stream_output_adapter@D@__crt_stdio_output@@@__crt_stdio_output@@IEAA_NAEAPEAX@Z 000000014005ae6c f i libucrt:output.obj
 0001:00059e88       ??$extract_argument_from_va_list@PEAXPEAX@?$standard_base@DV?$string_output_adapter@D@__crt_stdio_output@@@__crt_stdio_output@@IEAA_NAEAPEAX@Z 000000014005ae88 f i libucrt:output.obj
 0001:00059ea4       ??$extract_argument_from_va_list@PEAXPEAX@?$standard_base@_WV?$stream_output_adapter@_W@__crt_stdio_output@@@__crt_stdio_output@@IEAA_NAEAPEAX@Z 000000014005aea4 f i libucrt:output.obj
 0001:00059ec0       ??$extract_argument_from_va_list@PEAXPEAX@?$standard_base@_WV?$string_output_adapter@_W@__crt_stdio_output@@@__crt_stdio_output@@IEAA_NAEAPEAX@Z 000000014005aec0 f i libucrt:output.obj
 0001:00059edc       ??$extract_argument_from_va_list@U_CRT_DOUBLE@@U1@@?$positional_parameter_base@DV?$stream_output_adapter@D@__crt_stdio_output@@@__crt_stdio_output@@IEAA_NAEAU_CRT_DOUBLE@@@Z 000000014005aedc f i libucrt:output.obj
 0001:0005a028       ??$extract_argument_from_va_list@U_CRT_DOUBLE@@U1@@?$positional_parameter_base@DV?$string_output_adapter@D@__crt_stdio_output@@@__crt_stdio_output@@IEAA_NAEAU_CRT_DOUBLE@@@Z 000000014005b028 f i libucrt:output.obj
 0001:0005a174       ??$extract_argument_from_va_list@U_CRT_DOUBLE@@U1@@?$positional_parameter_base@_WV?$stream_output_adapter@_W@__crt_stdio_output@@@__crt_stdio_output@@IEAA_NAEAU_CRT_DOUBLE@@@Z 000000014005b174 f i libucrt:output.obj
 0001:0005a2c0       ??$extract_argument_from_va_list@U_CRT_DOUBLE@@U1@@?$positional_parameter_base@_WV?$string_output_adapter@_W@__crt_stdio_output@@@__crt_stdio_output@@IEAA_NAEAU_CRT_DOUBLE@@@Z 000000014005b2c0 f i libucrt:output.obj
 0001:0005a40c       ??$extract_argument_from_va_list@U_CRT_DOUBLE@@U1@@?$standard_base@DV?$stream_output_adapter@D@__crt_stdio_output@@@__crt_stdio_output@@IEAA_NAEAU_CRT_DOUBLE@@@Z 000000014005b40c f i libucrt:output.obj
 0001:0005a42c       ??$extract_argument_from_va_list@U_CRT_DOUBLE@@U1@@?$standard_base@DV?$string_output_adapter@D@__crt_stdio_output@@@__crt_stdio_output@@IEAA_NAEAU_CRT_DOUBLE@@@Z 000000014005b42c f i libucrt:output.obj
 0001:0005a44c       ??$extract_argument_from_va_list@U_CRT_DOUBLE@@U1@@?$standard_base@_WV?$stream_output_adapter@_W@__crt_stdio_output@@@__crt_stdio_output@@IEAA_NAEAU_CRT_DOUBLE@@@Z 000000014005b44c f i libucrt:output.obj
 0001:0005a46c       ??$extract_argument_from_va_list@U_CRT_DOUBLE@@U1@@?$standard_base@_WV?$string_output_adapter@_W@__crt_stdio_output@@@__crt_stdio_output@@IEAA_NAEAU_CRT_DOUBLE@@@Z 000000014005b46c f i libucrt:output.obj
 0001:0005a48c       ??$extract_argument_from_va_list@_J_J@?$positional_parameter_base@DV?$stream_output_adapter@D@__crt_stdio_output@@@__crt_stdio_output@@IEAA_NAEA_J@Z 000000014005b48c f i libucrt:output.obj
 0001:0005a5d4       ??$extract_argument_from_va_list@_J_J@?$positional_parameter_base@DV?$string_output_adapter@D@__crt_stdio_output@@@__crt_stdio_output@@IEAA_NAEA_J@Z 000000014005b5d4 f i libucrt:output.obj
 0001:0005a71c       ??$extract_argument_from_va_list@_J_J@?$positional_parameter_base@_WV?$stream_output_adapter@_W@__crt_stdio_output@@@__crt_stdio_output@@IEAA_NAEA_J@Z 000000014005b71c f i libucrt:output.obj
 0001:0005a868       ??$extract_argument_from_va_list@_J_J@?$positional_parameter_base@_WV?$string_output_adapter@_W@__crt_stdio_output@@@__crt_stdio_output@@IEAA_NAEA_J@Z 000000014005b868 f i libucrt:output.obj
 0001:0005a9b4       ??$extract_argument_from_va_list@_J_J@?$standard_base@DV?$stream_output_adapter@D@__crt_stdio_output@@@__crt_stdio_output@@IEAA_NAEA_J@Z 000000014005b9b4 f i libucrt:output.obj
 0001:0005a9d0       ??$extract_argument_from_va_list@_J_J@?$standard_base@DV?$string_output_adapter@D@__crt_stdio_output@@@__crt_stdio_output@@IEAA_NAEA_J@Z 000000014005b9d0 f i libucrt:output.obj
 0001:0005a9ec       ??$extract_argument_from_va_list@_J_J@?$standard_base@_WV?$stream_output_adapter@_W@__crt_stdio_output@@@__crt_stdio_output@@IEAA_NAEA_J@Z 000000014005b9ec f i libucrt:output.obj
 0001:0005aa08       ??$extract_argument_from_va_list@_J_J@?$standard_base@_WV?$string_output_adapter@_W@__crt_stdio_output@@@__crt_stdio_output@@IEAA_NAEA_J@Z 000000014005ba08 f i libucrt:output.obj
 0001:0005aa24       ??$extract_argument_from_va_list@_K_J@?$positional_parameter_base@DV?$stream_output_adapter@D@__crt_stdio_output@@@__crt_stdio_output@@IEAA_NAEA_J@Z 000000014005ba24 f i libucrt:output.obj
 0001:0005ab6c       ??$extract_argument_from_va_list@_K_J@?$positional_parameter_base@DV?$string_output_adapter@D@__crt_stdio_output@@@__crt_stdio_output@@IEAA_NAEA_J@Z 000000014005bb6c f i libucrt:output.obj
 0001:0005acb4       ??$extract_argument_from_va_list@_K_J@?$positional_parameter_base@_WV?$stream_output_adapter@_W@__crt_stdio_output@@@__crt_stdio_output@@IEAA_NAEA_J@Z 000000014005bcb4 f i libucrt:output.obj
 0001:0005ae00       ??$extract_argument_from_va_list@_K_J@?$positional_parameter_base@_WV?$string_output_adapter@_W@__crt_stdio_output@@@__crt_stdio_output@@IEAA_NAEA_J@Z 000000014005be00 f i libucrt:output.obj
 0001:0005af4c       ??$extract_argument_from_va_list@_K_J@?$standard_base@DV?$stream_output_adapter@D@__crt_stdio_output@@@__crt_stdio_output@@IEAA_NAEA_J@Z 000000014005bf4c f i libucrt:output.obj
 0001:0005af68       ??$extract_argument_from_va_list@_K_J@?$standard_base@DV?$string_output_adapter@D@__crt_stdio_output@@@__crt_stdio_output@@IEAA_NAEA_J@Z 000000014005bf68 f i libucrt:output.obj
 0001:0005af84       ??$extract_argument_from_va_list@_K_J@?$standard_base@_WV?$stream_output_adapter@_W@__crt_stdio_output@@@__crt_stdio_output@@IEAA_NAEA_J@Z 000000014005bf84 f i libucrt:output.obj
 0001:0005afa0       ??$extract_argument_from_va_list@_K_J@?$standard_base@_WV?$string_output_adapter@_W@__crt_stdio_output@@@__crt_stdio_output@@IEAA_NAEA_J@Z 000000014005bfa0 f i libucrt:output.obj
 0001:0005afbc       ??$extract_argument_from_va_list@_W_W@?$positional_parameter_base@DV?$stream_output_adapter@D@__crt_stdio_output@@@__crt_stdio_output@@IEAA_NAEA_W@Z 000000014005bfbc f i libucrt:output.obj
 0001:0005b108       ??$extract_argument_from_va_list@_W_W@?$positional_parameter_base@DV?$string_output_adapter@D@__crt_stdio_output@@@__crt_stdio_output@@IEAA_NAEA_W@Z 000000014005c108 f i libucrt:output.obj
 0001:0005b254       ??$extract_argument_from_va_list@_W_W@?$positional_parameter_base@_WV?$stream_output_adapter@_W@__crt_stdio_output@@@__crt_stdio_output@@IEAA_NAEA_W@Z 000000014005c254 f i libucrt:output.obj
 0001:0005b3a0       ??$extract_argument_from_va_list@_W_W@?$positional_parameter_base@_WV?$string_output_adapter@_W@__crt_stdio_output@@@__crt_stdio_output@@IEAA_NAEA_W@Z 000000014005c3a0 f i libucrt:output.obj
 0001:0005b4ec       ??$extract_argument_from_va_list@_W_W@?$standard_base@DV?$stream_output_adapter@D@__crt_stdio_output@@@__crt_stdio_output@@IEAA_NAEA_W@Z 000000014005c4ec f i libucrt:output.obj
 0001:0005b508       ??$extract_argument_from_va_list@_W_W@?$standard_base@DV?$string_output_adapter@D@__crt_stdio_output@@@__crt_stdio_output@@IEAA_NAEA_W@Z 000000014005c508 f i libucrt:output.obj
 0001:0005b524       ??$extract_argument_from_va_list@_W_W@?$standard_base@_WV?$stream_output_adapter@_W@__crt_stdio_output@@@__crt_stdio_output@@IEAA_NAEA_W@Z 000000014005c524 f i libucrt:output.obj
 0001:0005b540       ??$extract_argument_from_va_list@_W_W@?$standard_base@_WV?$string_output_adapter@_W@__crt_stdio_output@@@__crt_stdio_output@@IEAA_NAEA_W@Z 000000014005c540 f i libucrt:output.obj
 0001:0005b55c       ??$get_parameter_type@D@?$positional_parameter_base@DV?$stream_output_adapter@D@__crt_stdio_output@@@__crt_stdio_output@@CA?AW4parameter_type@01@PEAD@Z 000000014005c55c f i libucrt:output.obj
 0001:0005b564       ??$get_parameter_type@D@?$positional_parameter_base@DV?$string_output_adapter@D@__crt_stdio_output@@@__crt_stdio_output@@CA?AW4parameter_type@01@PEAD@Z 000000014005c564 f i libucrt:output.obj
 0001:0005b56c       ??$get_parameter_type@D@?$positional_parameter_base@_WV?$stream_output_adapter@_W@__crt_stdio_output@@@__crt_stdio_output@@CA?AW4parameter_type@01@PEAD@Z 000000014005c56c f i libucrt:output.obj
 0001:0005b574       ??$get_parameter_type@D@?$positional_parameter_base@_WV?$string_output_adapter@_W@__crt_stdio_output@@@__crt_stdio_output@@CA?AW4parameter_type@01@PEAD@Z 000000014005c574 f i libucrt:output.obj
 0001:0005b57c       ??$get_parameter_type@Uansi_string@?1??type_case_Z@?$output_processor@DV?$stream_output_adapter@D@__crt_stdio_output@@V?$positional_parameter_base@DV?$stream_output_adapter@D@__crt_stdio_output@@@2@@__crt_stdio_output@@AEAA_NXZ@@?$positional_parameter_base@DV?$stream_output_adapter@D@__crt_stdio_output@@@__crt_stdio_output@@CA?AW4parameter_type@01@PEAUansi_string@?1??type_case_Z@?$output_processor@DV?$stream_output_adapter@D@__crt_stdio_output@@V?$positional_parameter_base@DV?$stream_output_adapter@D@__crt_stdio_output@@@2@@1@AEAA_NXZ@@Z 000000014005c57c f i libucrt:output.obj
 0001:0005b584       ??$get_parameter_type@Uansi_string@?1??type_case_Z@?$output_processor@DV?$string_output_adapter@D@__crt_stdio_output@@V?$positional_parameter_base@DV?$string_output_adapter@D@__crt_stdio_output@@@2@@__crt_stdio_output@@AEAA_NXZ@@?$positional_parameter_base@DV?$string_output_adapter@D@__crt_stdio_output@@@__crt_stdio_output@@CA?AW4parameter_type@01@PEAUansi_string@?1??type_case_Z@?$output_processor@DV?$string_output_adapter@D@__crt_stdio_output@@V?$positional_parameter_base@DV?$string_output_adapter@D@__crt_stdio_output@@@2@@1@AEAA_NXZ@@Z 000000014005c584 f i libucrt:output.obj
 0001:0005b58c       ??$get_parameter_type@Uansi_string@?1??type_case_Z@?$output_processor@_WV?$stream_output_adapter@_W@__crt_stdio_output@@V?$positional_parameter_base@_WV?$stream_output_adapter@_W@__crt_stdio_output@@@2@@__crt_stdio_output@@AEAA_NXZ@@?$positional_parameter_base@_WV?$stream_output_adapter@_W@__crt_stdio_output@@@__crt_stdio_output@@CA?AW4parameter_type@01@PEAUansi_string@?1??type_case_Z@?$output_processor@_WV?$stream_output_adapter@_W@__crt_stdio_output@@V?$positional_parameter_base@_WV?$stream_output_adapter@_W@__crt_stdio_output@@@2@@1@AEAA_NXZ@@Z 000000014005c58c f i libucrt:output.obj
 0001:0005b594       ??$get_parameter_type@Uansi_string@?1??type_case_Z@?$output_processor@_WV?$string_output_adapter@_W@__crt_stdio_output@@V?$positional_parameter_base@_WV?$string_output_adapter@_W@__crt_stdio_output@@@2@@__crt_stdio_output@@AEAA_NXZ@@?$positional_parameter_base@_WV?$string_output_adapter@_W@__crt_stdio_output@@@__crt_stdio_output@@CA?AW4parameter_type@01@PEAUansi_string@?1??type_case_Z@?$output_processor@_WV?$string_output_adapter@_W@__crt_stdio_output@@V?$positional_parameter_base@_WV?$string_output_adapter@_W@__crt_stdio_output@@@2@@1@AEAA_NXZ@@Z 000000014005c594 f i libucrt:output.obj
 0001:0005b59c       ??$get_parameter_type@X@?$positional_parameter_base@DV?$stream_output_adapter@D@__crt_stdio_output@@@__crt_stdio_output@@CA?AW4parameter_type@01@PEAX@Z 000000014005c59c f i libucrt:output.obj
 0001:0005b5a4       ??$get_parameter_type@X@?$positional_parameter_base@DV?$string_output_adapter@D@__crt_stdio_output@@@__crt_stdio_output@@CA?AW4parameter_type@01@PEAX@Z 000000014005c5a4 f i libucrt:output.obj
 0001:0005b5ac       ??$get_parameter_type@X@?$positional_parameter_base@_WV?$stream_output_adapter@_W@__crt_stdio_output@@@__crt_stdio_output@@CA?AW4parameter_type@01@PEAX@Z 000000014005c5ac f i libucrt:output.obj
 0001:0005b5b4       ??$get_parameter_type@X@?$positional_parameter_base@_WV?$string_output_adapter@_W@__crt_stdio_output@@@__crt_stdio_output@@CA?AW4parameter_type@01@PEAX@Z 000000014005c5b4 f i libucrt:output.obj
 0001:0005b5bc       ??$is_character_specifier@D@?$positional_parameter_base@DV?$stream_output_adapter@D@__crt_stdio_output@@@__crt_stdio_output@@CA_ND@Z 000000014005c5bc f i libucrt:output.obj
 0001:0005b5c8       ??$is_character_specifier@D@?$positional_parameter_base@DV?$string_output_adapter@D@__crt_stdio_output@@@__crt_stdio_output@@CA_ND@Z 000000014005c5c8 f i libucrt:output.obj
 0001:0005b5d4       ??$is_character_specifier@_W@?$positional_parameter_base@_WV?$stream_output_adapter@_W@__crt_stdio_output@@@__crt_stdio_output@@CA_N_W@Z 000000014005c5d4 f i libucrt:output.obj
 0001:0005b5e8       ??$is_character_specifier@_W@?$positional_parameter_base@_WV?$string_output_adapter@_W@__crt_stdio_output@@@__crt_stdio_output@@CA_N_W@Z 000000014005c5e8 f i libucrt:output.obj
 0001:0005b5fc       ??$is_integral_specifier@D@?$positional_parameter_base@DV?$stream_output_adapter@D@__crt_stdio_output@@@__crt_stdio_output@@CA_ND@Z 000000014005c5fc f i libucrt:output.obj
 0001:0005b628       ??$is_integral_specifier@D@?$positional_parameter_base@DV?$string_output_adapter@D@__crt_stdio_output@@@__crt_stdio_output@@CA_ND@Z 000000014005c628 f i libucrt:output.obj
 0001:0005b654       ??$is_integral_specifier@_W@?$positional_parameter_base@_WV?$stream_output_adapter@_W@__crt_stdio_output@@@__crt_stdio_output@@CA_N_W@Z 000000014005c654 f i libucrt:output.obj
 0001:0005b684       ??$is_integral_specifier@_W@?$positional_parameter_base@_WV?$string_output_adapter@_W@__crt_stdio_output@@@__crt_stdio_output@@CA_N_W@Z 000000014005c684 f i libucrt:output.obj
 0001:0005b6b4       ??$is_overflow_condition@K@__crt_strtox@@YA_NIK@Z 000000014005c6b4 f i libucrt:output.obj
 0001:0005b6e4       ??$is_pointer_specifier@D@?$positional_parameter_base@DV?$stream_output_adapter@D@__crt_stdio_output@@@__crt_stdio_output@@CA_ND@Z 000000014005c6e4 f i libucrt:output.obj
 0001:0005b6ec       ??$is_pointer_specifier@D@?$positional_parameter_base@DV?$string_output_adapter@D@__crt_stdio_output@@@__crt_stdio_output@@CA_ND@Z 000000014005c6ec f i libucrt:output.obj
 0001:0005b6f4       ??$is_pointer_specifier@_W@?$positional_parameter_base@_WV?$stream_output_adapter@_W@__crt_stdio_output@@@__crt_stdio_output@@CA_N_W@Z 000000014005c6f4 f i libucrt:output.obj
 0001:0005b700       ??$is_pointer_specifier@_W@?$positional_parameter_base@_WV?$string_output_adapter@_W@__crt_stdio_output@@@__crt_stdio_output@@CA_N_W@Z 000000014005c700 f i libucrt:output.obj
 0001:0005b70c       ??$is_string_specifier@D@?$positional_parameter_base@DV?$stream_output_adapter@D@__crt_stdio_output@@@__crt_stdio_output@@CA_ND@Z 000000014005c70c f i libucrt:output.obj
 0001:0005b718       ??$is_string_specifier@D@?$positional_parameter_base@DV?$string_output_adapter@D@__crt_stdio_output@@@__crt_stdio_output@@CA_ND@Z 000000014005c718 f i libucrt:output.obj
 0001:0005b724       ??$is_string_specifier@_W@?$positional_parameter_base@_WV?$stream_output_adapter@_W@__crt_stdio_output@@@__crt_stdio_output@@CA_N_W@Z 000000014005c724 f i libucrt:output.obj
 0001:0005b738       ??$is_string_specifier@_W@?$positional_parameter_base@_WV?$string_output_adapter@_W@__crt_stdio_output@@@__crt_stdio_output@@CA_N_W@Z 000000014005c738 f i libucrt:output.obj
 0001:0005b74c       ??$is_wide_character_specifier@D@__crt_stdio_output@@YA_N_KDW4length_modifier@0@@Z 000000014005c74c f i libucrt:output.obj
 0001:0005b780       ??$is_wide_character_specifier@_W@__crt_stdio_output@@YA_N_K_WW4length_modifier@0@@Z 000000014005c780 f i libucrt:output.obj
 0001:0005b7d0       ??$make_c_string_character_source@DPEAPEAD@__crt_strtox@@YA?AV?$c_string_character_source@D@0@QEBDQEAPEAD@Z 000000014005c7d0 f i libucrt:output.obj
 0001:0005b7e8       ??$make_c_string_character_source@_WPEAPEA_W@__crt_strtox@@YA?AV?$c_string_character_source@_W@0@QEB_WQEAPEA_W@Z 000000014005c7e8 f i libucrt:output.obj
 0001:0005b800       ??$parse_integer@KV?$c_string_character_source@D@__crt_strtox@@$0A@@__crt_strtox@@YAKAEAV__crt_cached_ptd_host@@V?$c_string_character_source@D@0@H_N@Z 000000014005c800 f i libucrt:output.obj
 0001:0005bb60       ??$parse_integer@KV?$c_string_character_source@_W@__crt_strtox@@$0A@@__crt_strtox@@YAKAEAV__crt_cached_ptd_host@@V?$c_string_character_source@_W@0@H_N@Z 000000014005cb60 f i libucrt:output.obj
 0001:0005c4b4       ??$peek_va_arg@C@__crt_stdio_output@@YACPEAD@Z 000000014005d4b4 f i libucrt:output.obj
 0001:0005c4b8       ??$peek_va_arg@E@__crt_stdio_output@@YAEPEAD@Z 000000014005d4b8 f i libucrt:output.obj
 0001:0005c4bc       ??$peek_va_arg@F@__crt_stdio_output@@YAFPEAD@Z 000000014005d4bc f i libucrt:output.obj
 0001:0005c4c0       ??$peek_va_arg@G@__crt_stdio_output@@YAGPEAD@Z 000000014005d4c0 f i libucrt:output.obj
 0001:0005c4c4       ??$peek_va_arg@H@__crt_stdio_output@@YAHPEAD@Z 000000014005d4c4 f i libucrt:output.obj
 0001:0005c4c8       ??$peek_va_arg@I@__crt_stdio_output@@YAIPEAD@Z 000000014005d4c8 f i libucrt:output.obj
 0001:0005c4cc       ??$peek_va_arg@PEAD@__crt_stdio_output@@YAPEADPEAD@Z 000000014005d4cc f i libucrt:output.obj
 0001:0005c4d0       ??$peek_va_arg@PEAUansi_string@?1??type_case_Z@?$output_processor@DV?$stream_output_adapter@D@__crt_stdio_output@@V?$positional_parameter_base@DV?$stream_output_adapter@D@__crt_stdio_output@@@2@@__crt_stdio_output@@AEAA_NXZ@@__crt_stdio_output@@YAPEAUansi_string@?1??type_case_Z@?$output_processor@DV?$stream_output_adapter@D@__crt_stdio_output@@V?$positional_parameter_base@DV?$stream_output_adapter@D@__crt_stdio_output@@@2@@0@AEAA_NXZ@PEAD@Z 000000014005d4d0 f i libucrt:output.obj
 0001:0005c4d4       ??$peek_va_arg@PEAUansi_string@?1??type_case_Z@?$output_processor@DV?$string_output_adapter@D@__crt_stdio_output@@V?$positional_parameter_base@DV?$string_output_adapter@D@__crt_stdio_output@@@2@@__crt_stdio_output@@AEAA_NXZ@@__crt_stdio_output@@YAPEAUansi_string@?1??type_case_Z@?$output_processor@DV?$string_output_adapter@D@__crt_stdio_output@@V?$positional_parameter_base@DV?$string_output_adapter@D@__crt_stdio_output@@@2@@0@AEAA_NXZ@PEAD@Z 000000014005d4d4 f i libucrt:output.obj
 0001:0005c4d8       ??$peek_va_arg@PEAUansi_string@?1??type_case_Z@?$output_processor@_WV?$stream_output_adapter@_W@__crt_stdio_output@@V?$positional_parameter_base@_WV?$stream_output_adapter@_W@__crt_stdio_output@@@2@@__crt_stdio_output@@AEAA_NXZ@@__crt_stdio_output@@YAPEAUansi_string@?1??type_case_Z@?$output_processor@_WV?$stream_output_adapter@_W@__crt_stdio_output@@V?$positional_parameter_base@_WV?$stream_output_adapter@_W@__crt_stdio_output@@@2@@0@AEAA_NXZ@PEAD@Z 000000014005d4d8 f i libucrt:output.obj
 0001:0005c4dc       ??$peek_va_arg@PEAUansi_string@?1??type_case_Z@?$output_processor@_WV?$string_output_adapter@_W@__crt_stdio_output@@V?$positional_parameter_base@_WV?$string_output_adapter@_W@__crt_stdio_output@@@2@@__crt_stdio_output@@AEAA_NXZ@@__crt_stdio_output@@YAPEAUansi_string@?1??type_case_Z@?$output_processor@_WV?$string_output_adapter@_W@__crt_stdio_output@@V?$positional_parameter_base@_WV?$string_output_adapter@_W@__crt_stdio_output@@@2@@0@AEAA_NXZ@PEAD@Z 000000014005d4dc f i libucrt:output.obj
 0001:0005c4e0       ??$peek_va_arg@PEAX@__crt_stdio_output@@YAPEAXPEAD@Z 000000014005d4e0 f i libucrt:output.obj
 0001:0005c4e4       ??$peek_va_arg@U_CRT_DOUBLE@@@__crt_stdio_output@@YA?AU_CRT_DOUBLE@@PEAD@Z 000000014005d4e4 f i libucrt:output.obj
 0001:0005c4e8       ??$peek_va_arg@_J@__crt_stdio_output@@YA_JPEAD@Z 000000014005d4e8 f i libucrt:output.obj
 0001:0005c4ec       ??$peek_va_arg@_K@__crt_stdio_output@@YA_KPEAD@Z 000000014005d4ec f i libucrt:output.obj
 0001:0005c4f0       ??$peek_va_arg@_W@__crt_stdio_output@@YA_WPEAD@Z 000000014005d4f0 f i libucrt:output.obj
 0001:0005c4f4       ??$puttc_nolock_internal@AEBDPEAU_iobuf@@AEAV__crt_cached_ptd_host@@@?$__crt_char_traits@D@@SAHAEBD$$QEAPEAU_iobuf@@AEAV__crt_cached_ptd_host@@@Z 000000014005d4f4 f i libucrt:output.obj
 0001:0005c504       ??$puttc_nolock_internal@AEB_WPEAU_iobuf@@AEAV__crt_cached_ptd_host@@@?$__crt_char_traits@_W@@SAGAEB_W$$QEAPEAU_iobuf@@AEAV__crt_cached_ptd_host@@@Z 000000014005d504 f i libucrt:output.obj
 0001:0005c514       ??$read_va_arg@C@__crt_stdio_output@@YACAEAPEAD@Z 000000014005d514 f i libucrt:output.obj
 0001:0005c524       ??$read_va_arg@E@__crt_stdio_output@@YAEAEAPEAD@Z 000000014005d524 f i libucrt:output.obj
 0001:0005c534       ??$read_va_arg@F@__crt_stdio_output@@YAFAEAPEAD@Z 000000014005d534 f i libucrt:output.obj
 0001:0005c548       ??$read_va_arg@G@__crt_stdio_output@@YAGAEAPEAD@Z 000000014005d548 f i libucrt:output.obj
 0001:0005c55c       ??$read_va_arg@H@__crt_stdio_output@@YAHAEAPEAD@Z 000000014005d55c f i libucrt:output.obj
 0001:0005c56c       ??$read_va_arg@I@__crt_stdio_output@@YAIAEAPEAD@Z 000000014005d56c f i libucrt:output.obj
 0001:0005c57c       ??$read_va_arg@PEAD@__crt_stdio_output@@YAPEADAEAPEAD@Z 000000014005d57c f i libucrt:output.obj
 0001:0005c590       ??$read_va_arg@PEAUansi_string@?1??type_case_Z@?$output_processor@DV?$stream_output_adapter@D@__crt_stdio_output@@V?$format_validation_base@DV?$stream_output_adapter@D@__crt_stdio_output@@@2@@__crt_stdio_output@@AEAA_NXZ@@__crt_stdio_output@@YAPEAUansi_string@?1??type_case_Z@?$output_processor@DV?$stream_output_adapter@D@__crt_stdio_output@@V?$format_validation_base@DV?$stream_output_adapter@D@__crt_stdio_output@@@2@@0@AEAA_NXZ@AEAPEAD@Z 000000014005d590 f i libucrt:output.obj
 0001:0005c5a4       ??$read_va_arg@PEAUansi_string@?1??type_case_Z@?$output_processor@DV?$stream_output_adapter@D@__crt_stdio_output@@V?$positional_parameter_base@DV?$stream_output_adapter@D@__crt_stdio_output@@@2@@__crt_stdio_output@@AEAA_NXZ@@__crt_stdio_output@@YAPEAUansi_string@?1??type_case_Z@?$output_processor@DV?$stream_output_adapter@D@__crt_stdio_output@@V?$positional_parameter_base@DV?$stream_output_adapter@D@__crt_stdio_output@@@2@@0@AEAA_NXZ@AEAPEAD@Z 000000014005d5a4 f i libucrt:output.obj
 0001:0005c5b8       ??$read_va_arg@PEAUansi_string@?1??type_case_Z@?$output_processor@DV?$stream_output_adapter@D@__crt_stdio_output@@V?$standard_base@DV?$stream_output_adapter@D@__crt_stdio_output@@@2@@__crt_stdio_output@@AEAA_NXZ@@__crt_stdio_output@@YAPEAUansi_string@?1??type_case_Z@?$output_processor@DV?$stream_output_adapter@D@__crt_stdio_output@@V?$standard_base@DV?$stream_output_adapter@D@__crt_stdio_output@@@2@@0@AEAA_NXZ@AEAPEAD@Z 000000014005d5b8 f i libucrt:output.obj
 0001:0005c5cc       ??$read_va_arg@PEAUansi_string@?1??type_case_Z@?$output_processor@DV?$string_output_adapter@D@__crt_stdio_output@@V?$format_validation_base@DV?$string_output_adapter@D@__crt_stdio_output@@@2@@__crt_stdio_output@@AEAA_NXZ@@__crt_stdio_output@@YAPEAUansi_string@?1??type_case_Z@?$output_processor@DV?$string_output_adapter@D@__crt_stdio_output@@V?$format_validation_base@DV?$string_output_adapter@D@__crt_stdio_output@@@2@@0@AEAA_NXZ@AEAPEAD@Z 000000014005d5cc f i libucrt:output.obj
 0001:0005c5e0       ??$read_va_arg@PEAUansi_string@?1??type_case_Z@?$output_processor@DV?$string_output_adapter@D@__crt_stdio_output@@V?$positional_parameter_base@DV?$string_output_adapter@D@__crt_stdio_output@@@2@@__crt_stdio_output@@AEAA_NXZ@@__crt_stdio_output@@YAPEAUansi_string@?1??type_case_Z@?$output_processor@DV?$string_output_adapter@D@__crt_stdio_output@@V?$positional_parameter_base@DV?$string_output_adapter@D@__crt_stdio_output@@@2@@0@AEAA_NXZ@AEAPEAD@Z 000000014005d5e0 f i libucrt:output.obj
 0001:0005c5f4       ??$read_va_arg@PEAUansi_string@?1??type_case_Z@?$output_processor@DV?$string_output_adapter@D@__crt_stdio_output@@V?$standard_base@DV?$string_output_adapter@D@__crt_stdio_output@@@2@@__crt_stdio_output@@AEAA_NXZ@@__crt_stdio_output@@YAPEAUansi_string@?1??type_case_Z@?$output_processor@DV?$string_output_adapter@D@__crt_stdio_output@@V?$standard_base@DV?$string_output_adapter@D@__crt_stdio_output@@@2@@0@AEAA_NXZ@AEAPEAD@Z 000000014005d5f4 f i libucrt:output.obj
 0001:0005c608       ??$read_va_arg@PEAUansi_string@?1??type_case_Z@?$output_processor@_WV?$stream_output_adapter@_W@__crt_stdio_output@@V?$format_validation_base@_WV?$stream_output_adapter@_W@__crt_stdio_output@@@2@@__crt_stdio_output@@AEAA_NXZ@@__crt_stdio_output@@YAPEAUansi_string@?1??type_case_Z@?$output_processor@_WV?$stream_output_adapter@_W@__crt_stdio_output@@V?$format_validation_base@_WV?$stream_output_adapter@_W@__crt_stdio_output@@@2@@0@AEAA_NXZ@AEAPEAD@Z 000000014005d608 f i libucrt:output.obj
 0001:0005c61c       ??$read_va_arg@PEAUansi_string@?1??type_case_Z@?$output_processor@_WV?$stream_output_adapter@_W@__crt_stdio_output@@V?$positional_parameter_base@_WV?$stream_output_adapter@_W@__crt_stdio_output@@@2@@__crt_stdio_output@@AEAA_NXZ@@__crt_stdio_output@@YAPEAUansi_string@?1??type_case_Z@?$output_processor@_WV?$stream_output_adapter@_W@__crt_stdio_output@@V?$positional_parameter_base@_WV?$stream_output_adapter@_W@__crt_stdio_output@@@2@@0@AEAA_NXZ@AEAPEAD@Z 000000014005d61c f i libucrt:output.obj
 0001:0005c630       ??$read_va_arg@PEAUansi_string@?1??type_case_Z@?$output_processor@_WV?$stream_output_adapter@_W@__crt_stdio_output@@V?$standard_base@_WV?$stream_output_adapter@_W@__crt_stdio_output@@@2@@__crt_stdio_output@@AEAA_NXZ@@__crt_stdio_output@@YAPEAUansi_string@?1??type_case_Z@?$output_processor@_WV?$stream_output_adapter@_W@__crt_stdio_output@@V?$standard_base@_WV?$stream_output_adapter@_W@__crt_stdio_output@@@2@@0@AEAA_NXZ@AEAPEAD@Z 000000014005d630 f i libucrt:output.obj
 0001:0005c644       ??$read_va_arg@PEAUansi_string@?1??type_case_Z@?$output_processor@_WV?$string_output_adapter@_W@__crt_stdio_output@@V?$format_validation_base@_WV?$string_output_adapter@_W@__crt_stdio_output@@@2@@__crt_stdio_output@@AEAA_NXZ@@__crt_stdio_output@@YAPEAUansi_string@?1??type_case_Z@?$output_processor@_WV?$string_output_adapter@_W@__crt_stdio_output@@V?$format_validation_base@_WV?$string_output_adapter@_W@__crt_stdio_output@@@2@@0@AEAA_NXZ@AEAPEAD@Z 000000014005d644 f i libucrt:output.obj
 0001:0005c658       ??$read_va_arg@PEAUansi_string@?1??type_case_Z@?$output_processor@_WV?$string_output_adapter@_W@__crt_stdio_output@@V?$positional_parameter_base@_WV?$string_output_adapter@_W@__crt_stdio_output@@@2@@__crt_stdio_output@@AEAA_NXZ@@__crt_stdio_output@@YAPEAUansi_string@?1??type_case_Z@?$output_processor@_WV?$string_output_adapter@_W@__crt_stdio_output@@V?$positional_parameter_base@_WV?$string_output_adapter@_W@__crt_stdio_output@@@2@@0@AEAA_NXZ@AEAPEAD@Z 000000014005d658 f i libucrt:output.obj
 0001:0005c66c       ??$read_va_arg@PEAUansi_string@?1??type_case_Z@?$output_processor@_WV?$string_output_adapter@_W@__crt_stdio_output@@V?$standard_base@_WV?$string_output_adapter@_W@__crt_stdio_output@@@2@@__crt_stdio_output@@AEAA_NXZ@@__crt_stdio_output@@YAPEAUansi_string@?1??type_case_Z@?$output_processor@_WV?$string_output_adapter@_W@__crt_stdio_output@@V?$standard_base@_WV?$string_output_adapter@_W@__crt_stdio_output@@@2@@0@AEAA_NXZ@AEAPEAD@Z 000000014005d66c f i libucrt:output.obj
 0001:0005c680       ??$read_va_arg@PEAX@__crt_stdio_output@@YAPEAXAEAPEAD@Z 000000014005d680 f i libucrt:output.obj
 0001:0005c694       ??$read_va_arg@U_CRT_DOUBLE@@@__crt_stdio_output@@YA?AU_CRT_DOUBLE@@AEAPEAD@Z 000000014005d694 f i libucrt:output.obj
 0001:0005c6a8       ??$read_va_arg@_J@__crt_stdio_output@@YA_JAEAPEAD@Z 000000014005d6a8 f i libucrt:output.obj
 0001:0005c6bc       ??$read_va_arg@_K@__crt_stdio_output@@YA_KAEAPEAD@Z 000000014005d6bc f i libucrt:output.obj
 0001:0005c6d0       ??$read_va_arg@_W@__crt_stdio_output@@YA_WAEAPEAD@Z 000000014005d6d0 f i libucrt:output.obj
 0001:0005c6e4       ??$scratch_count@D@formatting_buffer@__crt_stdio_output@@QEBA_KXZ 000000014005d6e4 f i libucrt:output.obj
 0001:0005c708       ??$scratch_data@D@formatting_buffer@__crt_stdio_output@@QEAAPEADXZ 000000014005d708 f i libucrt:output.obj
 0001:0005c734       ??$type_case_integer@$07@?$output_processor@DV?$stream_output_adapter@D@__crt_stdio_output@@V?$format_validation_base@DV?$stream_output_adapter@D@__crt_stdio_output@@@2@@__crt_stdio_output@@AEAA_N_N@Z 000000014005d734 f i libucrt:output.obj
 0001:0005c9b8       ??$type_case_integer@$07@?$output_processor@DV?$stream_output_adapter@D@__crt_stdio_output@@V?$positional_parameter_base@DV?$stream_output_adapter@D@__crt_stdio_output@@@2@@__crt_stdio_output@@AEAA_N_N@Z 000000014005d9b8 f i libucrt:output.obj
 0001:0005cc70       ??$type_case_integer@$07@?$output_processor@DV?$stream_output_adapter@D@__crt_stdio_output@@V?$standard_base@DV?$stream_output_adapter@D@__crt_stdio_output@@@2@@__crt_stdio_output@@AEAA_N_N@Z 000000014005dc70 f i libucrt:output.obj
 0001:0005cef4       ??$type_case_integer@$07@?$output_processor@DV?$string_output_adapter@D@__crt_stdio_output@@V?$format_validation_base@DV?$string_output_adapter@D@__crt_stdio_output@@@2@@__crt_stdio_output@@AEAA_N_N@Z 000000014005def4 f i libucrt:output.obj
 0001:0005d178       ??$type_case_integer@$07@?$output_processor@DV?$string_output_adapter@D@__crt_stdio_output@@V?$positional_parameter_base@DV?$string_output_adapter@D@__crt_stdio_output@@@2@@__crt_stdio_output@@AEAA_N_N@Z 000000014005e178 f i libucrt:output.obj
 0001:0005d430       ??$type_case_integer@$07@?$output_processor@DV?$string_output_adapter@D@__crt_stdio_output@@V?$standard_base@DV?$string_output_adapter@D@__crt_stdio_output@@@2@@__crt_stdio_output@@AEAA_N_N@Z 000000014005e430 f i libucrt:output.obj
 0001:0005d6b4       ??$type_case_integer@$07@?$output_processor@_WV?$stream_output_adapter@_W@__crt_stdio_output@@V?$format_validation_base@_WV?$stream_output_adapter@_W@__crt_stdio_output@@@2@@__crt_stdio_output@@AEAA_N_N@Z 000000014005e6b4 f i libucrt:output.obj
 0001:0005d940       ??$type_case_integer@$07@?$output_processor@_WV?$stream_output_adapter@_W@__crt_stdio_output@@V?$positional_parameter_base@_WV?$stream_output_adapter@_W@__crt_stdio_output@@@2@@__crt_stdio_output@@AEAA_N_N@Z 000000014005e940 f i libucrt:output.obj
 0001:0005dc00       ??$type_case_integer@$07@?$output_processor@_WV?$stream_output_adapter@_W@__crt_stdio_output@@V?$standard_base@_WV?$stream_output_adapter@_W@__crt_stdio_output@@@2@@__crt_stdio_output@@AEAA_N_N@Z 000000014005ec00 f i libucrt:output.obj
 0001:0005de8c       ??$type_case_integer@$07@?$output_processor@_WV?$string_output_adapter@_W@__crt_stdio_output@@V?$format_validation_base@_WV?$string_output_adapter@_W@__crt_stdio_output@@@2@@__crt_stdio_output@@AEAA_N_N@Z 000000014005ee8c f i libucrt:output.obj
 0001:0005e118       ??$type_case_integer@$07@?$output_processor@_WV?$string_output_adapter@_W@__crt_stdio_output@@V?$positional_parameter_base@_WV?$string_output_adapter@_W@__crt_stdio_output@@@2@@__crt_stdio_output@@AEAA_N_N@Z 000000014005f118 f i libucrt:output.obj
 0001:0005e3d8       ??$type_case_integer@$07@?$output_processor@_WV?$string_output_adapter@_W@__crt_stdio_output@@V?$standard_base@_WV?$string_output_adapter@_W@__crt_stdio_output@@@2@@__crt_stdio_output@@AEAA_N_N@Z 000000014005f3d8 f i libucrt:output.obj
 0001:0005e664       ??$type_case_integer@$09@?$output_processor@DV?$stream_output_adapter@D@__crt_stdio_output@@V?$format_validation_base@DV?$stream_output_adapter@D@__crt_stdio_output@@@2@@__crt_stdio_output@@AEAA_N_N@Z 000000014005f664 f i libucrt:output.obj
 0001:0005e8e8       ??$type_case_integer@$09@?$output_processor@DV?$stream_output_adapter@D@__crt_stdio_output@@V?$positional_parameter_base@DV?$stream_output_adapter@D@__crt_stdio_output@@@2@@__crt_stdio_output@@AEAA_N_N@Z 000000014005f8e8 f i libucrt:output.obj
 0001:0005eba0       ??$type_case_integer@$09@?$output_processor@DV?$stream_output_adapter@D@__crt_stdio_output@@V?$standard_base@DV?$stream_output_adapter@D@__crt_stdio_output@@@2@@__crt_stdio_output@@AEAA_N_N@Z 000000014005fba0 f i libucrt:output.obj
 0001:0005ee24       ??$type_case_integer@$09@?$output_processor@DV?$string_output_adapter@D@__crt_stdio_output@@V?$format_validation_base@DV?$string_output_adapter@D@__crt_stdio_output@@@2@@__crt_stdio_output@@AEAA_N_N@Z 000000014005fe24 f i libucrt:output.obj
 0001:0005f0a8       ??$type_case_integer@$09@?$output_processor@DV?$string_output_adapter@D@__crt_stdio_output@@V?$positional_parameter_base@DV?$string_output_adapter@D@__crt_stdio_output@@@2@@__crt_stdio_output@@AEAA_N_N@Z 00000001400600a8 f i libucrt:output.obj
 0001:0005f360       ??$type_case_integer@$09@?$output_processor@DV?$string_output_adapter@D@__crt_stdio_output@@V?$standard_base@DV?$string_output_adapter@D@__crt_stdio_output@@@2@@__crt_stdio_output@@AEAA_N_N@Z 0000000140060360 f i libucrt:output.obj
 0001:0005f5e4       ??$type_case_integer@$09@?$output_processor@_WV?$stream_output_adapter@_W@__crt_stdio_output@@V?$format_validation_base@_WV?$stream_output_adapter@_W@__crt_stdio_output@@@2@@__crt_stdio_output@@AEAA_N_N@Z 00000001400605e4 f i libucrt:output.obj
 0001:0005f870       ??$type_case_integer@$09@?$output_processor@_WV?$stream_output_adapter@_W@__crt_stdio_output@@V?$positional_parameter_base@_WV?$stream_output_adapter@_W@__crt_stdio_output@@@2@@__crt_stdio_output@@AEAA_N_N@Z 0000000140060870 f i libucrt:output.obj
 0001:0005fb30       ??$type_case_integer@$09@?$output_processor@_WV?$stream_output_adapter@_W@__crt_stdio_output@@V?$standard_base@_WV?$stream_output_adapter@_W@__crt_stdio_output@@@2@@__crt_stdio_output@@AEAA_N_N@Z 0000000140060b30 f i libucrt:output.obj
 0001:0005fdbc       ??$type_case_integer@$09@?$output_processor@_WV?$string_output_adapter@_W@__crt_stdio_output@@V?$format_validation_base@_WV?$string_output_adapter@_W@__crt_stdio_output@@@2@@__crt_stdio_output@@AEAA_N_N@Z 0000000140060dbc f i libucrt:output.obj
 0001:00060048       ??$type_case_integer@$09@?$output_processor@_WV?$string_output_adapter@_W@__crt_stdio_output@@V?$positional_parameter_base@_WV?$string_output_adapter@_W@__crt_stdio_output@@@2@@__crt_stdio_output@@AEAA_N_N@Z 0000000140061048 f i libucrt:output.obj
 0001:00060308       ??$type_case_integer@$09@?$output_processor@_WV?$string_output_adapter@_W@__crt_stdio_output@@V?$standard_base@_WV?$string_output_adapter@_W@__crt_stdio_output@@@2@@__crt_stdio_output@@AEAA_N_N@Z 0000000140061308 f i libucrt:output.obj
 0001:00060594       ??$type_case_integer@$0BA@@?$output_processor@DV?$stream_output_adapter@D@__crt_stdio_output@@V?$format_validation_base@DV?$stream_output_adapter@D@__crt_stdio_output@@@2@@__crt_stdio_output@@AEAA_N_N@Z 0000000140061594 f i libucrt:output.obj
 0001:00060818       ??$type_case_integer@$0BA@@?$output_processor@DV?$stream_output_adapter@D@__crt_stdio_output@@V?$positional_parameter_base@DV?$stream_output_adapter@D@__crt_stdio_output@@@2@@__crt_stdio_output@@AEAA_N_N@Z 0000000140061818 f i libucrt:output.obj
 0001:00060ad0       ??$type_case_integer@$0BA@@?$output_processor@DV?$stream_output_adapter@D@__crt_stdio_output@@V?$standard_base@DV?$stream_output_adapter@D@__crt_stdio_output@@@2@@__crt_stdio_output@@AEAA_N_N@Z 0000000140061ad0 f i libucrt:output.obj
 0001:00060d54       ??$type_case_integer@$0BA@@?$output_processor@DV?$string_output_adapter@D@__crt_stdio_output@@V?$format_validation_base@DV?$string_output_adapter@D@__crt_stdio_output@@@2@@__crt_stdio_output@@AEAA_N_N@Z 0000000140061d54 f i libucrt:output.obj
 0001:00060fd8       ??$type_case_integer@$0BA@@?$output_processor@DV?$string_output_adapter@D@__crt_stdio_output@@V?$positional_parameter_base@DV?$string_output_adapter@D@__crt_stdio_output@@@2@@__crt_stdio_output@@AEAA_N_N@Z 0000000140061fd8 f i libucrt:output.obj
 0001:00061290       ??$type_case_integer@$0BA@@?$output_processor@DV?$string_output_adapter@D@__crt_stdio_output@@V?$standard_base@DV?$string_output_adapter@D@__crt_stdio_output@@@2@@__crt_stdio_output@@AEAA_N_N@Z 0000000140062290 f i libucrt:output.obj
 0001:00061514       ??$type_case_integer@$0BA@@?$output_processor@_WV?$stream_output_adapter@_W@__crt_stdio_output@@V?$format_validation_base@_WV?$stream_output_adapter@_W@__crt_stdio_output@@@2@@__crt_stdio_output@@AEAA_N_N@Z 0000000140062514 f i libucrt:output.obj
 0001:000617a0       ??$type_case_integer@$0BA@@?$output_processor@_WV?$stream_output_adapter@_W@__crt_stdio_output@@V?$positional_parameter_base@_WV?$stream_output_adapter@_W@__crt_stdio_output@@@2@@__crt_stdio_output@@AEAA_N_N@Z 00000001400627a0 f i libucrt:output.obj
 0001:00061a60       ??$type_case_integer@$0BA@@?$output_processor@_WV?$stream_output_adapter@_W@__crt_stdio_output@@V?$standard_base@_WV?$stream_output_adapter@_W@__crt_stdio_output@@@2@@__crt_stdio_output@@AEAA_N_N@Z 0000000140062a60 f i libucrt:output.obj
 0001:00061cec       ??$type_case_integer@$0BA@@?$output_processor@_WV?$string_output_adapter@_W@__crt_stdio_output@@V?$format_validation_base@_WV?$string_output_adapter@_W@__crt_stdio_output@@@2@@__crt_stdio_output@@AEAA_N_N@Z 0000000140062cec f i libucrt:output.obj
 0001:00061f78       ??$type_case_integer@$0BA@@?$output_processor@_WV?$string_output_adapter@_W@__crt_stdio_output@@V?$positional_parameter_base@_WV?$string_output_adapter@_W@__crt_stdio_output@@@2@@__crt_stdio_output@@AEAA_N_N@Z 0000000140062f78 f i libucrt:output.obj
 0001:00062238       ??$type_case_integer@$0BA@@?$output_processor@_WV?$string_output_adapter@_W@__crt_stdio_output@@V?$standard_base@_WV?$string_output_adapter@_W@__crt_stdio_output@@@2@@__crt_stdio_output@@AEAA_N_N@Z 0000000140063238 f i libucrt:output.obj
 0001:000624c4       ??$type_case_integer_parse_into_buffer@I$07@?$output_processor@DV?$stream_output_adapter@D@__crt_stdio_output@@V?$format_validation_base@DV?$stream_output_adapter@D@__crt_stdio_output@@@2@@__crt_stdio_output@@AEAAXI_N@Z 00000001400634c4 f i libucrt:output.obj
 0001:0006254c       ??$type_case_integer_parse_into_buffer@I$07@?$output_processor@DV?$stream_output_adapter@D@__crt_stdio_output@@V?$positional_parameter_base@DV?$stream_output_adapter@D@__crt_stdio_output@@@2@@__crt_stdio_output@@AEAAXI_N@Z 000000014006354c f i libucrt:output.obj
 0001:000625d4       ??$type_case_integer_parse_into_buffer@I$07@?$output_processor@DV?$stream_output_adapter@D@__crt_stdio_output@@V?$standard_base@DV?$stream_output_adapter@D@__crt_stdio_output@@@2@@__crt_stdio_output@@AEAAXI_N@Z 00000001400635d4 f i libucrt:output.obj
 0001:0006265c       ??$type_case_integer_parse_into_buffer@I$07@?$output_processor@DV?$string_output_adapter@D@__crt_stdio_output@@V?$format_validation_base@DV?$string_output_adapter@D@__crt_stdio_output@@@2@@__crt_stdio_output@@AEAAXI_N@Z 000000014006365c f i libucrt:output.obj
 0001:000626e4       ??$type_case_integer_parse_into_buffer@I$07@?$output_processor@DV?$string_output_adapter@D@__crt_stdio_output@@V?$positional_parameter_base@DV?$string_output_adapter@D@__crt_stdio_output@@@2@@__crt_stdio_output@@AEAAXI_N@Z 00000001400636e4 f i libucrt:output.obj
 0001:0006276c       ??$type_case_integer_parse_into_buffer@I$07@?$output_processor@DV?$string_output_adapter@D@__crt_stdio_output@@V?$standard_base@DV?$string_output_adapter@D@__crt_stdio_output@@@2@@__crt_stdio_output@@AEAAXI_N@Z 000000014006376c f i libucrt:output.obj
 0001:000627f4       ??$type_case_integer_parse_into_buffer@I$07@?$output_processor@_WV?$stream_output_adapter@_W@__crt_stdio_output@@V?$format_validation_base@_WV?$stream_output_adapter@_W@__crt_stdio_output@@@2@@__crt_stdio_output@@AEAAXI_N@Z 00000001400637f4 f i libucrt:output.obj
 0001:0006289c       ??$type_case_integer_parse_into_buffer@I$07@?$output_processor@_WV?$stream_output_adapter@_W@__crt_stdio_output@@V?$positional_parameter_base@_WV?$stream_output_adapter@_W@__crt_stdio_output@@@2@@__crt_stdio_output@@AEAAXI_N@Z 000000014006389c f i libucrt:output.obj
 0001:00062944       ??$type_case_integer_parse_into_buffer@I$07@?$output_processor@_WV?$stream_output_adapter@_W@__crt_stdio_output@@V?$standard_base@_WV?$stream_output_adapter@_W@__crt_stdio_output@@@2@@__crt_stdio_output@@AEAAXI_N@Z 0000000140063944 f i libucrt:output.obj
 0001:000629ec       ??$type_case_integer_parse_into_buffer@I$07@?$output_processor@_WV?$string_output_adapter@_W@__crt_stdio_output@@V?$format_validation_base@_WV?$string_output_adapter@_W@__crt_stdio_output@@@2@@__crt_stdio_output@@AEAAXI_N@Z 00000001400639ec f i libucrt:output.obj
 0001:00062a94       ??$type_case_integer_parse_into_buffer@I$07@?$output_processor@_WV?$string_output_adapter@_W@__crt_stdio_output@@V?$positional_parameter_base@_WV?$string_output_adapter@_W@__crt_stdio_output@@@2@@__crt_stdio_output@@AEAAXI_N@Z 0000000140063a94 f i libucrt:output.obj
 0001:00062b3c       ??$type_case_integer_parse_into_buffer@I$07@?$output_processor@_WV?$string_output_adapter@_W@__crt_stdio_output@@V?$standard_base@_WV?$string_output_adapter@_W@__crt_stdio_output@@@2@@__crt_stdio_output@@AEAAXI_N@Z 0000000140063b3c f i libucrt:output.obj
 0001:00062be4       ??$type_case_integer_parse_into_buffer@I$09@?$output_processor@DV?$stream_output_adapter@D@__crt_stdio_output@@V?$format_validation_base@DV?$stream_output_adapter@D@__crt_stdio_output@@@2@@__crt_stdio_output@@AEAAXI_N@Z 0000000140063be4 f i libucrt:output.obj
 0001:00062cb8       ??$type_case_integer_parse_into_buffer@I$09@?$output_processor@DV?$stream_output_adapter@D@__crt_stdio_output@@V?$positional_parameter_base@DV?$stream_output_adapter@D@__crt_stdio_output@@@2@@__crt_stdio_output@@AEAAXI_N@Z 0000000140063cb8 f i libucrt:output.obj
 0001:00062d8c       ??$type_case_integer_parse_into_buffer@I$09@?$output_processor@DV?$stream_output_adapter@D@__crt_stdio_output@@V?$standard_base@DV?$stream_output_adapter@D@__crt_stdio_output@@@2@@__crt_stdio_output@@AEAAXI_N@Z 0000000140063d8c f i libucrt:output.obj
 0001:00062e60       ??$type_case_integer_parse_into_buffer@I$09@?$output_processor@DV?$string_output_adapter@D@__crt_stdio_output@@V?$format_validation_base@DV?$string_output_adapter@D@__crt_stdio_output@@@2@@__crt_stdio_output@@AEAAXI_N@Z 0000000140063e60 f i libucrt:output.obj
 0001:00062f34       ??$type_case_integer_parse_into_buffer@I$09@?$output_processor@DV?$string_output_adapter@D@__crt_stdio_output@@V?$positional_parameter_base@DV?$string_output_adapter@D@__crt_stdio_output@@@2@@__crt_stdio_output@@AEAAXI_N@Z 0000000140063f34 f i libucrt:output.obj
 0001:00063008       ??$type_case_integer_parse_into_buffer@I$09@?$output_processor@DV?$string_output_adapter@D@__crt_stdio_output@@V?$standard_base@DV?$string_output_adapter@D@__crt_stdio_output@@@2@@__crt_stdio_output@@AEAAXI_N@Z 0000000140064008 f i libucrt:output.obj
 0001:000630dc       ??$type_case_integer_parse_into_buffer@I$09@?$output_processor@_WV?$stream_output_adapter@_W@__crt_stdio_output@@V?$format_validation_base@_WV?$stream_output_adapter@_W@__crt_stdio_output@@@2@@__crt_stdio_output@@AEAAXI_N@Z 00000001400640dc f i libucrt:output.obj
 0001:000631c8       ??$type_case_integer_parse_into_buffer@I$09@?$output_processor@_WV?$stream_output_adapter@_W@__crt_stdio_output@@V?$positional_parameter_base@_WV?$stream_output_adapter@_W@__crt_stdio_output@@@2@@__crt_stdio_output@@AEAAXI_N@Z 00000001400641c8 f i libucrt:output.obj
 0001:000632b4       ??$type_case_integer_parse_into_buffer@I$09@?$output_processor@_WV?$stream_output_adapter@_W@__crt_stdio_output@@V?$standard_base@_WV?$stream_output_adapter@_W@__crt_stdio_output@@@2@@__crt_stdio_output@@AEAAXI_N@Z 00000001400642b4 f i libucrt:output.obj
 0001:000633a0       ??$type_case_integer_parse_into_buffer@I$09@?$output_processor@_WV?$string_output_adapter@_W@__crt_stdio_output@@V?$format_validation_base@_WV?$string_output_adapter@_W@__crt_stdio_output@@@2@@__crt_stdio_output@@AEAAXI_N@Z 00000001400643a0 f i libucrt:output.obj
 0001:0006348c       ??$type_case_integer_parse_into_buffer@I$09@?$output_processor@_WV?$string_output_adapter@_W@__crt_stdio_output@@V?$positional_parameter_base@_WV?$string_output_adapter@_W@__crt_stdio_output@@@2@@__crt_stdio_output@@AEAAXI_N@Z 000000014006448c f i libucrt:output.obj
 0001:00063578       ??$type_case_integer_parse_into_buffer@I$09@?$output_processor@_WV?$string_output_adapter@_W@__crt_stdio_output@@V?$standard_base@_WV?$string_output_adapter@_W@__crt_stdio_output@@@2@@__crt_stdio_output@@AEAAXI_N@Z 0000000140064578 f i libucrt:output.obj
 0001:00063664       ??$type_case_integer_parse_into_buffer@I$0BA@@?$output_processor@DV?$stream_output_adapter@D@__crt_stdio_output@@V?$format_validation_base@DV?$stream_output_adapter@D@__crt_stdio_output@@@2@@__crt_stdio_output@@AEAAXI_N@Z 0000000140064664 f i libucrt:output.obj
 0001:0006370c       ??$type_case_integer_parse_into_buffer@I$0BA@@?$output_processor@DV?$stream_output_adapter@D@__crt_stdio_output@@V?$positional_parameter_base@DV?$stream_output_adapter@D@__crt_stdio_output@@@2@@__crt_stdio_output@@AEAAXI_N@Z 000000014006470c f i libucrt:output.obj
 0001:000637b4       ??$type_case_integer_parse_into_buffer@I$0BA@@?$output_processor@DV?$stream_output_adapter@D@__crt_stdio_output@@V?$standard_base@DV?$stream_output_adapter@D@__crt_stdio_output@@@2@@__crt_stdio_output@@AEAAXI_N@Z 00000001400647b4 f i libucrt:output.obj
 0001:0006385c       ??$type_case_integer_parse_into_buffer@I$0BA@@?$output_processor@DV?$string_output_adapter@D@__crt_stdio_output@@V?$format_validation_base@DV?$string_output_adapter@D@__crt_stdio_output@@@2@@__crt_stdio_output@@AEAAXI_N@Z 000000014006485c f i libucrt:output.obj
 0001:00063904       ??$type_case_integer_parse_into_buffer@I$0BA@@?$output_processor@DV?$string_output_adapter@D@__crt_stdio_output@@V?$positional_parameter_base@DV?$string_output_adapter@D@__crt_stdio_output@@@2@@__crt_stdio_output@@AEAAXI_N@Z 0000000140064904 f i libucrt:output.obj
 0001:000639ac       ??$type_case_integer_parse_into_buffer@I$0BA@@?$output_processor@DV?$string_output_adapter@D@__crt_stdio_output@@V?$standard_base@DV?$string_output_adapter@D@__crt_stdio_output@@@2@@__crt_stdio_output@@AEAAXI_N@Z 00000001400649ac f i libucrt:output.obj
 0001:00063a54       ??$type_case_integer_parse_into_buffer@I$0BA@@?$output_processor@_WV?$stream_output_adapter@_W@__crt_stdio_output@@V?$format_validation_base@_WV?$stream_output_adapter@_W@__crt_stdio_output@@@2@@__crt_stdio_output@@AEAAXI_N@Z 0000000140064a54 f i libucrt:output.obj
 0001:00063b1c       ??$type_case_integer_parse_into_buffer@I$0BA@@?$output_processor@_WV?$stream_output_adapter@_W@__crt_stdio_output@@V?$positional_parameter_base@_WV?$stream_output_adapter@_W@__crt_stdio_output@@@2@@__crt_stdio_output@@AEAAXI_N@Z 0000000140064b1c f i libucrt:output.obj
 0001:00063be4       ??$type_case_integer_parse_into_buffer@I$0BA@@?$output_processor@_WV?$stream_output_adapter@_W@__crt_stdio_output@@V?$standard_base@_WV?$stream_output_adapter@_W@__crt_stdio_output@@@2@@__crt_stdio_output@@AEAAXI_N@Z 0000000140064be4 f i libucrt:output.obj
 0001:00063cac       ??$type_case_integer_parse_into_buffer@I$0BA@@?$output_processor@_WV?$string_output_adapter@_W@__crt_stdio_output@@V?$format_validation_base@_WV?$string_output_adapter@_W@__crt_stdio_output@@@2@@__crt_stdio_output@@AEAAXI_N@Z 0000000140064cac f i libucrt:output.obj
 0001:00063d74       ??$type_case_integer_parse_into_buffer@I$0BA@@?$output_processor@_WV?$string_output_adapter@_W@__crt_stdio_output@@V?$positional_parameter_base@_WV?$string_output_adapter@_W@__crt_stdio_output@@@2@@__crt_stdio_output@@AEAAXI_N@Z 0000000140064d74 f i libucrt:output.obj
 0001:00063e3c       ??$type_case_integer_parse_into_buffer@I$0BA@@?$output_processor@_WV?$string_output_adapter@_W@__crt_stdio_output@@V?$standard_base@_WV?$string_output_adapter@_W@__crt_stdio_output@@@2@@__crt_stdio_output@@AEAAXI_N@Z 0000000140064e3c f i libucrt:output.obj
 0001:00063f04       ??$type_case_integer_parse_into_buffer@_K$07@?$output_processor@DV?$stream_output_adapter@D@__crt_stdio_output@@V?$format_validation_base@DV?$stream_output_adapter@D@__crt_stdio_output@@@2@@__crt_stdio_output@@AEAAX_K_N@Z 0000000140064f04 f i libucrt:output.obj
 0001:00063f8c       ??$type_case_integer_parse_into_buffer@_K$07@?$output_processor@DV?$stream_output_adapter@D@__crt_stdio_output@@V?$positional_parameter_base@DV?$stream_output_adapter@D@__crt_stdio_output@@@2@@__crt_stdio_output@@AEAAX_K_N@Z 0000000140064f8c f i libucrt:output.obj
 0001:00064014       ??$type_case_integer_parse_into_buffer@_K$07@?$output_processor@DV?$stream_output_adapter@D@__crt_stdio_output@@V?$standard_base@DV?$stream_output_adapter@D@__crt_stdio_output@@@2@@__crt_stdio_output@@AEAAX_K_N@Z 0000000140065014 f i libucrt:output.obj
 0001:0006409c       ??$type_case_integer_parse_into_buffer@_K$07@?$output_processor@DV?$string_output_adapter@D@__crt_stdio_output@@V?$format_validation_base@DV?$string_output_adapter@D@__crt_stdio_output@@@2@@__crt_stdio_output@@AEAAX_K_N@Z 000000014006509c f i libucrt:output.obj
 0001:00064124       ??$type_case_integer_parse_into_buffer@_K$07@?$output_processor@DV?$string_output_adapter@D@__crt_stdio_output@@V?$positional_parameter_base@DV?$string_output_adapter@D@__crt_stdio_output@@@2@@__crt_stdio_output@@AEAAX_K_N@Z 0000000140065124 f i libucrt:output.obj
 0001:000641ac       ??$type_case_integer_parse_into_buffer@_K$07@?$output_processor@DV?$string_output_adapter@D@__crt_stdio_output@@V?$standard_base@DV?$string_output_adapter@D@__crt_stdio_output@@@2@@__crt_stdio_output@@AEAAX_K_N@Z 00000001400651ac f i libucrt:output.obj
 0001:00064234       ??$type_case_integer_parse_into_buffer@_K$07@?$output_processor@_WV?$stream_output_adapter@_W@__crt_stdio_output@@V?$format_validation_base@_WV?$stream_output_adapter@_W@__crt_stdio_output@@@2@@__crt_stdio_output@@AEAAX_K_N@Z 0000000140065234 f i libucrt:output.obj
 0001:000642dc       ??$type_case_integer_parse_into_buffer@_K$07@?$output_processor@_WV?$stream_output_adapter@_W@__crt_stdio_output@@V?$positional_parameter_base@_WV?$stream_output_adapter@_W@__crt_stdio_output@@@2@@__crt_stdio_output@@AEAAX_K_N@Z 00000001400652dc f i libucrt:output.obj
 0001:00064384       ??$type_case_integer_parse_into_buffer@_K$07@?$output_processor@_WV?$stream_output_adapter@_W@__crt_stdio_output@@V?$standard_base@_WV?$stream_output_adapter@_W@__crt_stdio_output@@@2@@__crt_stdio_output@@AEAAX_K_N@Z 0000000140065384 f i libucrt:output.obj
 0001:0006442c       ??$type_case_integer_parse_into_buffer@_K$07@?$output_processor@_WV?$string_output_adapter@_W@__crt_stdio_output@@V?$format_validation_base@_WV?$string_output_adapter@_W@__crt_stdio_output@@@2@@__crt_stdio_output@@AEAAX_K_N@Z 000000014006542c f i libucrt:output.obj
 0001:000644d4       ??$type_case_integer_parse_into_buffer@_K$07@?$output_processor@_WV?$string_output_adapter@_W@__crt_stdio_output@@V?$positional_parameter_base@_WV?$string_output_adapter@_W@__crt_stdio_output@@@2@@__crt_stdio_output@@AEAAX_K_N@Z 00000001400654d4 f i libucrt:output.obj
 0001:0006457c       ??$type_case_integer_parse_into_buffer@_K$07@?$output_processor@_WV?$string_output_adapter@_W@__crt_stdio_output@@V?$standard_base@_WV?$string_output_adapter@_W@__crt_stdio_output@@@2@@__crt_stdio_output@@AEAAX_K_N@Z 000000014006557c f i libucrt:output.obj
 0001:00064624       ??$type_case_integer_parse_into_buffer@_K$09@?$output_processor@DV?$stream_output_adapter@D@__crt_stdio_output@@V?$format_validation_base@DV?$stream_output_adapter@D@__crt_stdio_output@@@2@@__crt_stdio_output@@AEAAX_K_N@Z 0000000140065624 f i libucrt:output.obj
 0001:00064700       ??$type_case_integer_parse_into_buffer@_K$09@?$output_processor@DV?$stream_output_adapter@D@__crt_stdio_output@@V?$positional_parameter_base@DV?$stream_output_adapter@D@__crt_stdio_output@@@2@@__crt_stdio_output@@AEAAX_K_N@Z 0000000140065700 f i libucrt:output.obj
 0001:000647dc       ??$type_case_integer_parse_into_buffer@_K$09@?$output_processor@DV?$stream_output_adapter@D@__crt_stdio_output@@V?$standard_base@DV?$stream_output_adapter@D@__crt_stdio_output@@@2@@__crt_stdio_output@@AEAAX_K_N@Z 00000001400657dc f i libucrt:output.obj
 0001:000648b8       ??$type_case_integer_parse_into_buffer@_K$09@?$output_processor@DV?$string_output_adapter@D@__crt_stdio_output@@V?$format_validation_base@DV?$string_output_adapter@D@__crt_stdio_output@@@2@@__crt_stdio_output@@AEAAX_K_N@Z 00000001400658b8 f i libucrt:output.obj
 0001:00064994       ??$type_case_integer_parse_into_buffer@_K$09@?$output_processor@DV?$string_output_adapter@D@__crt_stdio_output@@V?$positional_parameter_base@DV?$string_output_adapter@D@__crt_stdio_output@@@2@@__crt_stdio_output@@AEAAX_K_N@Z 0000000140065994 f i libucrt:output.obj
 0001:00064a70       ??$type_case_integer_parse_into_buffer@_K$09@?$output_processor@DV?$string_output_adapter@D@__crt_stdio_output@@V?$standard_base@DV?$string_output_adapter@D@__crt_stdio_output@@@2@@__crt_stdio_output@@AEAAX_K_N@Z 0000000140065a70 f i libucrt:output.obj
 0001:00064b4c       ??$type_case_integer_parse_into_buffer@_K$09@?$output_processor@_WV?$stream_output_adapter@_W@__crt_stdio_output@@V?$format_validation_base@_WV?$stream_output_adapter@_W@__crt_stdio_output@@@2@@__crt_stdio_output@@AEAAX_K_N@Z 0000000140065b4c f i libucrt:output.obj
 0001:00064c40       ??$type_case_integer_parse_into_buffer@_K$09@?$output_processor@_WV?$stream_output_adapter@_W@__crt_stdio_output@@V?$positional_parameter_base@_WV?$stream_output_adapter@_W@__crt_stdio_output@@@2@@__crt_stdio_output@@AEAAX_K_N@Z 0000000140065c40 f i libucrt:output.obj
 0001:00064d34       ??$type_case_integer_parse_into_buffer@_K$09@?$output_processor@_WV?$stream_output_adapter@_W@__crt_stdio_output@@V?$standard_base@_WV?$stream_output_adapter@_W@__crt_stdio_output@@@2@@__crt_stdio_output@@AEAAX_K_N@Z 0000000140065d34 f i libucrt:output.obj
 0001:00064e28       ??$type_case_integer_parse_into_buffer@_K$09@?$output_processor@_WV?$string_output_adapter@_W@__crt_stdio_output@@V?$format_validation_base@_WV?$string_output_adapter@_W@__crt_stdio_output@@@2@@__crt_stdio_output@@AEAAX_K_N@Z 0000000140065e28 f i libucrt:output.obj
 0001:00064f1c       ??$type_case_integer_parse_into_buffer@_K$09@?$output_processor@_WV?$string_output_adapter@_W@__crt_stdio_output@@V?$positional_parameter_base@_WV?$string_output_adapter@_W@__crt_stdio_output@@@2@@__crt_stdio_output@@AEAAX_K_N@Z 0000000140065f1c f i libucrt:output.obj
 0001:00065010       ??$type_case_integer_parse_into_buffer@_K$09@?$output_processor@_WV?$string_output_adapter@_W@__crt_stdio_output@@V?$standard_base@_WV?$string_output_adapter@_W@__crt_stdio_output@@@2@@__crt_stdio_output@@AEAAX_K_N@Z 0000000140066010 f i libucrt:output.obj
 0001:00065104       ??$type_case_integer_parse_into_buffer@_K$0BA@@?$output_processor@DV?$stream_output_adapter@D@__crt_stdio_output@@V?$format_validation_base@DV?$stream_output_adapter@D@__crt_stdio_output@@@2@@__crt_stdio_output@@AEAAX_K_N@Z 0000000140066104 f i libucrt:output.obj
 0001:000651ac       ??$type_case_integer_parse_into_buffer@_K$0BA@@?$output_processor@DV?$stream_output_adapter@D@__crt_stdio_output@@V?$positional_parameter_base@DV?$stream_output_adapter@D@__crt_stdio_output@@@2@@__crt_stdio_output@@AEAAX_K_N@Z 00000001400661ac f i libucrt:output.obj
 0001:00065254       ??$type_case_integer_parse_into_buffer@_K$0BA@@?$output_processor@DV?$stream_output_adapter@D@__crt_stdio_output@@V?$standard_base@DV?$stream_output_adapter@D@__crt_stdio_output@@@2@@__crt_stdio_output@@AEAAX_K_N@Z 0000000140066254 f i libucrt:output.obj
 0001:000652fc       ??$type_case_integer_parse_into_buffer@_K$0BA@@?$output_processor@DV?$string_output_adapter@D@__crt_stdio_output@@V?$format_validation_base@DV?$string_output_adapter@D@__crt_stdio_output@@@2@@__crt_stdio_output@@AEAAX_K_N@Z 00000001400662fc f i libucrt:output.obj
 0001:000653a4       ??$type_case_integer_parse_into_buffer@_K$0BA@@?$output_processor@DV?$string_output_adapter@D@__crt_stdio_output@@V?$positional_parameter_base@DV?$string_output_adapter@D@__crt_stdio_output@@@2@@__crt_stdio_output@@AEAAX_K_N@Z 00000001400663a4 f i libucrt:output.obj
 0001:0006544c       ??$type_case_integer_parse_into_buffer@_K$0BA@@?$output_processor@DV?$string_output_adapter@D@__crt_stdio_output@@V?$standard_base@DV?$string_output_adapter@D@__crt_stdio_output@@@2@@__crt_stdio_output@@AEAAX_K_N@Z 000000014006644c f i libucrt:output.obj
 0001:000654f4       ??$type_case_integer_parse_into_buffer@_K$0BA@@?$output_processor@_WV?$stream_output_adapter@_W@__crt_stdio_output@@V?$format_validation_base@_WV?$stream_output_adapter@_W@__crt_stdio_output@@@2@@__crt_stdio_output@@AEAAX_K_N@Z 00000001400664f4 f i libucrt:output.obj
 0001:000655bc       ??$type_case_integer_parse_into_buffer@_K$0BA@@?$output_processor@_WV?$stream_output_adapter@_W@__crt_stdio_output@@V?$positional_parameter_base@_WV?$stream_output_adapter@_W@__crt_stdio_output@@@2@@__crt_stdio_output@@AEAAX_K_N@Z 00000001400665bc f i libucrt:output.obj
 0001:00065684       ??$type_case_integer_parse_into_buffer@_K$0BA@@?$output_processor@_WV?$stream_output_adapter@_W@__crt_stdio_output@@V?$standard_base@_WV?$stream_output_adapter@_W@__crt_stdio_output@@@2@@__crt_stdio_output@@AEAAX_K_N@Z 0000000140066684 f i libucrt:output.obj
 0001:0006574c       ??$type_case_integer_parse_into_buffer@_K$0BA@@?$output_processor@_WV?$string_output_adapter@_W@__crt_stdio_output@@V?$format_validation_base@_WV?$string_output_adapter@_W@__crt_stdio_output@@@2@@__crt_stdio_output@@AEAAX_K_N@Z 000000014006674c f i libucrt:output.obj
 0001:00065814       ??$type_case_integer_parse_into_buffer@_K$0BA@@?$output_processor@_WV?$string_output_adapter@_W@__crt_stdio_output@@V?$positional_parameter_base@_WV?$string_output_adapter@_W@__crt_stdio_output@@@2@@__crt_stdio_output@@AEAAX_K_N@Z 0000000140066814 f i libucrt:output.obj
 0001:000658dc       ??$type_case_integer_parse_into_buffer@_K$0BA@@?$output_processor@_WV?$string_output_adapter@_W@__crt_stdio_output@@V?$standard_base@_WV?$string_output_adapter@_W@__crt_stdio_output@@@2@@__crt_stdio_output@@AEAAX_K_N@Z 00000001400668dc f i libucrt:output.obj
 0001:000659a4       ??$write_multiple_characters@V?$stream_output_adapter@D@__crt_stdio_output@@D@__crt_stdio_output@@YAXAEBV?$stream_output_adapter@D@0@DHQEAHAEAV__crt_cached_ptd_host@@@Z 00000001400669a4 f i libucrt:output.obj
 0001:00065a5c       ??$write_multiple_characters@V?$stream_output_adapter@_W@__crt_stdio_output@@D@__crt_stdio_output@@YAXAEBV?$stream_output_adapter@_W@0@DHQEAHAEAV__crt_cached_ptd_host@@@Z 0000000140066a5c f i libucrt:output.obj
 0001:00065b18       ??$write_multiple_characters@V?$string_output_adapter@D@__crt_stdio_output@@D@__crt_stdio_output@@YAXAEBV?$string_output_adapter@D@0@DHQEAHAEAV__crt_cached_ptd_host@@@Z 0000000140066b18 f i libucrt:output.obj
 0001:00065bac       ??$write_multiple_characters@V?$string_output_adapter@_W@__crt_stdio_output@@D@__crt_stdio_output@@YAXAEBV?$string_output_adapter@_W@0@DHQEAHAEAV__crt_cached_ptd_host@@@Z 0000000140066bac f i libucrt:output.obj
 0001:00065dd8       ??0?$c_string_character_source@D@__crt_strtox@@QEAA@QEBDQEAPEBD@Z 0000000140066dd8 f i libucrt:output.obj
 0001:00065df0       ??0?$c_string_character_source@_W@__crt_strtox@@QEAA@QEB_WQEAPEB_W@Z 0000000140066df0 f i libucrt:output.obj
 0001:00065e08       ??0?$cached@H@__crt_cached_ptd_host@@QEAA@XZ 0000000140066e08 f i libucrt:output.obj
 0001:00065e14       ??0?$cached@K@__crt_cached_ptd_host@@QEAA@XZ 0000000140066e14 f i libucrt:output.obj
 0001:00065e20       ??0?$common_data@D@__crt_stdio_output@@IEAA@AEAV__crt_cached_ptd_host@@@Z 0000000140066e20 f i libucrt:output.obj
 0001:00065e68       ??0?$common_data@_W@__crt_stdio_output@@IEAA@AEAV__crt_cached_ptd_host@@@Z 0000000140066e68 f i libucrt:output.obj
 0001:00065eb4       ??0?$output_adapter_data@DV?$stream_output_adapter@D@__crt_stdio_output@@@__crt_stdio_output@@IEAA@AEBV?$stream_output_adapter@D@1@_KQEBDAEAV__crt_cached_ptd_host@@QEAD@Z 0000000140066eb4 f i libucrt:output.obj
 0001:00065f2c       ??0?$output_adapter_data@DV?$string_output_adapter@D@__crt_stdio_output@@@__crt_stdio_output@@IEAA@AEBV?$string_output_adapter@D@1@_KQEBDAEAV__crt_cached_ptd_host@@QEAD@Z 0000000140066f2c f i libucrt:output.obj
 0001:00065fa4       ??0?$output_adapter_data@_WV?$stream_output_adapter@_W@__crt_stdio_output@@@__crt_stdio_output@@IEAA@AEBV?$stream_output_adapter@_W@1@_KQEB_WAEAV__crt_cached_ptd_host@@QEAD@Z 0000000140066fa4 f i libucrt:output.obj
 0001:00066024       ??0?$output_adapter_data@_WV?$string_output_adapter@_W@__crt_stdio_output@@@__crt_stdio_output@@IEAA@AEBV?$string_output_adapter@_W@1@_KQEB_WAEAV__crt_cached_ptd_host@@QEAD@Z 0000000140067024 f i libucrt:output.obj
 0001:000660a4       ??0?$output_processor@DV?$stream_output_adapter@D@__crt_stdio_output@@V?$format_validation_base@DV?$stream_output_adapter@D@__crt_stdio_output@@@2@@__crt_stdio_output@@QEAA@AEBV?$stream_output_adapter@D@1@_KQEBDAEAV__crt_cached_ptd_host@@QEAD@Z 00000001400670a4 f i libucrt:output.obj
 0001:00066124       ??0?$output_processor@DV?$stream_output_adapter@D@__crt_stdio_output@@V?$positional_parameter_base@DV?$stream_output_adapter@D@__crt_stdio_output@@@2@@__crt_stdio_output@@QEAA@AEBV?$stream_output_adapter@D@1@_KQEBDAEAV__crt_cached_ptd_host@@QEAD@Z 0000000140067124 f i libucrt:output.obj
 0001:000661cc       ??0?$output_processor@DV?$stream_output_adapter@D@__crt_stdio_output@@V?$standard_base@DV?$stream_output_adapter@D@__crt_stdio_output@@@2@@__crt_stdio_output@@QEAA@AEBV?$stream_output_adapter@D@1@_KQEBDAEAV__crt_cached_ptd_host@@QEAD@Z 00000001400671cc f i libucrt:output.obj
 0001:0006624c       ??0?$output_processor@DV?$string_output_adapter@D@__crt_stdio_output@@V?$format_validation_base@DV?$string_output_adapter@D@__crt_stdio_output@@@2@@__crt_stdio_output@@QEAA@AEBV?$string_output_adapter@D@1@_KQEBDAEAV__crt_cached_ptd_host@@QEAD@Z 000000014006724c f i libucrt:output.obj
 0001:000662cc       ??0?$output_processor@DV?$string_output_adapter@D@__crt_stdio_output@@V?$positional_parameter_base@DV?$string_output_adapter@D@__crt_stdio_output@@@2@@__crt_stdio_output@@QEAA@AEBV?$string_output_adapter@D@1@_KQEBDAEAV__crt_cached_ptd_host@@QEAD@Z 00000001400672cc f i libucrt:output.obj
 0001:00066374       ??0?$output_processor@DV?$string_output_adapter@D@__crt_stdio_output@@V?$standard_base@DV?$string_output_adapter@D@__crt_stdio_output@@@2@@__crt_stdio_output@@QEAA@AEBV?$string_output_adapter@D@1@_KQEBDAEAV__crt_cached_ptd_host@@QEAD@Z 0000000140067374 f i libucrt:output.obj
 0001:000663f4       ??0?$output_processor@_WV?$stream_output_adapter@_W@__crt_stdio_output@@V?$format_validation_base@_WV?$stream_output_adapter@_W@__crt_stdio_output@@@2@@__crt_stdio_output@@QEAA@AEBV?$stream_output_adapter@_W@1@_KQEB_WAEAV__crt_cached_ptd_host@@QEAD@Z 00000001400673f4 f i libucrt:output.obj
 0001:0006647c       ??0?$output_processor@_WV?$stream_output_adapter@_W@__crt_stdio_output@@V?$positional_parameter_base@_WV?$stream_output_adapter@_W@__crt_stdio_output@@@2@@__crt_stdio_output@@QEAA@AEBV?$stream_output_adapter@_W@1@_KQEB_WAEAV__crt_cached_ptd_host@@QEAD@Z 000000014006747c f i libucrt:output.obj
 0001:00066528       ??0?$output_processor@_WV?$stream_output_adapter@_W@__crt_stdio_output@@V?$standard_base@_WV?$stream_output_adapter@_W@__crt_stdio_output@@@2@@__crt_stdio_output@@QEAA@AEBV?$stream_output_adapter@_W@1@_KQEB_WAEAV__crt_cached_ptd_host@@QEAD@Z 0000000140067528 f i libucrt:output.obj
 0001:000665b0       ??0?$output_processor@_WV?$string_output_adapter@_W@__crt_stdio_output@@V?$format_validation_base@_WV?$string_output_adapter@_W@__crt_stdio_output@@@2@@__crt_stdio_output@@QEAA@AEBV?$string_output_adapter@_W@1@_KQEB_WAEAV__crt_cached_ptd_host@@QEAD@Z 00000001400675b0 f i libucrt:output.obj
 0001:00066638       ??0?$output_processor@_WV?$string_output_adapter@_W@__crt_stdio_output@@V?$positional_parameter_base@_WV?$string_output_adapter@_W@__crt_stdio_output@@@2@@__crt_stdio_output@@QEAA@AEBV?$string_output_adapter@_W@1@_KQEB_WAEAV__crt_cached_ptd_host@@QEAD@Z 0000000140067638 f i libucrt:output.obj
 0001:000666e4       ??0?$output_processor@_WV?$string_output_adapter@_W@__crt_stdio_output@@V?$standard_base@_WV?$string_output_adapter@_W@__crt_stdio_output@@@2@@__crt_stdio_output@@QEAA@AEBV?$string_output_adapter@_W@1@_KQEB_WAEAV__crt_cached_ptd_host@@QEAD@Z 00000001400676e4 f i libucrt:output.obj
 0001:0006676c       ??0?$stream_output_adapter@D@__crt_stdio_output@@QEAA@QEAU_iobuf@@@Z 000000014006776c f i libucrt:output.obj
 0001:00066774       ??0?$stream_output_adapter@_W@__crt_stdio_output@@QEAA@QEAU_iobuf@@@Z 0000000140067774 f i libucrt:output.obj
 0001:0006677c       ??0?$string_output_adapter@D@__crt_stdio_output@@QEAA@QEAU?$string_output_adapter_context@D@1@@Z 000000014006777c f i libucrt:output.obj
 0001:00066784       ??0?$string_output_adapter@_W@__crt_stdio_output@@QEAA@QEAU?$string_output_adapter_context@_W@1@@Z 0000000140067784 f i libucrt:output.obj
 0001:0006678c       ??0__acrt_stdio_temporary_buffering_guard@@QEAA@QEAU_iobuf@@AEAV__crt_cached_ptd_host@@@Z 000000014006778c f i libucrt:output.obj
 0001:000667c0       ??0__crt_cached_ptd_host@@QEAA@QEAU__crt_locale_pointers@@@Z 00000001400677c0 f i libucrt:output.obj
 0001:00066818       ??0__crt_scoped_get_last_error_reset@@QEAA@XZ 0000000140067818 f i libucrt:output.obj
 0001:00066838       ??0formatting_buffer@__crt_stdio_output@@QEAA@XZ 0000000140067838 f i libucrt:output.obj
 0001:00066854       ??0guard@?$cached@H@__crt_cached_ptd_host@@QEAA@AEAU12@@Z 0000000140067854 f i libucrt:output.obj
 0001:0006686c       ??1?$c_string_character_source@D@__crt_strtox@@QEAA@XZ 000000014006786c f i libucrt:output.obj
 0001:00066880       ??1?$c_string_character_source@_W@__crt_strtox@@QEAA@XZ 0000000140067880 f i libucrt:output.obj
 0001:00066894       ??1?$common_data@D@__crt_stdio_output@@QEAA@XZ 0000000140067894 f i libucrt:output.obj
 0001:000668c0       ??1?$common_data@_W@__crt_stdio_output@@QEAA@XZ 00000001400678c0 f i libucrt:output.obj
 0001:000668ec       ??1?$format_validation_base@DV?$stream_output_adapter@D@__crt_stdio_output@@@__crt_stdio_output@@QEAA@XZ 00000001400678ec f i libucrt:output.obj
 0001:00066918       ??1?$format_validation_base@DV?$string_output_adapter@D@__crt_stdio_output@@@__crt_stdio_output@@QEAA@XZ 0000000140067918 f i libucrt:output.obj
 0001:00066944       ??1?$format_validation_base@_WV?$stream_output_adapter@_W@__crt_stdio_output@@@__crt_stdio_output@@QEAA@XZ 0000000140067944 f i libucrt:output.obj
 0001:00066970       ??1?$format_validation_base@_WV?$string_output_adapter@_W@__crt_stdio_output@@@__crt_stdio_output@@QEAA@XZ 0000000140067970 f i libucrt:output.obj
 0001:0006699c       ??1?$output_adapter_data@DV?$stream_output_adapter@D@__crt_stdio_output@@@__crt_stdio_output@@QEAA@XZ 000000014006799c f i libucrt:output.obj
 0001:000669c8       ??1?$output_adapter_data@DV?$string_output_adapter@D@__crt_stdio_output@@@__crt_stdio_output@@QEAA@XZ 00000001400679c8 f i libucrt:output.obj
 0001:000669f4       ??1?$output_adapter_data@_WV?$stream_output_adapter@_W@__crt_stdio_output@@@__crt_stdio_output@@QEAA@XZ 00000001400679f4 f i libucrt:output.obj
 0001:00066a20       ??1?$output_adapter_data@_WV?$string_output_adapter@_W@__crt_stdio_output@@@__crt_stdio_output@@QEAA@XZ 0000000140067a20 f i libucrt:output.obj
 0001:00066a4c       ??1?$output_processor@DV?$stream_output_adapter@D@__crt_stdio_output@@V?$format_validation_base@DV?$stream_output_adapter@D@__crt_stdio_output@@@2@@__crt_stdio_output@@QEAA@XZ 0000000140067a4c f i libucrt:output.obj
 0001:00066a78       ??1?$output_processor@DV?$stream_output_adapter@D@__crt_stdio_output@@V?$positional_parameter_base@DV?$stream_output_adapter@D@__crt_stdio_output@@@2@@__crt_stdio_output@@QEAA@XZ 0000000140067a78 f i libucrt:output.obj
 0001:00066aa4       ??1?$output_processor@DV?$stream_output_adapter@D@__crt_stdio_output@@V?$standard_base@DV?$stream_output_adapter@D@__crt_stdio_output@@@2@@__crt_stdio_output@@QEAA@XZ 0000000140067aa4 f i libucrt:output.obj
 0001:00066ad0       ??1?$output_processor@DV?$string_output_adapter@D@__crt_stdio_output@@V?$format_validation_base@DV?$string_output_adapter@D@__crt_stdio_output@@@2@@__crt_stdio_output@@QEAA@XZ 0000000140067ad0 f i libucrt:output.obj
 0001:00066afc       ??1?$output_processor@DV?$string_output_adapter@D@__crt_stdio_output@@V?$positional_parameter_base@DV?$string_output_adapter@D@__crt_stdio_output@@@2@@__crt_stdio_output@@QEAA@XZ 0000000140067afc f i libucrt:output.obj
 0001:00066b28       ??1?$output_processor@DV?$string_output_adapter@D@__crt_stdio_output@@V?$standard_base@DV?$string_output_adapter@D@__crt_stdio_output@@@2@@__crt_stdio_output@@QEAA@XZ 0000000140067b28 f i libucrt:output.obj
 0001:00066b54       ??1?$output_processor@_WV?$stream_output_adapter@_W@__crt_stdio_output@@V?$format_validation_base@_WV?$stream_output_adapter@_W@__crt_stdio_output@@@2@@__crt_stdio_output@@QEAA@XZ 0000000140067b54 f i libucrt:output.obj
 0001:00066b80       ??1?$output_processor@_WV?$stream_output_adapter@_W@__crt_stdio_output@@V?$positional_parameter_base@_WV?$stream_output_adapter@_W@__crt_stdio_output@@@2@@__crt_stdio_output@@QEAA@XZ 0000000140067b80 f i libucrt:output.obj
 0001:00066bac       ??1?$output_processor@_WV?$stream_output_adapter@_W@__crt_stdio_output@@V?$standard_base@_WV?$stream_output_adapter@_W@__crt_stdio_output@@@2@@__crt_stdio_output@@QEAA@XZ 0000000140067bac f i libucrt:output.obj
 0001:00066bd8       ??1?$output_processor@_WV?$string_output_adapter@_W@__crt_stdio_output@@V?$format_validation_base@_WV?$string_output_adapter@_W@__crt_stdio_output@@@2@@__crt_stdio_output@@QEAA@XZ 0000000140067bd8 f i libucrt:output.obj
 0001:00066c04       ??1?$output_processor@_WV?$string_output_adapter@_W@__crt_stdio_output@@V?$positional_parameter_base@_WV?$string_output_adapter@_W@__crt_stdio_output@@@2@@__crt_stdio_output@@QEAA@XZ 0000000140067c04 f i libucrt:output.obj
 0001:00066c30       ??1?$output_processor@_WV?$string_output_adapter@_W@__crt_stdio_output@@V?$standard_base@_WV?$string_output_adapter@_W@__crt_stdio_output@@@2@@__crt_stdio_output@@QEAA@XZ 0000000140067c30 f i libucrt:output.obj
 0001:00066c5c       ??1?$positional_parameter_base@DV?$stream_output_adapter@D@__crt_stdio_output@@@__crt_stdio_output@@QEAA@XZ 0000000140067c5c f i libucrt:output.obj
 0001:00066c88       ??1?$positional_parameter_base@DV?$string_output_adapter@D@__crt_stdio_output@@@__crt_stdio_output@@QEAA@XZ 0000000140067c88 f i libucrt:output.obj
 0001:00066cb4       ??1?$positional_parameter_base@_WV?$stream_output_adapter@_W@__crt_stdio_output@@@__crt_stdio_output@@QEAA@XZ 0000000140067cb4 f i libucrt:output.obj
 0001:00066ce0       ??1?$positional_parameter_base@_WV?$string_output_adapter@_W@__crt_stdio_output@@@__crt_stdio_output@@QEAA@XZ 0000000140067ce0 f i libucrt:output.obj
 0001:00066d0c       ??1?$standard_base@DV?$stream_output_adapter@D@__crt_stdio_output@@@__crt_stdio_output@@QEAA@XZ 0000000140067d0c f i libucrt:output.obj
 0001:00066d38       ??1?$standard_base@DV?$string_output_adapter@D@__crt_stdio_output@@@__crt_stdio_output@@QEAA@XZ 0000000140067d38 f i libucrt:output.obj
 0001:00066d64       ??1?$standard_base@_WV?$stream_output_adapter@_W@__crt_stdio_output@@@__crt_stdio_output@@QEAA@XZ 0000000140067d64 f i libucrt:output.obj
 0001:00066d90       ??1?$standard_base@_WV?$string_output_adapter@_W@__crt_stdio_output@@@__crt_stdio_output@@QEAA@XZ 0000000140067d90 f i libucrt:output.obj
 0001:00066dbc       ??1__acrt_stdio_temporary_buffering_guard@@QEAA@XZ 0000000140067dbc f i libucrt:output.obj
 0001:00066dd0       ??1__crt_cached_ptd_host@@QEAA@XZ 0000000140067dd0 f i libucrt:output.obj
 0001:00066e34       ??1__crt_scoped_get_last_error_reset@@QEAA@XZ 0000000140067e34 f i libucrt:output.obj
 0001:00066e40       ??1formatting_buffer@__crt_stdio_output@@QEAA@XZ 0000000140067e40 f i libucrt:output.obj
 0001:00066e6c       ??1guard@?$cached@H@__crt_cached_ptd_host@@QEAA@XZ 0000000140067e6c f i libucrt:output.obj
 0001:00066e84       ??4?$__crt_unique_heap_ptr@DU__crt_internal_free_policy@@@@QEAAAEAV0@$$QEAV0@@Z 0000000140067e84 f i libucrt:output.obj
 0001:00066ec8       ??A?$spectre_mitigated_lookup_table@Ustate_transition_pair@__crt_stdio_output@@$0IA@@__crt_stdio_output@@QEBAAEBUstate_transition_pair@1@_K@Z 0000000140067ec8 f i libucrt:output.obj
 0001:00067804       ?__crt_interlocked_read_32@@YAHPEDH@Z 0000000140068804 f i libucrt:output.obj
 0001:00067808       ?adjust_hexit@?$output_processor@DV?$stream_output_adapter@D@__crt_stdio_output@@V?$format_validation_base@DV?$stream_output_adapter@D@__crt_stdio_output@@@2@@__crt_stdio_output@@CADH_N@Z 0000000140068808 f i libucrt:output.obj
 0001:00067818       ?adjust_hexit@?$output_processor@DV?$stream_output_adapter@D@__crt_stdio_output@@V?$positional_parameter_base@DV?$stream_output_adapter@D@__crt_stdio_output@@@2@@__crt_stdio_output@@CADH_N@Z 0000000140068818 f i libucrt:output.obj
 0001:00067828       ?adjust_hexit@?$output_processor@DV?$stream_output_adapter@D@__crt_stdio_output@@V?$standard_base@DV?$stream_output_adapter@D@__crt_stdio_output@@@2@@__crt_stdio_output@@CADH_N@Z 0000000140068828 f i libucrt:output.obj
 0001:00067838       ?adjust_hexit@?$output_processor@DV?$string_output_adapter@D@__crt_stdio_output@@V?$format_validation_base@DV?$string_output_adapter@D@__crt_stdio_output@@@2@@__crt_stdio_output@@CADH_N@Z 0000000140068838 f i libucrt:output.obj
 0001:00067848       ?adjust_hexit@?$output_processor@DV?$string_output_adapter@D@__crt_stdio_output@@V?$positional_parameter_base@DV?$string_output_adapter@D@__crt_stdio_output@@@2@@__crt_stdio_output@@CADH_N@Z 0000000140068848 f i libucrt:output.obj
 0001:00067858       ?adjust_hexit@?$output_processor@DV?$string_output_adapter@D@__crt_stdio_output@@V?$standard_base@DV?$string_output_adapter@D@__crt_stdio_output@@@2@@__crt_stdio_output@@CADH_N@Z 0000000140068858 f i libucrt:output.obj
 0001:00067868       ?adjust_hexit@?$output_processor@_WV?$stream_output_adapter@_W@__crt_stdio_output@@V?$format_validation_base@_WV?$stream_output_adapter@_W@__crt_stdio_output@@@2@@__crt_stdio_output@@CADH_N@Z 0000000140068868 f i libucrt:output.obj
 0001:00067878       ?adjust_hexit@?$output_processor@_WV?$stream_output_adapter@_W@__crt_stdio_output@@V?$positional_parameter_base@_WV?$stream_output_adapter@_W@__crt_stdio_output@@@2@@__crt_stdio_output@@CADH_N@Z 0000000140068878 f i libucrt:output.obj
 0001:00067888       ?adjust_hexit@?$output_processor@_WV?$stream_output_adapter@_W@__crt_stdio_output@@V?$standard_base@_WV?$stream_output_adapter@_W@__crt_stdio_output@@@2@@__crt_stdio_output@@CADH_N@Z 0000000140068888 f i libucrt:output.obj
 0001:00067898       ?adjust_hexit@?$output_processor@_WV?$string_output_adapter@_W@__crt_stdio_output@@V?$format_validation_base@_WV?$string_output_adapter@_W@__crt_stdio_output@@@2@@__crt_stdio_output@@CADH_N@Z 0000000140068898 f i libucrt:output.obj
 0001:000678a8       ?adjust_hexit@?$output_processor@_WV?$string_output_adapter@_W@__crt_stdio_output@@V?$positional_parameter_base@_WV?$string_output_adapter@_W@__crt_stdio_output@@@2@@__crt_stdio_output@@CADH_N@Z 00000001400688a8 f i libucrt:output.obj
 0001:000678b8       ?adjust_hexit@?$output_processor@_WV?$string_output_adapter@_W@__crt_stdio_output@@V?$standard_base@_WV?$string_output_adapter@_W@__crt_stdio_output@@@2@@__crt_stdio_output@@CADH_N@Z 00000001400688b8 f i libucrt:output.obj
 0001:000678c8       ?advance_to_next_pass@?$positional_parameter_base@DV?$stream_output_adapter@D@__crt_stdio_output@@@__crt_stdio_output@@IEAA_NXZ 00000001400688c8 f i libucrt:output.obj
 0001:00067930       ?advance_to_next_pass@?$positional_parameter_base@DV?$string_output_adapter@D@__crt_stdio_output@@@__crt_stdio_output@@IEAA_NXZ 0000000140068930 f i libucrt:output.obj
 0001:00067998       ?advance_to_next_pass@?$positional_parameter_base@_WV?$stream_output_adapter@_W@__crt_stdio_output@@@__crt_stdio_output@@IEAA_NXZ 0000000140068998 f i libucrt:output.obj
 0001:00067a00       ?advance_to_next_pass@?$positional_parameter_base@_WV?$string_output_adapter@_W@__crt_stdio_output@@@__crt_stdio_output@@IEAA_NXZ 0000000140068a00 f i libucrt:output.obj
 0001:00067a68       ?advance_to_next_pass@?$standard_base@DV?$stream_output_adapter@D@__crt_stdio_output@@@__crt_stdio_output@@IEAA_NXZ 0000000140068a68 f i libucrt:output.obj
 0001:00067a80       ?advance_to_next_pass@?$standard_base@DV?$string_output_adapter@D@__crt_stdio_output@@@__crt_stdio_output@@IEAA_NXZ 0000000140068a80 f i libucrt:output.obj
 0001:00067a98       ?advance_to_next_pass@?$standard_base@_WV?$stream_output_adapter@_W@__crt_stdio_output@@@__crt_stdio_output@@IEAA_NXZ 0000000140068a98 f i libucrt:output.obj
 0001:00067ab0       ?advance_to_next_pass@?$standard_base@_WV?$string_output_adapter@_W@__crt_stdio_output@@@__crt_stdio_output@@IEAA_NXZ 0000000140068ab0 f i libucrt:output.obj
 0001:00067ac8       ?check@?$cached@H@__crt_cached_ptd_host@@QEBA_NH@Z 0000000140068ac8 f i libucrt:output.obj
 0001:00067ae0       ?check_synchronize_global_state_index@__crt_cached_ptd_host@@AEAA_KAEBV__crt_scoped_get_last_error_reset@@@Z 0000000140068ae0 f i libucrt:output.obj
 0001:00067b00       ?check_synchronize_per_thread_data@__crt_cached_ptd_host@@AEAAPEAU__acrt_ptd@@XZ 0000000140068b00 f i libucrt:output.obj
 0001:00067b80       ?create_guard@?$cached@H@__crt_cached_ptd_host@@QEAA?AVguard@12@XZ 0000000140068b80 f i libucrt:output.obj
 0001:00067b98       ?crop_zeroes@__crt_stdio_output@@YAXPEADQEAU__crt_locale_pointers@@@Z 0000000140068b98 f i libucrt:output.obj
 0001:00067c1c       ?disable@guard@?$cached@H@__crt_cached_ptd_host@@QEAAXXZ 0000000140068c1c f i libucrt:output.obj
 0001:00067c24       ?enable@guard@?$cached@H@__crt_cached_ptd_host@@QEAAXXZ 0000000140068c24 f i libucrt:output.obj
 0001:00067c2c       ?find_next_state@?$output_processor@DV?$stream_output_adapter@D@__crt_stdio_output@@V?$format_validation_base@DV?$stream_output_adapter@D@__crt_stdio_output@@@2@@__crt_stdio_output@@AEBA?AW4state@2@DW432@@Z 0000000140068c2c f i libucrt:output.obj
 0001:00067c70       ?find_next_state@?$output_processor@DV?$stream_output_adapter@D@__crt_stdio_output@@V?$positional_parameter_base@DV?$stream_output_adapter@D@__crt_stdio_output@@@2@@__crt_stdio_output@@AEBA?AW4state@2@DW432@@Z 0000000140068c70 f i libucrt:output.obj
 0001:00067cb4       ?find_next_state@?$output_processor@DV?$stream_output_adapter@D@__crt_stdio_output@@V?$standard_base@DV?$stream_output_adapter@D@__crt_stdio_output@@@2@@__crt_stdio_output@@AEBA?AW4state@2@DW432@@Z 0000000140068cb4 f i libucrt:output.obj
 0001:00067cf8       ?find_next_state@?$output_processor@DV?$string_output_adapter@D@__crt_stdio_output@@V?$format_validation_base@DV?$string_output_adapter@D@__crt_stdio_output@@@2@@__crt_stdio_output@@AEBA?AW4state@2@DW432@@Z 0000000140068cf8 f i libucrt:output.obj
 0001:00067d3c       ?find_next_state@?$output_processor@DV?$string_output_adapter@D@__crt_stdio_output@@V?$positional_parameter_base@DV?$string_output_adapter@D@__crt_stdio_output@@@2@@__crt_stdio_output@@AEBA?AW4state@2@DW432@@Z 0000000140068d3c f i libucrt:output.obj
 0001:00067d80       ?find_next_state@?$output_processor@DV?$string_output_adapter@D@__crt_stdio_output@@V?$standard_base@DV?$string_output_adapter@D@__crt_stdio_output@@@2@@__crt_stdio_output@@AEBA?AW4state@2@DW432@@Z 0000000140068d80 f i libucrt:output.obj
 0001:00067dc4       ?find_next_state@?$output_processor@_WV?$stream_output_adapter@_W@__crt_stdio_output@@V?$format_validation_base@_WV?$stream_output_adapter@_W@__crt_stdio_output@@@2@@__crt_stdio_output@@AEBA?AW4state@2@_WW432@@Z 0000000140068dc4 f i libucrt:output.obj
 0001:00067e14       ?find_next_state@?$output_processor@_WV?$stream_output_adapter@_W@__crt_stdio_output@@V?$positional_parameter_base@_WV?$stream_output_adapter@_W@__crt_stdio_output@@@2@@__crt_stdio_output@@AEBA?AW4state@2@_WW432@@Z 0000000140068e14 f i libucrt:output.obj
 0001:00067e64       ?find_next_state@?$output_processor@_WV?$stream_output_adapter@_W@__crt_stdio_output@@V?$standard_base@_WV?$stream_output_adapter@_W@__crt_stdio_output@@@2@@__crt_stdio_output@@AEBA?AW4state@2@_WW432@@Z 0000000140068e64 f i libucrt:output.obj
 0001:00067eb0       ?find_next_state@?$output_processor@_WV?$string_output_adapter@_W@__crt_stdio_output@@V?$format_validation_base@_WV?$string_output_adapter@_W@__crt_stdio_output@@@2@@__crt_stdio_output@@AEBA?AW4state@2@_WW432@@Z 0000000140068eb0 f i libucrt:output.obj
 0001:00067f00       ?find_next_state@?$output_processor@_WV?$string_output_adapter@_W@__crt_stdio_output@@V?$positional_parameter_base@_WV?$string_output_adapter@_W@__crt_stdio_output@@@2@@__crt_stdio_output@@AEBA?AW4state@2@_WW432@@Z 0000000140068f00 f i libucrt:output.obj
 0001:00067f50       ?find_next_state@?$output_processor@_WV?$string_output_adapter@_W@__crt_stdio_output@@V?$standard_base@_WV?$string_output_adapter@_W@__crt_stdio_output@@@2@@__crt_stdio_output@@AEBA?AW4state@2@_WW432@@Z 0000000140068f50 f i libucrt:output.obj
 0001:00067f9c       ?force_decimal_point@__crt_stdio_output@@YAXPEADQEAU__crt_locale_pointers@@@Z 0000000140068f9c f i libucrt:output.obj
 0001:00068020       ?force_synchronize_global_state_index@__crt_cached_ptd_host@@AEAA_KAEBV__crt_scoped_get_last_error_reset@@@Z 0000000140069020 f i libucrt:output.obj
 0001:00068040       ?force_synchronize_per_thread_data@__crt_cached_ptd_host@@AEAAPEAU__acrt_ptd@@XZ 0000000140069040 f i libucrt:output.obj
 0001:000680ac       ?get@?$c_string_character_source@D@__crt_strtox@@QEAADXZ 00000001400690ac f i libucrt:output.obj
 0001:000680bc       ?get@?$c_string_character_source@_W@__crt_strtox@@QEAA_WXZ 00000001400690bc f i libucrt:output.obj
 0001:000680d0       ?get_current_state_index@__crt_state_management@@YA_KAEBV__crt_scoped_get_last_error_reset@@@Z 00000001400690d0 f i libucrt:output.obj
 0001:000680e0       ?get_errno@__crt_cached_ptd_host@@QEAA@XZ 00000001400690e0 f i libucrt:output.obj
 0001:000680e8       ?get_flags@__crt_stdio_stream@@QEBAJXZ 00000001400690e8 f i libucrt:output.obj
 0001:00068100       ?get_locale@__crt_cached_ptd_host@@QEAAPEAU__crt_locale_pointers@@XZ 0000000140069100 f i libucrt:output.obj
 0001:00068134       ?get_parameter_type@?$positional_parameter_base@DV?$stream_output_adapter@D@__crt_stdio_output@@@__crt_stdio_output@@CA?AW4parameter_type@12@F@Z 0000000140069134 f i libucrt:output.obj
 0001:0006813c       ?get_parameter_type@?$positional_parameter_base@DV?$stream_output_adapter@D@__crt_stdio_output@@@__crt_stdio_output@@CA?AW4parameter_type@12@G@Z 000000014006913c f i libucrt:output.obj
 0001:00068144       ?get_parameter_type@?$positional_parameter_base@DV?$stream_output_adapter@D@__crt_stdio_output@@@__crt_stdio_output@@CA?AW4parameter_type@12@H@Z 0000000140069144 f i libucrt:output.obj
 0001:0006814c       ?get_parameter_type@?$positional_parameter_base@DV?$stream_output_adapter@D@__crt_stdio_output@@@__crt_stdio_output@@CA?AW4parameter_type@12@I@Z 000000014006914c f i libucrt:output.obj
 0001:00068154       ?get_parameter_type@?$positional_parameter_base@DV?$stream_output_adapter@D@__crt_stdio_output@@@__crt_stdio_output@@CA?AW4parameter_type@12@U_CRT_DOUBLE@@@Z 0000000140069154 f i libucrt:output.obj
 0001:0006815c       ?get_parameter_type@?$positional_parameter_base@DV?$stream_output_adapter@D@__crt_stdio_output@@@__crt_stdio_output@@CA?AW4parameter_type@12@_J@Z 000000014006915c f i libucrt:output.obj
 0001:00068164       ?get_parameter_type@?$positional_parameter_base@DV?$stream_output_adapter@D@__crt_stdio_output@@@__crt_stdio_output@@CA?AW4parameter_type@12@_K@Z 0000000140069164 f i libucrt:output.obj
 0001:0006816c       ?get_parameter_type@?$positional_parameter_base@DV?$stream_output_adapter@D@__crt_stdio_output@@@__crt_stdio_output@@CA?AW4parameter_type@12@_W@Z 000000014006916c f i libucrt:output.obj
 0001:00068174       ?get_parameter_type@?$positional_parameter_base@DV?$string_output_adapter@D@__crt_stdio_output@@@__crt_stdio_output@@CA?AW4parameter_type@12@F@Z 0000000140069174 f i libucrt:output.obj
 0001:0006817c       ?get_parameter_type@?$positional_parameter_base@DV?$string_output_adapter@D@__crt_stdio_output@@@__crt_stdio_output@@CA?AW4parameter_type@12@G@Z 000000014006917c f i libucrt:output.obj
 0001:00068184       ?get_parameter_type@?$positional_parameter_base@DV?$string_output_adapter@D@__crt_stdio_output@@@__crt_stdio_output@@CA?AW4parameter_type@12@H@Z 0000000140069184 f i libucrt:output.obj
 0001:0006818c       ?get_parameter_type@?$positional_parameter_base@DV?$string_output_adapter@D@__crt_stdio_output@@@__crt_stdio_output@@CA?AW4parameter_type@12@I@Z 000000014006918c f i libucrt:output.obj
 0001:00068194       ?get_parameter_type@?$positional_parameter_base@DV?$string_output_adapter@D@__crt_stdio_output@@@__crt_stdio_output@@CA?AW4parameter_type@12@U_CRT_DOUBLE@@@Z 0000000140069194 f i libucrt:output.obj
 0001:0006819c       ?get_parameter_type@?$positional_parameter_base@DV?$string_output_adapter@D@__crt_stdio_output@@@__crt_stdio_output@@CA?AW4parameter_type@12@_J@Z 000000014006919c f i libucrt:output.obj
 0001:000681a4       ?get_parameter_type@?$positional_parameter_base@DV?$string_output_adapter@D@__crt_stdio_output@@@__crt_stdio_output@@CA?AW4parameter_type@12@_K@Z 00000001400691a4 f i libucrt:output.obj
 0001:000681ac       ?get_parameter_type@?$positional_parameter_base@DV?$string_output_adapter@D@__crt_stdio_output@@@__crt_stdio_output@@CA?AW4parameter_type@12@_W@Z 00000001400691ac f i libucrt:output.obj
 0001:000681b4       ?get_parameter_type@?$positional_parameter_base@_WV?$stream_output_adapter@_W@__crt_stdio_output@@@__crt_stdio_output@@CA?AW4parameter_type@12@F@Z 00000001400691b4 f i libucrt:output.obj
 0001:000681bc       ?get_parameter_type@?$positional_parameter_base@_WV?$stream_output_adapter@_W@__crt_stdio_output@@@__crt_stdio_output@@CA?AW4parameter_type@12@G@Z 00000001400691bc f i libucrt:output.obj
 0001:000681c4       ?get_parameter_type@?$positional_parameter_base@_WV?$stream_output_adapter@_W@__crt_stdio_output@@@__crt_stdio_output@@CA?AW4parameter_type@12@H@Z 00000001400691c4 f i libucrt:output.obj
 0001:000681cc       ?get_parameter_type@?$positional_parameter_base@_WV?$stream_output_adapter@_W@__crt_stdio_output@@@__crt_stdio_output@@CA?AW4parameter_type@12@I@Z 00000001400691cc f i libucrt:output.obj
 0001:000681d4       ?get_parameter_type@?$positional_parameter_base@_WV?$stream_output_adapter@_W@__crt_stdio_output@@@__crt_stdio_output@@CA?AW4parameter_type@12@U_CRT_DOUBLE@@@Z 00000001400691d4 f i libucrt:output.obj
 0001:000681dc       ?get_parameter_type@?$positional_parameter_base@_WV?$stream_output_adapter@_W@__crt_stdio_output@@@__crt_stdio_output@@CA?AW4parameter_type@12@_J@Z 00000001400691dc f i libucrt:output.obj
 0001:000681e4       ?get_parameter_type@?$positional_parameter_base@_WV?$stream_output_adapter@_W@__crt_stdio_output@@@__crt_stdio_output@@CA?AW4parameter_type@12@_K@Z 00000001400691e4 f i libucrt:output.obj
 0001:000681ec       ?get_parameter_type@?$positional_parameter_base@_WV?$stream_output_adapter@_W@__crt_stdio_output@@@__crt_stdio_output@@CA?AW4parameter_type@12@_W@Z 00000001400691ec f i libucrt:output.obj
 0001:000681f4       ?get_parameter_type@?$positional_parameter_base@_WV?$string_output_adapter@_W@__crt_stdio_output@@@__crt_stdio_output@@CA?AW4parameter_type@12@F@Z 00000001400691f4 f i libucrt:output.obj
 0001:000681fc       ?get_parameter_type@?$positional_parameter_base@_WV?$string_output_adapter@_W@__crt_stdio_output@@@__crt_stdio_output@@CA?AW4parameter_type@12@G@Z 00000001400691fc f i libucrt:output.obj
 0001:00068204       ?get_parameter_type@?$positional_parameter_base@_WV?$string_output_adapter@_W@__crt_stdio_output@@@__crt_stdio_output@@CA?AW4parameter_type@12@H@Z 0000000140069204 f i libucrt:output.obj
 0001:0006820c       ?get_parameter_type@?$positional_parameter_base@_WV?$string_output_adapter@_W@__crt_stdio_output@@@__crt_stdio_output@@CA?AW4parameter_type@12@I@Z 000000014006920c f i libucrt:output.obj
 0001:00068214       ?get_parameter_type@?$positional_parameter_base@_WV?$string_output_adapter@_W@__crt_stdio_output@@@__crt_stdio_output@@CA?AW4parameter_type@12@U_CRT_DOUBLE@@@Z 0000000140069214 f i libucrt:output.obj
 0001:0006821c       ?get_parameter_type@?$positional_parameter_base@_WV?$string_output_adapter@_W@__crt_stdio_output@@@__crt_stdio_output@@CA?AW4parameter_type@12@_J@Z 000000014006921c f i libucrt:output.obj
 0001:00068224       ?get_parameter_type@?$positional_parameter_base@_WV?$string_output_adapter@_W@__crt_stdio_output@@@__crt_stdio_output@@CA?AW4parameter_type@12@_K@Z 0000000140069224 f i libucrt:output.obj
 0001:0006822c       ?get_parameter_type@?$positional_parameter_base@_WV?$string_output_adapter@_W@__crt_stdio_output@@@__crt_stdio_output@@CA?AW4parameter_type@12@_W@Z 000000014006922c f i libucrt:output.obj
 0001:00068240       ?get_raw_ptd@__crt_cached_ptd_host@@QEAAPEAU__acrt_ptd@@XZ 0000000140069240 f i libucrt:output.obj
 0001:000682c0       ?has_flag@?$output_processor@DV?$stream_output_adapter@D@__crt_stdio_output@@V?$format_validation_base@DV?$stream_output_adapter@D@__crt_stdio_output@@@2@@__crt_stdio_output@@AEBA_NI@Z 00000001400692c0 f i libucrt:output.obj
 0001:000682c8       ?has_flag@?$output_processor@DV?$stream_output_adapter@D@__crt_stdio_output@@V?$positional_parameter_base@DV?$stream_output_adapter@D@__crt_stdio_output@@@2@@__crt_stdio_output@@AEBA_NI@Z 00000001400692c8 f i libucrt:output.obj
 0001:000682d0       ?has_flag@?$output_processor@DV?$stream_output_adapter@D@__crt_stdio_output@@V?$standard_base@DV?$stream_output_adapter@D@__crt_stdio_output@@@2@@__crt_stdio_output@@AEBA_NI@Z 00000001400692d0 f i libucrt:output.obj
 0001:000682d8       ?has_flag@?$output_processor@DV?$string_output_adapter@D@__crt_stdio_output@@V?$format_validation_base@DV?$string_output_adapter@D@__crt_stdio_output@@@2@@__crt_stdio_output@@AEBA_NI@Z 00000001400692d8 f i libucrt:output.obj
 0001:000682e0       ?has_flag@?$output_processor@DV?$string_output_adapter@D@__crt_stdio_output@@V?$positional_parameter_base@DV?$string_output_adapter@D@__crt_stdio_output@@@2@@__crt_stdio_output@@AEBA_NI@Z 00000001400692e0 f i libucrt:output.obj
 0001:000682e8       ?has_flag@?$output_processor@DV?$string_output_adapter@D@__crt_stdio_output@@V?$standard_base@DV?$string_output_adapter@D@__crt_stdio_output@@@2@@__crt_stdio_output@@AEBA_NI@Z 00000001400692e8 f i libucrt:output.obj
 0001:000682f0       ?has_flag@?$output_processor@_WV?$stream_output_adapter@_W@__crt_stdio_output@@V?$format_validation_base@_WV?$stream_output_adapter@_W@__crt_stdio_output@@@2@@__crt_stdio_output@@AEBA_NI@Z 00000001400692f0 f i libucrt:output.obj
 0001:000682f8       ?has_flag@?$output_processor@_WV?$stream_output_adapter@_W@__crt_stdio_output@@V?$positional_parameter_base@_WV?$stream_output_adapter@_W@__crt_stdio_output@@@2@@__crt_stdio_output@@AEBA_NI@Z 00000001400692f8 f i libucrt:output.obj
 0001:00068300       ?has_flag@?$output_processor@_WV?$stream_output_adapter@_W@__crt_stdio_output@@V?$standard_base@_WV?$stream_output_adapter@_W@__crt_stdio_output@@@2@@__crt_stdio_output@@AEBA_NI@Z 0000000140069300 f i libucrt:output.obj
 0001:00068308       ?has_flag@?$output_processor@_WV?$string_output_adapter@_W@__crt_stdio_output@@V?$format_validation_base@_WV?$string_output_adapter@_W@__crt_stdio_output@@@2@@__crt_stdio_output@@AEBA_NI@Z 0000000140069308 f i libucrt:output.obj
 0001:00068310       ?has_flag@?$output_processor@_WV?$string_output_adapter@_W@__crt_stdio_output@@V?$positional_parameter_base@_WV?$string_output_adapter@_W@__crt_stdio_output@@@2@@__crt_stdio_output@@AEBA_NI@Z 0000000140069310 f i libucrt:output.obj
 0001:00068318       ?has_flag@?$output_processor@_WV?$string_output_adapter@_W@__crt_stdio_output@@V?$standard_base@_WV?$string_output_adapter@_W@__crt_stdio_output@@@2@@__crt_stdio_output@@AEBA_NI@Z 0000000140069318 f i libucrt:output.obj
 0001:00068320       ?is_positional_parameter_reappearance_consistent@?$positional_parameter_base@DV?$stream_output_adapter@D@__crt_stdio_output@@@__crt_stdio_output@@AEAA_NAEBUparameter_data@12@W4parameter_type@12@DW4length_modifier@2@@Z 0000000140069320 f i libucrt:output.obj
 0001:000685e4       ?is_positional_parameter_reappearance_consistent@?$positional_parameter_base@DV?$string_output_adapter@D@__crt_stdio_output@@@__crt_stdio_output@@AEAA_NAEBUparameter_data@12@W4parameter_type@12@DW4length_modifier@2@@Z 00000001400695e4 f i libucrt:output.obj
 0001:000688a8       ?is_positional_parameter_reappearance_consistent@?$positional_parameter_base@_WV?$stream_output_adapter@_W@__crt_stdio_output@@@__crt_stdio_output@@AEAA_NAEBUparameter_data@12@W4parameter_type@12@_WW4length_modifier@2@@Z 00000001400698a8 f i libucrt:output.obj
 0001:00068b2c       ?is_positional_parameter_reappearance_consistent@?$positional_parameter_base@_WV?$string_output_adapter@_W@__crt_stdio_output@@@__crt_stdio_output@@AEAA_NAEBUparameter_data@12@W4parameter_type@12@_WW4length_modifier@2@@Z 0000000140069b2c f i libucrt:output.obj
 0001:00068db0       ?is_string_backed@__crt_stdio_stream@@QEBA_NXZ 0000000140069db0 f i libucrt:output.obj
 0001:00068dc0       ?maximum_signed_value@__crt_strtox@@YAJK@Z 0000000140069dc0 f i libucrt:output.obj
 0001:00068dc8       ?minimum_signed_value@__crt_strtox@@YAJK@Z 0000000140069dc8 f i libucrt:output.obj
 0001:00068dd0       ?narrow_null_string@?$output_processor@DV?$stream_output_adapter@D@__crt_stdio_output@@V?$format_validation_base@DV?$stream_output_adapter@D@__crt_stdio_output@@@2@@__crt_stdio_output@@CAPEADXZ 0000000140069dd0 f i libucrt:output.obj
 0001:00068ddc       ?narrow_null_string@?$output_processor@DV?$stream_output_adapter@D@__crt_stdio_output@@V?$positional_parameter_base@DV?$stream_output_adapter@D@__crt_stdio_output@@@2@@__crt_stdio_output@@CAPEADXZ 0000000140069ddc f i libucrt:output.obj
 0001:00068de8       ?narrow_null_string@?$output_processor@DV?$stream_output_adapter@D@__crt_stdio_output@@V?$standard_base@DV?$stream_output_adapter@D@__crt_stdio_output@@@2@@__crt_stdio_output@@CAPEADXZ 0000000140069de8 f i libucrt:output.obj
 0001:00068df4       ?narrow_null_string@?$output_processor@DV?$string_output_adapter@D@__crt_stdio_output@@V?$format_validation_base@DV?$string_output_adapter@D@__crt_stdio_output@@@2@@__crt_stdio_output@@CAPEADXZ 0000000140069df4 f i libucrt:output.obj
 0001:00068e00       ?narrow_null_string@?$output_processor@DV?$string_output_adapter@D@__crt_stdio_output@@V?$positional_parameter_base@DV?$string_output_adapter@D@__crt_stdio_output@@@2@@__crt_stdio_output@@CAPEADXZ 0000000140069e00 f i libucrt:output.obj
 0001:00068e0c       ?narrow_null_string@?$output_processor@DV?$string_output_adapter@D@__crt_stdio_output@@V?$standard_base@DV?$string_output_adapter@D@__crt_stdio_output@@@2@@__crt_stdio_output@@CAPEADXZ 0000000140069e0c f i libucrt:output.obj
 0001:00068e18       ?narrow_null_string@?$output_processor@_WV?$stream_output_adapter@_W@__crt_stdio_output@@V?$format_validation_base@_WV?$stream_output_adapter@_W@__crt_stdio_output@@@2@@__crt_stdio_output@@CAPEADXZ 0000000140069e18 f i libucrt:output.obj
 0001:00068e24       ?narrow_null_string@?$output_processor@_WV?$stream_output_adapter@_W@__crt_stdio_output@@V?$positional_parameter_base@_WV?$stream_output_adapter@_W@__crt_stdio_output@@@2@@__crt_stdio_output@@CAPEADXZ 0000000140069e24 f i libucrt:output.obj
 0001:00068e30       ?narrow_null_string@?$output_processor@_WV?$stream_output_adapter@_W@__crt_stdio_output@@V?$standard_base@_WV?$stream_output_adapter@_W@__crt_stdio_output@@@2@@__crt_stdio_output@@CAPEADXZ 0000000140069e30 f i libucrt:output.obj
 0001:00068e3c       ?narrow_null_string@?$output_processor@_WV?$string_output_adapter@_W@__crt_stdio_output@@V?$format_validation_base@_WV?$string_output_adapter@_W@__crt_stdio_output@@@2@@__crt_stdio_output@@CAPEADXZ 0000000140069e3c f i libucrt:output.obj
 0001:00068e48       ?narrow_null_string@?$output_processor@_WV?$string_output_adapter@_W@__crt_stdio_output@@V?$positional_parameter_base@_WV?$string_output_adapter@_W@__crt_stdio_output@@@2@@__crt_stdio_output@@CAPEADXZ 0000000140069e48 f i libucrt:output.obj
 0001:00068e54       ?narrow_null_string@?$output_processor@_WV?$string_output_adapter@_W@__crt_stdio_output@@V?$standard_base@_WV?$string_output_adapter@_W@__crt_stdio_output@@@2@@__crt_stdio_output@@CAPEADXZ 0000000140069e54 f i libucrt:output.obj
 0001:00068e60       ?parse_digit@__crt_strtox@@YAID@Z 0000000140069e60 f i libucrt:output.obj
 0001:00068e9c       ?parse_digit@__crt_strtox@@YAI_W@Z 0000000140069e9c f i libucrt:output.obj
 0001:000690c4       ?parse_int_from_format_string@?$output_processor@DV?$stream_output_adapter@D@__crt_stdio_output@@V?$format_validation_base@DV?$stream_output_adapter@D@__crt_stdio_output@@@2@@__crt_stdio_output@@AEAA_NQEAH@Z 000000014006a0c4 f i libucrt:output.obj
 0001:00069174       ?parse_int_from_format_string@?$output_processor@DV?$stream_output_adapter@D@__crt_stdio_output@@V?$positional_parameter_base@DV?$stream_output_adapter@D@__crt_stdio_output@@@2@@__crt_stdio_output@@AEAA_NQEAH@Z 000000014006a174 f i libucrt:output.obj
 0001:00069224       ?parse_int_from_format_string@?$output_processor@DV?$stream_output_adapter@D@__crt_stdio_output@@V?$standard_base@DV?$stream_output_adapter@D@__crt_stdio_output@@@2@@__crt_stdio_output@@AEAA_NQEAH@Z 000000014006a224 f i libucrt:output.obj
 0001:000692d4       ?parse_int_from_format_string@?$output_processor@DV?$string_output_adapter@D@__crt_stdio_output@@V?$format_validation_base@DV?$string_output_adapter@D@__crt_stdio_output@@@2@@__crt_stdio_output@@AEAA_NQEAH@Z 000000014006a2d4 f i libucrt:output.obj
 0001:00069384       ?parse_int_from_format_string@?$output_processor@DV?$string_output_adapter@D@__crt_stdio_output@@V?$positional_parameter_base@DV?$string_output_adapter@D@__crt_stdio_output@@@2@@__crt_stdio_output@@AEAA_NQEAH@Z 000000014006a384 f i libucrt:output.obj
 0001:00069434       ?parse_int_from_format_string@?$output_processor@DV?$string_output_adapter@D@__crt_stdio_output@@V?$standard_base@DV?$string_output_adapter@D@__crt_stdio_output@@@2@@__crt_stdio_output@@AEAA_NQEAH@Z 000000014006a434 f i libucrt:output.obj
 0001:000694e4       ?parse_int_from_format_string@?$output_processor@_WV?$stream_output_adapter@_W@__crt_stdio_output@@V?$format_validation_base@_WV?$stream_output_adapter@_W@__crt_stdio_output@@@2@@__crt_stdio_output@@AEAA_NQEAH@Z 000000014006a4e4 f i libucrt:output.obj
 0001:00069598       ?parse_int_from_format_string@?$output_processor@_WV?$stream_output_adapter@_W@__crt_stdio_output@@V?$positional_parameter_base@_WV?$stream_output_adapter@_W@__crt_stdio_output@@@2@@__crt_stdio_output@@AEAA_NQEAH@Z 000000014006a598 f i libucrt:output.obj
 0001:0006964c       ?parse_int_from_format_string@?$output_processor@_WV?$stream_output_adapter@_W@__crt_stdio_output@@V?$standard_base@_WV?$stream_output_adapter@_W@__crt_stdio_output@@@2@@__crt_stdio_output@@AEAA_NQEAH@Z 000000014006a64c f i libucrt:output.obj
 0001:00069700       ?parse_int_from_format_string@?$output_processor@_WV?$string_output_adapter@_W@__crt_stdio_output@@V?$format_validation_base@_WV?$string_output_adapter@_W@__crt_stdio_output@@@2@@__crt_stdio_output@@AEAA_NQEAH@Z 000000014006a700 f i libucrt:output.obj
 0001:000697b4       ?parse_int_from_format_string@?$output_processor@_WV?$string_output_adapter@_W@__crt_stdio_output@@V?$positional_parameter_base@_WV?$string_output_adapter@_W@__crt_stdio_output@@@2@@__crt_stdio_output@@AEAA_NQEAH@Z 000000014006a7b4 f i libucrt:output.obj
 0001:00069868       ?parse_int_from_format_string@?$output_processor@_WV?$string_output_adapter@_W@__crt_stdio_output@@V?$standard_base@_WV?$string_output_adapter@_W@__crt_stdio_output@@@2@@__crt_stdio_output@@AEAA_NQEAH@Z 000000014006a868 f i libucrt:output.obj
 0001:0006991c       ?process@?$output_processor@DV?$stream_output_adapter@D@__crt_stdio_output@@V?$format_validation_base@DV?$stream_output_adapter@D@__crt_stdio_output@@@2@@__crt_stdio_output@@QEAAHXZ 000000014006a91c f i libucrt:output.obj
 0001:00069da0       ?process@?$output_processor@DV?$stream_output_adapter@D@__crt_stdio_output@@V?$positional_parameter_base@DV?$stream_output_adapter@D@__crt_stdio_output@@@2@@__crt_stdio_output@@QEAAHXZ 000000014006ada0 f i libucrt:output.obj
 0001:0006a2e0       ?process@?$output_processor@DV?$stream_output_adapter@D@__crt_stdio_output@@V?$standard_base@DV?$stream_output_adapter@D@__crt_stdio_output@@@2@@__crt_stdio_output@@QEAAHXZ 000000014006b2e0 f i libucrt:output.obj
 0001:0006a75c       ?process@?$output_processor@DV?$string_output_adapter@D@__crt_stdio_output@@V?$format_validation_base@DV?$string_output_adapter@D@__crt_stdio_output@@@2@@__crt_stdio_output@@QEAAHXZ 000000014006b75c f i libucrt:output.obj
 0001:0006abc0       ?process@?$output_processor@DV?$string_output_adapter@D@__crt_stdio_output@@V?$positional_parameter_base@DV?$string_output_adapter@D@__crt_stdio_output@@@2@@__crt_stdio_output@@QEAAHXZ 000000014006bbc0 f i libucrt:output.obj
 0001:0006b0dc       ?process@?$output_processor@DV?$string_output_adapter@D@__crt_stdio_output@@V?$standard_base@DV?$string_output_adapter@D@__crt_stdio_output@@@2@@__crt_stdio_output@@QEAAHXZ 000000014006c0dc f i libucrt:output.obj
 0001:0006b53c       ?process@?$output_processor@_WV?$stream_output_adapter@_W@__crt_stdio_output@@V?$format_validation_base@_WV?$stream_output_adapter@_W@__crt_stdio_output@@@2@@__crt_stdio_output@@QEAAHXZ 000000014006c53c f i libucrt:output.obj
 0001:0006b8d0       ?process@?$output_processor@_WV?$stream_output_adapter@_W@__crt_stdio_output@@V?$positional_parameter_base@_WV?$stream_output_adapter@_W@__crt_stdio_output@@@2@@__crt_stdio_output@@QEAAHXZ 000000014006c8d0 f i libucrt:output.obj
 0001:0006bd1c       ?process@?$output_processor@_WV?$stream_output_adapter@_W@__crt_stdio_output@@V?$standard_base@_WV?$stream_output_adapter@_W@__crt_stdio_output@@@2@@__crt_stdio_output@@QEAAHXZ 000000014006cd1c f i libucrt:output.obj
 0001:0006c0a0       ?process@?$output_processor@_WV?$string_output_adapter@_W@__crt_stdio_output@@V?$format_validation_base@_WV?$string_output_adapter@_W@__crt_stdio_output@@@2@@__crt_stdio_output@@QEAAHXZ 000000014006d0a0 f i libucrt:output.obj
 0001:0006c42c       ?process@?$output_processor@_WV?$string_output_adapter@_W@__crt_stdio_output@@V?$positional_parameter_base@_WV?$string_output_adapter@_W@__crt_stdio_output@@@2@@__crt_stdio_output@@QEAAHXZ 000000014006d42c f i libucrt:output.obj
 0001:0006c870       ?process@?$output_processor@_WV?$string_output_adapter@_W@__crt_stdio_output@@V?$standard_base@_WV?$string_output_adapter@_W@__crt_stdio_output@@@2@@__crt_stdio_output@@QEAAHXZ 000000014006d870 f i libucrt:output.obj
 0001:0006cbfc       ?public_stream@__crt_stdio_stream@@QEBAPEAU_iobuf@@XZ 000000014006dbfc f i libucrt:output.obj
 0001:0006cc00       ?restore_state@?$c_string_character_source@D@__crt_strtox@@QEAA_NQEBD@Z 000000014006dc00 f i libucrt:output.obj
 0001:0006cc08       ?restore_state@?$c_string_character_source@_W@__crt_strtox@@QEAA_NQEB_W@Z 000000014006dc08 f i libucrt:output.obj
 0001:0006cc10       ?save_state@?$c_string_character_source@D@__crt_strtox@@QEBAPEBDXZ 000000014006dc10 f i libucrt:output.obj
 0001:0006cc14       ?save_state@?$c_string_character_source@_W@__crt_strtox@@QEBAPEB_WXZ 000000014006dc14 f i libucrt:output.obj
 0001:0006cc18       ?set@?$cached@H@__crt_cached_ptd_host@@QEAAHH@Z 000000014006dc18 f i libucrt:output.obj
 0001:0006cc24       ?set_flag@?$output_processor@DV?$stream_output_adapter@D@__crt_stdio_output@@V?$format_validation_base@DV?$stream_output_adapter@D@__crt_stdio_output@@@2@@__crt_stdio_output@@AEAAXI@Z 000000014006dc24 f i libucrt:output.obj
 0001:0006cc28       ?set_flag@?$output_processor@DV?$stream_output_adapter@D@__crt_stdio_output@@V?$positional_parameter_base@DV?$stream_output_adapter@D@__crt_stdio_output@@@2@@__crt_stdio_output@@AEAAXI@Z 000000014006dc28 f i libucrt:output.obj
 0001:0006cc2c       ?set_flag@?$output_processor@DV?$stream_output_adapter@D@__crt_stdio_output@@V?$standard_base@DV?$stream_output_adapter@D@__crt_stdio_output@@@2@@__crt_stdio_output@@AEAAXI@Z 000000014006dc2c f i libucrt:output.obj
 0001:0006cc30       ?set_flag@?$output_processor@DV?$string_output_adapter@D@__crt_stdio_output@@V?$format_validation_base@DV?$string_output_adapter@D@__crt_stdio_output@@@2@@__crt_stdio_output@@AEAAXI@Z 000000014006dc30 f i libucrt:output.obj
 0001:0006cc34       ?set_flag@?$output_processor@DV?$string_output_adapter@D@__crt_stdio_output@@V?$positional_parameter_base@DV?$string_output_adapter@D@__crt_stdio_output@@@2@@__crt_stdio_output@@AEAAXI@Z 000000014006dc34 f i libucrt:output.obj
 0001:0006cc38       ?set_flag@?$output_processor@DV?$string_output_adapter@D@__crt_stdio_output@@V?$standard_base@DV?$string_output_adapter@D@__crt_stdio_output@@@2@@__crt_stdio_output@@AEAAXI@Z 000000014006dc38 f i libucrt:output.obj
 0001:0006cc3c       ?set_flag@?$output_processor@_WV?$stream_output_adapter@_W@__crt_stdio_output@@V?$format_validation_base@_WV?$stream_output_adapter@_W@__crt_stdio_output@@@2@@__crt_stdio_output@@AEAAXI@Z 000000014006dc3c f i libucrt:output.obj
 0001:0006cc40       ?set_flag@?$output_processor@_WV?$stream_output_adapter@_W@__crt_stdio_output@@V?$positional_parameter_base@_WV?$stream_output_adapter@_W@__crt_stdio_output@@@2@@__crt_stdio_output@@AEAAXI@Z 000000014006dc40 f i libucrt:output.obj
 0001:0006cc44       ?set_flag@?$output_processor@_WV?$stream_output_adapter@_W@__crt_stdio_output@@V?$standard_base@_WV?$stream_output_adapter@_W@__crt_stdio_output@@@2@@__crt_stdio_output@@AEAAXI@Z 000000014006dc44 f i libucrt:output.obj
 0001:0006cc48       ?set_flag@?$output_processor@_WV?$string_output_adapter@_W@__crt_stdio_output@@V?$format_validation_base@_WV?$string_output_adapter@_W@__crt_stdio_output@@@2@@__crt_stdio_output@@AEAAXI@Z 000000014006dc48 f i libucrt:output.obj
 0001:0006cc4c       ?set_flag@?$output_processor@_WV?$string_output_adapter@_W@__crt_stdio_output@@V?$positional_parameter_base@_WV?$string_output_adapter@_W@__crt_stdio_output@@@2@@__crt_stdio_output@@AEAAXI@Z 000000014006dc4c f i libucrt:output.obj
 0001:0006cc50       ?set_flag@?$output_processor@_WV?$string_output_adapter@_W@__crt_stdio_output@@V?$standard_base@_WV?$string_output_adapter@_W@__crt_stdio_output@@@2@@__crt_stdio_output@@AEAAXI@Z 000000014006dc50 f i libucrt:output.obj
 0001:0006cc54       ?should_format@?$positional_parameter_base@DV?$stream_output_adapter@D@__crt_stdio_output@@@__crt_stdio_output@@IEAA_NXZ 000000014006dc54 f i libucrt:output.obj
 0001:0006cc74       ?should_format@?$positional_parameter_base@DV?$string_output_adapter@D@__crt_stdio_output@@@__crt_stdio_output@@IEAA_NXZ 000000014006dc74 f i libucrt:output.obj
 0001:0006cc94       ?should_format@?$positional_parameter_base@_WV?$stream_output_adapter@_W@__crt_stdio_output@@@__crt_stdio_output@@IEAA_NXZ 000000014006dc94 f i libucrt:output.obj
 0001:0006ccb4       ?should_format@?$positional_parameter_base@_WV?$string_output_adapter@_W@__crt_stdio_output@@@__crt_stdio_output@@IEAA_NXZ 000000014006dcb4 f i libucrt:output.obj
 0001:0006ccd4       ?should_format@?$standard_base@DV?$stream_output_adapter@D@__crt_stdio_output@@@__crt_stdio_output@@IEAA_NXZ 000000014006dcd4 f i libucrt:output.obj
 0001:0006ccd8       ?should_format@?$standard_base@DV?$string_output_adapter@D@__crt_stdio_output@@@__crt_stdio_output@@IEAA_NXZ 000000014006dcd8 f i libucrt:output.obj
 0001:0006ccdc       ?should_format@?$standard_base@_WV?$stream_output_adapter@_W@__crt_stdio_output@@@__crt_stdio_output@@IEAA_NXZ 000000014006dcdc f i libucrt:output.obj
 0001:0006cce0       ?should_format@?$standard_base@_WV?$string_output_adapter@_W@__crt_stdio_output@@@__crt_stdio_output@@IEAA_NXZ 000000014006dce0 f i libucrt:output.obj
 0001:0006cce4       ?should_skip_normal_state_processing@?$positional_parameter_base@DV?$stream_output_adapter@D@__crt_stdio_output@@@__crt_stdio_output@@IEAA_NXZ 000000014006dce4 f i libucrt:output.obj
 0001:0006cd18       ?should_skip_normal_state_processing@?$positional_parameter_base@DV?$string_output_adapter@D@__crt_stdio_output@@@__crt_stdio_output@@IEAA_NXZ 000000014006dd18 f i libucrt:output.obj
 0001:0006cd4c       ?should_skip_normal_state_processing@?$positional_parameter_base@_WV?$stream_output_adapter@_W@__crt_stdio_output@@@__crt_stdio_output@@IEAA_NXZ 000000014006dd4c f i libucrt:output.obj
 0001:0006cd80       ?should_skip_normal_state_processing@?$positional_parameter_base@_WV?$string_output_adapter@_W@__crt_stdio_output@@@__crt_stdio_output@@IEAA_NXZ 000000014006dd80 f i libucrt:output.obj
 0001:0006cdb4       ?should_skip_normal_state_processing@?$standard_base@DV?$stream_output_adapter@D@__crt_stdio_output@@@__crt_stdio_output@@IEAA_NXZ 000000014006ddb4 f i libucrt:output.obj
 0001:0006cdb8       ?should_skip_normal_state_processing@?$standard_base@DV?$string_output_adapter@D@__crt_stdio_output@@@__crt_stdio_output@@IEAA_NXZ 000000014006ddb8 f i libucrt:output.obj
 0001:0006cdbc       ?should_skip_normal_state_processing@?$standard_base@_WV?$stream_output_adapter@_W@__crt_stdio_output@@@__crt_stdio_output@@IEAA_NXZ 000000014006ddbc f i libucrt:output.obj
 0001:0006cdc0       ?should_skip_normal_state_processing@?$standard_base@_WV?$string_output_adapter@_W@__crt_stdio_output@@@__crt_stdio_output@@IEAA_NXZ 000000014006ddc0 f i libucrt:output.obj
 0001:0006cdc4       ?should_skip_type_state_output@?$positional_parameter_base@DV?$stream_output_adapter@D@__crt_stdio_output@@@__crt_stdio_output@@IEBA_NXZ 000000014006ddc4 f i libucrt:output.obj
 0001:0006cde4       ?should_skip_type_state_output@?$positional_parameter_base@DV?$string_output_adapter@D@__crt_stdio_output@@@__crt_stdio_output@@IEBA_NXZ 000000014006dde4 f i libucrt:output.obj
 0001:0006ce04       ?should_skip_type_state_output@?$positional_parameter_base@_WV?$stream_output_adapter@_W@__crt_stdio_output@@@__crt_stdio_output@@IEBA_NXZ 000000014006de04 f i libucrt:output.obj
 0001:0006ce24       ?should_skip_type_state_output@?$positional_parameter_base@_WV?$string_output_adapter@_W@__crt_stdio_output@@@__crt_stdio_output@@IEBA_NXZ 000000014006de24 f i libucrt:output.obj
 0001:0006ce44       ?should_skip_type_state_output@?$standard_base@DV?$stream_output_adapter@D@__crt_stdio_output@@@__crt_stdio_output@@IEBA_NXZ 000000014006de44 f i libucrt:output.obj
 0001:0006ce48       ?should_skip_type_state_output@?$standard_base@DV?$string_output_adapter@D@__crt_stdio_output@@@__crt_stdio_output@@IEBA_NXZ 000000014006de48 f i libucrt:output.obj
 0001:0006ce4c       ?should_skip_type_state_output@?$standard_base@_WV?$stream_output_adapter@_W@__crt_stdio_output@@@__crt_stdio_output@@IEBA_NXZ 000000014006de4c f i libucrt:output.obj
 0001:0006ce50       ?should_skip_type_state_output@?$standard_base@_WV?$string_output_adapter@_W@__crt_stdio_output@@@__crt_stdio_output@@IEBA_NXZ 000000014006de50 f i libucrt:output.obj
 0001:0006ce54       ?state_case_dot@?$output_processor@DV?$stream_output_adapter@D@__crt_stdio_output@@V?$format_validation_base@DV?$stream_output_adapter@D@__crt_stdio_output@@@2@@__crt_stdio_output@@AEAA_NXZ 000000014006de54 f i libucrt:output.obj
 0001:0006ce5c       ?state_case_dot@?$output_processor@DV?$stream_output_adapter@D@__crt_stdio_output@@V?$positional_parameter_base@DV?$stream_output_adapter@D@__crt_stdio_output@@@2@@__crt_stdio_output@@AEAA_NXZ 000000014006de5c f i libucrt:output.obj
 0001:0006ce64       ?state_case_dot@?$output_processor@DV?$stream_output_adapter@D@__crt_stdio_output@@V?$standard_base@DV?$stream_output_adapter@D@__crt_stdio_output@@@2@@__crt_stdio_output@@AEAA_NXZ 000000014006de64 f i libucrt:output.obj
 0001:0006ce6c       ?state_case_dot@?$output_processor@DV?$string_output_adapter@D@__crt_stdio_output@@V?$format_validation_base@DV?$string_output_adapter@D@__crt_stdio_output@@@2@@__crt_stdio_output@@AEAA_NXZ 000000014006de6c f i libucrt:output.obj
 0001:0006ce74       ?state_case_dot@?$output_processor@DV?$string_output_adapter@D@__crt_stdio_output@@V?$positional_parameter_base@DV?$string_output_adapter@D@__crt_stdio_output@@@2@@__crt_stdio_output@@AEAA_NXZ 000000014006de74 f i libucrt:output.obj
 0001:0006ce7c       ?state_case_dot@?$output_processor@DV?$string_output_adapter@D@__crt_stdio_output@@V?$standard_base@DV?$string_output_adapter@D@__crt_stdio_output@@@2@@__crt_stdio_output@@AEAA_NXZ 000000014006de7c f i libucrt:output.obj
 0001:0006ce84       ?state_case_dot@?$output_processor@_WV?$stream_output_adapter@_W@__crt_stdio_output@@V?$format_validation_base@_WV?$stream_output_adapter@_W@__crt_stdio_output@@@2@@__crt_stdio_output@@AEAA_NXZ 000000014006de84 f i libucrt:output.obj
 0001:0006ce8c       ?state_case_dot@?$output_processor@_WV?$stream_output_adapter@_W@__crt_stdio_output@@V?$positional_parameter_base@_WV?$stream_output_adapter@_W@__crt_stdio_output@@@2@@__crt_stdio_output@@AEAA_NXZ 000000014006de8c f i libucrt:output.obj
 0001:0006ce94       ?state_case_dot@?$output_processor@_WV?$stream_output_adapter@_W@__crt_stdio_output@@V?$standard_base@_WV?$stream_output_adapter@_W@__crt_stdio_output@@@2@@__crt_stdio_output@@AEAA_NXZ 000000014006de94 f i libucrt:output.obj
 0001:0006ce9c       ?state_case_dot@?$output_processor@_WV?$string_output_adapter@_W@__crt_stdio_output@@V?$format_validation_base@_WV?$string_output_adapter@_W@__crt_stdio_output@@@2@@__crt_stdio_output@@AEAA_NXZ 000000014006de9c f i libucrt:output.obj
 0001:0006cea4       ?state_case_dot@?$output_processor@_WV?$string_output_adapter@_W@__crt_stdio_output@@V?$positional_parameter_base@_WV?$string_output_adapter@_W@__crt_stdio_output@@@2@@__crt_stdio_output@@AEAA_NXZ 000000014006dea4 f i libucrt:output.obj
 0001:0006ceac       ?state_case_dot@?$output_processor@_WV?$string_output_adapter@_W@__crt_stdio_output@@V?$standard_base@_WV?$string_output_adapter@_W@__crt_stdio_output@@@2@@__crt_stdio_output@@AEAA_NXZ 000000014006deac f i libucrt:output.obj
 0001:0006ceb4       ?state_case_flag@?$output_processor@DV?$stream_output_adapter@D@__crt_stdio_output@@V?$format_validation_base@DV?$stream_output_adapter@D@__crt_stdio_output@@@2@@__crt_stdio_output@@AEAA_NXZ 000000014006deb4 f i libucrt:output.obj
 0001:0006cef8       ?state_case_flag@?$output_processor@DV?$stream_output_adapter@D@__crt_stdio_output@@V?$positional_parameter_base@DV?$stream_output_adapter@D@__crt_stdio_output@@@2@@__crt_stdio_output@@AEAA_NXZ 000000014006def8 f i libucrt:output.obj
 0001:0006cf3c       ?state_case_flag@?$output_processor@DV?$stream_output_adapter@D@__crt_stdio_output@@V?$standard_base@DV?$stream_output_adapter@D@__crt_stdio_output@@@2@@__crt_stdio_output@@AEAA_NXZ 000000014006df3c f i libucrt:output.obj
 0001:0006cf80       ?state_case_flag@?$output_processor@DV?$string_output_adapter@D@__crt_stdio_output@@V?$format_validation_base@DV?$string_output_adapter@D@__crt_stdio_output@@@2@@__crt_stdio_output@@AEAA_NXZ 000000014006df80 f i libucrt:output.obj
 0001:0006cfc4       ?state_case_flag@?$output_processor@DV?$string_output_adapter@D@__crt_stdio_output@@V?$positional_parameter_base@DV?$string_output_adapter@D@__crt_stdio_output@@@2@@__crt_stdio_output@@AEAA_NXZ 000000014006dfc4 f i libucrt:output.obj
 0001:0006d008       ?state_case_flag@?$output_processor@DV?$string_output_adapter@D@__crt_stdio_output@@V?$standard_base@DV?$string_output_adapter@D@__crt_stdio_output@@@2@@__crt_stdio_output@@AEAA_NXZ 000000014006e008 f i libucrt:output.obj
 0001:0006d04c       ?state_case_flag@?$output_processor@_WV?$stream_output_adapter@_W@__crt_stdio_output@@V?$format_validation_base@_WV?$stream_output_adapter@_W@__crt_stdio_output@@@2@@__crt_stdio_output@@AEAA_NXZ 000000014006e04c f i libucrt:output.obj
 0001:0006d0a4       ?state_case_flag@?$output_processor@_WV?$stream_output_adapter@_W@__crt_stdio_output@@V?$positional_parameter_base@_WV?$stream_output_adapter@_W@__crt_stdio_output@@@2@@__crt_stdio_output@@AEAA_NXZ 000000014006e0a4 f i libucrt:output.obj
 0001:0006d0fc       ?state_case_flag@?$output_processor@_WV?$stream_output_adapter@_W@__crt_stdio_output@@V?$standard_base@_WV?$stream_output_adapter@_W@__crt_stdio_output@@@2@@__crt_stdio_output@@AEAA_NXZ 000000014006e0fc f i libucrt:output.obj
 0001:0006d154       ?state_case_flag@?$output_processor@_WV?$string_output_adapter@_W@__crt_stdio_output@@V?$format_validation_base@_WV?$string_output_adapter@_W@__crt_stdio_output@@@2@@__crt_stdio_output@@AEAA_NXZ 000000014006e154 f i libucrt:output.obj
 0001:0006d1ac       ?state_case_flag@?$output_processor@_WV?$string_output_adapter@_W@__crt_stdio_output@@V?$positional_parameter_base@_WV?$string_output_adapter@_W@__crt_stdio_output@@@2@@__crt_stdio_output@@AEAA_NXZ 000000014006e1ac f i libucrt:output.obj
 0001:0006d204       ?state_case_flag@?$output_processor@_WV?$string_output_adapter@_W@__crt_stdio_output@@V?$standard_base@_WV?$string_output_adapter@_W@__crt_stdio_output@@@2@@__crt_stdio_output@@AEAA_NXZ 000000014006e204 f i libucrt:output.obj
 0001:0006d25c       ?state_case_normal@?$output_processor@DV?$stream_output_adapter@D@__crt_stdio_output@@V?$format_validation_base@DV?$stream_output_adapter@D@__crt_stdio_output@@@2@@__crt_stdio_output@@AEAA_NXZ 000000014006e25c f i libucrt:output.obj
 0001:0006d404       ?state_case_normal@?$output_processor@DV?$stream_output_adapter@D@__crt_stdio_output@@V?$positional_parameter_base@DV?$stream_output_adapter@D@__crt_stdio_output@@@2@@__crt_stdio_output@@AEAA_NXZ 000000014006e404 f i libucrt:output.obj
 0001:0006d5e4       ?state_case_normal@?$output_processor@DV?$stream_output_adapter@D@__crt_stdio_output@@V?$standard_base@DV?$stream_output_adapter@D@__crt_stdio_output@@@2@@__crt_stdio_output@@AEAA_NXZ 000000014006e5e4 f i libucrt:output.obj
 0001:0006d78c       ?state_case_normal@?$output_processor@DV?$string_output_adapter@D@__crt_stdio_output@@V?$format_validation_base@DV?$string_output_adapter@D@__crt_stdio_output@@@2@@__crt_stdio_output@@AEAA_NXZ 000000014006e78c f i libucrt:output.obj
 0001:0006d92c       ?state_case_normal@?$output_processor@DV?$string_output_adapter@D@__crt_stdio_output@@V?$positional_parameter_base@DV?$string_output_adapter@D@__crt_stdio_output@@@2@@__crt_stdio_output@@AEAA_NXZ 000000014006e92c f i libucrt:output.obj
 0001:0006db00       ?state_case_normal@?$output_processor@DV?$string_output_adapter@D@__crt_stdio_output@@V?$standard_base@DV?$string_output_adapter@D@__crt_stdio_output@@@2@@__crt_stdio_output@@AEAA_NXZ 000000014006eb00 f i libucrt:output.obj
 0001:0006dca0       ?state_case_normal@?$output_processor@_WV?$stream_output_adapter@_W@__crt_stdio_output@@V?$format_validation_base@_WV?$stream_output_adapter@_W@__crt_stdio_output@@@2@@__crt_stdio_output@@AEAA_NXZ 000000014006eca0 f i libucrt:output.obj
 0001:0006dd14       ?state_case_normal@?$output_processor@_WV?$stream_output_adapter@_W@__crt_stdio_output@@V?$positional_parameter_base@_WV?$stream_output_adapter@_W@__crt_stdio_output@@@2@@__crt_stdio_output@@AEAA_NXZ 000000014006ed14 f i libucrt:output.obj
 0001:0006ddb8       ?state_case_normal@?$output_processor@_WV?$stream_output_adapter@_W@__crt_stdio_output@@V?$standard_base@_WV?$stream_output_adapter@_W@__crt_stdio_output@@@2@@__crt_stdio_output@@AEAA_NXZ 000000014006edb8 f i libucrt:output.obj
 0001:0006de2c       ?state_case_normal@?$output_processor@_WV?$string_output_adapter@_W@__crt_stdio_output@@V?$format_validation_base@_WV?$string_output_adapter@_W@__crt_stdio_output@@@2@@__crt_stdio_output@@AEAA_NXZ 000000014006ee2c f i libucrt:output.obj
 0001:0006de98       ?state_case_normal@?$output_processor@_WV?$string_output_adapter@_W@__crt_stdio_output@@V?$positional_parameter_base@_WV?$string_output_adapter@_W@__crt_stdio_output@@@2@@__crt_stdio_output@@AEAA_NXZ 000000014006ee98 f i libucrt:output.obj
 0001:0006df30       ?state_case_normal@?$output_processor@_WV?$string_output_adapter@_W@__crt_stdio_output@@V?$standard_base@_WV?$string_output_adapter@_W@__crt_stdio_output@@@2@@__crt_stdio_output@@AEAA_NXZ 000000014006ef30 f i libucrt:output.obj
 0001:0006df9c       ?state_case_normal_common@?$output_processor@DV?$stream_output_adapter@D@__crt_stdio_output@@V?$format_validation_base@DV?$stream_output_adapter@D@__crt_stdio_output@@@2@@__crt_stdio_output@@AEAA_NXZ 000000014006ef9c f i libucrt:output.obj
 0001:0006e110       ?state_case_normal_common@?$output_processor@DV?$stream_output_adapter@D@__crt_stdio_output@@V?$positional_parameter_base@DV?$stream_output_adapter@D@__crt_stdio_output@@@2@@__crt_stdio_output@@AEAA_NXZ 000000014006f110 f i libucrt:output.obj
 0001:0006e284       ?state_case_normal_common@?$output_processor@DV?$stream_output_adapter@D@__crt_stdio_output@@V?$standard_base@DV?$stream_output_adapter@D@__crt_stdio_output@@@2@@__crt_stdio_output@@AEAA_NXZ 000000014006f284 f i libucrt:output.obj
 0001:0006e3f8       ?state_case_normal_common@?$output_processor@DV?$string_output_adapter@D@__crt_stdio_output@@V?$format_validation_base@DV?$string_output_adapter@D@__crt_stdio_output@@@2@@__crt_stdio_output@@AEAA_NXZ 000000014006f3f8 f i libucrt:output.obj
 0001:0006e564       ?state_case_normal_common@?$output_processor@DV?$string_output_adapter@D@__crt_stdio_output@@V?$positional_parameter_base@DV?$string_output_adapter@D@__crt_stdio_output@@@2@@__crt_stdio_output@@AEAA_NXZ 000000014006f564 f i libucrt:output.obj
 0001:0006e6d0       ?state_case_normal_common@?$output_processor@DV?$string_output_adapter@D@__crt_stdio_output@@V?$standard_base@DV?$string_output_adapter@D@__crt_stdio_output@@@2@@__crt_stdio_output@@AEAA_NXZ 000000014006f6d0 f i libucrt:output.obj
 0001:0006e83c       ?state_case_normal_common@?$output_processor@_WV?$stream_output_adapter@_W@__crt_stdio_output@@V?$format_validation_base@_WV?$stream_output_adapter@_W@__crt_stdio_output@@@2@@__crt_stdio_output@@AEAA_NXZ 000000014006f83c f i libucrt:output.obj
 0001:0006e8b0       ?state_case_normal_common@?$output_processor@_WV?$stream_output_adapter@_W@__crt_stdio_output@@V?$positional_parameter_base@_WV?$stream_output_adapter@_W@__crt_stdio_output@@@2@@__crt_stdio_output@@AEAA_NXZ 000000014006f8b0 f i libucrt:output.obj
 0001:0006e924       ?state_case_normal_common@?$output_processor@_WV?$stream_output_adapter@_W@__crt_stdio_output@@V?$standard_base@_WV?$stream_output_adapter@_W@__crt_stdio_output@@@2@@__crt_stdio_output@@AEAA_NXZ 000000014006f924 f i libucrt:output.obj
 0001:0006e998       ?state_case_normal_common@?$output_processor@_WV?$string_output_adapter@_W@__crt_stdio_output@@V?$format_validation_base@_WV?$string_output_adapter@_W@__crt_stdio_output@@@2@@__crt_stdio_output@@AEAA_NXZ 000000014006f998 f i libucrt:output.obj
 0001:0006ea04       ?state_case_normal_common@?$output_processor@_WV?$string_output_adapter@_W@__crt_stdio_output@@V?$positional_parameter_base@_WV?$string_output_adapter@_W@__crt_stdio_output@@@2@@__crt_stdio_output@@AEAA_NXZ 000000014006fa04 f i libucrt:output.obj
 0001:0006ea70       ?state_case_normal_common@?$output_processor@_WV?$string_output_adapter@_W@__crt_stdio_output@@V?$standard_base@_WV?$string_output_adapter@_W@__crt_stdio_output@@@2@@__crt_stdio_output@@AEAA_NXZ 000000014006fa70 f i libucrt:output.obj
 0001:0006eadc       ?state_case_normal_tchar@?$output_processor@DV?$stream_output_adapter@D@__crt_stdio_output@@V?$format_validation_base@DV?$stream_output_adapter@D@__crt_stdio_output@@@2@@__crt_stdio_output@@AEAA_ND@Z 000000014006fadc f i libucrt:output.obj
 0001:0006ebf0       ?state_case_normal_tchar@?$output_processor@DV?$stream_output_adapter@D@__crt_stdio_output@@V?$positional_parameter_base@DV?$stream_output_adapter@D@__crt_stdio_output@@@2@@__crt_stdio_output@@AEAA_ND@Z 000000014006fbf0 f i libucrt:output.obj
 0001:0006ed04       ?state_case_normal_tchar@?$output_processor@DV?$stream_output_adapter@D@__crt_stdio_output@@V?$standard_base@DV?$stream_output_adapter@D@__crt_stdio_output@@@2@@__crt_stdio_output@@AEAA_ND@Z 000000014006fd04 f i libucrt:output.obj
 0001:0006ee18       ?state_case_normal_tchar@?$output_processor@DV?$string_output_adapter@D@__crt_stdio_output@@V?$format_validation_base@DV?$string_output_adapter@D@__crt_stdio_output@@@2@@__crt_stdio_output@@AEAA_ND@Z 000000014006fe18 f i libucrt:output.obj
 0001:0006ef2c       ?state_case_normal_tchar@?$output_processor@DV?$string_output_adapter@D@__crt_stdio_output@@V?$positional_parameter_base@DV?$string_output_adapter@D@__crt_stdio_output@@@2@@__crt_stdio_output@@AEAA_ND@Z 000000014006ff2c f i libucrt:output.obj
 0001:0006f040       ?state_case_normal_tchar@?$output_processor@DV?$string_output_adapter@D@__crt_stdio_output@@V?$standard_base@DV?$string_output_adapter@D@__crt_stdio_output@@@2@@__crt_stdio_output@@AEAA_ND@Z 0000000140070040 f i libucrt:output.obj
 0001:0006f154       ?state_case_normal_tchar@?$output_processor@_WV?$stream_output_adapter@_W@__crt_stdio_output@@V?$format_validation_base@_WV?$stream_output_adapter@_W@__crt_stdio_output@@@2@@__crt_stdio_output@@AEAA_N_W@Z 0000000140070154 f i libucrt:output.obj
 0001:0006f15c       ?state_case_normal_tchar@?$output_processor@_WV?$stream_output_adapter@_W@__crt_stdio_output@@V?$positional_parameter_base@_WV?$stream_output_adapter@_W@__crt_stdio_output@@@2@@__crt_stdio_output@@AEAA_N_W@Z 000000014007015c f i libucrt:output.obj
 0001:0006f164       ?state_case_normal_tchar@?$output_processor@_WV?$stream_output_adapter@_W@__crt_stdio_output@@V?$standard_base@_WV?$stream_output_adapter@_W@__crt_stdio_output@@@2@@__crt_stdio_output@@AEAA_N_W@Z 0000000140070164 f i libucrt:output.obj
 0001:0006f16c       ?state_case_normal_tchar@?$output_processor@_WV?$string_output_adapter@_W@__crt_stdio_output@@V?$format_validation_base@_WV?$string_output_adapter@_W@__crt_stdio_output@@@2@@__crt_stdio_output@@AEAA_N_W@Z 000000014007016c f i libucrt:output.obj
 0001:0006f174       ?state_case_normal_tchar@?$output_processor@_WV?$string_output_adapter@_W@__crt_stdio_output@@V?$positional_parameter_base@_WV?$string_output_adapter@_W@__crt_stdio_output@@@2@@__crt_stdio_output@@AEAA_N_W@Z 0000000140070174 f i libucrt:output.obj
 0001:0006f17c       ?state_case_normal_tchar@?$output_processor@_WV?$string_output_adapter@_W@__crt_stdio_output@@V?$standard_base@_WV?$string_output_adapter@_W@__crt_stdio_output@@@2@@__crt_stdio_output@@AEAA_N_W@Z 000000014007017c f i libucrt:output.obj
 0001:0006f184       ?state_case_percent@?$output_processor@DV?$stream_output_adapter@D@__crt_stdio_output@@V?$format_validation_base@DV?$stream_output_adapter@D@__crt_stdio_output@@@2@@__crt_stdio_output@@AEAA_NXZ 0000000140070184 f i libucrt:output.obj
 0001:0006f1a0       ?state_case_percent@?$output_processor@DV?$stream_output_adapter@D@__crt_stdio_output@@V?$positional_parameter_base@DV?$stream_output_adapter@D@__crt_stdio_output@@@2@@__crt_stdio_output@@AEAA_NXZ 00000001400701a0 f i libucrt:output.obj
 0001:0006f1bc       ?state_case_percent@?$output_processor@DV?$stream_output_adapter@D@__crt_stdio_output@@V?$standard_base@DV?$stream_output_adapter@D@__crt_stdio_output@@@2@@__crt_stdio_output@@AEAA_NXZ 00000001400701bc f i libucrt:output.obj
 0001:0006f1d8       ?state_case_percent@?$output_processor@DV?$string_output_adapter@D@__crt_stdio_output@@V?$format_validation_base@DV?$string_output_adapter@D@__crt_stdio_output@@@2@@__crt_stdio_output@@AEAA_NXZ 00000001400701d8 f i libucrt:output.obj
 0001:0006f1f4       ?state_case_percent@?$output_processor@DV?$string_output_adapter@D@__crt_stdio_output@@V?$positional_parameter_base@DV?$string_output_adapter@D@__crt_stdio_output@@@2@@__crt_stdio_output@@AEAA_NXZ 00000001400701f4 f i libucrt:output.obj
 0001:0006f210       ?state_case_percent@?$output_processor@DV?$string_output_adapter@D@__crt_stdio_output@@V?$standard_base@DV?$string_output_adapter@D@__crt_stdio_output@@@2@@__crt_stdio_output@@AEAA_NXZ 0000000140070210 f i libucrt:output.obj
 0001:0006f22c       ?state_case_percent@?$output_processor@_WV?$stream_output_adapter@_W@__crt_stdio_output@@V?$format_validation_base@_WV?$stream_output_adapter@_W@__crt_stdio_output@@@2@@__crt_stdio_output@@AEAA_NXZ 000000014007022c f i libucrt:output.obj
 0001:0006f248       ?state_case_percent@?$output_processor@_WV?$stream_output_adapter@_W@__crt_stdio_output@@V?$positional_parameter_base@_WV?$stream_output_adapter@_W@__crt_stdio_output@@@2@@__crt_stdio_output@@AEAA_NXZ 0000000140070248 f i libucrt:output.obj
 0001:0006f264       ?state_case_percent@?$output_processor@_WV?$stream_output_adapter@_W@__crt_stdio_output@@V?$standard_base@_WV?$stream_output_adapter@_W@__crt_stdio_output@@@2@@__crt_stdio_output@@AEAA_NXZ 0000000140070264 f i libucrt:output.obj
 0001:0006f280       ?state_case_percent@?$output_processor@_WV?$string_output_adapter@_W@__crt_stdio_output@@V?$format_validation_base@_WV?$string_output_adapter@_W@__crt_stdio_output@@@2@@__crt_stdio_output@@AEAA_NXZ 0000000140070280 f i libucrt:output.obj
 0001:0006f29c       ?state_case_percent@?$output_processor@_WV?$string_output_adapter@_W@__crt_stdio_output@@V?$positional_parameter_base@_WV?$string_output_adapter@_W@__crt_stdio_output@@@2@@__crt_stdio_output@@AEAA_NXZ 000000014007029c f i libucrt:output.obj
 0001:0006f2b8       ?state_case_percent@?$output_processor@_WV?$string_output_adapter@_W@__crt_stdio_output@@V?$standard_base@_WV?$string_output_adapter@_W@__crt_stdio_output@@@2@@__crt_stdio_output@@AEAA_NXZ 00000001400702b8 f i libucrt:output.obj
 0001:0006f2d4       ?state_case_precision@?$output_processor@DV?$stream_output_adapter@D@__crt_stdio_output@@V?$format_validation_base@DV?$stream_output_adapter@D@__crt_stdio_output@@@2@@__crt_stdio_output@@AEAA_NXZ 00000001400702d4 f i libucrt:output.obj
 0001:0006f310       ?state_case_precision@?$output_processor@DV?$stream_output_adapter@D@__crt_stdio_output@@V?$positional_parameter_base@DV?$stream_output_adapter@D@__crt_stdio_output@@@2@@__crt_stdio_output@@AEAA_NXZ 0000000140070310 f i libucrt:output.obj
 0001:0006f36c       ?state_case_precision@?$output_processor@DV?$stream_output_adapter@D@__crt_stdio_output@@V?$standard_base@DV?$stream_output_adapter@D@__crt_stdio_output@@@2@@__crt_stdio_output@@AEAA_NXZ 000000014007036c f i libucrt:output.obj
 0001:0006f3a8       ?state_case_precision@?$output_processor@DV?$string_output_adapter@D@__crt_stdio_output@@V?$format_validation_base@DV?$string_output_adapter@D@__crt_stdio_output@@@2@@__crt_stdio_output@@AEAA_NXZ 00000001400703a8 f i libucrt:output.obj
 0001:0006f3e4       ?state_case_precision@?$output_processor@DV?$string_output_adapter@D@__crt_stdio_output@@V?$positional_parameter_base@DV?$string_output_adapter@D@__crt_stdio_output@@@2@@__crt_stdio_output@@AEAA_NXZ 00000001400703e4 f i libucrt:output.obj
 0001:0006f440       ?state_case_precision@?$output_processor@DV?$string_output_adapter@D@__crt_stdio_output@@V?$standard_base@DV?$string_output_adapter@D@__crt_stdio_output@@@2@@__crt_stdio_output@@AEAA_NXZ 0000000140070440 f i libucrt:output.obj
 0001:0006f47c       ?state_case_precision@?$output_processor@_WV?$stream_output_adapter@_W@__crt_stdio_output@@V?$format_validation_base@_WV?$stream_output_adapter@_W@__crt_stdio_output@@@2@@__crt_stdio_output@@AEAA_NXZ 000000014007047c f i libucrt:output.obj
 0001:0006f4bc       ?state_case_precision@?$output_processor@_WV?$stream_output_adapter@_W@__crt_stdio_output@@V?$positional_parameter_base@_WV?$stream_output_adapter@_W@__crt_stdio_output@@@2@@__crt_stdio_output@@AEAA_NXZ 00000001400704bc f i libucrt:output.obj
 0001:0006f51c       ?state_case_precision@?$output_processor@_WV?$stream_output_adapter@_W@__crt_stdio_output@@V?$standard_base@_WV?$stream_output_adapter@_W@__crt_stdio_output@@@2@@__crt_stdio_output@@AEAA_NXZ 000000014007051c f i libucrt:output.obj
 0001:0006f55c       ?state_case_precision@?$output_processor@_WV?$string_output_adapter@_W@__crt_stdio_output@@V?$format_validation_base@_WV?$string_output_adapter@_W@__crt_stdio_output@@@2@@__crt_stdio_output@@AEAA_NXZ 000000014007055c f i libucrt:output.obj
 0001:0006f59c       ?state_case_precision@?$output_processor@_WV?$string_output_adapter@_W@__crt_stdio_output@@V?$positional_parameter_base@_WV?$string_output_adapter@_W@__crt_stdio_output@@@2@@__crt_stdio_output@@AEAA_NXZ 000000014007059c f i libucrt:output.obj
 0001:0006f5fc       ?state_case_precision@?$output_processor@_WV?$string_output_adapter@_W@__crt_stdio_output@@V?$standard_base@_WV?$string_output_adapter@_W@__crt_stdio_output@@@2@@__crt_stdio_output@@AEAA_NXZ 00000001400705fc f i libucrt:output.obj
 0001:0006f63c       ?state_case_size@?$output_processor@DV?$stream_output_adapter@D@__crt_stdio_output@@V?$format_validation_base@DV?$stream_output_adapter@D@__crt_stdio_output@@@2@@__crt_stdio_output@@AEAA_NXZ 000000014007063c f i libucrt:output.obj
 0001:0006f824       ?state_case_size@?$output_processor@DV?$stream_output_adapter@D@__crt_stdio_output@@V?$positional_parameter_base@DV?$stream_output_adapter@D@__crt_stdio_output@@@2@@__crt_stdio_output@@AEAA_NXZ 0000000140070824 f i libucrt:output.obj
 0001:0006fa0c       ?state_case_size@?$output_processor@DV?$stream_output_adapter@D@__crt_stdio_output@@V?$standard_base@DV?$stream_output_adapter@D@__crt_stdio_output@@@2@@__crt_stdio_output@@AEAA_NXZ 0000000140070a0c f i libucrt:output.obj
 0001:0006fbf4       ?state_case_size@?$output_processor@DV?$string_output_adapter@D@__crt_stdio_output@@V?$format_validation_base@DV?$string_output_adapter@D@__crt_stdio_output@@@2@@__crt_stdio_output@@AEAA_NXZ 0000000140070bf4 f i libucrt:output.obj
 0001:0006fddc       ?state_case_size@?$output_processor@DV?$string_output_adapter@D@__crt_stdio_output@@V?$positional_parameter_base@DV?$string_output_adapter@D@__crt_stdio_output@@@2@@__crt_stdio_output@@AEAA_NXZ 0000000140070ddc f i libucrt:output.obj
 0001:0006ffc4       ?state_case_size@?$output_processor@DV?$string_output_adapter@D@__crt_stdio_output@@V?$standard_base@DV?$string_output_adapter@D@__crt_stdio_output@@@2@@__crt_stdio_output@@AEAA_NXZ 0000000140070fc4 f i libucrt:output.obj
 0001:000701ac       ?state_case_size@?$output_processor@_WV?$stream_output_adapter@_W@__crt_stdio_output@@V?$format_validation_base@_WV?$stream_output_adapter@_W@__crt_stdio_output@@@2@@__crt_stdio_output@@AEAA_NXZ 00000001400711ac f i libucrt:output.obj
 0001:000703c4       ?state_case_size@?$output_processor@_WV?$stream_output_adapter@_W@__crt_stdio_output@@V?$positional_parameter_base@_WV?$stream_output_adapter@_W@__crt_stdio_output@@@2@@__crt_stdio_output@@AEAA_NXZ 00000001400713c4 f i libucrt:output.obj
 0001:000705dc       ?state_case_size@?$output_processor@_WV?$stream_output_adapter@_W@__crt_stdio_output@@V?$standard_base@_WV?$stream_output_adapter@_W@__crt_stdio_output@@@2@@__crt_stdio_output@@AEAA_NXZ 00000001400715dc f i libucrt:output.obj
 0001:000707f4       ?state_case_size@?$output_processor@_WV?$string_output_adapter@_W@__crt_stdio_output@@V?$format_validation_base@_WV?$string_output_adapter@_W@__crt_stdio_output@@@2@@__crt_stdio_output@@AEAA_NXZ 00000001400717f4 f i libucrt:output.obj
 0001:00070a0c       ?state_case_size@?$output_processor@_WV?$string_output_adapter@_W@__crt_stdio_output@@V?$positional_parameter_base@_WV?$string_output_adapter@_W@__crt_stdio_output@@@2@@__crt_stdio_output@@AEAA_NXZ 0000000140071a0c f i libucrt:output.obj
 0001:00070c24       ?state_case_size@?$output_processor@_WV?$string_output_adapter@_W@__crt_stdio_output@@V?$standard_base@_WV?$string_output_adapter@_W@__crt_stdio_output@@@2@@__crt_stdio_output@@AEAA_NXZ 0000000140071c24 f i libucrt:output.obj
 0001:00070e3c       ?state_case_type@?$output_processor@DV?$stream_output_adapter@D@__crt_stdio_output@@V?$format_validation_base@DV?$stream_output_adapter@D@__crt_stdio_output@@@2@@__crt_stdio_output@@AEAA_NXZ 0000000140071e3c f i libucrt:output.obj
 0001:00071380       ?state_case_type@?$output_processor@DV?$stream_output_adapter@D@__crt_stdio_output@@V?$positional_parameter_base@DV?$stream_output_adapter@D@__crt_stdio_output@@@2@@__crt_stdio_output@@AEAA_NXZ 0000000140072380 f i libucrt:output.obj
 0001:00071900       ?state_case_type@?$output_processor@DV?$stream_output_adapter@D@__crt_stdio_output@@V?$standard_base@DV?$stream_output_adapter@D@__crt_stdio_output@@@2@@__crt_stdio_output@@AEAA_NXZ 0000000140072900 f i libucrt:output.obj
 0001:00071e44       ?state_case_type@?$output_processor@DV?$string_output_adapter@D@__crt_stdio_output@@V?$format_validation_base@DV?$string_output_adapter@D@__crt_stdio_output@@@2@@__crt_stdio_output@@AEAA_NXZ 0000000140072e44 f i libucrt:output.obj
 0001:00072348       ?state_case_type@?$output_processor@DV?$string_output_adapter@D@__crt_stdio_output@@V?$positional_parameter_base@DV?$string_output_adapter@D@__crt_stdio_output@@@2@@__crt_stdio_output@@AEAA_NXZ 0000000140073348 f i libucrt:output.obj
 0001:00072864       ?state_case_type@?$output_processor@DV?$string_output_adapter@D@__crt_stdio_output@@V?$standard_base@DV?$string_output_adapter@D@__crt_stdio_output@@@2@@__crt_stdio_output@@AEAA_NXZ 0000000140073864 f i libucrt:output.obj
 0001:00072d68       ?state_case_type@?$output_processor@_WV?$stream_output_adapter@_W@__crt_stdio_output@@V?$format_validation_base@_WV?$stream_output_adapter@_W@__crt_stdio_output@@@2@@__crt_stdio_output@@AEAA_NXZ 0000000140073d68 f i libucrt:output.obj
 0001:0007335c       ?state_case_type@?$output_processor@_WV?$stream_output_adapter@_W@__crt_stdio_output@@V?$positional_parameter_base@_WV?$stream_output_adapter@_W@__crt_stdio_output@@@2@@__crt_stdio_output@@AEAA_NXZ 000000014007435c f i libucrt:output.obj
 0001:0007396c       ?state_case_type@?$output_processor@_WV?$stream_output_adapter@_W@__crt_stdio_output@@V?$standard_base@_WV?$stream_output_adapter@_W@__crt_stdio_output@@@2@@__crt_stdio_output@@AEAA_NXZ 000000014007496c f i libucrt:output.obj
 0001:00073f60       ?state_case_type@?$output_processor@_WV?$string_output_adapter@_W@__crt_stdio_output@@V?$format_validation_base@_WV?$string_output_adapter@_W@__crt_stdio_output@@@2@@__crt_stdio_output@@AEAA_NXZ 0000000140074f60 f i libucrt:output.obj
 0001:000744e0       ?state_case_type@?$output_processor@_WV?$string_output_adapter@_W@__crt_stdio_output@@V?$positional_parameter_base@_WV?$string_output_adapter@_W@__crt_stdio_output@@@2@@__crt_stdio_output@@AEAA_NXZ 00000001400754e0 f i libucrt:output.obj
 0001:00074a94       ?state_case_type@?$output_processor@_WV?$string_output_adapter@_W@__crt_stdio_output@@V?$standard_base@_WV?$string_output_adapter@_W@__crt_stdio_output@@@2@@__crt_stdio_output@@AEAA_NXZ 0000000140075a94 f i libucrt:output.obj
 0001:00075014       ?state_case_width@?$output_processor@DV?$stream_output_adapter@D@__crt_stdio_output@@V?$format_validation_base@DV?$stream_output_adapter@D@__crt_stdio_output@@@2@@__crt_stdio_output@@AEAA_NXZ 0000000140076014 f i libucrt:output.obj
 0001:00075054       ?state_case_width@?$output_processor@DV?$stream_output_adapter@D@__crt_stdio_output@@V?$positional_parameter_base@DV?$stream_output_adapter@D@__crt_stdio_output@@@2@@__crt_stdio_output@@AEAA_NXZ 0000000140076054 f i libucrt:output.obj
 0001:000750b8       ?state_case_width@?$output_processor@DV?$stream_output_adapter@D@__crt_stdio_output@@V?$standard_base@DV?$stream_output_adapter@D@__crt_stdio_output@@@2@@__crt_stdio_output@@AEAA_NXZ 00000001400760b8 f i libucrt:output.obj
 0001:000750f8       ?state_case_width@?$output_processor@DV?$string_output_adapter@D@__crt_stdio_output@@V?$format_validation_base@DV?$string_output_adapter@D@__crt_stdio_output@@@2@@__crt_stdio_output@@AEAA_NXZ 00000001400760f8 f i libucrt:output.obj
 0001:00075138       ?state_case_width@?$output_processor@DV?$string_output_adapter@D@__crt_stdio_output@@V?$positional_parameter_base@DV?$string_output_adapter@D@__crt_stdio_output@@@2@@__crt_stdio_output@@AEAA_NXZ 0000000140076138 f i libucrt:output.obj
 0001:0007519c       ?state_case_width@?$output_processor@DV?$string_output_adapter@D@__crt_stdio_output@@V?$standard_base@DV?$string_output_adapter@D@__crt_stdio_output@@@2@@__crt_stdio_output@@AEAA_NXZ 000000014007619c f i libucrt:output.obj
 0001:000751dc       ?state_case_width@?$output_processor@_WV?$stream_output_adapter@_W@__crt_stdio_output@@V?$format_validation_base@_WV?$stream_output_adapter@_W@__crt_stdio_output@@@2@@__crt_stdio_output@@AEAA_NXZ 00000001400761dc f i libucrt:output.obj
 0001:0007521c       ?state_case_width@?$output_processor@_WV?$stream_output_adapter@_W@__crt_stdio_output@@V?$positional_parameter_base@_WV?$stream_output_adapter@_W@__crt_stdio_output@@@2@@__crt_stdio_output@@AEAA_NXZ 000000014007621c f i libucrt:output.obj
 0001:00075284       ?state_case_width@?$output_processor@_WV?$stream_output_adapter@_W@__crt_stdio_output@@V?$standard_base@_WV?$stream_output_adapter@_W@__crt_stdio_output@@@2@@__crt_stdio_output@@AEAA_NXZ 0000000140076284 f i libucrt:output.obj
 0001:000752c4       ?state_case_width@?$output_processor@_WV?$string_output_adapter@_W@__crt_stdio_output@@V?$format_validation_base@_WV?$string_output_adapter@_W@__crt_stdio_output@@@2@@__crt_stdio_output@@AEAA_NXZ 00000001400762c4 f i libucrt:output.obj
 0001:00075304       ?state_case_width@?$output_processor@_WV?$string_output_adapter@_W@__crt_stdio_output@@V?$positional_parameter_base@_WV?$string_output_adapter@_W@__crt_stdio_output@@@2@@__crt_stdio_output@@AEAA_NXZ 0000000140076304 f i libucrt:output.obj
 0001:0007536c       ?state_case_width@?$output_processor@_WV?$string_output_adapter@_W@__crt_stdio_output@@V?$standard_base@_WV?$string_output_adapter@_W@__crt_stdio_output@@@2@@__crt_stdio_output@@AEAA_NXZ 000000014007636c f i libucrt:output.obj
 0001:000753ac       ?state_count@?$format_validation_base@DV?$stream_output_adapter@D@__crt_stdio_output@@@__crt_stdio_output@@KAIXZ 00000001400763ac f i libucrt:output.obj
 0001:000753b4       ?state_count@?$format_validation_base@DV?$string_output_adapter@D@__crt_stdio_output@@@__crt_stdio_output@@KAIXZ 00000001400763b4 f i libucrt:output.obj
 0001:000753bc       ?state_count@?$format_validation_base@_WV?$stream_output_adapter@_W@__crt_stdio_output@@@__crt_stdio_output@@KAIXZ 00000001400763bc f i libucrt:output.obj
 0001:000753c4       ?state_count@?$format_validation_base@_WV?$string_output_adapter@_W@__crt_stdio_output@@@__crt_stdio_output@@KAIXZ 00000001400763c4 f i libucrt:output.obj
 0001:000753cc       ?state_count@?$standard_base@DV?$stream_output_adapter@D@__crt_stdio_output@@@__crt_stdio_output@@KAIXZ 00000001400763cc f i libucrt:output.obj
 0001:000753d4       ?state_count@?$standard_base@DV?$string_output_adapter@D@__crt_stdio_output@@@__crt_stdio_output@@KAIXZ 00000001400763d4 f i libucrt:output.obj
 0001:000753dc       ?state_count@?$standard_base@_WV?$stream_output_adapter@_W@__crt_stdio_output@@@__crt_stdio_output@@KAIXZ 00000001400763dc f i libucrt:output.obj
 0001:000753e4       ?state_count@?$standard_base@_WV?$string_output_adapter@_W@__crt_stdio_output@@@__crt_stdio_output@@KAIXZ 00000001400763e4 f i libucrt:output.obj
 0001:000753ec       ?state_transition_table@?$format_validation_base@DV?$stream_output_adapter@D@__crt_stdio_output@@@__crt_stdio_output@@KAAEBV?$spectre_mitigated_lookup_table@Ustate_transition_pair@__crt_stdio_output@@$0IA@@2@XZ 00000001400763ec f i libucrt:output.obj
 0001:000753f8       ?state_transition_table@?$format_validation_base@DV?$string_output_adapter@D@__crt_stdio_output@@@__crt_stdio_output@@KAAEBV?$spectre_mitigated_lookup_table@Ustate_transition_pair@__crt_stdio_output@@$0IA@@2@XZ 00000001400763f8 f i libucrt:output.obj
 0001:00075404       ?state_transition_table@?$format_validation_base@_WV?$stream_output_adapter@_W@__crt_stdio_output@@@__crt_stdio_output@@KAAEBV?$spectre_mitigated_lookup_table@Ustate_transition_pair@__crt_stdio_output@@$0IA@@2@XZ 0000000140076404 f i libucrt:output.obj
 0001:00075410       ?state_transition_table@?$format_validation_base@_WV?$string_output_adapter@_W@__crt_stdio_output@@@__crt_stdio_output@@KAAEBV?$spectre_mitigated_lookup_table@Ustate_transition_pair@__crt_stdio_output@@$0IA@@2@XZ 0000000140076410 f i libucrt:output.obj
 0001:0007541c       ?state_transition_table@?$standard_base@DV?$stream_output_adapter@D@__crt_stdio_output@@@__crt_stdio_output@@KAAEBV?$spectre_mitigated_lookup_table@Ustate_transition_pair@__crt_stdio_output@@$0IA@@2@XZ 000000014007641c f i libucrt:output.obj
 0001:00075428       ?state_transition_table@?$standard_base@DV?$string_output_adapter@D@__crt_stdio_output@@@__crt_stdio_output@@KAAEBV?$spectre_mitigated_lookup_table@Ustate_transition_pair@__crt_stdio_output@@$0IA@@2@XZ 0000000140076428 f i libucrt:output.obj
 0001:00075434       ?state_transition_table@?$standard_base@_WV?$stream_output_adapter@_W@__crt_stdio_output@@@__crt_stdio_output@@KAAEBV?$spectre_mitigated_lookup_table@Ustate_transition_pair@__crt_stdio_output@@$0IA@@2@XZ 0000000140076434 f i libucrt:output.obj
 0001:00075440       ?state_transition_table@?$standard_base@_WV?$string_output_adapter@_W@__crt_stdio_output@@@__crt_stdio_output@@KAAEBV?$spectre_mitigated_lookup_table@Ustate_transition_pair@__crt_stdio_output@@$0IA@@2@XZ 0000000140076440 f i libucrt:output.obj
 0001:0007544c       ?tchar_string@?$common_data@D@__crt_stdio_output@@IEAAAEAPEADD@Z 000000014007644c f i libucrt:output.obj
 0001:00075454       ?tchar_string@?$common_data@D@__crt_stdio_output@@IEAAAEAPEADXZ 0000000140076454 f i libucrt:output.obj
 0001:0007545c       ?tchar_string@?$common_data@_W@__crt_stdio_output@@IEAAAEAPEA_WXZ 000000014007645c f i libucrt:output.obj
 0001:00075464       ?tchar_string@?$common_data@_W@__crt_stdio_output@@IEAAAEAPEA_W_W@Z 0000000140076464 f i libucrt:output.obj
 0001:0007546c       ?to_integer_size@__crt_stdio_output@@YA_KW4length_modifier@1@@Z 000000014007646c f i libucrt:output.obj
 0001:000754c4       ?type_case_X@?$output_processor@DV?$stream_output_adapter@D@__crt_stdio_output@@V?$format_validation_base@DV?$stream_output_adapter@D@__crt_stdio_output@@@2@@__crt_stdio_output@@AEAA_NXZ 00000001400764c4 f i libucrt:output.obj
 0001:000754cc       ?type_case_X@?$output_processor@DV?$stream_output_adapter@D@__crt_stdio_output@@V?$positional_parameter_base@DV?$stream_output_adapter@D@__crt_stdio_output@@@2@@__crt_stdio_output@@AEAA_NXZ 00000001400764cc f i libucrt:output.obj
 0001:000754d4       ?type_case_X@?$output_processor@DV?$stream_output_adapter@D@__crt_stdio_output@@V?$standard_base@DV?$stream_output_adapter@D@__crt_stdio_output@@@2@@__crt_stdio_output@@AEAA_NXZ 00000001400764d4 f i libucrt:output.obj
 0001:000754dc       ?type_case_X@?$output_processor@DV?$string_output_adapter@D@__crt_stdio_output@@V?$format_validation_base@DV?$string_output_adapter@D@__crt_stdio_output@@@2@@__crt_stdio_output@@AEAA_NXZ 00000001400764dc f i libucrt:output.obj
 0001:000754e4       ?type_case_X@?$output_processor@DV?$string_output_adapter@D@__crt_stdio_output@@V?$positional_parameter_base@DV?$string_output_adapter@D@__crt_stdio_output@@@2@@__crt_stdio_output@@AEAA_NXZ 00000001400764e4 f i libucrt:output.obj
 0001:000754ec       ?type_case_X@?$output_processor@DV?$string_output_adapter@D@__crt_stdio_output@@V?$standard_base@DV?$string_output_adapter@D@__crt_stdio_output@@@2@@__crt_stdio_output@@AEAA_NXZ 00000001400764ec f i libucrt:output.obj
 0001:000754f4       ?type_case_X@?$output_processor@_WV?$stream_output_adapter@_W@__crt_stdio_output@@V?$format_validation_base@_WV?$stream_output_adapter@_W@__crt_stdio_output@@@2@@__crt_stdio_output@@AEAA_NXZ 00000001400764f4 f i libucrt:output.obj
 0001:000754fc       ?type_case_X@?$output_processor@_WV?$stream_output_adapter@_W@__crt_stdio_output@@V?$positional_parameter_base@_WV?$stream_output_adapter@_W@__crt_stdio_output@@@2@@__crt_stdio_output@@AEAA_NXZ 00000001400764fc f i libucrt:output.obj
 0001:00075504       ?type_case_X@?$output_processor@_WV?$stream_output_adapter@_W@__crt_stdio_output@@V?$standard_base@_WV?$stream_output_adapter@_W@__crt_stdio_output@@@2@@__crt_stdio_output@@AEAA_NXZ 0000000140076504 f i libucrt:output.obj
 0001:0007550c       ?type_case_X@?$output_processor@_WV?$string_output_adapter@_W@__crt_stdio_output@@V?$format_validation_base@_WV?$string_output_adapter@_W@__crt_stdio_output@@@2@@__crt_stdio_output@@AEAA_NXZ 000000014007650c f i libucrt:output.obj
 0001:00075514       ?type_case_X@?$output_processor@_WV?$string_output_adapter@_W@__crt_stdio_output@@V?$positional_parameter_base@_WV?$string_output_adapter@_W@__crt_stdio_output@@@2@@__crt_stdio_output@@AEAA_NXZ 0000000140076514 f i libucrt:output.obj
 0001:0007551c       ?type_case_X@?$output_processor@_WV?$string_output_adapter@_W@__crt_stdio_output@@V?$standard_base@_WV?$string_output_adapter@_W@__crt_stdio_output@@@2@@__crt_stdio_output@@AEAA_NXZ 000000014007651c f i libucrt:output.obj
 0001:00075524       ?type_case_Z@?$output_processor@DV?$stream_output_adapter@D@__crt_stdio_output@@V?$format_validation_base@DV?$stream_output_adapter@D@__crt_stdio_output@@@2@@__crt_stdio_output@@AEAA_NXZ 0000000140076524 f i libucrt:output.obj
 0001:000755c0       ?type_case_Z@?$output_processor@DV?$stream_output_adapter@D@__crt_stdio_output@@V?$positional_parameter_base@DV?$stream_output_adapter@D@__crt_stdio_output@@@2@@__crt_stdio_output@@AEAA_NXZ 00000001400765c0 f i libucrt:output.obj
 0001:00075690       ?type_case_Z@?$output_processor@DV?$stream_output_adapter@D@__crt_stdio_output@@V?$standard_base@DV?$stream_output_adapter@D@__crt_stdio_output@@@2@@__crt_stdio_output@@AEAA_NXZ 0000000140076690 f i libucrt:output.obj
 0001:0007572c       ?type_case_Z@?$output_processor@DV?$string_output_adapter@D@__crt_stdio_output@@V?$format_validation_base@DV?$string_output_adapter@D@__crt_stdio_output@@@2@@__crt_stdio_output@@AEAA_NXZ 000000014007672c f i libucrt:output.obj
 0001:000757c8       ?type_case_Z@?$output_processor@DV?$string_output_adapter@D@__crt_stdio_output@@V?$positional_parameter_base@DV?$string_output_adapter@D@__crt_stdio_output@@@2@@__crt_stdio_output@@AEAA_NXZ 00000001400767c8 f i libucrt:output.obj
 0001:00075898       ?type_case_Z@?$output_processor@DV?$string_output_adapter@D@__crt_stdio_output@@V?$standard_base@DV?$string_output_adapter@D@__crt_stdio_output@@@2@@__crt_stdio_output@@AEAA_NXZ 0000000140076898 f i libucrt:output.obj
 0001:00075934       ?type_case_Z@?$output_processor@_WV?$stream_output_adapter@_W@__crt_stdio_output@@V?$format_validation_base@_WV?$stream_output_adapter@_W@__crt_stdio_output@@@2@@__crt_stdio_output@@AEAA_NXZ 0000000140076934 f i libucrt:output.obj
 0001:000759d0       ?type_case_Z@?$output_processor@_WV?$stream_output_adapter@_W@__crt_stdio_output@@V?$positional_parameter_base@_WV?$stream_output_adapter@_W@__crt_stdio_output@@@2@@__crt_stdio_output@@AEAA_NXZ 00000001400769d0 f i libucrt:output.obj
 0001:00075a8c       ?type_case_Z@?$output_processor@_WV?$stream_output_adapter@_W@__crt_stdio_output@@V?$standard_base@_WV?$stream_output_adapter@_W@__crt_stdio_output@@@2@@__crt_stdio_output@@AEAA_NXZ 0000000140076a8c f i libucrt:output.obj
 0001:00075b28       ?type_case_Z@?$output_processor@_WV?$string_output_adapter@_W@__crt_stdio_output@@V?$format_validation_base@_WV?$string_output_adapter@_W@__crt_stdio_output@@@2@@__crt_stdio_output@@AEAA_NXZ 0000000140076b28 f i libucrt:output.obj
 0001:00075bc4       ?type_case_Z@?$output_processor@_WV?$string_output_adapter@_W@__crt_stdio_output@@V?$positional_parameter_base@_WV?$string_output_adapter@_W@__crt_stdio_output@@@2@@__crt_stdio_output@@AEAA_NXZ 0000000140076bc4 f i libucrt:output.obj
 0001:00075c80       ?type_case_Z@?$output_processor@_WV?$string_output_adapter@_W@__crt_stdio_output@@V?$standard_base@_WV?$string_output_adapter@_W@__crt_stdio_output@@@2@@__crt_stdio_output@@AEAA_NXZ 0000000140076c80 f i libucrt:output.obj
 0001:00075d1c       ?type_case_a@?$output_processor@DV?$stream_output_adapter@D@__crt_stdio_output@@V?$format_validation_base@DV?$stream_output_adapter@D@__crt_stdio_output@@@2@@__crt_stdio_output@@AEAA_NXZ 0000000140076d1c f i libucrt:output.obj
 0001:00076004       ?type_case_a@?$output_processor@DV?$stream_output_adapter@D@__crt_stdio_output@@V?$positional_parameter_base@DV?$stream_output_adapter@D@__crt_stdio_output@@@2@@__crt_stdio_output@@AEAA_NXZ 0000000140077004 f i libucrt:output.obj
 0001:00076320       ?type_case_a@?$output_processor@DV?$stream_output_adapter@D@__crt_stdio_output@@V?$standard_base@DV?$stream_output_adapter@D@__crt_stdio_output@@@2@@__crt_stdio_output@@AEAA_NXZ 0000000140077320 f i libucrt:output.obj
 0001:00076608       ?type_case_a@?$output_processor@DV?$string_output_adapter@D@__crt_stdio_output@@V?$format_validation_base@DV?$string_output_adapter@D@__crt_stdio_output@@@2@@__crt_stdio_output@@AEAA_NXZ 0000000140077608 f i libucrt:output.obj
 0001:000768f0       ?type_case_a@?$output_processor@DV?$string_output_adapter@D@__crt_stdio_output@@V?$positional_parameter_base@DV?$string_output_adapter@D@__crt_stdio_output@@@2@@__crt_stdio_output@@AEAA_NXZ 00000001400778f0 f i libucrt:output.obj
 0001:00076c0c       ?type_case_a@?$output_processor@DV?$string_output_adapter@D@__crt_stdio_output@@V?$standard_base@DV?$string_output_adapter@D@__crt_stdio_output@@@2@@__crt_stdio_output@@AEAA_NXZ 0000000140077c0c f i libucrt:output.obj
 0001:00076ef4       ?type_case_a@?$output_processor@_WV?$stream_output_adapter@_W@__crt_stdio_output@@V?$format_validation_base@_WV?$stream_output_adapter@_W@__crt_stdio_output@@@2@@__crt_stdio_output@@AEAA_NXZ 0000000140077ef4 f i libucrt:output.obj
 0001:000771f4       ?type_case_a@?$output_processor@_WV?$stream_output_adapter@_W@__crt_stdio_output@@V?$positional_parameter_base@_WV?$stream_output_adapter@_W@__crt_stdio_output@@@2@@__crt_stdio_output@@AEAA_NXZ 00000001400781f4 f i libucrt:output.obj
 0001:0007752c       ?type_case_a@?$output_processor@_WV?$stream_output_adapter@_W@__crt_stdio_output@@V?$standard_base@_WV?$stream_output_adapter@_W@__crt_stdio_output@@@2@@__crt_stdio_output@@AEAA_NXZ 000000014007852c f i libucrt:output.obj
 0001:0007782c       ?type_case_a@?$output_processor@_WV?$string_output_adapter@_W@__crt_stdio_output@@V?$format_validation_base@_WV?$string_output_adapter@_W@__crt_stdio_output@@@2@@__crt_stdio_output@@AEAA_NXZ 000000014007882c f i libucrt:output.obj
 0001:00077b2c       ?type_case_a@?$output_processor@_WV?$string_output_adapter@_W@__crt_stdio_output@@V?$positional_parameter_base@_WV?$string_output_adapter@_W@__crt_stdio_output@@@2@@__crt_stdio_output@@AEAA_NXZ 0000000140078b2c f i libucrt:output.obj
 0001:00077e64       ?type_case_a@?$output_processor@_WV?$string_output_adapter@_W@__crt_stdio_output@@V?$standard_base@_WV?$string_output_adapter@_W@__crt_stdio_output@@@2@@__crt_stdio_output@@AEAA_NXZ 0000000140078e64 f i libucrt:output.obj
 0001:00078164       ?type_case_c@?$output_processor@DV?$stream_output_adapter@D@__crt_stdio_output@@V?$format_validation_base@DV?$stream_output_adapter@D@__crt_stdio_output@@@2@@__crt_stdio_output@@AEAA_NXZ 0000000140079164 f i libucrt:output.obj
 0001:0007816c       ?type_case_c@?$output_processor@DV?$stream_output_adapter@D@__crt_stdio_output@@V?$positional_parameter_base@DV?$stream_output_adapter@D@__crt_stdio_output@@@2@@__crt_stdio_output@@AEAA_NXZ 000000014007916c f i libucrt:output.obj
 0001:00078174       ?type_case_c@?$output_processor@DV?$stream_output_adapter@D@__crt_stdio_output@@V?$standard_base@DV?$stream_output_adapter@D@__crt_stdio_output@@@2@@__crt_stdio_output@@AEAA_NXZ 0000000140079174 f i libucrt:output.obj
 0001:0007817c       ?type_case_c@?$output_processor@DV?$string_output_adapter@D@__crt_stdio_output@@V?$format_validation_base@DV?$string_output_adapter@D@__crt_stdio_output@@@2@@__crt_stdio_output@@AEAA_NXZ 000000014007917c f i libucrt:output.obj
 0001:00078184       ?type_case_c@?$output_processor@DV?$string_output_adapter@D@__crt_stdio_output@@V?$positional_parameter_base@DV?$string_output_adapter@D@__crt_stdio_output@@@2@@__crt_stdio_output@@AEAA_NXZ 0000000140079184 f i libucrt:output.obj
 0001:0007818c       ?type_case_c@?$output_processor@DV?$string_output_adapter@D@__crt_stdio_output@@V?$standard_base@DV?$string_output_adapter@D@__crt_stdio_output@@@2@@__crt_stdio_output@@AEAA_NXZ 000000014007918c f i libucrt:output.obj
 0001:00078194       ?type_case_c@?$output_processor@_WV?$stream_output_adapter@_W@__crt_stdio_output@@V?$format_validation_base@_WV?$stream_output_adapter@_W@__crt_stdio_output@@@2@@__crt_stdio_output@@AEAA_NXZ 0000000140079194 f i libucrt:output.obj
 0001:0007819c       ?type_case_c@?$output_processor@_WV?$stream_output_adapter@_W@__crt_stdio_output@@V?$positional_parameter_base@_WV?$stream_output_adapter@_W@__crt_stdio_output@@@2@@__crt_stdio_output@@AEAA_NXZ 000000014007919c f i libucrt:output.obj
 0001:000781a4       ?type_case_c@?$output_processor@_WV?$stream_output_adapter@_W@__crt_stdio_output@@V?$standard_base@_WV?$stream_output_adapter@_W@__crt_stdio_output@@@2@@__crt_stdio_output@@AEAA_NXZ 00000001400791a4 f i libucrt:output.obj
 0001:000781ac       ?type_case_c@?$output_processor@_WV?$string_output_adapter@_W@__crt_stdio_output@@V?$format_validation_base@_WV?$string_output_adapter@_W@__crt_stdio_output@@@2@@__crt_stdio_output@@AEAA_NXZ 00000001400791ac f i libucrt:output.obj
 0001:000781b4       ?type_case_c@?$output_processor@_WV?$string_output_adapter@_W@__crt_stdio_output@@V?$positional_parameter_base@_WV?$string_output_adapter@_W@__crt_stdio_output@@@2@@__crt_stdio_output@@AEAA_NXZ 00000001400791b4 f i libucrt:output.obj
 0001:000781bc       ?type_case_c@?$output_processor@_WV?$string_output_adapter@_W@__crt_stdio_output@@V?$standard_base@_WV?$string_output_adapter@_W@__crt_stdio_output@@@2@@__crt_stdio_output@@AEAA_NXZ 00000001400791bc f i libucrt:output.obj
 0001:000781c4       ?type_case_c_tchar@?$output_processor@DV?$stream_output_adapter@D@__crt_stdio_output@@V?$format_validation_base@DV?$stream_output_adapter@D@__crt_stdio_output@@@2@@__crt_stdio_output@@AEAA_ND@Z 00000001400791c4 f i libucrt:output.obj
 0001:000782cc       ?type_case_c_tchar@?$output_processor@DV?$stream_output_adapter@D@__crt_stdio_output@@V?$positional_parameter_base@DV?$stream_output_adapter@D@__crt_stdio_output@@@2@@__crt_stdio_output@@AEAA_ND@Z 00000001400792cc f i libucrt:output.obj
 0001:0007842c       ?type_case_c_tchar@?$output_processor@DV?$stream_output_adapter@D@__crt_stdio_output@@V?$standard_base@DV?$stream_output_adapter@D@__crt_stdio_output@@@2@@__crt_stdio_output@@AEAA_ND@Z 000000014007942c f i libucrt:output.obj
 0001:00078534       ?type_case_c_tchar@?$output_processor@DV?$string_output_adapter@D@__crt_stdio_output@@V?$format_validation_base@DV?$string_output_adapter@D@__crt_stdio_output@@@2@@__crt_stdio_output@@AEAA_ND@Z 0000000140079534 f i libucrt:output.obj
 0001:0007863c       ?type_case_c_tchar@?$output_processor@DV?$string_output_adapter@D@__crt_stdio_output@@V?$positional_parameter_base@DV?$string_output_adapter@D@__crt_stdio_output@@@2@@__crt_stdio_output@@AEAA_ND@Z 000000014007963c f i libucrt:output.obj
 0001:0007879c       ?type_case_c_tchar@?$output_processor@DV?$string_output_adapter@D@__crt_stdio_output@@V?$standard_base@DV?$string_output_adapter@D@__crt_stdio_output@@@2@@__crt_stdio_output@@AEAA_ND@Z 000000014007979c f i libucrt:output.obj
 0001:000788a4       ?type_case_c_tchar@?$output_processor@_WV?$stream_output_adapter@_W@__crt_stdio_output@@V?$format_validation_base@_WV?$stream_output_adapter@_W@__crt_stdio_output@@@2@@__crt_stdio_output@@AEAA_N_W@Z 00000001400798a4 f i libucrt:output.obj
 0001:0007899c       ?type_case_c_tchar@?$output_processor@_WV?$stream_output_adapter@_W@__crt_stdio_output@@V?$positional_parameter_base@_WV?$stream_output_adapter@_W@__crt_stdio_output@@@2@@__crt_stdio_output@@AEAA_N_W@Z 000000014007999c f i libucrt:output.obj
 0001:00078ad0       ?type_case_c_tchar@?$output_processor@_WV?$stream_output_adapter@_W@__crt_stdio_output@@V?$standard_base@_WV?$stream_output_adapter@_W@__crt_stdio_output@@@2@@__crt_stdio_output@@AEAA_N_W@Z 0000000140079ad0 f i libucrt:output.obj
 0001:00078bc8       ?type_case_c_tchar@?$output_processor@_WV?$string_output_adapter@_W@__crt_stdio_output@@V?$format_validation_base@_WV?$string_output_adapter@_W@__crt_stdio_output@@@2@@__crt_stdio_output@@AEAA_N_W@Z 0000000140079bc8 f i libucrt:output.obj
 0001:00078cc0       ?type_case_c_tchar@?$output_processor@_WV?$string_output_adapter@_W@__crt_stdio_output@@V?$positional_parameter_base@_WV?$string_output_adapter@_W@__crt_stdio_output@@@2@@__crt_stdio_output@@AEAA_N_W@Z 0000000140079cc0 f i libucrt:output.obj
 0001:00078df4       ?type_case_c_tchar@?$output_processor@_WV?$string_output_adapter@_W@__crt_stdio_output@@V?$standard_base@_WV?$string_output_adapter@_W@__crt_stdio_output@@@2@@__crt_stdio_output@@AEAA_N_W@Z 0000000140079df4 f i libucrt:output.obj
 0001:00078eec       ?type_case_d@?$output_processor@DV?$stream_output_adapter@D@__crt_stdio_output@@V?$format_validation_base@DV?$stream_output_adapter@D@__crt_stdio_output@@@2@@__crt_stdio_output@@AEAA_NXZ 0000000140079eec f i libucrt:output.obj
 0001:00078efc       ?type_case_d@?$output_processor@DV?$stream_output_adapter@D@__crt_stdio_output@@V?$positional_parameter_base@DV?$stream_output_adapter@D@__crt_stdio_output@@@2@@__crt_stdio_output@@AEAA_NXZ 0000000140079efc f i libucrt:output.obj
 0001:00078f0c       ?type_case_d@?$output_processor@DV?$stream_output_adapter@D@__crt_stdio_output@@V?$standard_base@DV?$stream_output_adapter@D@__crt_stdio_output@@@2@@__crt_stdio_output@@AEAA_NXZ 0000000140079f0c f i libucrt:output.obj
 0001:00078f1c       ?type_case_d@?$output_processor@DV?$string_output_adapter@D@__crt_stdio_output@@V?$format_validation_base@DV?$string_output_adapter@D@__crt_stdio_output@@@2@@__crt_stdio_output@@AEAA_NXZ 0000000140079f1c f i libucrt:output.obj
 0001:00078f2c       ?type_case_d@?$output_processor@DV?$string_output_adapter@D@__crt_stdio_output@@V?$positional_parameter_base@DV?$string_output_adapter@D@__crt_stdio_output@@@2@@__crt_stdio_output@@AEAA_NXZ 0000000140079f2c f i libucrt:output.obj
 0001:00078f3c       ?type_case_d@?$output_processor@DV?$string_output_adapter@D@__crt_stdio_output@@V?$standard_base@DV?$string_output_adapter@D@__crt_stdio_output@@@2@@__crt_stdio_output@@AEAA_NXZ 0000000140079f3c f i libucrt:output.obj
 0001:00078f4c       ?type_case_d@?$output_processor@_WV?$stream_output_adapter@_W@__crt_stdio_output@@V?$format_validation_base@_WV?$stream_output_adapter@_W@__crt_stdio_output@@@2@@__crt_stdio_output@@AEAA_NXZ 0000000140079f4c f i libucrt:output.obj
 0001:00078f5c       ?type_case_d@?$output_processor@_WV?$stream_output_adapter@_W@__crt_stdio_output@@V?$positional_parameter_base@_WV?$stream_output_adapter@_W@__crt_stdio_output@@@2@@__crt_stdio_output@@AEAA_NXZ 0000000140079f5c f i libucrt:output.obj
 0001:00078f6c       ?type_case_d@?$output_processor@_WV?$stream_output_adapter@_W@__crt_stdio_output@@V?$standard_base@_WV?$stream_output_adapter@_W@__crt_stdio_output@@@2@@__crt_stdio_output@@AEAA_NXZ 0000000140079f6c f i libucrt:output.obj
 0001:00078f7c       ?type_case_d@?$output_processor@_WV?$string_output_adapter@_W@__crt_stdio_output@@V?$format_validation_base@_WV?$string_output_adapter@_W@__crt_stdio_output@@@2@@__crt_stdio_output@@AEAA_NXZ 0000000140079f7c f i libucrt:output.obj
 0001:00078f8c       ?type_case_d@?$output_processor@_WV?$string_output_adapter@_W@__crt_stdio_output@@V?$positional_parameter_base@_WV?$string_output_adapter@_W@__crt_stdio_output@@@2@@__crt_stdio_output@@AEAA_NXZ 0000000140079f8c f i libucrt:output.obj
 0001:00078f9c       ?type_case_d@?$output_processor@_WV?$string_output_adapter@_W@__crt_stdio_output@@V?$standard_base@_WV?$string_output_adapter@_W@__crt_stdio_output@@@2@@__crt_stdio_output@@AEAA_NXZ 0000000140079f9c f i libucrt:output.obj
 0001:00078fac       ?type_case_n@?$output_processor@DV?$stream_output_adapter@D@__crt_stdio_output@@V?$format_validation_base@DV?$stream_output_adapter@D@__crt_stdio_output@@@2@@__crt_stdio_output@@AEAA_NXZ 0000000140079fac f i libucrt:output.obj
 0001:00079090       ?type_case_n@?$output_processor@DV?$stream_output_adapter@D@__crt_stdio_output@@V?$positional_parameter_base@DV?$stream_output_adapter@D@__crt_stdio_output@@@2@@__crt_stdio_output@@AEAA_NXZ 000000014007a090 f i libucrt:output.obj
 0001:000791ac       ?type_case_n@?$output_processor@DV?$stream_output_adapter@D@__crt_stdio_output@@V?$standard_base@DV?$stream_output_adapter@D@__crt_stdio_output@@@2@@__crt_stdio_output@@AEAA_NXZ 000000014007a1ac f i libucrt:output.obj
 0001:00079290       ?type_case_n@?$output_processor@DV?$string_output_adapter@D@__crt_stdio_output@@V?$format_validation_base@DV?$string_output_adapter@D@__crt_stdio_output@@@2@@__crt_stdio_output@@AEAA_NXZ 000000014007a290 f i libucrt:output.obj
 0001:00079374       ?type_case_n@?$output_processor@DV?$string_output_adapter@D@__crt_stdio_output@@V?$positional_parameter_base@DV?$string_output_adapter@D@__crt_stdio_output@@@2@@__crt_stdio_output@@AEAA_NXZ 000000014007a374 f i libucrt:output.obj
 0001:00079490       ?type_case_n@?$output_processor@DV?$string_output_adapter@D@__crt_stdio_output@@V?$standard_base@DV?$string_output_adapter@D@__crt_stdio_output@@@2@@__crt_stdio_output@@AEAA_NXZ 000000014007a490 f i libucrt:output.obj
 0001:00079574       ?type_case_n@?$output_processor@_WV?$stream_output_adapter@_W@__crt_stdio_output@@V?$format_validation_base@_WV?$stream_output_adapter@_W@__crt_stdio_output@@@2@@__crt_stdio_output@@AEAA_NXZ 000000014007a574 f i libucrt:output.obj
 0001:00079658       ?type_case_n@?$output_processor@_WV?$stream_output_adapter@_W@__crt_stdio_output@@V?$positional_parameter_base@_WV?$stream_output_adapter@_W@__crt_stdio_output@@@2@@__crt_stdio_output@@AEAA_NXZ 000000014007a658 f i libucrt:output.obj
 0001:00079774       ?type_case_n@?$output_processor@_WV?$stream_output_adapter@_W@__crt_stdio_output@@V?$standard_base@_WV?$stream_output_adapter@_W@__crt_stdio_output@@@2@@__crt_stdio_output@@AEAA_NXZ 000000014007a774 f i libucrt:output.obj
 0001:00079858       ?type_case_n@?$output_processor@_WV?$string_output_adapter@_W@__crt_stdio_output@@V?$format_validation_base@_WV?$string_output_adapter@_W@__crt_stdio_output@@@2@@__crt_stdio_output@@AEAA_NXZ 000000014007a858 f i libucrt:output.obj
 0001:0007993c       ?type_case_n@?$output_processor@_WV?$string_output_adapter@_W@__crt_stdio_output@@V?$positional_parameter_base@_WV?$string_output_adapter@_W@__crt_stdio_output@@@2@@__crt_stdio_output@@AEAA_NXZ 000000014007a93c f i libucrt:output.obj
 0001:00079a58       ?type_case_n@?$output_processor@_WV?$string_output_adapter@_W@__crt_stdio_output@@V?$standard_base@_WV?$string_output_adapter@_W@__crt_stdio_output@@@2@@__crt_stdio_output@@AEAA_NXZ 000000014007aa58 f i libucrt:output.obj
 0001:00079b3c       ?type_case_o@?$output_processor@DV?$stream_output_adapter@D@__crt_stdio_output@@V?$format_validation_base@DV?$stream_output_adapter@D@__crt_stdio_output@@@2@@__crt_stdio_output@@AEAA_NXZ 000000014007ab3c f i libucrt:output.obj
 0001:00079b5c       ?type_case_o@?$output_processor@DV?$stream_output_adapter@D@__crt_stdio_output@@V?$positional_parameter_base@DV?$stream_output_adapter@D@__crt_stdio_output@@@2@@__crt_stdio_output@@AEAA_NXZ 000000014007ab5c f i libucrt:output.obj
 0001:00079b7c       ?type_case_o@?$output_processor@DV?$stream_output_adapter@D@__crt_stdio_output@@V?$standard_base@DV?$stream_output_adapter@D@__crt_stdio_output@@@2@@__crt_stdio_output@@AEAA_NXZ 000000014007ab7c f i libucrt:output.obj
 0001:00079b9c       ?type_case_o@?$output_processor@DV?$string_output_adapter@D@__crt_stdio_output@@V?$format_validation_base@DV?$string_output_adapter@D@__crt_stdio_output@@@2@@__crt_stdio_output@@AEAA_NXZ 000000014007ab9c f i libucrt:output.obj
 0001:00079bbc       ?type_case_o@?$output_processor@DV?$string_output_adapter@D@__crt_stdio_output@@V?$positional_parameter_base@DV?$string_output_adapter@D@__crt_stdio_output@@@2@@__crt_stdio_output@@AEAA_NXZ 000000014007abbc f i libucrt:output.obj
 0001:00079bdc       ?type_case_o@?$output_processor@DV?$string_output_adapter@D@__crt_stdio_output@@V?$standard_base@DV?$string_output_adapter@D@__crt_stdio_output@@@2@@__crt_stdio_output@@AEAA_NXZ 000000014007abdc f i libucrt:output.obj
 0001:00079bfc       ?type_case_o@?$output_processor@_WV?$stream_output_adapter@_W@__crt_stdio_output@@V?$format_validation_base@_WV?$stream_output_adapter@_W@__crt_stdio_output@@@2@@__crt_stdio_output@@AEAA_NXZ 000000014007abfc f i libucrt:output.obj
 0001:00079c1c       ?type_case_o@?$output_processor@_WV?$stream_output_adapter@_W@__crt_stdio_output@@V?$positional_parameter_base@_WV?$stream_output_adapter@_W@__crt_stdio_output@@@2@@__crt_stdio_output@@AEAA_NXZ 000000014007ac1c f i libucrt:output.obj
 0001:00079c3c       ?type_case_o@?$output_processor@_WV?$stream_output_adapter@_W@__crt_stdio_output@@V?$standard_base@_WV?$stream_output_adapter@_W@__crt_stdio_output@@@2@@__crt_stdio_output@@AEAA_NXZ 000000014007ac3c f i libucrt:output.obj
 0001:00079c5c       ?type_case_o@?$output_processor@_WV?$string_output_adapter@_W@__crt_stdio_output@@V?$format_validation_base@_WV?$string_output_adapter@_W@__crt_stdio_output@@@2@@__crt_stdio_output@@AEAA_NXZ 000000014007ac5c f i libucrt:output.obj
 0001:00079c7c       ?type_case_o@?$output_processor@_WV?$string_output_adapter@_W@__crt_stdio_output@@V?$positional_parameter_base@_WV?$string_output_adapter@_W@__crt_stdio_output@@@2@@__crt_stdio_output@@AEAA_NXZ 000000014007ac7c f i libucrt:output.obj
 0001:00079c9c       ?type_case_o@?$output_processor@_WV?$string_output_adapter@_W@__crt_stdio_output@@V?$standard_base@_WV?$string_output_adapter@_W@__crt_stdio_output@@@2@@__crt_stdio_output@@AEAA_NXZ 000000014007ac9c f i libucrt:output.obj
 0001:00079cbc       ?type_case_p@?$output_processor@DV?$stream_output_adapter@D@__crt_stdio_output@@V?$format_validation_base@DV?$stream_output_adapter@D@__crt_stdio_output@@@2@@__crt_stdio_output@@AEAA_NXZ 000000014007acbc f i libucrt:output.obj
 0001:00079cd8       ?type_case_p@?$output_processor@DV?$stream_output_adapter@D@__crt_stdio_output@@V?$positional_parameter_base@DV?$stream_output_adapter@D@__crt_stdio_output@@@2@@__crt_stdio_output@@AEAA_NXZ 000000014007acd8 f i libucrt:output.obj
 0001:00079cf4       ?type_case_p@?$output_processor@DV?$stream_output_adapter@D@__crt_stdio_output@@V?$standard_base@DV?$stream_output_adapter@D@__crt_stdio_output@@@2@@__crt_stdio_output@@AEAA_NXZ 000000014007acf4 f i libucrt:output.obj
 0001:00079d10       ?type_case_p@?$output_processor@DV?$string_output_adapter@D@__crt_stdio_output@@V?$format_validation_base@DV?$string_output_adapter@D@__crt_stdio_output@@@2@@__crt_stdio_output@@AEAA_NXZ 000000014007ad10 f i libucrt:output.obj
 0001:00079d2c       ?type_case_p@?$output_processor@DV?$string_output_adapter@D@__crt_stdio_output@@V?$positional_parameter_base@DV?$string_output_adapter@D@__crt_stdio_output@@@2@@__crt_stdio_output@@AEAA_NXZ 000000014007ad2c f i libucrt:output.obj
 0001:00079d48       ?type_case_p@?$output_processor@DV?$string_output_adapter@D@__crt_stdio_output@@V?$standard_base@DV?$string_output_adapter@D@__crt_stdio_output@@@2@@__crt_stdio_output@@AEAA_NXZ 000000014007ad48 f i libucrt:output.obj
 0001:00079d64       ?type_case_p@?$output_processor@_WV?$stream_output_adapter@_W@__crt_stdio_output@@V?$format_validation_base@_WV?$stream_output_adapter@_W@__crt_stdio_output@@@2@@__crt_stdio_output@@AEAA_NXZ 000000014007ad64 f i libucrt:output.obj
 0001:00079d80       ?type_case_p@?$output_processor@_WV?$stream_output_adapter@_W@__crt_stdio_output@@V?$positional_parameter_base@_WV?$stream_output_adapter@_W@__crt_stdio_output@@@2@@__crt_stdio_output@@AEAA_NXZ 000000014007ad80 f i libucrt:output.obj
 0001:00079d9c       ?type_case_p@?$output_processor@_WV?$stream_output_adapter@_W@__crt_stdio_output@@V?$standard_base@_WV?$stream_output_adapter@_W@__crt_stdio_output@@@2@@__crt_stdio_output@@AEAA_NXZ 000000014007ad9c f i libucrt:output.obj
 0001:00079db8       ?type_case_p@?$output_processor@_WV?$string_output_adapter@_W@__crt_stdio_output@@V?$format_validation_base@_WV?$string_output_adapter@_W@__crt_stdio_output@@@2@@__crt_stdio_output@@AEAA_NXZ 000000014007adb8 f i libucrt:output.obj
 0001:00079dd4       ?type_case_p@?$output_processor@_WV?$string_output_adapter@_W@__crt_stdio_output@@V?$positional_parameter_base@_WV?$string_output_adapter@_W@__crt_stdio_output@@@2@@__crt_stdio_output@@AEAA_NXZ 000000014007add4 f i libucrt:output.obj
 0001:00079df0       ?type_case_p@?$output_processor@_WV?$string_output_adapter@_W@__crt_stdio_output@@V?$standard_base@_WV?$string_output_adapter@_W@__crt_stdio_output@@@2@@__crt_stdio_output@@AEAA_NXZ 000000014007adf0 f i libucrt:output.obj
 0001:00079e0c       ?type_case_s@?$output_processor@DV?$stream_output_adapter@D@__crt_stdio_output@@V?$format_validation_base@DV?$stream_output_adapter@D@__crt_stdio_output@@@2@@__crt_stdio_output@@AEAA_NXZ 000000014007ae0c f i libucrt:output.obj
 0001:00079ecc       ?type_case_s@?$output_processor@DV?$stream_output_adapter@D@__crt_stdio_output@@V?$positional_parameter_base@DV?$stream_output_adapter@D@__crt_stdio_output@@@2@@__crt_stdio_output@@AEAA_NXZ 000000014007aecc f i libucrt:output.obj
 0001:00079fb8       ?type_case_s@?$output_processor@DV?$stream_output_adapter@D@__crt_stdio_output@@V?$standard_base@DV?$stream_output_adapter@D@__crt_stdio_output@@@2@@__crt_stdio_output@@AEAA_NXZ 000000014007afb8 f i libucrt:output.obj
 0001:0007a078       ?type_case_s@?$output_processor@DV?$string_output_adapter@D@__crt_stdio_output@@V?$format_validation_base@DV?$string_output_adapter@D@__crt_stdio_output@@@2@@__crt_stdio_output@@AEAA_NXZ 000000014007b078 f i libucrt:output.obj
 0001:0007a138       ?type_case_s@?$output_processor@DV?$string_output_adapter@D@__crt_stdio_output@@V?$positional_parameter_base@DV?$string_output_adapter@D@__crt_stdio_output@@@2@@__crt_stdio_output@@AEAA_NXZ 000000014007b138 f i libucrt:output.obj
 0001:0007a224       ?type_case_s@?$output_processor@DV?$string_output_adapter@D@__crt_stdio_output@@V?$standard_base@DV?$string_output_adapter@D@__crt_stdio_output@@@2@@__crt_stdio_output@@AEAA_NXZ 000000014007b224 f i libucrt:output.obj
 0001:0007a2e4       ?type_case_s@?$output_processor@_WV?$stream_output_adapter@_W@__crt_stdio_output@@V?$format_validation_base@_WV?$stream_output_adapter@_W@__crt_stdio_output@@@2@@__crt_stdio_output@@AEAA_NXZ 000000014007b2e4 f i libucrt:output.obj
 0001:0007a3a8       ?type_case_s@?$output_processor@_WV?$stream_output_adapter@_W@__crt_stdio_output@@V?$positional_parameter_base@_WV?$stream_output_adapter@_W@__crt_stdio_output@@@2@@__crt_stdio_output@@AEAA_NXZ 000000014007b3a8 f i libucrt:output.obj
 0001:0007a48c       ?type_case_s@?$output_processor@_WV?$stream_output_adapter@_W@__crt_stdio_output@@V?$standard_base@_WV?$stream_output_adapter@_W@__crt_stdio_output@@@2@@__crt_stdio_output@@AEAA_NXZ 000000014007b48c f i libucrt:output.obj
 0001:0007a550       ?type_case_s@?$output_processor@_WV?$string_output_adapter@_W@__crt_stdio_output@@V?$format_validation_base@_WV?$string_output_adapter@_W@__crt_stdio_output@@@2@@__crt_stdio_output@@AEAA_NXZ 000000014007b550 f i libucrt:output.obj
 0001:0007a614       ?type_case_s@?$output_processor@_WV?$string_output_adapter@_W@__crt_stdio_output@@V?$positional_parameter_base@_WV?$string_output_adapter@_W@__crt_stdio_output@@@2@@__crt_stdio_output@@AEAA_NXZ 000000014007b614 f i libucrt:output.obj
 0001:0007a6f8       ?type_case_s@?$output_processor@_WV?$string_output_adapter@_W@__crt_stdio_output@@V?$standard_base@_WV?$string_output_adapter@_W@__crt_stdio_output@@@2@@__crt_stdio_output@@AEAA_NXZ 000000014007b6f8 f i libucrt:output.obj
 0001:0007a7bc       ?type_case_s_compute_narrow_string_length@?$output_processor@DV?$stream_output_adapter@D@__crt_stdio_output@@V?$format_validation_base@DV?$stream_output_adapter@D@__crt_stdio_output@@@2@@__crt_stdio_output@@AEAAHHD@Z 000000014007b7bc f i libucrt:output.obj
 0001:0007a7cc       ?type_case_s_compute_narrow_string_length@?$output_processor@DV?$stream_output_adapter@D@__crt_stdio_output@@V?$positional_parameter_base@DV?$stream_output_adapter@D@__crt_stdio_output@@@2@@__crt_stdio_output@@AEAAHHD@Z 000000014007b7cc f i libucrt:output.obj
 0001:0007a7dc       ?type_case_s_compute_narrow_string_length@?$output_processor@DV?$stream_output_adapter@D@__crt_stdio_output@@V?$standard_base@DV?$stream_output_adapter@D@__crt_stdio_output@@@2@@__crt_stdio_output@@AEAAHHD@Z 000000014007b7dc f i libucrt:output.obj
 0001:0007a7ec       ?type_case_s_compute_narrow_string_length@?$output_processor@DV?$string_output_adapter@D@__crt_stdio_output@@V?$format_validation_base@DV?$string_output_adapter@D@__crt_stdio_output@@@2@@__crt_stdio_output@@AEAAHHD@Z 000000014007b7ec f i libucrt:output.obj
 0001:0007a7fc       ?type_case_s_compute_narrow_string_length@?$output_processor@DV?$string_output_adapter@D@__crt_stdio_output@@V?$positional_parameter_base@DV?$string_output_adapter@D@__crt_stdio_output@@@2@@__crt_stdio_output@@AEAAHHD@Z 000000014007b7fc f i libucrt:output.obj
 0001:0007a80c       ?type_case_s_compute_narrow_string_length@?$output_processor@DV?$string_output_adapter@D@__crt_stdio_output@@V?$standard_base@DV?$string_output_adapter@D@__crt_stdio_output@@@2@@__crt_stdio_output@@AEAAHHD@Z 000000014007b80c f i libucrt:output.obj
 0001:0007a81c       ?type_case_s_compute_narrow_string_length@?$output_processor@_WV?$stream_output_adapter@_W@__crt_stdio_output@@V?$format_validation_base@_WV?$stream_output_adapter@_W@__crt_stdio_output@@@2@@__crt_stdio_output@@AEAAHH_W@Z 000000014007b81c f i libucrt:output.obj
 0001:0007a8ac       ?type_case_s_compute_narrow_string_length@?$output_processor@_WV?$stream_output_adapter@_W@__crt_stdio_output@@V?$positional_parameter_base@_WV?$stream_output_adapter@_W@__crt_stdio_output@@@2@@__crt_stdio_output@@AEAAHH_W@Z 000000014007b8ac f i libucrt:output.obj
 0001:0007a93c       ?type_case_s_compute_narrow_string_length@?$output_processor@_WV?$stream_output_adapter@_W@__crt_stdio_output@@V?$standard_base@_WV?$stream_output_adapter@_W@__crt_stdio_output@@@2@@__crt_stdio_output@@AEAAHH_W@Z 000000014007b93c f i libucrt:output.obj
 0001:0007a9cc       ?type_case_s_compute_narrow_string_length@?$output_processor@_WV?$string_output_adapter@_W@__crt_stdio_output@@V?$format_validation_base@_WV?$string_output_adapter@_W@__crt_stdio_output@@@2@@__crt_stdio_output@@AEAAHH_W@Z 000000014007b9cc f i libucrt:output.obj
 0001:0007aa5c       ?type_case_s_compute_narrow_string_length@?$output_processor@_WV?$string_output_adapter@_W@__crt_stdio_output@@V?$positional_parameter_base@_WV?$string_output_adapter@_W@__crt_stdio_output@@@2@@__crt_stdio_output@@AEAAHH_W@Z 000000014007ba5c f i libucrt:output.obj
 0001:0007aaec       ?type_case_s_compute_narrow_string_length@?$output_processor@_WV?$string_output_adapter@_W@__crt_stdio_output@@V?$standard_base@_WV?$string_output_adapter@_W@__crt_stdio_output@@@2@@__crt_stdio_output@@AEAAHH_W@Z 000000014007baec f i libucrt:output.obj
 0001:0007ab7c       ?type_case_u@?$output_processor@DV?$stream_output_adapter@D@__crt_stdio_output@@V?$format_validation_base@DV?$stream_output_adapter@D@__crt_stdio_output@@@2@@__crt_stdio_output@@AEAA_NXZ 000000014007bb7c f i libucrt:output.obj
 0001:0007ab84       ?type_case_u@?$output_processor@DV?$stream_output_adapter@D@__crt_stdio_output@@V?$positional_parameter_base@DV?$stream_output_adapter@D@__crt_stdio_output@@@2@@__crt_stdio_output@@AEAA_NXZ 000000014007bb84 f i libucrt:output.obj
 0001:0007ab8c       ?type_case_u@?$output_processor@DV?$stream_output_adapter@D@__crt_stdio_output@@V?$standard_base@DV?$stream_output_adapter@D@__crt_stdio_output@@@2@@__crt_stdio_output@@AEAA_NXZ 000000014007bb8c f i libucrt:output.obj
 0001:0007ab94       ?type_case_u@?$output_processor@DV?$string_output_adapter@D@__crt_stdio_output@@V?$format_validation_base@DV?$string_output_adapter@D@__crt_stdio_output@@@2@@__crt_stdio_output@@AEAA_NXZ 000000014007bb94 f i libucrt:output.obj
 0001:0007ab9c       ?type_case_u@?$output_processor@DV?$string_output_adapter@D@__crt_stdio_output@@V?$positional_parameter_base@DV?$string_output_adapter@D@__crt_stdio_output@@@2@@__crt_stdio_output@@AEAA_NXZ 000000014007bb9c f i libucrt:output.obj
 0001:0007aba4       ?type_case_u@?$output_processor@DV?$string_output_adapter@D@__crt_stdio_output@@V?$standard_base@DV?$string_output_adapter@D@__crt_stdio_output@@@2@@__crt_stdio_output@@AEAA_NXZ 000000014007bba4 f i libucrt:output.obj
 0001:0007abac       ?type_case_u@?$output_processor@_WV?$stream_output_adapter@_W@__crt_stdio_output@@V?$format_validation_base@_WV?$stream_output_adapter@_W@__crt_stdio_output@@@2@@__crt_stdio_output@@AEAA_NXZ 000000014007bbac f i libucrt:output.obj
 0001:0007abb4       ?type_case_u@?$output_processor@_WV?$stream_output_adapter@_W@__crt_stdio_output@@V?$positional_parameter_base@_WV?$stream_output_adapter@_W@__crt_stdio_output@@@2@@__crt_stdio_output@@AEAA_NXZ 000000014007bbb4 f i libucrt:output.obj
 0001:0007abbc       ?type_case_u@?$output_processor@_WV?$stream_output_adapter@_W@__crt_stdio_output@@V?$standard_base@_WV?$stream_output_adapter@_W@__crt_stdio_output@@@2@@__crt_stdio_output@@AEAA_NXZ 000000014007bbbc f i libucrt:output.obj
 0001:0007abc4       ?type_case_u@?$output_processor@_WV?$string_output_adapter@_W@__crt_stdio_output@@V?$format_validation_base@_WV?$string_output_adapter@_W@__crt_stdio_output@@@2@@__crt_stdio_output@@AEAA_NXZ 000000014007bbc4 f i libucrt:output.obj
 0001:0007abcc       ?type_case_u@?$output_processor@_WV?$string_output_adapter@_W@__crt_stdio_output@@V?$positional_parameter_base@_WV?$string_output_adapter@_W@__crt_stdio_output@@@2@@__crt_stdio_output@@AEAA_NXZ 000000014007bbcc f i libucrt:output.obj
 0001:0007abd4       ?type_case_u@?$output_processor@_WV?$string_output_adapter@_W@__crt_stdio_output@@V?$standard_base@_WV?$string_output_adapter@_W@__crt_stdio_output@@@2@@__crt_stdio_output@@AEAA_NXZ 000000014007bbd4 f i libucrt:output.obj
 0001:0007abdc       ?type_case_x@?$output_processor@DV?$stream_output_adapter@D@__crt_stdio_output@@V?$format_validation_base@DV?$stream_output_adapter@D@__crt_stdio_output@@@2@@__crt_stdio_output@@AEAA_NXZ 000000014007bbdc f i libucrt:output.obj
 0001:0007abe4       ?type_case_x@?$output_processor@DV?$stream_output_adapter@D@__crt_stdio_output@@V?$positional_parameter_base@DV?$stream_output_adapter@D@__crt_stdio_output@@@2@@__crt_stdio_output@@AEAA_NXZ 000000014007bbe4 f i libucrt:output.obj
 0001:0007abec       ?type_case_x@?$output_processor@DV?$stream_output_adapter@D@__crt_stdio_output@@V?$standard_base@DV?$stream_output_adapter@D@__crt_stdio_output@@@2@@__crt_stdio_output@@AEAA_NXZ 000000014007bbec f i libucrt:output.obj
 0001:0007abf4       ?type_case_x@?$output_processor@DV?$string_output_adapter@D@__crt_stdio_output@@V?$format_validation_base@DV?$string_output_adapter@D@__crt_stdio_output@@@2@@__crt_stdio_output@@AEAA_NXZ 000000014007bbf4 f i libucrt:output.obj
 0001:0007abfc       ?type_case_x@?$output_processor@DV?$string_output_adapter@D@__crt_stdio_output@@V?$positional_parameter_base@DV?$string_output_adapter@D@__crt_stdio_output@@@2@@__crt_stdio_output@@AEAA_NXZ 000000014007bbfc f i libucrt:output.obj
 0001:0007ac04       ?type_case_x@?$output_processor@DV?$string_output_adapter@D@__crt_stdio_output@@V?$standard_base@DV?$string_output_adapter@D@__crt_stdio_output@@@2@@__crt_stdio_output@@AEAA_NXZ 000000014007bc04 f i libucrt:output.obj
 0001:0007ac0c       ?type_case_x@?$output_processor@_WV?$stream_output_adapter@_W@__crt_stdio_output@@V?$format_validation_base@_WV?$stream_output_adapter@_W@__crt_stdio_output@@@2@@__crt_stdio_output@@AEAA_NXZ 000000014007bc0c f i libucrt:output.obj
 0001:0007ac14       ?type_case_x@?$output_processor@_WV?$stream_output_adapter@_W@__crt_stdio_output@@V?$positional_parameter_base@_WV?$stream_output_adapter@_W@__crt_stdio_output@@@2@@__crt_stdio_output@@AEAA_NXZ 000000014007bc14 f i libucrt:output.obj
 0001:0007ac1c       ?type_case_x@?$output_processor@_WV?$stream_output_adapter@_W@__crt_stdio_output@@V?$standard_base@_WV?$stream_output_adapter@_W@__crt_stdio_output@@@2@@__crt_stdio_output@@AEAA_NXZ 000000014007bc1c f i libucrt:output.obj
 0001:0007ac24       ?type_case_x@?$output_processor@_WV?$string_output_adapter@_W@__crt_stdio_output@@V?$format_validation_base@_WV?$string_output_adapter@_W@__crt_stdio_output@@@2@@__crt_stdio_output@@AEAA_NXZ 000000014007bc24 f i libucrt:output.obj
 0001:0007ac2c       ?type_case_x@?$output_processor@_WV?$string_output_adapter@_W@__crt_stdio_output@@V?$positional_parameter_base@_WV?$string_output_adapter@_W@__crt_stdio_output@@@2@@__crt_stdio_output@@AEAA_NXZ 000000014007bc2c f i libucrt:output.obj
 0001:0007ac34       ?type_case_x@?$output_processor@_WV?$string_output_adapter@_W@__crt_stdio_output@@V?$standard_base@_WV?$string_output_adapter@_W@__crt_stdio_output@@@2@@__crt_stdio_output@@AEAA_NXZ 000000014007bc34 f i libucrt:output.obj
 0001:0007ac3c       ?unget@?$c_string_character_source@D@__crt_strtox@@QEAAXD@Z 000000014007bc3c f i libucrt:output.obj
 0001:0007ac70       ?unget@?$c_string_character_source@_W@__crt_strtox@@QEAAX_W@Z 000000014007bc70 f i libucrt:output.obj
 0001:0007aca8       ?unsafe_value@?$cached@H@__crt_cached_ptd_host@@QEAAHXZ 000000014007bca8 f i libucrt:output.obj
 0001:0007acac       ?unsafe_value@?$cached@K@__crt_cached_ptd_host@@QEAAKXZ 000000014007bcac f i libucrt:output.obj
 0001:0007acb0       ?unset_flag@?$output_processor@DV?$stream_output_adapter@D@__crt_stdio_output@@V?$format_validation_base@DV?$stream_output_adapter@D@__crt_stdio_output@@@2@@__crt_stdio_output@@AEAAXI@Z 000000014007bcb0 f i libucrt:output.obj
 0001:0007acb8       ?unset_flag@?$output_processor@DV?$stream_output_adapter@D@__crt_stdio_output@@V?$positional_parameter_base@DV?$stream_output_adapter@D@__crt_stdio_output@@@2@@__crt_stdio_output@@AEAAXI@Z 000000014007bcb8 f i libucrt:output.obj
 0001:0007acc0       ?unset_flag@?$output_processor@DV?$stream_output_adapter@D@__crt_stdio_output@@V?$standard_base@DV?$stream_output_adapter@D@__crt_stdio_output@@@2@@__crt_stdio_output@@AEAAXI@Z 000000014007bcc0 f i libucrt:output.obj
 0001:0007acc8       ?unset_flag@?$output_processor@DV?$string_output_adapter@D@__crt_stdio_output@@V?$format_validation_base@DV?$string_output_adapter@D@__crt_stdio_output@@@2@@__crt_stdio_output@@AEAAXI@Z 000000014007bcc8 f i libucrt:output.obj
 0001:0007acd0       ?unset_flag@?$output_processor@DV?$string_output_adapter@D@__crt_stdio_output@@V?$positional_parameter_base@DV?$string_output_adapter@D@__crt_stdio_output@@@2@@__crt_stdio_output@@AEAAXI@Z 000000014007bcd0 f i libucrt:output.obj
 0001:0007acd8       ?unset_flag@?$output_processor@DV?$string_output_adapter@D@__crt_stdio_output@@V?$standard_base@DV?$string_output_adapter@D@__crt_stdio_output@@@2@@__crt_stdio_output@@AEAAXI@Z 000000014007bcd8 f i libucrt:output.obj
 0001:0007ace0       ?unset_flag@?$output_processor@_WV?$stream_output_adapter@_W@__crt_stdio_output@@V?$format_validation_base@_WV?$stream_output_adapter@_W@__crt_stdio_output@@@2@@__crt_stdio_output@@AEAAXI@Z 000000014007bce0 f i libucrt:output.obj
 0001:0007ace8       ?unset_flag@?$output_processor@_WV?$stream_output_adapter@_W@__crt_stdio_output@@V?$positional_parameter_base@_WV?$stream_output_adapter@_W@__crt_stdio_output@@@2@@__crt_stdio_output@@AEAAXI@Z 000000014007bce8 f i libucrt:output.obj
 0001:0007acf0       ?unset_flag@?$output_processor@_WV?$stream_output_adapter@_W@__crt_stdio_output@@V?$standard_base@_WV?$stream_output_adapter@_W@__crt_stdio_output@@@2@@__crt_stdio_output@@AEAAXI@Z 000000014007bcf0 f i libucrt:output.obj
 0001:0007acf8       ?unset_flag@?$output_processor@_WV?$string_output_adapter@_W@__crt_stdio_output@@V?$format_validation_base@_WV?$string_output_adapter@_W@__crt_stdio_output@@@2@@__crt_stdio_output@@AEAAXI@Z 000000014007bcf8 f i libucrt:output.obj
 0001:0007ad00       ?unset_flag@?$output_processor@_WV?$string_output_adapter@_W@__crt_stdio_output@@V?$positional_parameter_base@_WV?$string_output_adapter@_W@__crt_stdio_output@@@2@@__crt_stdio_output@@AEAAXI@Z 000000014007bd00 f i libucrt:output.obj
 0001:0007ad08       ?unset_flag@?$output_processor@_WV?$string_output_adapter@_W@__crt_stdio_output@@V?$standard_base@_WV?$string_output_adapter@_W@__crt_stdio_output@@@2@@__crt_stdio_output@@AEAAXI@Z 000000014007bd08 f i libucrt:output.obj
 0001:0007ad10       ?update_field_width@?$positional_parameter_base@DV?$stream_output_adapter@D@__crt_stdio_output@@@__crt_stdio_output@@IEAA_NXZ 000000014007bd10 f i libucrt:output.obj
 0001:0007aedc       ?update_field_width@?$positional_parameter_base@DV?$string_output_adapter@D@__crt_stdio_output@@@__crt_stdio_output@@IEAA_NXZ 000000014007bedc f i libucrt:output.obj
 0001:0007b0a8       ?update_field_width@?$positional_parameter_base@_WV?$stream_output_adapter@_W@__crt_stdio_output@@@__crt_stdio_output@@IEAA_NXZ 000000014007c0a8 f i libucrt:output.obj
 0001:0007b278       ?update_field_width@?$positional_parameter_base@_WV?$string_output_adapter@_W@__crt_stdio_output@@@__crt_stdio_output@@IEAA_NXZ 000000014007c278 f i libucrt:output.obj
 0001:0007b448       ?update_field_width@?$standard_base@DV?$stream_output_adapter@D@__crt_stdio_output@@@__crt_stdio_output@@IEAA_NXZ 000000014007c448 f i libucrt:output.obj
 0001:0007b464       ?update_field_width@?$standard_base@DV?$string_output_adapter@D@__crt_stdio_output@@@__crt_stdio_output@@IEAA_NXZ 000000014007c464 f i libucrt:output.obj
 0001:0007b480       ?update_field_width@?$standard_base@_WV?$stream_output_adapter@_W@__crt_stdio_output@@@__crt_stdio_output@@IEAA_NXZ 000000014007c480 f i libucrt:output.obj
 0001:0007b49c       ?update_field_width@?$standard_base@_WV?$string_output_adapter@_W@__crt_stdio_output@@@__crt_stdio_output@@IEAA_NXZ 000000014007c49c f i libucrt:output.obj
 0001:0007b4c0       ?update_locale@__crt_cached_ptd_host@@AEAAXXZ 000000014007c4c0 f i libucrt:output.obj
 0001:0007b4d0       ?update_locale_slow@__crt_cached_ptd_host@@AEAAXXZ 000000014007c4d0 f i libucrt:output.obj
 0001:0007b564       ?update_precision@?$positional_parameter_base@DV?$stream_output_adapter@D@__crt_stdio_output@@@__crt_stdio_output@@IEAA_NXZ 000000014007c564 f i libucrt:output.obj
 0001:0007b730       ?update_precision@?$positional_parameter_base@DV?$string_output_adapter@D@__crt_stdio_output@@@__crt_stdio_output@@IEAA_NXZ 000000014007c730 f i libucrt:output.obj
 0001:0007b8fc       ?update_precision@?$positional_parameter_base@_WV?$stream_output_adapter@_W@__crt_stdio_output@@@__crt_stdio_output@@IEAA_NXZ 000000014007c8fc f i libucrt:output.obj
 0001:0007bacc       ?update_precision@?$positional_parameter_base@_WV?$string_output_adapter@_W@__crt_stdio_output@@@__crt_stdio_output@@IEAA_NXZ 000000014007cacc f i libucrt:output.obj
 0001:0007bc9c       ?update_precision@?$standard_base@DV?$stream_output_adapter@D@__crt_stdio_output@@@__crt_stdio_output@@IEAA_NXZ 000000014007cc9c f i libucrt:output.obj
 0001:0007bcb8       ?update_precision@?$standard_base@DV?$string_output_adapter@D@__crt_stdio_output@@@__crt_stdio_output@@IEAA_NXZ 000000014007ccb8 f i libucrt:output.obj
 0001:0007bcd4       ?update_precision@?$standard_base@_WV?$stream_output_adapter@_W@__crt_stdio_output@@@__crt_stdio_output@@IEAA_NXZ 000000014007ccd4 f i libucrt:output.obj
 0001:0007bcf0       ?update_precision@?$standard_base@_WV?$string_output_adapter@_W@__crt_stdio_output@@@__crt_stdio_output@@IEAA_NXZ 000000014007ccf0 f i libucrt:output.obj
 0001:0007bd0c       ?valid@?$cached@H@__crt_cached_ptd_host@@QEBA_NXZ 000000014007cd0c f i libucrt:output.obj
 0001:0007bd10       ?valid@?$cached@K@__crt_cached_ptd_host@@QEBA_NXZ 000000014007cd10 f i libucrt:output.obj
 0001:0007bd14       ?valid@__crt_stdio_stream@@QEBA_NXZ 000000014007cd14 f i libucrt:output.obj
 0001:0007bd20       ?validate@?$c_string_character_source@D@__crt_strtox@@QEBA_NXZ 000000014007cd20 f i libucrt:output.obj
 0001:0007bd50       ?validate@?$c_string_character_source@_W@__crt_strtox@@QEBA_NXZ 000000014007cd50 f i libucrt:output.obj
 0001:0007bd80       ?validate@?$stream_output_adapter@D@__crt_stdio_output@@QEBA_NAEAV__crt_cached_ptd_host@@@Z 000000014007cd80 f i libucrt:output.obj
 0001:0007bdd0       ?validate@?$stream_output_adapter@_W@__crt_stdio_output@@QEBA_NAEAV__crt_cached_ptd_host@@@Z 000000014007cdd0 f i libucrt:output.obj
 0001:0007be18       ?validate@?$string_output_adapter@D@__crt_stdio_output@@QEBA_NAEAV__crt_cached_ptd_host@@@Z 000000014007ce18 f i libucrt:output.obj
 0001:0007be60       ?validate@?$string_output_adapter@_W@__crt_stdio_output@@QEBA_NAEAV__crt_cached_ptd_host@@@Z 000000014007ce60 f i libucrt:output.obj
 0001:0007bea8       ?validate_and_store_parameter_data@?$positional_parameter_base@DV?$stream_output_adapter@D@__crt_stdio_output@@@__crt_stdio_output@@AEAA_NAEAUparameter_data@12@W4parameter_type@12@DW4length_modifier@2@@Z 000000014007cea8 f i libucrt:output.obj
 0001:0007bf24       ?validate_and_store_parameter_data@?$positional_parameter_base@DV?$string_output_adapter@D@__crt_stdio_output@@@__crt_stdio_output@@AEAA_NAEAUparameter_data@12@W4parameter_type@12@DW4length_modifier@2@@Z 000000014007cf24 f i libucrt:output.obj
 0001:0007bfa0       ?validate_and_store_parameter_data@?$positional_parameter_base@_WV?$stream_output_adapter@_W@__crt_stdio_output@@@__crt_stdio_output@@AEAA_NAEAUparameter_data@12@W4parameter_type@12@_WW4length_modifier@2@@Z 000000014007cfa0 f i libucrt:output.obj
 0001:0007c01c       ?validate_and_store_parameter_data@?$positional_parameter_base@_WV?$string_output_adapter@_W@__crt_stdio_output@@@__crt_stdio_output@@AEAA_NAEAUparameter_data@12@W4parameter_type@12@_WW4length_modifier@2@@Z 000000014007d01c f i libucrt:output.obj
 0001:0007c098       ?validate_and_update_state_at_beginning_of_format_character@?$positional_parameter_base@DV?$stream_output_adapter@D@__crt_stdio_output@@@__crt_stdio_output@@IEAA_NXZ 000000014007d098 f i libucrt:output.obj
 0001:0007c22c       ?validate_and_update_state_at_beginning_of_format_character@?$positional_parameter_base@DV?$string_output_adapter@D@__crt_stdio_output@@@__crt_stdio_output@@IEAA_NXZ 000000014007d22c f i libucrt:output.obj
 0001:0007c3c0       ?validate_and_update_state_at_beginning_of_format_character@?$positional_parameter_base@_WV?$stream_output_adapter@_W@__crt_stdio_output@@@__crt_stdio_output@@IEAA_NXZ 000000014007d3c0 f i libucrt:output.obj
 0001:0007c564       ?validate_and_update_state_at_beginning_of_format_character@?$positional_parameter_base@_WV?$string_output_adapter@_W@__crt_stdio_output@@@__crt_stdio_output@@IEAA_NXZ 000000014007d564 f i libucrt:output.obj
 0001:0007c708       ?validate_and_update_state_at_beginning_of_format_character@?$standard_base@DV?$stream_output_adapter@D@__crt_stdio_output@@@__crt_stdio_output@@IEAA_NXZ 000000014007d708 f i libucrt:output.obj
 0001:0007c70c       ?validate_and_update_state_at_beginning_of_format_character@?$standard_base@DV?$string_output_adapter@D@__crt_stdio_output@@@__crt_stdio_output@@IEAA_NXZ 000000014007d70c f i libucrt:output.obj
 0001:0007c710       ?validate_and_update_state_at_beginning_of_format_character@?$standard_base@_WV?$stream_output_adapter@_W@__crt_stdio_output@@@__crt_stdio_output@@IEAA_NXZ 000000014007d710 f i libucrt:output.obj
 0001:0007c714       ?validate_and_update_state_at_beginning_of_format_character@?$standard_base@_WV?$string_output_adapter@_W@__crt_stdio_output@@@__crt_stdio_output@@IEAA_NXZ 000000014007d714 f i libucrt:output.obj
 0001:0007c718       ?validate_and_update_state_at_end_of_format_string@?$format_validation_base@DV?$stream_output_adapter@D@__crt_stdio_output@@@__crt_stdio_output@@IEAA_NXZ 000000014007d718 f i libucrt:output.obj
 0001:0007c770       ?validate_and_update_state_at_end_of_format_string@?$format_validation_base@DV?$string_output_adapter@D@__crt_stdio_output@@@__crt_stdio_output@@IEAA_NXZ 000000014007d770 f i libucrt:output.obj
 0001:0007c7c8       ?validate_and_update_state_at_end_of_format_string@?$format_validation_base@_WV?$stream_output_adapter@_W@__crt_stdio_output@@@__crt_stdio_output@@IEAA_NXZ 000000014007d7c8 f i libucrt:output.obj
 0001:0007c820       ?validate_and_update_state_at_end_of_format_string@?$format_validation_base@_WV?$string_output_adapter@_W@__crt_stdio_output@@@__crt_stdio_output@@IEAA_NXZ 000000014007d820 f i libucrt:output.obj
 0001:0007c878       ?validate_and_update_state_at_end_of_format_string@?$positional_parameter_base@DV?$stream_output_adapter@D@__crt_stdio_output@@@__crt_stdio_output@@IEAA_NXZ 000000014007d878 f i libucrt:output.obj
 0001:0007c95c       ?validate_and_update_state_at_end_of_format_string@?$positional_parameter_base@DV?$string_output_adapter@D@__crt_stdio_output@@@__crt_stdio_output@@IEAA_NXZ 000000014007d95c f i libucrt:output.obj
 0001:0007ca40       ?validate_and_update_state_at_end_of_format_string@?$positional_parameter_base@_WV?$stream_output_adapter@_W@__crt_stdio_output@@@__crt_stdio_output@@IEAA_NXZ 000000014007da40 f i libucrt:output.obj
 0001:0007cb24       ?validate_and_update_state_at_end_of_format_string@?$positional_parameter_base@_WV?$string_output_adapter@_W@__crt_stdio_output@@@__crt_stdio_output@@IEAA_NXZ 000000014007db24 f i libucrt:output.obj
 0001:0007cc08       ?validate_and_update_state_at_end_of_format_string@?$standard_base@DV?$stream_output_adapter@D@__crt_stdio_output@@@__crt_stdio_output@@IEBA_NXZ 000000014007dc08 f i libucrt:output.obj
 0001:0007cc0c       ?validate_and_update_state_at_end_of_format_string@?$standard_base@DV?$string_output_adapter@D@__crt_stdio_output@@@__crt_stdio_output@@IEBA_NXZ 000000014007dc0c f i libucrt:output.obj
 0001:0007cc10       ?validate_and_update_state_at_end_of_format_string@?$standard_base@_WV?$stream_output_adapter@_W@__crt_stdio_output@@@__crt_stdio_output@@IEBA_NXZ 000000014007dc10 f i libucrt:output.obj
 0001:0007cc14       ?validate_and_update_state_at_end_of_format_string@?$standard_base@_WV?$string_output_adapter@_W@__crt_stdio_output@@@__crt_stdio_output@@IEBA_NXZ 000000014007dc14 f i libucrt:output.obj
 0001:0007cc18       ?validate_state_for_type_case_a@?$positional_parameter_base@DV?$stream_output_adapter@D@__crt_stdio_output@@@__crt_stdio_output@@IEAA_NXZ 000000014007dc18 f i libucrt:output.obj
 0001:0007cd34       ?validate_state_for_type_case_a@?$positional_parameter_base@DV?$string_output_adapter@D@__crt_stdio_output@@@__crt_stdio_output@@IEAA_NXZ 000000014007dd34 f i libucrt:output.obj
 0001:0007ce50       ?validate_state_for_type_case_a@?$positional_parameter_base@_WV?$stream_output_adapter@_W@__crt_stdio_output@@@__crt_stdio_output@@IEAA_NXZ 000000014007de50 f i libucrt:output.obj
 0001:0007cf70       ?validate_state_for_type_case_a@?$positional_parameter_base@_WV?$string_output_adapter@_W@__crt_stdio_output@@@__crt_stdio_output@@IEAA_NXZ 000000014007df70 f i libucrt:output.obj
 0001:0007d090       ?validate_state_for_type_case_a@?$standard_base@DV?$stream_output_adapter@D@__crt_stdio_output@@@__crt_stdio_output@@IEBA_NXZ 000000014007e090 f i libucrt:output.obj
 0001:0007d094       ?validate_state_for_type_case_a@?$standard_base@DV?$string_output_adapter@D@__crt_stdio_output@@@__crt_stdio_output@@IEBA_NXZ 000000014007e094 f i libucrt:output.obj
 0001:0007d098       ?validate_state_for_type_case_a@?$standard_base@_WV?$stream_output_adapter@_W@__crt_stdio_output@@@__crt_stdio_output@@IEBA_NXZ 000000014007e098 f i libucrt:output.obj
 0001:0007d09c       ?validate_state_for_type_case_a@?$standard_base@_WV?$string_output_adapter@_W@__crt_stdio_output@@@__crt_stdio_output@@IEBA_NXZ 000000014007e09c f i libucrt:output.obj
 0001:0007d0a0       ?validate_stream_is_ansi_if_required@?$__acrt_stdio_char_traits@D@@SA_NQEAU_iobuf@@@Z 000000014007e0a0 f i libucrt:output.obj
 0001:0007d164       ?validate_stream_is_ansi_if_required@?$__acrt_stdio_char_traits@_W@@SA_NQEAU_iobuf@@@Z 000000014007e164 f i libucrt:output.obj
 0001:0007d168       ?wide_character_to_digit@__crt_strtox@@YAH_W@Z 000000014007e168 f i libucrt:output.obj
 0001:0007d370       ?wide_null_string@?$output_processor@DV?$stream_output_adapter@D@__crt_stdio_output@@V?$format_validation_base@DV?$stream_output_adapter@D@__crt_stdio_output@@@2@@__crt_stdio_output@@CAPEA_WXZ 000000014007e370 f i libucrt:output.obj
 0001:0007d37c       ?wide_null_string@?$output_processor@DV?$stream_output_adapter@D@__crt_stdio_output@@V?$positional_parameter_base@DV?$stream_output_adapter@D@__crt_stdio_output@@@2@@__crt_stdio_output@@CAPEA_WXZ 000000014007e37c f i libucrt:output.obj
 0001:0007d388       ?wide_null_string@?$output_processor@DV?$stream_output_adapter@D@__crt_stdio_output@@V?$standard_base@DV?$stream_output_adapter@D@__crt_stdio_output@@@2@@__crt_stdio_output@@CAPEA_WXZ 000000014007e388 f i libucrt:output.obj
 0001:0007d394       ?wide_null_string@?$output_processor@DV?$string_output_adapter@D@__crt_stdio_output@@V?$format_validation_base@DV?$string_output_adapter@D@__crt_stdio_output@@@2@@__crt_stdio_output@@CAPEA_WXZ 000000014007e394 f i libucrt:output.obj
 0001:0007d3a0       ?wide_null_string@?$output_processor@DV?$string_output_adapter@D@__crt_stdio_output@@V?$positional_parameter_base@DV?$string_output_adapter@D@__crt_stdio_output@@@2@@__crt_stdio_output@@CAPEA_WXZ 000000014007e3a0 f i libucrt:output.obj
 0001:0007d3ac       ?wide_null_string@?$output_processor@DV?$string_output_adapter@D@__crt_stdio_output@@V?$standard_base@DV?$string_output_adapter@D@__crt_stdio_output@@@2@@__crt_stdio_output@@CAPEA_WXZ 000000014007e3ac f i libucrt:output.obj
 0001:0007d3b8       ?wide_null_string@?$output_processor@_WV?$stream_output_adapter@_W@__crt_stdio_output@@V?$format_validation_base@_WV?$stream_output_adapter@_W@__crt_stdio_output@@@2@@__crt_stdio_output@@CAPEA_WXZ 000000014007e3b8 f i libucrt:output.obj
 0001:0007d3c4       ?wide_null_string@?$output_processor@_WV?$stream_output_adapter@_W@__crt_stdio_output@@V?$positional_parameter_base@_WV?$stream_output_adapter@_W@__crt_stdio_output@@@2@@__crt_stdio_output@@CAPEA_WXZ 000000014007e3c4 f i libucrt:output.obj
 0001:0007d3d0       ?wide_null_string@?$output_processor@_WV?$stream_output_adapter@_W@__crt_stdio_output@@V?$standard_base@_WV?$stream_output_adapter@_W@__crt_stdio_output@@@2@@__crt_stdio_output@@CAPEA_WXZ 000000014007e3d0 f i libucrt:output.obj
 0001:0007d3dc       ?wide_null_string@?$output_processor@_WV?$string_output_adapter@_W@__crt_stdio_output@@V?$format_validation_base@_WV?$string_output_adapter@_W@__crt_stdio_output@@@2@@__crt_stdio_output@@CAPEA_WXZ 000000014007e3dc f i libucrt:output.obj
 0001:0007d3e8       ?wide_null_string@?$output_processor@_WV?$string_output_adapter@_W@__crt_stdio_output@@V?$positional_parameter_base@_WV?$string_output_adapter@_W@__crt_stdio_output@@@2@@__crt_stdio_output@@CAPEA_WXZ 000000014007e3e8 f i libucrt:output.obj
 0001:0007d3f4       ?wide_null_string@?$output_processor@_WV?$string_output_adapter@_W@__crt_stdio_output@@V?$standard_base@_WV?$string_output_adapter@_W@__crt_stdio_output@@@2@@__crt_stdio_output@@CAPEA_WXZ 000000014007e3f4 f i libucrt:output.obj
 0001:0007d400       ?write_character@?$output_adapter_common@DV?$stream_output_adapter@D@__crt_stdio_output@@@__crt_stdio_output@@QEBAXDQEAHAEAV__crt_cached_ptd_host@@@Z 000000014007e400 f i libucrt:output.obj
 0001:0007d460       ?write_character@?$output_adapter_common@_WV?$stream_output_adapter@_W@__crt_stdio_output@@@__crt_stdio_output@@QEBAX_WQEAHAEAV__crt_cached_ptd_host@@@Z 000000014007e460 f i libucrt:output.obj
 0001:0007d4c4       ?write_character@?$string_output_adapter@D@__crt_stdio_output@@QEBA_NDQEAHAEAV__crt_cached_ptd_host@@@Z 000000014007e4c4 f i libucrt:output.obj
 0001:0007d51c       ?write_character@?$string_output_adapter@_W@__crt_stdio_output@@QEBA_N_WQEAHAEAV__crt_cached_ptd_host@@@Z 000000014007e51c f i libucrt:output.obj
 0001:0007d578       ?write_character_without_count_update@?$stream_output_adapter@D@__crt_stdio_output@@QEBA_NDAEAV__crt_cached_ptd_host@@@Z 000000014007e578 f i libucrt:output.obj
 0001:0007d5c8       ?write_character_without_count_update@?$stream_output_adapter@_W@__crt_stdio_output@@QEBA_N_WAEAV__crt_cached_ptd_host@@@Z 000000014007e5c8 f i libucrt:output.obj
 0001:0007d61c       ?write_stored_string_tchar@?$output_processor@DV?$stream_output_adapter@D@__crt_stdio_output@@V?$format_validation_base@DV?$stream_output_adapter@D@__crt_stdio_output@@@2@@__crt_stdio_output@@AEAA_ND@Z 000000014007e61c f i libucrt:output.obj
 0001:0007d79c       ?write_stored_string_tchar@?$output_processor@DV?$stream_output_adapter@D@__crt_stdio_output@@V?$positional_parameter_base@DV?$stream_output_adapter@D@__crt_stdio_output@@@2@@__crt_stdio_output@@AEAA_ND@Z 000000014007e79c f i libucrt:output.obj
 0001:0007d91c       ?write_stored_string_tchar@?$output_processor@DV?$stream_output_adapter@D@__crt_stdio_output@@V?$standard_base@DV?$stream_output_adapter@D@__crt_stdio_output@@@2@@__crt_stdio_output@@AEAA_ND@Z 000000014007e91c f i libucrt:output.obj
 0001:0007da9c       ?write_stored_string_tchar@?$output_processor@DV?$string_output_adapter@D@__crt_stdio_output@@V?$format_validation_base@DV?$string_output_adapter@D@__crt_stdio_output@@@2@@__crt_stdio_output@@AEAA_ND@Z 000000014007ea9c f i libucrt:output.obj
 0001:0007dbbc       ?write_stored_string_tchar@?$output_processor@DV?$string_output_adapter@D@__crt_stdio_output@@V?$positional_parameter_base@DV?$string_output_adapter@D@__crt_stdio_output@@@2@@__crt_stdio_output@@AEAA_ND@Z 000000014007ebbc f i libucrt:output.obj
 0001:0007dcdc       ?write_stored_string_tchar@?$output_processor@DV?$string_output_adapter@D@__crt_stdio_output@@V?$standard_base@DV?$string_output_adapter@D@__crt_stdio_output@@@2@@__crt_stdio_output@@AEAA_ND@Z 000000014007ecdc f i libucrt:output.obj
 0001:0007ddfc       ?write_stored_string_tchar@?$output_processor@_WV?$stream_output_adapter@_W@__crt_stdio_output@@V?$format_validation_base@_WV?$stream_output_adapter@_W@__crt_stdio_output@@@2@@__crt_stdio_output@@AEAA_N_W@Z 000000014007edfc f i libucrt:output.obj
 0001:0007df80       ?write_stored_string_tchar@?$output_processor@_WV?$stream_output_adapter@_W@__crt_stdio_output@@V?$positional_parameter_base@_WV?$stream_output_adapter@_W@__crt_stdio_output@@@2@@__crt_stdio_output@@AEAA_N_W@Z 000000014007ef80 f i libucrt:output.obj
 0001:0007e104       ?write_stored_string_tchar@?$output_processor@_WV?$stream_output_adapter@_W@__crt_stdio_output@@V?$standard_base@_WV?$stream_output_adapter@_W@__crt_stdio_output@@@2@@__crt_stdio_output@@AEAA_N_W@Z 000000014007f104 f i libucrt:output.obj
 0001:0007e288       ?write_stored_string_tchar@?$output_processor@_WV?$string_output_adapter@_W@__crt_stdio_output@@V?$format_validation_base@_WV?$string_output_adapter@_W@__crt_stdio_output@@@2@@__crt_stdio_output@@AEAA_N_W@Z 000000014007f288 f i libucrt:output.obj
 0001:0007e3e0       ?write_stored_string_tchar@?$output_processor@_WV?$string_output_adapter@_W@__crt_stdio_output@@V?$positional_parameter_base@_WV?$string_output_adapter@_W@__crt_stdio_output@@@2@@__crt_stdio_output@@AEAA_N_W@Z 000000014007f3e0 f i libucrt:output.obj
 0001:0007e538       ?write_stored_string_tchar@?$output_processor@_WV?$string_output_adapter@_W@__crt_stdio_output@@V?$standard_base@_WV?$string_output_adapter@_W@__crt_stdio_output@@@2@@__crt_stdio_output@@AEAA_N_W@Z 000000014007f538 f i libucrt:output.obj
 0001:0007e690       ?write_string@?$stream_output_adapter@D@__crt_stdio_output@@QEBAXQEBDHQEAHAEAV__crt_cached_ptd_host@@@Z 000000014007f690 f i libucrt:output.obj
 0001:0007e6c0       ?write_string@?$stream_output_adapter@_W@__crt_stdio_output@@QEBAXQEB_WHQEAHAEAV__crt_cached_ptd_host@@@Z 000000014007f6c0 f i libucrt:output.obj
 0001:0007e6f0       ?write_string@?$string_output_adapter@D@__crt_stdio_output@@QEBAXQEBDHQEAHAEAV__crt_cached_ptd_host@@@Z 000000014007f6f0 f i libucrt:output.obj
 0001:0007e7bc       ?write_string@?$string_output_adapter@_W@__crt_stdio_output@@QEBAXQEB_WHQEAHAEAV__crt_cached_ptd_host@@@Z 000000014007f7bc f i libucrt:output.obj
 0001:0007e88c       ?write_string_impl@?$output_adapter_common@DV?$stream_output_adapter@D@__crt_stdio_output@@@__crt_stdio_output@@IEBAXQEBDHQEAHAEAV__crt_cached_ptd_host@@@Z 000000014007f88c f i libucrt:output.obj
 0001:0007e98c       ?write_string_impl@?$output_adapter_common@_WV?$stream_output_adapter@_W@__crt_stdio_output@@@__crt_stdio_output@@IEBAXQEB_WHQEAHAEAV__crt_cached_ptd_host@@@Z 000000014007f98c f i libucrt:output.obj
 0001:0007eaa0       __acrt_disable_global_locale_sync 000000014007faa0 f i libucrt:output.obj
 0001:0007eaa8       __acrt_enable_global_locale_sync 000000014007faa8 f i libucrt:output.obj
 0001:0007eab4       __acrt_isleadbyte_l_noupdate 000000014007fab4 f i libucrt:output.obj
 0001:0007eae0       __acrt_locale_changed      000000014007fae0 f i libucrt:output.obj
 0001:0007eaf0       __acrt_locale_get_ctype_array_value 000000014007faf0 f i libucrt:output.obj
 0001:0007eb10       __ascii_iswalpha           000000014007fb10 f i libucrt:output.obj
 0001:0007eb30       __ascii_toupper            000000014007fb30 f i libucrt:output.obj
 0001:0007eb44       __ascii_towupper           000000014007fb44 f i libucrt:output.obj
 0001:0007eb54       __stdio_common_vfprintf    000000014007fb54 f   libucrt:output.obj
 0001:0007ecc4       __stdio_common_vfprintf_p  000000014007fcc4 f   libucrt:output.obj
 0001:0007ee34       __stdio_common_vfprintf_s  000000014007fe34 f   libucrt:output.obj
 0001:0007efa4       __stdio_common_vfwprintf   000000014007ffa4 f   libucrt:output.obj
 0001:0007f114       __stdio_common_vfwprintf_p 0000000140080114 f   libucrt:output.obj
 0001:0007f284       __stdio_common_vfwprintf_s 0000000140080284 f   libucrt:output.obj
 0001:0007f3f4       __stdio_common_vsnprintf_s 00000001400803f4 f   libucrt:output.obj
 0001:0007f640       __stdio_common_vsnwprintf_s 0000000140080640 f   libucrt:output.obj
 0001:0007f890       __stdio_common_vsprintf    0000000140080890 f   libucrt:output.obj
 0001:0007fb78       __stdio_common_vsprintf_p  0000000140080b78 f   libucrt:output.obj
 0001:0007fc5c       __stdio_common_vsprintf_s  0000000140080c5c f   libucrt:output.obj
 0001:0007fdb4       __stdio_common_vswprintf   0000000140080db4 f   libucrt:output.obj
 0001:000800a4       __stdio_common_vswprintf_p 00000001400810a4 f   libucrt:output.obj
 0001:00080188       __stdio_common_vswprintf_s 0000000140081188 f   libucrt:output.obj
 0001:000802e0       _ctype_fast_check_internal 00000001400812e0 f i libucrt:output.obj
 0001:000802f8       _isdigit_fast_internal     00000001400812f8 f i libucrt:output.obj
 0001:00080314       _tolower_fast_internal     0000000140081314 f i libucrt:output.obj
 0001:0008032c       calloc                     000000014008132c f   libucrt:calloc.obj
 0001:00080334       malloc                     0000000140081334 f   libucrt:malloc.obj
 0001:0008033c       realloc                    000000014008133c f   libucrt:realloc.obj
 0001:00080344       ??0_LocaleUpdate@@QEAA@QEAU__crt_locale_pointers@@@Z 0000000140081344 f i libucrt:_wctype.obj
 0001:00080408       ??1_LocaleUpdate@@QEAA@XZ  0000000140081408 f i libucrt:_wctype.obj
 0001:00080420       ?GetLocaleT@_LocaleUpdate@@QEAAPEAU__crt_locale_pointers@@XZ 0000000140081420 f i libucrt:_wctype.obj
 0001:00080428       __iswcsym                  0000000140081428 f i libucrt:_wctype.obj
 0001:00080460       __iswcsymf                 0000000140081460 f i libucrt:_wctype.obj
 0001:00080498       _isleadbyte_l              0000000140081498 f i libucrt:_wctype.obj
 0001:000804f8       _iswalnum_l                00000001400814f8 f i libucrt:_wctype.obj
 0001:00080504       _iswalpha_l                0000000140081504 f i libucrt:_wctype.obj
 0001:00080510       _iswblank_l                0000000140081510 f i libucrt:_wctype.obj
 0001:0008052c       _iswcntrl_l                000000014008152c f i libucrt:_wctype.obj
 0001:00080538       _iswcsym_l                 0000000140081538 f i libucrt:_wctype.obj
 0001:00080570       _iswcsymf_l                0000000140081570 f i libucrt:_wctype.obj
 0001:000805a8       _iswdigit_l                00000001400815a8 f i libucrt:_wctype.obj
 0001:000805b4       _iswgraph_l                00000001400815b4 f i libucrt:_wctype.obj
 0001:000805c0       _iswlower_l                00000001400815c0 f i libucrt:_wctype.obj
 0001:000805cc       _iswprint_l                00000001400815cc f i libucrt:_wctype.obj
 0001:000805d8       _iswpunct_l                00000001400815d8 f i libucrt:_wctype.obj
 0001:000805e4       _iswspace_l                00000001400815e4 f i libucrt:_wctype.obj
 0001:000805f0       _iswupper_l                00000001400815f0 f i libucrt:_wctype.obj
 0001:000805fc       _iswxdigit_l               00000001400815fc f i libucrt:_wctype.obj
 0001:00080608       isleadbyte                 0000000140081608 f i libucrt:_wctype.obj
 0001:00080668       iswalnum                   0000000140081668 f i libucrt:_wctype.obj
 0001:00080674       iswalpha                   0000000140081674 f i libucrt:_wctype.obj
 0001:00080680       iswascii                   0000000140081680 f i libucrt:_wctype.obj
 0001:00080694       iswblank                   0000000140081694 f i libucrt:_wctype.obj
 0001:000806b0       iswcntrl                   00000001400816b0 f i libucrt:_wctype.obj
 0001:000806bc       iswdigit                   00000001400816bc f i libucrt:_wctype.obj
 0001:000806c8       iswgraph                   00000001400816c8 f i libucrt:_wctype.obj
 0001:000806d4       iswlower                   00000001400816d4 f i libucrt:_wctype.obj
 0001:000806e0       iswprint                   00000001400816e0 f i libucrt:_wctype.obj
 0001:000806ec       iswpunct                   00000001400816ec f i libucrt:_wctype.obj
 0001:000806f8       iswspace                   00000001400816f8 f i libucrt:_wctype.obj
 0001:00080704       iswupper                   0000000140081704 f i libucrt:_wctype.obj
 0001:00080710       iswxdigit                  0000000140081710 f i libucrt:_wctype.obj
 0001:0008071c       _towlower_fast_internal    000000014008171c f i libucrt:towlower.obj
 0001:0008074c       _towlower_l                000000014008174c f   libucrt:towlower.obj
 0001:0008087c       towlower                   000000014008187c f   libucrt:towlower.obj
 0001:00080c70       __ascii_tolower            0000000140081c70 f i libucrt:tolower_toupper.obj
 0001:00080c84       _isleadbyte_fast_internal  0000000140081c84 f i libucrt:tolower_toupper.obj
 0001:00080ca4       _tolower                   0000000140081ca4 f   libucrt:tolower_toupper.obj
 0001:00080ca8       _tolower_l                 0000000140081ca8 f   libucrt:tolower_toupper.obj
 0001:00080e28       _toupper                   0000000140081e28 f   libucrt:tolower_toupper.obj
 0001:00080e2c       _toupper_fast_internal     0000000140081e2c f i libucrt:tolower_toupper.obj
 0001:00080e44       _toupper_l                 0000000140081e44 f   libucrt:tolower_toupper.obj
 0001:00080fc4       tolower                    0000000140081fc4 f   libucrt:tolower_toupper.obj
 0001:00080ff8       toupper                    0000000140081ff8 f   libucrt:tolower_toupper.obj
 0001:0008102c       wcscmp                     000000014008202c f   libucrt:wcscmp.obj
 0001:00081b3c       ??1?$__crt_simd_cleanup_guard@$00@@QEAA@XZ 0000000140082b3c f i libucrt:strnlen.obj
 0001:00081b40       ??1?$__crt_simd_cleanup_guard@$0A@@@QEAA@XZ 0000000140082b40 f i libucrt:strnlen.obj
 0001:00081b44       ?compare_equals@?$__crt_simd_traits@$00E@@SA?AT__m256i@@T2@0@Z 0000000140082b44 f i libucrt:strnlen.obj
 0001:00081b50       ?compare_equals@?$__crt_simd_traits@$00G@@SA?AT__m256i@@T2@0@Z 0000000140082b50 f i libucrt:strnlen.obj
 0001:00081b5c       ?compare_equals@?$__crt_simd_traits@$0A@E@@SA?AT__m128i@@T2@0@Z 0000000140082b5c f i libucrt:strnlen.obj
 0001:00081b68       ?compare_equals@?$__crt_simd_traits@$0A@G@@SA?AT__m128i@@T2@0@Z 0000000140082b68 f i libucrt:strnlen.obj
 0001:00081b74       ?compute_byte_mask@?$__crt_simd_pack_traits@$00@@SAHT__m256i@@@Z 0000000140082b74 f i libucrt:strnlen.obj
 0001:00081b84       ?compute_byte_mask@?$__crt_simd_pack_traits@$0A@@@SAHT__m128i@@@Z 0000000140082b84 f i libucrt:strnlen.obj
 0001:00081b90       ?get_zero_pack@?$__crt_simd_pack_traits@$00@@SA?AT__m256i@@XZ 0000000140082b90 f i libucrt:strnlen.obj
 0001:00081b98       ?get_zero_pack@?$__crt_simd_pack_traits@$0A@@@SA?AT__m128i@@XZ 0000000140082b98 f i libucrt:strnlen.obj
 0001:00081b9c       strnlen                    0000000140082b9c f   libucrt:strnlen.obj
 0001:00081d40       wcslen                     0000000140082d40 f   libucrt:strnlen.obj
 0001:00081eb4       wcsnlen                    0000000140082eb4 f   libucrt:strnlen.obj
 0001:00082100       wcsncmp                    0000000140083100 f   libucrt:wcsncmp.obj
 0001:00082138       __ascii_towlower           0000000140083138 f i libucrt:wcsicmp.obj
 0001:00082148       __ascii_wcsicmp            0000000140083148 f   libucrt:wcsicmp.obj
 0001:00082198       _towlower_internal         0000000140083198 f i libucrt:wcsicmp.obj
 0001:000821dc       _wcsicmp                   00000001400831dc f   libucrt:wcsicmp.obj
 0001:00082234       _wcsicmp_l                 0000000140083234 f   libucrt:wcsicmp.obj
 0001:000823b4       __ascii_wcsnicmp           00000001400833b4 f   libucrt:wcsnicmp.obj
 0001:00082414       _wcsnicmp                  0000000140083414 f   libucrt:wcsnicmp.obj
 0001:0008246c       _wcsnicmp_l                000000014008346c f   libucrt:wcsnicmp.obj
 0001:0008272c       strncat_s                  000000014008372c f   libucrt:strncat_s.obj
 0001:00082964       strncpy_s                  0000000140083964 f   libucrt:strncpy_s.obj
 0001:00082aa0       strcmp                     0000000140083aa0 f   libucrt:strcmp.obj
 0001:00082b24       __ascii_stricmp            0000000140083b24 f   libucrt:stricmp.obj
 0001:00082b70       _stricmp                   0000000140083b70 f   libucrt:stricmp.obj
 0001:00082bc8       _stricmp_l                 0000000140083bc8 f   libucrt:stricmp.obj
 0001:00082c90       strlen                     0000000140083c90 f   libucrt:strlen.obj
 0001:00082d80       strncmp                    0000000140083d80 f   libucrt:strncmp.obj
 0001:00082e20       __ascii_strnicmp           0000000140083e20 f   libucrt:strnicmp.obj
 0001:00082e7c       _strnicmp                  0000000140083e7c f   libucrt:strnicmp.obj
 0001:00082ee0       _strnicmp_l                0000000140083ee0 f   libucrt:strnicmp.obj
 0001:00082fb8       ??$assemble_floating_point_ind@M@__crt_strtox@@YAXAEAM@Z 0000000140083fb8 f i libucrt:strtod.obj
 0001:00082fc0       ??$assemble_floating_point_ind@N@__crt_strtox@@YAXAEAN@Z 0000000140083fc0 f i libucrt:strtod.obj
 0001:00082fd4       ??$assemble_floating_point_infinity@M@__crt_strtox@@YAX_NAEAM@Z 0000000140083fd4 f i libucrt:strtod.obj
 0001:00082fe8       ??$assemble_floating_point_infinity@N@__crt_strtox@@YAX_NAEAN@Z 0000000140083fe8 f i libucrt:strtod.obj
 0001:00083008       ??$assemble_floating_point_qnan@M@__crt_strtox@@YAX_NAEAM@Z 0000000140084008 f i libucrt:strtod.obj
 0001:0008301c       ??$assemble_floating_point_qnan@N@__crt_strtox@@YAX_NAEAN@Z 000000014008401c f i libucrt:strtod.obj
 0001:0008303c       ??$assemble_floating_point_snan@M@__crt_strtox@@YAX_NAEAM@Z 000000014008403c f i libucrt:strtod.obj
 0001:00083050       ??$assemble_floating_point_snan@N@__crt_strtox@@YAX_NAEAN@Z 0000000140084050 f i libucrt:strtod.obj
 0001:00083070       ??$assemble_floating_point_value_t@M@__crt_strtox@@YA?AW4SLD_STATUS@@_NH_KAEAM@Z 0000000140084070 f i libucrt:strtod.obj
 0001:000830a0       ??$assemble_floating_point_value_t@N@__crt_strtox@@YA?AW4SLD_STATUS@@_NH_KAEAN@Z 00000001400840a0 f i libucrt:strtod.obj
 0001:000830e0       ??$assemble_floating_point_zero@M@__crt_strtox@@YAX_NAEAM@Z 00000001400840e0 f i libucrt:strtod.obj
 0001:000830ec       ??$assemble_floating_point_zero@N@__crt_strtox@@YAX_NAEAN@Z 00000001400840ec f i libucrt:strtod.obj
 0001:0008343c       ??$convert_decimal_string_to_floating_type@M@__crt_strtox@@YA?AW4SLD_STATUS@@AEBUfloating_point_string@0@AEAM@Z 000000014008443c f i libucrt:strtod.obj
 0001:00083460       ??$convert_decimal_string_to_floating_type@N@__crt_strtox@@YA?AW4SLD_STATUS@@AEBUfloating_point_string@0@AEAN@Z 0000000140084460 f i libucrt:strtod.obj
 0001:00083484       ??$convert_hexadecimal_string_to_floating_type@M@__crt_strtox@@YA?AW4SLD_STATUS@@AEBUfloating_point_string@0@AEAM@Z 0000000140084484 f i libucrt:strtod.obj
 0001:000834a8       ??$convert_hexadecimal_string_to_floating_type@N@__crt_strtox@@YA?AW4SLD_STATUS@@AEBUfloating_point_string@0@AEAN@Z 00000001400844a8 f i libucrt:strtod.obj
 0001:000834cc       ??$parse_floating_point@V?$c_string_character_source@D@__crt_strtox@@M@__crt_strtox@@YA?AW4SLD_STATUS@@QEAU__crt_locale_pointers@@V?$c_string_character_source@D@0@QEAM@Z 00000001400844cc f i libucrt:strtod.obj
 0001:00083594       ??$parse_floating_point@V?$c_string_character_source@D@__crt_strtox@@N@__crt_strtox@@YA?AW4SLD_STATUS@@QEAU__crt_locale_pointers@@V?$c_string_character_source@D@0@QEAN@Z 0000000140084594 f i libucrt:strtod.obj
 0001:0008365c       ??$parse_floating_point@V?$c_string_character_source@_W@__crt_strtox@@M@__crt_strtox@@YA?AW4SLD_STATUS@@QEAU__crt_locale_pointers@@V?$c_string_character_source@_W@0@QEAM@Z 000000014008465c f i libucrt:strtod.obj
 0001:00083724       ??$parse_floating_point@V?$c_string_character_source@_W@__crt_strtox@@N@__crt_strtox@@YA?AW4SLD_STATUS@@QEAU__crt_locale_pointers@@V?$c_string_character_source@_W@0@QEAN@Z 0000000140084724 f i libucrt:strtod.obj
 0001:000837ec       ??$parse_floating_point_from_source@V?$c_string_character_source@D@__crt_strtox@@@__crt_strtox@@YA?AW4floating_point_parse_result@0@QEAU__crt_locale_pointers@@AEAV?$c_string_character_source@D@0@AEAUfloating_point_string@0@@Z 00000001400847ec f i libucrt:strtod.obj
 0001:00083dc0       ??$parse_floating_point_from_source@V?$c_string_character_source@_W@__crt_strtox@@@__crt_strtox@@YA?AW4floating_point_parse_result@0@QEAU__crt_locale_pointers@@AEAV?$c_string_character_source@_W@0@AEAUfloating_point_string@0@@Z 0000000140084dc0 f i libucrt:strtod.obj
 0001:00084efc       ??$parse_floating_point_possible_infinity@DV?$c_string_character_source@D@__crt_strtox@@PEBD@__crt_strtox@@YA?AW4floating_point_parse_result@0@AEADAEAV?$c_string_character_source@D@0@PEBD@Z 0000000140085efc f i libucrt:strtod.obj
 0001:00085090       ??$parse_floating_point_possible_infinity@_WV?$c_string_character_source@_W@__crt_strtox@@PEB_W@__crt_strtox@@YA?AW4floating_point_parse_result@0@AEA_WAEAV?$c_string_character_source@_W@0@PEB_W@Z 0000000140086090 f i libucrt:strtod.obj
 0001:00085254       ??$parse_floating_point_possible_nan@DV?$c_string_character_source@D@__crt_strtox@@PEBD@__crt_strtox@@YA?AW4floating_point_parse_result@0@AEADAEAV?$c_string_character_source@D@0@PEBD@Z 0000000140086254 f i libucrt:strtod.obj
 0001:000854bc       ??$parse_floating_point_possible_nan@_WV?$c_string_character_source@_W@__crt_strtox@@PEB_W@__crt_strtox@@YA?AW4floating_point_parse_result@0@AEA_WAEAV?$c_string_character_source@_W@0@PEB_W@Z 00000001400864bc f i libucrt:strtod.obj
 0001:00085770       ??$parse_floating_point_possible_nan_is_ind@DV?$c_string_character_source@D@__crt_strtox@@@__crt_strtox@@YA_NAEADAEAV?$c_string_character_source@D@0@@Z 0000000140086770 f i libucrt:strtod.obj
 0001:000857c8       ??$parse_floating_point_possible_nan_is_ind@_WV?$c_string_character_source@_W@__crt_strtox@@@__crt_strtox@@YA_NAEA_WAEAV?$c_string_character_source@_W@0@@Z 00000001400867c8 f i libucrt:strtod.obj
 0001:00085828       ??$parse_floating_point_possible_nan_is_snan@DV?$c_string_character_source@D@__crt_strtox@@@__crt_strtox@@YA_NAEADAEAV?$c_string_character_source@D@0@@Z 0000000140086828 f i libucrt:strtod.obj
 0001:00085880       ??$parse_floating_point_possible_nan_is_snan@_WV?$c_string_character_source@_W@__crt_strtox@@@__crt_strtox@@YA_NAEA_WAEAV?$c_string_character_source@_W@0@@Z 0000000140086880 f i libucrt:strtod.obj
 0001:000858e0       ??$parse_floating_point_write_result@M@__crt_strtox@@YA?AW4SLD_STATUS@@W4floating_point_parse_result@0@AEBUfloating_point_string@0@QEAM@Z 00000001400868e0 f i libucrt:strtod.obj
 0001:00085aac       ??$parse_floating_point_write_result@N@__crt_strtox@@YA?AW4SLD_STATUS@@W4floating_point_parse_result@0@AEBUfloating_point_string@0@QEAN@Z 0000000140086aac f i libucrt:strtod.obj
 0001:00085d04       ??$parse_next_characters_from_source@DV?$c_string_character_source@D@__crt_strtox@@@__crt_strtox@@YA_NQEBD0_KAEADAEAV?$c_string_character_source@D@0@@Z 0000000140086d04 f i libucrt:strtod.obj
 0001:00085d68       ??$parse_next_characters_from_source@_WV?$c_string_character_source@_W@__crt_strtox@@@__crt_strtox@@YA_NQEB_W0_KAEA_WAEAV?$c_string_character_source@_W@0@@Z 0000000140086d68 f i libucrt:strtod.obj
 0001:00085dd0       ??0<lambda_74a2d8e426d717992967bf549d0b1d46>@@QEAA@AEAV?$c_string_character_source@_W@__crt_strtox@@AEA_WAEAPEB_W@Z 0000000140086dd0 f i libucrt:strtod.obj
 0001:00085de4       ??0<lambda_85175643e3245fab8ee1d5c9ffbed652>@@QEAA@AEAV?$c_string_character_source@D@__crt_strtox@@AEADAEAPEBD@Z 0000000140086de4 f i libucrt:strtod.obj
 0001:00085df8       ??0<lambda_a4d13f8896d4166bcf1a62c02ca9256c>@@QEAA@AEAV?$c_string_character_source@D@__crt_strtox@@AEADAEAPEBD@Z 0000000140086df8 f i libucrt:strtod.obj
 0001:00085e0c       ??0<lambda_aaca0f6c2c612c0ee38e1ea27fdc2ad6>@@QEAA@AEAV?$c_string_character_source@D@__crt_strtox@@AEADAEAPEBD@Z 0000000140086e0c f i libucrt:strtod.obj
 0001:00085e20       ??0<lambda_b2e4b863da30a29f1a9fc7ecc6d00735>@@QEAA@AEAV?$c_string_character_source@_W@__crt_strtox@@AEA_WAEAPEB_W@Z 0000000140086e20 f i libucrt:strtod.obj
 0001:00085e34       ??0<lambda_c728f12739a3597330a783bb0930d4cc>@@QEAA@AEAV?$c_string_character_source@_W@__crt_strtox@@AEA_WAEAPEB_W@Z 0000000140086e34 f i libucrt:strtod.obj
 0001:00085e50       ??0big_integer@__crt_strtox@@QEAA@AEBU01@@Z 0000000140086e50 f i libucrt:strtod.obj
 0001:00085e90       ??0big_integer@__crt_strtox@@QEAA@XZ 0000000140086e90 f i libucrt:strtod.obj
 0001:00085e9c       ??0floating_point_value@__crt_strtox@@QEAA@QEAM@Z 0000000140086e9c f i libucrt:strtod.obj
 0001:00085eac       ??0floating_point_value@__crt_strtox@@QEAA@QEAN@Z 0000000140086eac f i libucrt:strtod.obj
 0001:00085ec0       ??4big_integer@__crt_strtox@@QEAAAEAU01@AEBU01@@Z 0000000140086ec0 f i libucrt:strtod.obj
 0001:00085f00       ??M__crt_strtox@@YA_NAEBUbig_integer@0@0@Z 0000000140086f00 f i libucrt:strtod.obj
 0001:00085f3c       ??R<lambda_74a2d8e426d717992967bf549d0b1d46>@@QEBA@XZ 0000000140086f3c f i libucrt:strtod.obj
 0001:00085fb4       ??R<lambda_85175643e3245fab8ee1d5c9ffbed652>@@QEBA@XZ 0000000140086fb4 f i libucrt:strtod.obj
 0001:00086018       ??R<lambda_a4d13f8896d4166bcf1a62c02ca9256c>@@QEBA@XZ 0000000140087018 f i libucrt:strtod.obj
 0001:0008607c       ??R<lambda_aaca0f6c2c612c0ee38e1ea27fdc2ad6>@@QEBA@XZ 000000014008707c f i libucrt:strtod.obj
 0001:000860e0       ??R<lambda_b2e4b863da30a29f1a9fc7ecc6d00735>@@QEBA@XZ 00000001400870e0 f i libucrt:strtod.obj
 0001:00086158       ??R<lambda_c728f12739a3597330a783bb0930d4cc>@@QEBA@XZ 0000000140087158 f i libucrt:strtod.obj
 0001:000861d0       ?accumulate_decimal_digits_into_big_integer@__crt_strtox@@YAXQEBE0AEAUbig_integer@1@@Z 00000001400871d0 f i libucrt:strtod.obj
 0001:00086900       ?add@__crt_strtox@@YA_NAEAUbig_integer@1@I@Z 0000000140087900 f i libucrt:strtod.obj
 0001:000869b0       ?add_carry@__crt_strtox@@YAIAEAIII@Z 00000001400879b0 f i libucrt:strtod.obj
 0001:000869d0       ?add_multiply_carry@__crt_strtox@@YAIAEAIIII@Z 00000001400879d0 f i libucrt:strtod.obj
 0001:000869f8       ?as_double@floating_point_value@__crt_strtox@@QEBAAEANXZ 00000001400879f8 f i libucrt:strtod.obj
 0001:00086a40       ?as_float@floating_point_value@__crt_strtox@@QEBAAEAMXZ 0000000140087a40 f i libucrt:strtod.obj
 0001:00086a88       ?assemble_floating_point_infinity@__crt_strtox@@YAX_NAEBVfloating_point_value@1@@Z 0000000140087a88 f i libucrt:strtod.obj
 0001:00086ac4       ?assemble_floating_point_value@__crt_strtox@@YA?AW4SLD_STATUS@@_KH_N1AEBVfloating_point_value@1@@Z 0000000140087ac4 f i libucrt:strtod.obj
 0001:00086f5c       ?assemble_floating_point_value_from_big_integer@__crt_strtox@@YA?AW4SLD_STATUS@@AEBUbig_integer@1@I_N1AEBVfloating_point_value@1@@Z 0000000140087f5c f i libucrt:strtod.obj
 0001:00087114       ?assemble_floating_point_zero@__crt_strtox@@YAX_NAEBVfloating_point_value@1@@Z 0000000140088114 f i libucrt:strtod.obj
 0001:00087140       ?bit_scan_reverse@__crt_strtox@@YAIAEBUbig_integer@1@@Z 0000000140088140 f i libucrt:strtod.obj
 0001:00087170       ?bit_scan_reverse@__crt_strtox@@YAII@Z 0000000140088170 f i libucrt:strtod.obj
 0001:00087190       ?bit_scan_reverse@__crt_strtox@@YAI_K@Z 0000000140088190 f i libucrt:strtod.obj
 0001:000871c0       ?convert_decimal_string_to_floating_type_common@__crt_strtox@@YA?AW4SLD_STATUS@@AEBUfloating_point_string@1@AEBVfloating_point_value@1@@Z 00000001400881c0 f i libucrt:strtod.obj
 0001:000897e0       ?convert_hexadecimal_string_to_floating_type_common@__crt_strtox@@YA?AW4SLD_STATUS@@AEBUfloating_point_string@1@AEBVfloating_point_value@1@@Z 000000014008a7e0 f i libucrt:strtod.obj
 0001:000898c0       ?count_sequential_high_zeroes@__crt_strtox@@YAII@Z 000000014008a8c0 f i libucrt:strtod.obj
 0001:000898d8       ?denormal_mantissa_mask@floating_point_value@__crt_strtox@@QEBA_KXZ 000000014008a8d8 f i libucrt:strtod.obj
 0001:00089900       ?divide@__crt_strtox@@YA_KAEAUbig_integer@1@AEBU21@@Z 000000014008a900 f i libucrt:strtod.obj
 0001:00089ec4       ?exponent_bias@floating_point_value@__crt_strtox@@QEBAHXZ 000000014008aec4 f i libucrt:strtod.obj
 0001:00089ed8       ?is_digit_or_nondigit@__crt_strtox@@YA_NH@Z 000000014008aed8 f i libucrt:strtod.obj
 0001:00089f04       ?is_double@floating_point_value@__crt_strtox@@QEBA_NXZ 000000014008af04 f i libucrt:strtod.obj
 0001:00089f08       ?is_space@__crt_strtox@@YA_NDQEAU__crt_locale_pointers@@@Z 000000014008af08 f i libucrt:strtod.obj
 0001:00089f30       ?is_space@__crt_strtox@@YA_N_WPEAU__crt_locale_pointers@@@Z 000000014008af30 f i libucrt:strtod.obj
 0001:00089f50       ?make_big_integer@__crt_strtox@@YA?AUbig_integer@1@_K@Z 000000014008af50 f i libucrt:strtod.obj
 0001:00089f70       ?mantissa_bits@floating_point_value@__crt_strtox@@QEBAHXZ 000000014008af70 f i libucrt:strtod.obj
 0001:00089f84       ?maximum_binary_exponent@floating_point_value@__crt_strtox@@QEBAHXZ 000000014008af84 f i libucrt:strtod.obj
 0001:00089f98       ?minimum_binary_exponent@floating_point_value@__crt_strtox@@QEBAHXZ 000000014008af98 f i libucrt:strtod.obj
 0001:00089fb0       ?multiply@__crt_strtox@@YA_NAEAUbig_integer@1@AEBU21@@Z 000000014008afb0 f i libucrt:strtod.obj
 0001:0008a430       ?multiply@__crt_strtox@@YA_NAEAUbig_integer@1@I@Z 000000014008b430 f i libucrt:strtod.obj
 0001:0008a560       ?multiply_64_32@__crt_strtox@@YA_K_KI@Z 000000014008b560 f i libucrt:strtod.obj
 0001:0008a570       ?multiply_by_power_of_ten@__crt_strtox@@YA_NAEAUbig_integer@1@I@Z 000000014008b570 f i libucrt:strtod.obj
 0001:0008ac40       ?multiply_core@__crt_strtox@@YAIQEAIII@Z 000000014008bc40 f i libucrt:strtod.obj
 0001:0008ac9c       ?normal_mantissa_mask@floating_point_value@__crt_strtox@@QEBA_KXZ 000000014008bc9c f i libucrt:strtod.obj
 0001:0008acc0       ?right_shift_with_rounding@__crt_strtox@@YA_K_N_KI0@Z 000000014008bcc0 f i libucrt:strtod.obj
 0001:0008adc0       ?shift_left@__crt_strtox@@YA_NAEAUbig_integer@1@I@Z 000000014008bdc0 f i libucrt:strtod.obj
 0001:0008af9c       ?should_round_up@__crt_strtox@@YA_N_N000@Z 000000014008bf9c f i libucrt:strtod.obj
 0001:0008b044       __acrt_get_locale_data_prefix 000000014008c044 f i libucrt:strtod.obj
 0001:0008b048       _chvalidchk_l              000000014008c048 f i libucrt:strtod.obj
 0001:0008b0c4       _ischartype_l              000000014008c0c4 f i libucrt:strtod.obj
 0001:0008b158       _strtod_l                  000000014008c158 f   libucrt:strtod.obj
 0001:0008b160       _strtof_l                  000000014008c160 f   libucrt:strtod.obj
 0001:0008b168       _strtold_l                 000000014008c168 f   libucrt:strtod.obj
 0001:0008b170       _wcstod_l                  000000014008c170 f   libucrt:strtod.obj
 0001:0008b178       _wcstof_l                  000000014008c178 f   libucrt:strtod.obj
 0001:0008b180       _wcstold_l                 000000014008c180 f   libucrt:strtod.obj
 0001:0008b230       strtod                     000000014008c230 f   libucrt:strtod.obj
 0001:0008b23c       strtof                     000000014008c23c f   libucrt:strtod.obj
 0001:0008b248       strtold                    000000014008c248 f   libucrt:strtod.obj
 0001:0008b254       wcstod                     000000014008c254 f   libucrt:strtod.obj
 0001:0008b260       wcstof                     000000014008c260 f   libucrt:strtod.obj
 0001:0008b26c       wcstold                    000000014008c26c f   libucrt:strtod.obj
 0001:0008b278       ??$is_overflow_condition@_K@__crt_strtox@@YA_NI_K@Z 000000014008c278 f i libucrt:strtox.obj
 0001:0008b2bc       ??$parse_integer@KV?$c_string_character_source@D@__crt_strtox@@$00@__crt_strtox@@YAKAEAV__crt_cached_ptd_host@@V?$c_string_character_source@D@0@H_N@Z 000000014008c2bc f i libucrt:strtox.obj
 0001:0008b664       ??$parse_integer@KV?$c_string_character_source@_W@__crt_strtox@@$00@__crt_strtox@@YAKAEAV__crt_cached_ptd_host@@V?$c_string_character_source@_W@0@H_N@Z 000000014008c664 f i libucrt:strtox.obj
 0001:0008bfe4       ??$parse_integer@_KV?$c_string_character_source@D@__crt_strtox@@$00@__crt_strtox@@YA_KAEAV__crt_cached_ptd_host@@V?$c_string_character_source@D@0@H_N@Z 000000014008cfe4 f i libucrt:strtox.obj
 0001:0008c378       ??$parse_integer@_KV?$c_string_character_source@_W@__crt_strtox@@$00@__crt_strtox@@YA_KAEAV__crt_cached_ptd_host@@V?$c_string_character_source@_W@0@H_N@Z 000000014008d378 f i libucrt:strtox.obj
 0001:0008ccdc       ??$parse_integer_from_string@JDPEAPEAD@__crt_strtox@@YAJQEBDQEAPEADHQEAU__crt_locale_pointers@@@Z 000000014008dcdc f i libucrt:strtox.obj
 0001:0008cdc8       ??$parse_integer_from_string@J_WPEAPEA_W@__crt_strtox@@YAJQEB_WQEAPEA_WHQEAU__crt_locale_pointers@@@Z 000000014008ddc8 f i libucrt:strtox.obj
 0001:0008ceb4       ??$parse_integer_from_string@KDPEAPEAD@__crt_strtox@@YAKQEBDQEAPEADHQEAU__crt_locale_pointers@@@Z 000000014008deb4 f i libucrt:strtox.obj
 0001:0008cfa0       ??$parse_integer_from_string@K_WPEAPEA_W@__crt_strtox@@YAKQEB_WQEAPEA_WHQEAU__crt_locale_pointers@@@Z 000000014008dfa0 f i libucrt:strtox.obj
 0001:0008d08c       ??$parse_integer_from_string@_JDPEAPEAD@__crt_strtox@@YA_JQEBDQEAPEADHQEAU__crt_locale_pointers@@@Z 000000014008e08c f i libucrt:strtox.obj
 0001:0008d17c       ??$parse_integer_from_string@_J_WPEAPEA_W@__crt_strtox@@YA_JQEB_WQEAPEA_WHQEAU__crt_locale_pointers@@@Z 000000014008e17c f i libucrt:strtox.obj
 0001:0008d26c       ??$parse_integer_from_string@_KDPEAPEAD@__crt_strtox@@YA_KQEBDQEAPEADHQEAU__crt_locale_pointers@@@Z 000000014008e26c f i libucrt:strtox.obj
 0001:0008d35c       ??$parse_integer_from_string@_K_WPEAPEA_W@__crt_strtox@@YA_KQEB_WQEAPEA_WHQEAU__crt_locale_pointers@@@Z 000000014008e35c f i libucrt:strtox.obj
 0001:0008d44c       ?maximum_signed_value@__crt_strtox@@YA_J_K@Z 000000014008e44c f i libucrt:strtox.obj
 0001:0008d45c       ?minimum_signed_value@__crt_strtox@@YA_J_K@Z 000000014008e45c f i libucrt:strtox.obj
 0001:0008d46c       _strtoi64                  000000014008e46c f   libucrt:strtox.obj
 0001:0008d54c       _strtoi64_l                000000014008e54c f   libucrt:strtox.obj
 0001:0008d63c       _strtoimax_l               000000014008e63c f   libucrt:strtox.obj
 0001:0008d72c       _strtol_l                  000000014008e72c f   libucrt:strtox.obj
 0001:0008d818       _strtoll_l                 000000014008e818 f   libucrt:strtox.obj
 0001:0008d908       _strtoui64                 000000014008e908 f   libucrt:strtox.obj
 0001:0008d9e8       _strtoui64_l               000000014008e9e8 f   libucrt:strtox.obj
 0001:0008dad8       _strtoul_l                 000000014008ead8 f   libucrt:strtox.obj
 0001:0008dbc4       _strtoull_l                000000014008ebc4 f   libucrt:strtox.obj
 0001:0008dcb4       _strtoumax_l               000000014008ecb4 f   libucrt:strtox.obj
 0001:0008dda4       _wcstoi64                  000000014008eda4 f   libucrt:strtox.obj
 0001:0008de84       _wcstoi64_l                000000014008ee84 f   libucrt:strtox.obj
 0001:0008df74       _wcstoimax_l               000000014008ef74 f   libucrt:strtox.obj
 0001:0008e064       _wcstol_l                  000000014008f064 f   libucrt:strtox.obj
 0001:0008e150       _wcstoll_l                 000000014008f150 f   libucrt:strtox.obj
 0001:0008e240       _wcstoui64                 000000014008f240 f   libucrt:strtox.obj
 0001:0008e320       _wcstoui64_l               000000014008f320 f   libucrt:strtox.obj
 0001:0008e410       _wcstoul_l                 000000014008f410 f   libucrt:strtox.obj
 0001:0008e4fc       _wcstoull_l                000000014008f4fc f   libucrt:strtox.obj
 0001:0008e5ec       _wcstoumax_l               000000014008f5ec f   libucrt:strtox.obj
 0001:0008e6dc       strtoimax                  000000014008f6dc f   libucrt:strtox.obj
 0001:0008e7bc       strtol                     000000014008f7bc f   libucrt:strtox.obj
 0001:0008e89c       strtoll                    000000014008f89c f   libucrt:strtox.obj
 0001:0008e97c       strtoul                    000000014008f97c f   libucrt:strtox.obj
 0001:0008ea5c       strtoull                   000000014008fa5c f   libucrt:strtox.obj
 0001:0008eb3c       strtoumax                  000000014008fb3c f   libucrt:strtox.obj
 0001:0008ec1c       wcstoimax                  000000014008fc1c f   libucrt:strtox.obj
 0001:0008ecfc       wcstol                     000000014008fcfc f   libucrt:strtox.obj
 0001:0008eddc       wcstoll                    000000014008fddc f   libucrt:strtox.obj
 0001:0008eebc       wcstoul                    000000014008febc f   libucrt:strtox.obj
 0001:0008ef9c       wcstoull                   000000014008ff9c f   libucrt:strtox.obj
 0001:0008f07c       wcstoumax                  000000014009007c f   libucrt:strtox.obj
 0001:0008f15c       ??$?RE@__crt_internal_free_policy@@QEBAXQEBE@Z 000000014009015c f i libucrt:input.obj
 0001:0008f684       ??$fill_buffer@D@?$input_processor@DV?$stream_input_adapter@D@__crt_stdio_input@@@__crt_stdio_input@@CAXQEFAD_K1@Z 0000000140090684 f i libucrt:input.obj
 0001:0008f688       ??$fill_buffer@D@?$input_processor@DV?$string_input_adapter@D@__crt_stdio_input@@@__crt_stdio_input@@CAXQEFAD_K1@Z 0000000140090688 f i libucrt:input.obj
 0001:0008f68c       ??$fill_buffer@D@?$input_processor@_WV?$stream_input_adapter@_W@__crt_stdio_input@@@__crt_stdio_input@@CAXQEFAD_K1@Z 000000014009068c f i libucrt:input.obj
 0001:0008f690       ??$fill_buffer@D@?$input_processor@_WV?$string_input_adapter@_W@__crt_stdio_input@@@__crt_stdio_input@@CAXQEFAD_K1@Z 0000000140090690 f i libucrt:input.obj
 0001:0008f694       ??$fill_buffer@_W@?$input_processor@DV?$stream_input_adapter@D@__crt_stdio_input@@@__crt_stdio_input@@CAXQEFA_W_K1@Z 0000000140090694 f i libucrt:input.obj
 0001:0008f698       ??$fill_buffer@_W@?$input_processor@DV?$string_input_adapter@D@__crt_stdio_input@@@__crt_stdio_input@@CAXQEFA_W_K1@Z 0000000140090698 f i libucrt:input.obj
 0001:0008f69c       ??$fill_buffer@_W@?$input_processor@_WV?$stream_input_adapter@_W@__crt_stdio_input@@@__crt_stdio_input@@CAXQEFA_W_K1@Z 000000014009069c f i libucrt:input.obj
 0001:0008f6a0       ??$fill_buffer@_W@?$input_processor@_WV?$string_input_adapter@_W@__crt_stdio_input@@@__crt_stdio_input@@CAXQEFA_W_K1@Z 00000001400906a0 f i libucrt:input.obj
 0001:0008f6a4       ??$getc_nolock@PEAU_iobuf@@@?$__crt_char_traits@D@@SAH$$QEAPEAU_iobuf@@@Z 00000001400906a4 f i libucrt:input.obj
 0001:0008f6b0       ??$getc_nolock@PEAU_iobuf@@@?$__crt_char_traits@_W@@SAG$$QEAPEAU_iobuf@@@Z 00000001400906b0 f i libucrt:input.obj
 0001:0008f6bc       ??$istspace@AEBE@?$__crt_char_traits@D@@SAHAEBE@Z 00000001400906bc f i libucrt:input.obj
 0001:0008f6c8       ??$istspace@AEB_W@?$__crt_char_traits@_W@@SAHAEB_W@Z 00000001400906c8 f i libucrt:input.obj
 0001:0008f6d8       ??$make_input_adapter_character_source@V?$stream_input_adapter@D@__crt_stdio_input@@@__crt_strtox@@YA?AV?$input_adapter_character_source@V?$stream_input_adapter@D@__crt_stdio_input@@@0@QEAV?$stream_input_adapter@D@__crt_stdio_input@@_KQEA_N@Z 00000001400906d8 f i libucrt:input.obj
 0001:0008f6fc       ??$make_input_adapter_character_source@V?$stream_input_adapter@_W@__crt_stdio_input@@@__crt_strtox@@YA?AV?$input_adapter_character_source@V?$stream_input_adapter@_W@__crt_stdio_input@@@0@QEAV?$stream_input_adapter@_W@__crt_stdio_input@@_KQEA_N@Z 00000001400906fc f i libucrt:input.obj
 0001:0008f720       ??$make_input_adapter_character_source@V?$string_input_adapter@D@__crt_stdio_input@@@__crt_strtox@@YA?AV?$input_adapter_character_source@V?$string_input_adapter@D@__crt_stdio_input@@@0@QEAV?$string_input_adapter@D@__crt_stdio_input@@_KQEA_N@Z 0000000140090720 f i libucrt:input.obj
 0001:0008f744       ??$make_input_adapter_character_source@V?$string_input_adapter@_W@__crt_stdio_input@@@__crt_strtox@@YA?AV?$input_adapter_character_source@V?$string_input_adapter@_W@__crt_stdio_input@@@0@QEAV?$string_input_adapter@_W@__crt_stdio_input@@_KQEA_N@Z 0000000140090744 f i libucrt:input.obj
 0001:0008f768       ??$parse_floating_point@V?$input_adapter_character_source@V?$stream_input_adapter@D@__crt_stdio_input@@@__crt_strtox@@M@__crt_strtox@@YA?AW4SLD_STATUS@@QEAU__crt_locale_pointers@@V?$input_adapter_character_source@V?$stream_input_adapter@D@__crt_stdio_input@@@0@QEAM@Z 0000000140090768 f i libucrt:input.obj
 0001:0008f838       ??$parse_floating_point@V?$input_adapter_character_source@V?$stream_input_adapter@D@__crt_stdio_input@@@__crt_strtox@@N@__crt_strtox@@YA?AW4SLD_STATUS@@QEAU__crt_locale_pointers@@V?$input_adapter_character_source@V?$stream_input_adapter@D@__crt_stdio_input@@@0@QEAN@Z 0000000140090838 f i libucrt:input.obj
 0001:0008f908       ??$parse_floating_point@V?$input_adapter_character_source@V?$stream_input_adapter@_W@__crt_stdio_input@@@__crt_strtox@@M@__crt_strtox@@YA?AW4SLD_STATUS@@QEAU__crt_locale_pointers@@V?$input_adapter_character_source@V?$stream_input_adapter@_W@__crt_stdio_input@@@0@QEAM@Z 0000000140090908 f i libucrt:input.obj
 0001:0008f9d8       ??$parse_floating_point@V?$input_adapter_character_source@V?$stream_input_adapter@_W@__crt_stdio_input@@@__crt_strtox@@N@__crt_strtox@@YA?AW4SLD_STATUS@@QEAU__crt_locale_pointers@@V?$input_adapter_character_source@V?$stream_input_adapter@_W@__crt_stdio_input@@@0@QEAN@Z 00000001400909d8 f i libucrt:input.obj
 0001:0008faa8       ??$parse_floating_point@V?$input_adapter_character_source@V?$string_input_adapter@D@__crt_stdio_input@@@__crt_strtox@@M@__crt_strtox@@YA?AW4SLD_STATUS@@QEAU__crt_locale_pointers@@V?$input_adapter_character_source@V?$string_input_adapter@D@__crt_stdio_input@@@0@QEAM@Z 0000000140090aa8 f i libucrt:input.obj
 0001:0008fb78       ??$parse_floating_point@V?$input_adapter_character_source@V?$string_input_adapter@D@__crt_stdio_input@@@__crt_strtox@@N@__crt_strtox@@YA?AW4SLD_STATUS@@QEAU__crt_locale_pointers@@V?$input_adapter_character_source@V?$string_input_adapter@D@__crt_stdio_input@@@0@QEAN@Z 0000000140090b78 f i libucrt:input.obj
 0001:0008fc48       ??$parse_floating_point@V?$input_adapter_character_source@V?$string_input_adapter@_W@__crt_stdio_input@@@__crt_strtox@@M@__crt_strtox@@YA?AW4SLD_STATUS@@QEAU__crt_locale_pointers@@V?$input_adapter_character_source@V?$string_input_adapter@_W@__crt_stdio_input@@@0@QEAM@Z 0000000140090c48 f i libucrt:input.obj
 0001:0008fd18       ??$parse_floating_point@V?$input_adapter_character_source@V?$string_input_adapter@_W@__crt_stdio_input@@@__crt_strtox@@N@__crt_strtox@@YA?AW4SLD_STATUS@@QEAU__crt_locale_pointers@@V?$input_adapter_character_source@V?$string_input_adapter@_W@__crt_stdio_input@@@0@QEAN@Z 0000000140090d18 f i libucrt:input.obj
 0001:0008fde8       ??$parse_floating_point_from_source@V?$input_adapter_character_source@V?$stream_input_adapter@D@__crt_stdio_input@@@__crt_strtox@@@__crt_strtox@@YA?AW4floating_point_parse_result@0@QEAU__crt_locale_pointers@@AEAV?$input_adapter_character_source@V?$stream_input_adapter@D@__crt_stdio_input@@@0@AEAUfloating_point_string@0@@Z 0000000140090de8 f i libucrt:input.obj
 0001:000907bc       ??$parse_floating_point_from_source@V?$input_adapter_character_source@V?$stream_input_adapter@_W@__crt_stdio_input@@@__crt_strtox@@@__crt_strtox@@YA?AW4floating_point_parse_result@0@QEAU__crt_locale_pointers@@AEAV?$input_adapter_character_source@V?$stream_input_adapter@_W@__crt_stdio_input@@@0@AEAUfloating_point_string@0@@Z 00000001400917bc f i libucrt:input.obj
 0001:00091c7c       ??$parse_floating_point_from_source@V?$input_adapter_character_source@V?$string_input_adapter@D@__crt_stdio_input@@@__crt_strtox@@@__crt_strtox@@YA?AW4floating_point_parse_result@0@QEAU__crt_locale_pointers@@AEAV?$input_adapter_character_source@V?$string_input_adapter@D@__crt_stdio_input@@@0@AEAUfloating_point_string@0@@Z 0000000140092c7c f i libucrt:input.obj
 0001:00092614       ??$parse_floating_point_from_source@V?$input_adapter_character_source@V?$string_input_adapter@_W@__crt_stdio_input@@@__crt_strtox@@@__crt_strtox@@YA?AW4floating_point_parse_result@0@QEAU__crt_locale_pointers@@AEAV?$input_adapter_character_source@V?$string_input_adapter@_W@__crt_stdio_input@@@0@AEAUfloating_point_string@0@@Z 0000000140093614 f i libucrt:input.obj
 0001:00093aa4       ??$parse_floating_point_possible_infinity@DV?$input_adapter_character_source@V?$stream_input_adapter@D@__crt_stdio_input@@@__crt_strtox@@_K@__crt_strtox@@YA?AW4floating_point_parse_result@0@AEADAEAV?$input_adapter_character_source@V?$stream_input_adapter@D@__crt_stdio_input@@@0@_K@Z 0000000140094aa4 f i libucrt:input.obj
 0001:00093cec       ??$parse_floating_point_possible_infinity@DV?$input_adapter_character_source@V?$string_input_adapter@D@__crt_stdio_input@@@__crt_strtox@@_K@__crt_strtox@@YA?AW4floating_point_parse_result@0@AEADAEAV?$input_adapter_character_source@V?$string_input_adapter@D@__crt_stdio_input@@@0@_K@Z 0000000140094cec f i libucrt:input.obj
 0001:00093f04       ??$parse_floating_point_possible_infinity@_WV?$input_adapter_character_source@V?$stream_input_adapter@_W@__crt_stdio_input@@@__crt_strtox@@_K@__crt_strtox@@YA?AW4floating_point_parse_result@0@AEA_WAEAV?$input_adapter_character_source@V?$stream_input_adapter@_W@__crt_stdio_input@@@0@_K@Z 0000000140094f04 f i libucrt:input.obj
 0001:000941a0       ??$parse_floating_point_possible_infinity@_WV?$input_adapter_character_source@V?$string_input_adapter@_W@__crt_stdio_input@@@__crt_strtox@@_K@__crt_strtox@@YA?AW4floating_point_parse_result@0@AEA_WAEAV?$input_adapter_character_source@V?$string_input_adapter@_W@__crt_stdio_input@@@0@_K@Z 00000001400951a0 f i libucrt:input.obj
 0001:00094420       ??$parse_floating_point_possible_nan@DV?$input_adapter_character_source@V?$stream_input_adapter@D@__crt_stdio_input@@@__crt_strtox@@_K@__crt_strtox@@YA?AW4floating_point_parse_result@0@AEADAEAV?$input_adapter_character_source@V?$stream_input_adapter@D@__crt_stdio_input@@@0@_K@Z 0000000140095420 f i libucrt:input.obj
 0001:00094730       ??$parse_floating_point_possible_nan@DV?$input_adapter_character_source@V?$string_input_adapter@D@__crt_stdio_input@@@__crt_strtox@@_K@__crt_strtox@@YA?AW4floating_point_parse_result@0@AEADAEAV?$input_adapter_character_source@V?$string_input_adapter@D@__crt_stdio_input@@@0@_K@Z 0000000140095730 f i libucrt:input.obj
 0001:00094a28       ??$parse_floating_point_possible_nan@_WV?$input_adapter_character_source@V?$stream_input_adapter@_W@__crt_stdio_input@@@__crt_strtox@@_K@__crt_strtox@@YA?AW4floating_point_parse_result@0@AEA_WAEAV?$input_adapter_character_source@V?$stream_input_adapter@_W@__crt_stdio_input@@@0@_K@Z 0000000140095a28 f i libucrt:input.obj
 0001:00094d98       ??$parse_floating_point_possible_nan@_WV?$input_adapter_character_source@V?$string_input_adapter@_W@__crt_stdio_input@@@__crt_strtox@@_K@__crt_strtox@@YA?AW4floating_point_parse_result@0@AEA_WAEAV?$input_adapter_character_source@V?$string_input_adapter@_W@__crt_stdio_input@@@0@_K@Z 0000000140095d98 f i libucrt:input.obj
 0001:0009510c       ??$parse_floating_point_possible_nan_is_ind@DV?$input_adapter_character_source@V?$stream_input_adapter@D@__crt_stdio_input@@@__crt_strtox@@@__crt_strtox@@YA_NAEADAEAV?$input_adapter_character_source@V?$stream_input_adapter@D@__crt_stdio_input@@@0@@Z 000000014009610c f i libucrt:input.obj
 0001:000951c8       ??$parse_floating_point_possible_nan_is_ind@DV?$input_adapter_character_source@V?$string_input_adapter@D@__crt_stdio_input@@@__crt_strtox@@@__crt_strtox@@YA_NAEADAEAV?$input_adapter_character_source@V?$string_input_adapter@D@__crt_stdio_input@@@0@@Z 00000001400961c8 f i libucrt:input.obj
 0001:00095260       ??$parse_floating_point_possible_nan_is_ind@_WV?$input_adapter_character_source@V?$stream_input_adapter@_W@__crt_stdio_input@@@__crt_strtox@@@__crt_strtox@@YA_NAEA_WAEAV?$input_adapter_character_source@V?$stream_input_adapter@_W@__crt_stdio_input@@@0@@Z 0000000140096260 f i libucrt:input.obj
 0001:00095330       ??$parse_floating_point_possible_nan_is_ind@_WV?$input_adapter_character_source@V?$string_input_adapter@_W@__crt_stdio_input@@@__crt_strtox@@@__crt_strtox@@YA_NAEA_WAEAV?$input_adapter_character_source@V?$string_input_adapter@_W@__crt_stdio_input@@@0@@Z 0000000140096330 f i libucrt:input.obj
 0001:000953e4       ??$parse_floating_point_possible_nan_is_snan@DV?$input_adapter_character_source@V?$stream_input_adapter@D@__crt_stdio_input@@@__crt_strtox@@@__crt_strtox@@YA_NAEADAEAV?$input_adapter_character_source@V?$stream_input_adapter@D@__crt_stdio_input@@@0@@Z 00000001400963e4 f i libucrt:input.obj
 0001:000954a0       ??$parse_floating_point_possible_nan_is_snan@DV?$input_adapter_character_source@V?$string_input_adapter@D@__crt_stdio_input@@@__crt_strtox@@@__crt_strtox@@YA_NAEADAEAV?$input_adapter_character_source@V?$string_input_adapter@D@__crt_stdio_input@@@0@@Z 00000001400964a0 f i libucrt:input.obj
 0001:00095538       ??$parse_floating_point_possible_nan_is_snan@_WV?$input_adapter_character_source@V?$stream_input_adapter@_W@__crt_stdio_input@@@__crt_strtox@@@__crt_strtox@@YA_NAEA_WAEAV?$input_adapter_character_source@V?$stream_input_adapter@_W@__crt_stdio_input@@@0@@Z 0000000140096538 f i libucrt:input.obj
 0001:00095608       ??$parse_floating_point_possible_nan_is_snan@_WV?$input_adapter_character_source@V?$string_input_adapter@_W@__crt_stdio_input@@@__crt_strtox@@@__crt_strtox@@YA_NAEA_WAEAV?$input_adapter_character_source@V?$string_input_adapter@_W@__crt_stdio_input@@@0@@Z 0000000140096608 f i libucrt:input.obj
 0001:000956bc       ??$parse_integer@_KV?$input_adapter_character_source@V?$stream_input_adapter@D@__crt_stdio_input@@@__crt_strtox@@$00@__crt_strtox@@YA_KAEAV__crt_cached_ptd_host@@V?$input_adapter_character_source@V?$stream_input_adapter@D@__crt_stdio_input@@@0@H_N@Z 00000001400966bc f i libucrt:input.obj
 0001:00095bf8       ??$parse_integer@_KV?$input_adapter_character_source@V?$stream_input_adapter@D@__crt_stdio_input@@@__crt_strtox@@@__crt_strtox@@YA_KQEAU__crt_locale_pointers@@V?$input_adapter_character_source@V?$stream_input_adapter@D@__crt_stdio_input@@@0@H_N@Z 0000000140096bf8 f i libucrt:input.obj
 0001:00095d38       ??$parse_integer@_KV?$input_adapter_character_source@V?$stream_input_adapter@_W@__crt_stdio_input@@@__crt_strtox@@$00@__crt_strtox@@YA_KAEAV__crt_cached_ptd_host@@V?$input_adapter_character_source@V?$stream_input_adapter@_W@__crt_stdio_input@@@0@H_N@Z 0000000140096d38 f i libucrt:input.obj
 0001:00096888       ??$parse_integer@_KV?$input_adapter_character_source@V?$stream_input_adapter@_W@__crt_stdio_input@@@__crt_strtox@@@__crt_strtox@@YA_KQEAU__crt_locale_pointers@@V?$input_adapter_character_source@V?$stream_input_adapter@_W@__crt_stdio_input@@@0@H_N@Z 0000000140097888 f i libucrt:input.obj
 0001:000969c8       ??$parse_integer@_KV?$input_adapter_character_source@V?$string_input_adapter@D@__crt_stdio_input@@@__crt_strtox@@$00@__crt_strtox@@YA_KAEAV__crt_cached_ptd_host@@V?$input_adapter_character_source@V?$string_input_adapter@D@__crt_stdio_input@@@0@H_N@Z 00000001400979c8 f i libucrt:input.obj
 0001:00096f10       ??$parse_integer@_KV?$input_adapter_character_source@V?$string_input_adapter@D@__crt_stdio_input@@@__crt_strtox@@@__crt_strtox@@YA_KQEAU__crt_locale_pointers@@V?$input_adapter_character_source@V?$string_input_adapter@D@__crt_stdio_input@@@0@H_N@Z 0000000140097f10 f i libucrt:input.obj
 0001:00097050       ??$parse_integer@_KV?$input_adapter_character_source@V?$string_input_adapter@_W@__crt_stdio_input@@@__crt_strtox@@$00@__crt_strtox@@YA_KAEAV__crt_cached_ptd_host@@V?$input_adapter_character_source@V?$string_input_adapter@_W@__crt_stdio_input@@@0@H_N@Z 0000000140098050 f i libucrt:input.obj
 0001:00097bc4       ??$parse_integer@_KV?$input_adapter_character_source@V?$string_input_adapter@_W@__crt_stdio_input@@@__crt_strtox@@@__crt_strtox@@YA_KQEAU__crt_locale_pointers@@V?$input_adapter_character_source@V?$string_input_adapter@_W@__crt_stdio_input@@@0@H_N@Z 0000000140098bc4 f i libucrt:input.obj
 0001:00097d04       ??$parse_next_characters_from_source@DV?$input_adapter_character_source@V?$stream_input_adapter@D@__crt_stdio_input@@@__crt_strtox@@@__crt_strtox@@YA_NQEBD0_KAEADAEAV?$input_adapter_character_source@V?$stream_input_adapter@D@__crt_stdio_input@@@0@@Z 0000000140098d04 f i libucrt:input.obj
 0001:00097ddc       ??$parse_next_characters_from_source@DV?$input_adapter_character_source@V?$string_input_adapter@D@__crt_stdio_input@@@__crt_strtox@@@__crt_strtox@@YA_NQEBD0_KAEADAEAV?$input_adapter_character_source@V?$string_input_adapter@D@__crt_stdio_input@@@0@@Z 0000000140098ddc f i libucrt:input.obj
 0001:00097e80       ??$parse_next_characters_from_source@_WV?$input_adapter_character_source@V?$stream_input_adapter@_W@__crt_stdio_input@@@__crt_strtox@@@__crt_strtox@@YA_NQEB_W0_KAEA_WAEAV?$input_adapter_character_source@V?$stream_input_adapter@_W@__crt_stdio_input@@@0@@Z 0000000140098e80 f i libucrt:input.obj
 0001:00097f68       ??$parse_next_characters_from_source@_WV?$input_adapter_character_source@V?$string_input_adapter@_W@__crt_stdio_input@@@__crt_strtox@@@__crt_strtox@@YA_NQEB_W0_KAEA_WAEAV?$input_adapter_character_source@V?$string_input_adapter@_W@__crt_stdio_input@@@0@@Z 0000000140098f68 f i libucrt:input.obj
 0001:00098030       ??$process_floating_point_specifier_t@M@?$input_processor@DV?$stream_input_adapter@D@__crt_stdio_input@@@__crt_stdio_input@@AEAA_NXZ 0000000140099030 f i libucrt:input.obj
 0001:000980f8       ??$process_floating_point_specifier_t@M@?$input_processor@DV?$string_input_adapter@D@__crt_stdio_input@@@__crt_stdio_input@@AEAA_NXZ 00000001400990f8 f i libucrt:input.obj
 0001:000981c8       ??$process_floating_point_specifier_t@M@?$input_processor@_WV?$stream_input_adapter@_W@__crt_stdio_input@@@__crt_stdio_input@@AEAA_NXZ 00000001400991c8 f i libucrt:input.obj
 0001:00098290       ??$process_floating_point_specifier_t@M@?$input_processor@_WV?$string_input_adapter@_W@__crt_stdio_input@@@__crt_stdio_input@@AEAA_NXZ 0000000140099290 f i libucrt:input.obj
 0001:00098358       ??$process_floating_point_specifier_t@N@?$input_processor@DV?$stream_input_adapter@D@__crt_stdio_input@@@__crt_stdio_input@@AEAA_NXZ 0000000140099358 f i libucrt:input.obj
 0001:00098424       ??$process_floating_point_specifier_t@N@?$input_processor@DV?$string_input_adapter@D@__crt_stdio_input@@@__crt_stdio_input@@AEAA_NXZ 0000000140099424 f i libucrt:input.obj
 0001:000984f4       ??$process_floating_point_specifier_t@N@?$input_processor@_WV?$stream_input_adapter@_W@__crt_stdio_input@@@__crt_stdio_input@@AEAA_NXZ 00000001400994f4 f i libucrt:input.obj
 0001:000985c0       ??$process_floating_point_specifier_t@N@?$input_processor@_WV?$string_input_adapter@_W@__crt_stdio_input@@@__crt_stdio_input@@AEAA_NXZ 00000001400995c0 f i libucrt:input.obj
 0001:0009868c       ??$process_string_specifier_tchar@D@?$input_processor@DV?$stream_input_adapter@D@__crt_stdio_input@@@__crt_stdio_input@@AEAA_NW4conversion_mode@1@D@Z 000000014009968c f i libucrt:input.obj
 0001:00098880       ??$process_string_specifier_tchar@D@?$input_processor@DV?$string_input_adapter@D@__crt_stdio_input@@@__crt_stdio_input@@AEAA_NW4conversion_mode@1@D@Z 0000000140099880 f i libucrt:input.obj
 0001:00098aa0       ??$process_string_specifier_tchar@D@?$input_processor@_WV?$stream_input_adapter@_W@__crt_stdio_input@@@__crt_stdio_input@@AEAA_NW4conversion_mode@1@D@Z 0000000140099aa0 f i libucrt:input.obj
 0001:00098ce0       ??$process_string_specifier_tchar@D@?$input_processor@_WV?$string_input_adapter@_W@__crt_stdio_input@@@__crt_stdio_input@@AEAA_NW4conversion_mode@1@D@Z 0000000140099ce0 f i libucrt:input.obj
 0001:00098f34       ??$process_string_specifier_tchar@_W@?$input_processor@DV?$stream_input_adapter@D@__crt_stdio_input@@@__crt_stdio_input@@AEAA_NW4conversion_mode@1@_W@Z 0000000140099f34 f i libucrt:input.obj
 0001:00099178       ??$process_string_specifier_tchar@_W@?$input_processor@DV?$string_input_adapter@D@__crt_stdio_input@@@__crt_stdio_input@@AEAA_NW4conversion_mode@1@_W@Z 000000014009a178 f i libucrt:input.obj
 0001:000993d0       ??$process_string_specifier_tchar@_W@?$input_processor@_WV?$stream_input_adapter@_W@__crt_stdio_input@@@__crt_stdio_input@@AEAA_NW4conversion_mode@1@_W@Z 000000014009a3d0 f i libucrt:input.obj
 0001:000995f8       ??$process_string_specifier_tchar@_W@?$input_processor@_WV?$string_input_adapter@_W@__crt_stdio_input@@@__crt_stdio_input@@AEAA_NW4conversion_mode@1@_W@Z 000000014009a5f8 f i libucrt:input.obj
 0001:00099830       ??$reset_buffer@D@?$input_processor@DV?$stream_input_adapter@D@__crt_stdio_input@@@__crt_stdio_input@@CAXQEFAD_K@Z 000000014009a830 f i libucrt:input.obj
 0001:0009983c       ??$reset_buffer@D@?$input_processor@DV?$string_input_adapter@D@__crt_stdio_input@@@__crt_stdio_input@@CAXQEFAD_K@Z 000000014009a83c f i libucrt:input.obj
 0001:00099848       ??$reset_buffer@D@?$input_processor@_WV?$stream_input_adapter@_W@__crt_stdio_input@@@__crt_stdio_input@@CAXQEFAD_K@Z 000000014009a848 f i libucrt:input.obj
 0001:00099854       ??$reset_buffer@D@?$input_processor@_WV?$string_input_adapter@_W@__crt_stdio_input@@@__crt_stdio_input@@CAXQEFAD_K@Z 000000014009a854 f i libucrt:input.obj
 0001:00099860       ??$reset_buffer@_W@?$input_processor@DV?$stream_input_adapter@D@__crt_stdio_input@@@__crt_stdio_input@@CAXQEFA_W_K@Z 000000014009a860 f i libucrt:input.obj
 0001:00099870       ??$reset_buffer@_W@?$input_processor@DV?$string_input_adapter@D@__crt_stdio_input@@@__crt_stdio_input@@CAXQEFA_W_K@Z 000000014009a870 f i libucrt:input.obj
 0001:00099880       ??$reset_buffer@_W@?$input_processor@_WV?$stream_input_adapter@_W@__crt_stdio_input@@@__crt_stdio_input@@CAXQEFA_W_K@Z 000000014009a880 f i libucrt:input.obj
 0001:00099890       ??$reset_buffer@_W@?$input_processor@_WV?$string_input_adapter@_W@__crt_stdio_input@@@__crt_stdio_input@@CAXQEFA_W_K@Z 000000014009a890 f i libucrt:input.obj
 0001:000998a0       ??$skip_whitespace@Vstream_input_adapter@__crt_stdio_input@@D@__crt_stdio_input@@YAHAEAV?$stream_input_adapter@D@0@QEAU__crt_locale_pointers@@@Z 000000014009a8a0 f i libucrt:input.obj
 0001:00099904       ??$skip_whitespace@Vstream_input_adapter@__crt_stdio_input@@_W@__crt_stdio_input@@YAGAEAV?$stream_input_adapter@_W@0@QEAU__crt_locale_pointers@@@Z 000000014009a904 f i libucrt:input.obj
 0001:0009995c       ??$skip_whitespace@Vstring_input_adapter@__crt_stdio_input@@D@__crt_stdio_input@@YAHAEAV?$string_input_adapter@D@0@QEAU__crt_locale_pointers@@@Z 000000014009a95c f i libucrt:input.obj
 0001:000999c4       ??$skip_whitespace@Vstring_input_adapter@__crt_stdio_input@@_W@__crt_stdio_input@@YAGAEAV?$string_input_adapter@_W@0@QEAU__crt_locale_pointers@@@Z 000000014009a9c4 f i libucrt:input.obj
 0001:00099a34       ??$tcsnlen@AEBQEBDAEB_K@?$__crt_char_traits@D@@SA_KAEBQEBDAEB_K@Z 000000014009aa34 f i libucrt:input.obj
 0001:00099a44       ??$tcsnlen@AEBQEB_WAEB_K@?$__crt_char_traits@_W@@SA_KAEBQEB_WAEB_K@Z 000000014009aa44 f i libucrt:input.obj
 0001:00099a54       ??$tcstoull@PEBDPEAPEADH@?$__crt_char_traits@D@@SA_K$$QEAPEBD$$QEAPEAPEAD$$QEAH@Z 000000014009aa54 f i libucrt:input.obj
 0001:00099a68       ??$tcstoull@PEB_WPEAPEA_WH@?$__crt_char_traits@_W@@SA_K$$QEAPEB_W$$QEAPEAPEA_W$$QEAH@Z 000000014009aa68 f i libucrt:input.obj
 0001:00099a7c       ??$ungettc_nolock@AEBGPEAU_iobuf@@@?$__crt_char_traits@_W@@SAGAEBG$$QEAPEAU_iobuf@@@Z 000000014009aa7c f i libucrt:input.obj
 0001:00099a8c       ??$ungettc_nolock@AEBHPEAU_iobuf@@@?$__crt_char_traits@D@@SAHAEBH$$QEAPEAU_iobuf@@@Z 000000014009aa8c f i libucrt:input.obj
 0001:00099a98       ??$write_floating_point@M@?$input_processor@DV?$stream_input_adapter@D@__crt_stdio_input@@@__crt_stdio_input@@AEAA_NAEBM@Z 000000014009aa98 f i libucrt:input.obj
 0001:00099adc       ??$write_floating_point@M@?$input_processor@DV?$string_input_adapter@D@__crt_stdio_input@@@__crt_stdio_input@@AEAA_NAEBM@Z 000000014009aadc f i libucrt:input.obj
 0001:00099b28       ??$write_floating_point@M@?$input_processor@_WV?$stream_input_adapter@_W@__crt_stdio_input@@@__crt_stdio_input@@AEAA_NAEBM@Z 000000014009ab28 f i libucrt:input.obj
 0001:00099b6c       ??$write_floating_point@M@?$input_processor@_WV?$string_input_adapter@_W@__crt_stdio_input@@@__crt_stdio_input@@AEAA_NAEBM@Z 000000014009ab6c f i libucrt:input.obj
 0001:00099bb0       ??$write_floating_point@N@?$input_processor@DV?$stream_input_adapter@D@__crt_stdio_input@@@__crt_stdio_input@@AEAA_NAEBN@Z 000000014009abb0 f i libucrt:input.obj
 0001:00099bf8       ??$write_floating_point@N@?$input_processor@DV?$string_input_adapter@D@__crt_stdio_input@@@__crt_stdio_input@@AEAA_NAEBN@Z 000000014009abf8 f i libucrt:input.obj
 0001:00099c48       ??$write_floating_point@N@?$input_processor@_WV?$stream_input_adapter@_W@__crt_stdio_input@@@__crt_stdio_input@@AEAA_NAEBN@Z 000000014009ac48 f i libucrt:input.obj
 0001:00099c90       ??$write_floating_point@N@?$input_processor@_WV?$string_input_adapter@_W@__crt_stdio_input@@@__crt_stdio_input@@AEAA_NAEBN@Z 000000014009ac90 f i libucrt:input.obj
 0001:00099ce4       ??0<lambda_1232a416a9149be513dc40db5f8b835d>@@QEAA@AEAV?$input_adapter_character_source@V?$stream_input_adapter@D@__crt_stdio_input@@@__crt_strtox@@AEADAEA_K@Z 000000014009ace4 f i libucrt:input.obj
 0001:00099d04       ??0<lambda_156378f40168adef48d7ddfcff3a1264>@@QEAA@AEAV?$input_adapter_character_source@V?$stream_input_adapter@D@__crt_stdio_input@@@__crt_strtox@@AEADAEA_K@Z 000000014009ad04 f i libucrt:input.obj
 0001:00099d24       ??0<lambda_1db4d925c2db10274e92824f631ccf5d>@@QEAA@AEAV?$input_adapter_character_source@V?$string_input_adapter@D@__crt_stdio_input@@@__crt_strtox@@AEADAEA_K@Z 000000014009ad24 f i libucrt:input.obj
 0001:00099d38       ??0<lambda_283d5cd4935f5253d095a945c5771a1b>@@QEAA@AEAV?$input_adapter_character_source@V?$string_input_adapter@_W@__crt_stdio_input@@@__crt_strtox@@AEA_WAEA_K@Z 000000014009ad38 f i libucrt:input.obj
 0001:00099d4c       ??0<lambda_2869a9057330eafa474e853b0696fc23>@@QEAA@AEAV?$input_adapter_character_source@V?$stream_input_adapter@_W@__crt_stdio_input@@@__crt_strtox@@AEA_WAEA_K@Z 000000014009ad4c f i libucrt:input.obj
 0001:00099d60       ??0<lambda_3fab6266ebbbb6a80db50646f7fd7b75>@@QEAA@AEAV?$input_adapter_character_source@V?$stream_input_adapter@_W@__crt_stdio_input@@@__crt_strtox@@AEA_WAEA_K@Z 000000014009ad60 f i libucrt:input.obj
 0001:00099d74       ??0<lambda_6c6d19daa7c7d45df7f17119b7c25976>@@QEAA@AEAV?$input_adapter_character_source@V?$stream_input_adapter@_W@__crt_stdio_input@@@__crt_strtox@@AEA_WAEA_K@Z 000000014009ad74 f i libucrt:input.obj
 0001:00099d88       ??0<lambda_987679f592fad43c4bd3fe4c5bcc8c0e>@@QEAA@AEAV?$input_adapter_character_source@V?$stream_input_adapter@D@__crt_stdio_input@@@__crt_strtox@@AEADAEA_K@Z 000000014009ad88 f i libucrt:input.obj
 0001:00099d9c       ??0<lambda_a9f975f7e8316be0241b8392d74a98d8>@@QEAA@AEAV?$input_adapter_character_source@V?$string_input_adapter@_W@__crt_stdio_input@@@__crt_strtox@@AEA_WAEA_K@Z 000000014009ad9c f i libucrt:input.obj
 0001:00099db0       ??0<lambda_ab71cf08e5e7ad30a15505f224e9f7a9>@@QEAA@AEAV?$input_adapter_character_source@V?$string_input_adapter@_W@__crt_stdio_input@@@__crt_strtox@@AEA_WAEA_K@Z 000000014009adb0 f i libucrt:input.obj
 0001:00099df0       ??0<lambda_bdd123a27a08a14f93fbf44b617d0736>@@QEAA@AEAV?$input_adapter_character_source@V?$string_input_adapter@D@__crt_stdio_input@@@__crt_strtox@@AEADAEA_K@Z 000000014009adf0 f i libucrt:input.obj
 0001:00099e10       ??0<lambda_ee7c83d9f0cd4f1299194e0a8d424b67>@@QEAA@AEAV?$input_adapter_character_source@V?$string_input_adapter@D@__crt_stdio_input@@@__crt_strtox@@AEADAEA_K@Z 000000014009ae10 f i libucrt:input.obj
 0001:00099e50       ??0?$__crt_unique_heap_ptr@EU__crt_internal_free_policy@@@@QEAA@QEAE@Z 000000014009ae50 f i libucrt:input.obj
 0001:00099e58       ??0?$format_string_parser@D@__crt_stdio_input@@QEAA@_KQEBE@Z 000000014009ae58 f i libucrt:input.obj
 0001:00099e94       ??0?$format_string_parser@_W@__crt_stdio_input@@QEAA@_KQEB_W@Z 000000014009ae94 f i libucrt:input.obj
 0001:00099ec8       ??0?$input_adapter_character_source@V?$stream_input_adapter@D@__crt_stdio_input@@@__crt_strtox@@QEAA@$$QEAV01@@Z 000000014009aec8 f i libucrt:input.obj
 0001:00099f00       ??0?$input_adapter_character_source@V?$stream_input_adapter@D@__crt_stdio_input@@@__crt_strtox@@QEAA@QEAV?$stream_input_adapter@D@__crt_stdio_input@@_KQEA_N@Z 000000014009af00 f i libucrt:input.obj
 0001:00099f24       ??0?$input_adapter_character_source@V?$stream_input_adapter@_W@__crt_stdio_input@@@__crt_strtox@@QEAA@$$QEAV01@@Z 000000014009af24 f i libucrt:input.obj
 0001:00099f5c       ??0?$input_adapter_character_source@V?$stream_input_adapter@_W@__crt_stdio_input@@@__crt_strtox@@QEAA@QEAV?$stream_input_adapter@_W@__crt_stdio_input@@_KQEA_N@Z 000000014009af5c f i libucrt:input.obj
 0001:00099f80       ??0?$input_adapter_character_source@V?$string_input_adapter@D@__crt_stdio_input@@@__crt_strtox@@QEAA@$$QEAV01@@Z 000000014009af80 f i libucrt:input.obj
 0001:00099fb8       ??0?$input_adapter_character_source@V?$string_input_adapter@D@__crt_stdio_input@@@__crt_strtox@@QEAA@QEAV?$string_input_adapter@D@__crt_stdio_input@@_KQEA_N@Z 000000014009afb8 f i libucrt:input.obj
 0001:00099fdc       ??0?$input_adapter_character_source@V?$string_input_adapter@_W@__crt_stdio_input@@@__crt_strtox@@QEAA@$$QEAV01@@Z 000000014009afdc f i libucrt:input.obj
 0001:0009a014       ??0?$input_adapter_character_source@V?$string_input_adapter@_W@__crt_stdio_input@@@__crt_strtox@@QEAA@QEAV?$string_input_adapter@_W@__crt_stdio_input@@_KQEA_N@Z 000000014009b014 f i libucrt:input.obj
 0001:0009a038       ??0?$input_processor@DV?$stream_input_adapter@D@__crt_stdio_input@@@__crt_stdio_input@@QEAA@AEBV?$stream_input_adapter@D@1@_KQEBDQEAU__crt_locale_pointers@@QEAD@Z 000000014009b038 f i libucrt:input.obj
 0001:0009a0a4       ??0?$input_processor@DV?$string_input_adapter@D@__crt_stdio_input@@@__crt_stdio_input@@QEAA@AEBV?$string_input_adapter@D@1@_KQEBDQEAU__crt_locale_pointers@@QEAD@Z 000000014009b0a4 f i libucrt:input.obj
 0001:0009a120       ??0?$input_processor@_WV?$stream_input_adapter@_W@__crt_stdio_input@@@__crt_stdio_input@@QEAA@AEBV?$stream_input_adapter@_W@1@_KQEB_WQEAU__crt_locale_pointers@@QEAD@Z 000000014009b120 f i libucrt:input.obj
 0001:0009a17c       ??0?$input_processor@_WV?$string_input_adapter@_W@__crt_stdio_input@@@__crt_stdio_input@@QEAA@AEBV?$string_input_adapter@_W@1@_KQEB_WQEAU__crt_locale_pointers@@QEAD@Z 000000014009b17c f i libucrt:input.obj
 0001:0009a1e4       ??0?$scanset_buffer@E@__crt_stdio_input@@QEAA@XZ 000000014009b1e4 f i libucrt:input.obj
 0001:0009a1f8       ??0?$scanset_buffer@_W@__crt_stdio_input@@QEAA@XZ 000000014009b1f8 f i libucrt:input.obj
 0001:0009a204       ??0?$scanset_storage@$00@__crt_stdio_input@@QEAA@XZ 000000014009b204 f i libucrt:input.obj
 0001:0009a218       ??0?$scanset_storage@$01@__crt_stdio_input@@QEAA@XZ 000000014009b218 f i libucrt:input.obj
 0001:0009a224       ??0?$stream_input_adapter@D@__crt_stdio_input@@QEAA@QEAU_iobuf@@@Z 000000014009b224 f i libucrt:input.obj
 0001:0009a234       ??0?$stream_input_adapter@_W@__crt_stdio_input@@QEAA@QEAU_iobuf@@@Z 000000014009b234 f i libucrt:input.obj
 0001:0009a244       ??0?$string_input_adapter@D@__crt_stdio_input@@QEAA@QEBD_K@Z 000000014009b244 f i libucrt:input.obj
 0001:0009a25c       ??0?$string_input_adapter@_W@__crt_stdio_input@@QEAA@QEB_W_K@Z 000000014009b25c f i libucrt:input.obj
 0001:0009a274       ??1?$__crt_unique_heap_ptr@EU__crt_internal_free_policy@@@@QEAA@XZ 000000014009b274 f i libucrt:input.obj
 0001:0009a298       ??1?$format_string_parser@_W@__crt_stdio_input@@QEAA@XZ 000000014009b298 f i libucrt:input.obj
 0001:0009a2bc       ??1?$input_adapter_character_source@V?$stream_input_adapter@D@__crt_stdio_input@@@__crt_strtox@@QEAA@XZ 000000014009b2bc f i libucrt:input.obj
 0001:0009a2d8       ??1?$input_adapter_character_source@V?$stream_input_adapter@_W@__crt_stdio_input@@@__crt_strtox@@QEAA@XZ 000000014009b2d8 f i libucrt:input.obj
 0001:0009a2f4       ??1?$input_adapter_character_source@V?$string_input_adapter@D@__crt_stdio_input@@@__crt_strtox@@QEAA@XZ 000000014009b2f4 f i libucrt:input.obj
 0001:0009a310       ??1?$input_adapter_character_source@V?$string_input_adapter@_W@__crt_stdio_input@@@__crt_strtox@@QEAA@XZ 000000014009b310 f i libucrt:input.obj
 0001:0009a32c       ??1?$input_processor@_WV?$stream_input_adapter@_W@__crt_stdio_input@@@__crt_stdio_input@@QEAA@XZ 000000014009b32c f i libucrt:input.obj
 0001:0009a350       ??1?$input_processor@_WV?$string_input_adapter@_W@__crt_stdio_input@@@__crt_stdio_input@@QEAA@XZ 000000014009b350 f i libucrt:input.obj
 0001:0009a374       ??1?$scanset_buffer@_W@__crt_stdio_input@@QEAA@XZ 000000014009b374 f i libucrt:input.obj
 0001:0009a398       ??1?$scanset_storage@$01@__crt_stdio_input@@QEAA@XZ 000000014009b398 f i libucrt:input.obj
 0001:0009a3bc       ??4?$__crt_unique_heap_ptr@EU__crt_internal_free_policy@@@@QEAAAEAV0@$$QEAV0@@Z 000000014009b3bc f i libucrt:input.obj
 0001:0009a400       ??B?$__crt_unique_heap_ptr@EU__crt_internal_free_policy@@@@QEBA_NXZ 000000014009b400 f i libucrt:input.obj
 0001:0009a418       ??R<lambda_1232a416a9149be513dc40db5f8b835d>@@QEBA@XZ 000000014009b418 f i libucrt:input.obj
 0001:0009a4bc       ??R<lambda_156378f40168adef48d7ddfcff3a1264>@@QEBA@XZ 000000014009b4bc f i libucrt:input.obj
 0001:0009a560       ??R<lambda_1db4d925c2db10274e92824f631ccf5d>@@QEBA@XZ 000000014009b560 f i libucrt:input.obj
 0001:0009a5dc       ??R<lambda_283d5cd4935f5253d095a945c5771a1b>@@QEBA@XZ 000000014009b5dc f i libucrt:input.obj
 0001:0009a664       ??R<lambda_2869a9057330eafa474e853b0696fc23>@@QEBA@XZ 000000014009b664 f i libucrt:input.obj
 0001:0009a700       ??R<lambda_3fab6266ebbbb6a80db50646f7fd7b75>@@QEBA@XZ 000000014009b700 f i libucrt:input.obj
 0001:0009a79c       ??R<lambda_6c6d19daa7c7d45df7f17119b7c25976>@@QEBA@XZ 000000014009b79c f i libucrt:input.obj
 0001:0009a838       ??R<lambda_987679f592fad43c4bd3fe4c5bcc8c0e>@@QEBA@XZ 000000014009b838 f i libucrt:input.obj
 0001:0009a8d0       ??R<lambda_a9f975f7e8316be0241b8392d74a98d8>@@QEBA@XZ 000000014009b8d0 f i libucrt:input.obj
 0001:0009a958       ??R<lambda_ab71cf08e5e7ad30a15505f224e9f7a9>@@QEBA@XZ 000000014009b958 f i libucrt:input.obj
 0001:0009aae8       ??R<lambda_bdd123a27a08a14f93fbf44b617d0736>@@QEBA@XZ 000000014009bae8 f i libucrt:input.obj
 0001:0009ab70       ??R<lambda_ee7c83d9f0cd4f1299194e0a8d424b67>@@QEBA@XZ 000000014009bb70 f i libucrt:input.obj
 0001:0009acf8       ?advance@?$format_string_parser@D@__crt_stdio_input@@QEAA_NXZ 000000014009bcf8 f i libucrt:input.obj
 0001:0009af30       ?advance@?$format_string_parser@_W@__crt_stdio_input@@QEAA_NXZ 000000014009bf30 f i libucrt:input.obj
 0001:0009b128       ?characters_read@?$stream_input_adapter@D@__crt_stdio_input@@QEBA_KXZ 000000014009c128 f i libucrt:input.obj
 0001:0009b130       ?characters_read@?$stream_input_adapter@_W@__crt_stdio_input@@QEBA_KXZ 000000014009c130 f i libucrt:input.obj
 0001:0009b138       ?characters_read@?$string_input_adapter@D@__crt_stdio_input@@QEBA_KXZ 000000014009c138 f i libucrt:input.obj
 0001:0009b144       ?characters_read@?$string_input_adapter@_W@__crt_stdio_input@@QEBA_KXZ 000000014009c144 f i libucrt:input.obj
 0001:0009b154       ?data@?$scanset_storage@$00@__crt_stdio_input@@QEBAPEAEXZ 000000014009c154 f i libucrt:input.obj
 0001:0009b158       ?data@?$scanset_storage@$01@__crt_stdio_input@@QEBAPEAEXZ 000000014009c158 f i libucrt:input.obj
 0001:0009b1b0       ?error_code@?$format_string_parser@D@__crt_stdio_input@@QEBAHXZ 000000014009c1b0 f i libucrt:input.obj
 0001:0009b1b4       ?error_code@?$format_string_parser@_W@__crt_stdio_input@@QEBAHXZ 000000014009c1b4 f i libucrt:input.obj
 0001:0009b1b8       ?get@?$__crt_unique_heap_ptr@EU__crt_internal_free_policy@@@@QEBAPEAEXZ 000000014009c1b8 f i libucrt:input.obj
 0001:0009b1bc       ?get@?$input_adapter_character_source@V?$stream_input_adapter@D@__crt_stdio_input@@@__crt_strtox@@QEAADXZ 000000014009c1bc f i libucrt:input.obj
 0001:0009b208       ?get@?$input_adapter_character_source@V?$stream_input_adapter@_W@__crt_stdio_input@@@__crt_strtox@@QEAA_WXZ 000000014009c208 f i libucrt:input.obj
 0001:0009b268       ?get@?$input_adapter_character_source@V?$string_input_adapter@D@__crt_stdio_input@@@__crt_strtox@@QEAADXZ 000000014009c268 f i libucrt:input.obj
 0001:0009b2a8       ?get@?$input_adapter_character_source@V?$string_input_adapter@_W@__crt_stdio_input@@@__crt_strtox@@QEAA_WXZ 000000014009c2a8 f i libucrt:input.obj
 0001:0009b304       ?get@?$stream_input_adapter@D@__crt_stdio_input@@QEAAHXZ 000000014009c304 f i libucrt:input.obj
 0001:0009b32c       ?get@?$stream_input_adapter@_W@__crt_stdio_input@@QEAAGXZ 000000014009c32c f i libucrt:input.obj
 0001:0009b35c       ?get@?$string_input_adapter@D@__crt_stdio_input@@QEAAHXZ 000000014009c35c f i libucrt:input.obj
 0001:0009b380       ?get@?$string_input_adapter@_W@__crt_stdio_input@@QEAAGXZ 000000014009c380 f i libucrt:input.obj
 0001:0009b3a8       ?invert@?$scanset_buffer@E@__crt_stdio_input@@QEAAXXZ 000000014009c3a8 f i libucrt:input.obj
 0001:0009b3c0       ?invert@?$scanset_buffer@_W@__crt_stdio_input@@QEAAXXZ 000000014009c3c0 f i libucrt:input.obj
 0001:0009b430       ?is_character_allowed_in_string@?$input_processor@DV?$stream_input_adapter@D@__crt_stdio_input@@@__crt_stdio_input@@AEBA_NW4conversion_mode@2@H@Z 000000014009c430 f i libucrt:input.obj
 0001:0009b488       ?is_character_allowed_in_string@?$input_processor@DV?$string_input_adapter@D@__crt_stdio_input@@@__crt_stdio_input@@AEBA_NW4conversion_mode@2@H@Z 000000014009c488 f i libucrt:input.obj
 0001:0009b4e0       ?is_character_allowed_in_string@?$input_processor@_WV?$stream_input_adapter@_W@__crt_stdio_input@@@__crt_stdio_input@@AEBA_NW4conversion_mode@2@G@Z 000000014009c4e0 f i libucrt:input.obj
 0001:0009b53c       ?is_character_allowed_in_string@?$input_processor@_WV?$string_input_adapter@_W@__crt_stdio_input@@@__crt_stdio_input@@AEBA_NW4conversion_mode@2@G@Z 000000014009c53c f i libucrt:input.obj
 0001:0009b598       ?is_length_valid@__crt_stdio_input@@YA_NW4conversion_mode@1@W4length_modifier@1@@Z 000000014009c598 f i libucrt:input.obj
 0001:0009b5bc       ?is_usable@?$scanset_buffer@E@__crt_stdio_input@@QEAA_NXZ 000000014009c5bc f i libucrt:input.obj
 0001:0009b5c4       ?is_usable@?$scanset_buffer@_W@__crt_stdio_input@@QEAA_NXZ 000000014009c5c4 f i libucrt:input.obj
 0001:0009b620       ?is_valid@?$__crt_unique_heap_ptr@EU__crt_internal_free_policy@@@@QEBA_NXZ 000000014009c620 f i libucrt:input.obj
 0001:0009b62c       ?kind@?$format_string_parser@D@__crt_stdio_input@@QEBA?AW4format_directive_kind@2@XZ 000000014009c62c f i libucrt:input.obj
 0001:0009b630       ?kind@?$format_string_parser@_W@__crt_stdio_input@@QEBA?AW4format_directive_kind@2@XZ 000000014009c630 f i libucrt:input.obj
 0001:0009b634       ?length@?$format_string_parser@D@__crt_stdio_input@@QEBA_KXZ 000000014009c634 f i libucrt:input.obj
 0001:0009b71c       ?length@?$format_string_parser@_W@__crt_stdio_input@@QEBA_KXZ 000000014009c71c f i libucrt:input.obj
 0001:0009b804       ?literal_character_lead@?$format_string_parser@D@__crt_stdio_input@@QEBAEXZ 000000014009c804 f i libucrt:input.obj
 0001:0009b808       ?literal_character_lead@?$format_string_parser@_W@__crt_stdio_input@@QEBA_WXZ 000000014009c808 f i libucrt:input.obj
 0001:0009b810       ?literal_character_trail@?$format_string_parser@D@__crt_stdio_input@@QEBAEXZ 000000014009c810 f i libucrt:input.obj
 0001:0009b814       ?mode@?$format_string_parser@D@__crt_stdio_input@@QEBA?AW4conversion_mode@2@XZ 000000014009c814 f i libucrt:input.obj
 0001:0009b818       ?mode@?$format_string_parser@_W@__crt_stdio_input@@QEBA?AW4conversion_mode@2@XZ 000000014009c818 f i libucrt:input.obj
 0001:0009b81c       ?process@?$input_processor@DV?$stream_input_adapter@D@__crt_stdio_input@@@__crt_stdio_input@@QEAAHXZ 000000014009c81c f i libucrt:input.obj
 0001:0009b914       ?process@?$input_processor@DV?$string_input_adapter@D@__crt_stdio_input@@@__crt_stdio_input@@QEAAHXZ 000000014009c914 f i libucrt:input.obj
 0001:0009ba44       ?process@?$input_processor@_WV?$stream_input_adapter@_W@__crt_stdio_input@@@__crt_stdio_input@@QEAAHXZ 000000014009ca44 f i libucrt:input.obj
 0001:0009bb2c       ?process@?$input_processor@_WV?$string_input_adapter@_W@__crt_stdio_input@@@__crt_stdio_input@@QEAAHXZ 000000014009cb2c f i libucrt:input.obj
 0001:0009bc50       ?process_character_count_specifier@?$input_processor@DV?$stream_input_adapter@D@__crt_stdio_input@@@__crt_stdio_input@@AEAA_NXZ 000000014009cc50 f i libucrt:input.obj
 0001:0009bc68       ?process_character_count_specifier@?$input_processor@DV?$string_input_adapter@D@__crt_stdio_input@@@__crt_stdio_input@@AEAA_NXZ 000000014009cc68 f i libucrt:input.obj
 0001:0009bc84       ?process_character_count_specifier@?$input_processor@_WV?$stream_input_adapter@_W@__crt_stdio_input@@@__crt_stdio_input@@AEAA_NXZ 000000014009cc84 f i libucrt:input.obj
 0001:0009bc9c       ?process_character_count_specifier@?$input_processor@_WV?$string_input_adapter@_W@__crt_stdio_input@@@__crt_stdio_input@@AEAA_NXZ 000000014009cc9c f i libucrt:input.obj
 0001:0009bcbc       ?process_conversion_specifier@?$input_processor@DV?$stream_input_adapter@D@__crt_stdio_input@@@__crt_stdio_input@@AEAA_NXZ 000000014009ccbc f i libucrt:input.obj
 0001:0009be1c       ?process_conversion_specifier@?$input_processor@DV?$string_input_adapter@D@__crt_stdio_input@@@__crt_stdio_input@@AEAA_NXZ 000000014009ce1c f i libucrt:input.obj
 0001:0009bf84       ?process_conversion_specifier@?$input_processor@_WV?$stream_input_adapter@_W@__crt_stdio_input@@@__crt_stdio_input@@AEAA_NXZ 000000014009cf84 f i libucrt:input.obj
 0001:0009c0e4       ?process_conversion_specifier@?$input_processor@_WV?$string_input_adapter@_W@__crt_stdio_input@@@__crt_stdio_input@@AEAA_NXZ 000000014009d0e4 f i libucrt:input.obj
 0001:0009c250       ?process_floating_point_specifier@?$input_processor@DV?$stream_input_adapter@D@__crt_stdio_input@@@__crt_stdio_input@@AEAA_NXZ 000000014009d250 f i libucrt:input.obj
 0001:0009c2d0       ?process_floating_point_specifier@?$input_processor@DV?$string_input_adapter@D@__crt_stdio_input@@@__crt_stdio_input@@AEAA_NXZ 000000014009d2d0 f i libucrt:input.obj
 0001:0009c35c       ?process_floating_point_specifier@?$input_processor@_WV?$stream_input_adapter@_W@__crt_stdio_input@@@__crt_stdio_input@@AEAA_NXZ 000000014009d35c f i libucrt:input.obj
 0001:0009c3e0       ?process_floating_point_specifier@?$input_processor@_WV?$string_input_adapter@_W@__crt_stdio_input@@@__crt_stdio_input@@AEAA_NXZ 000000014009d3e0 f i libucrt:input.obj
 0001:0009c474       ?process_integer_specifier@?$input_processor@DV?$stream_input_adapter@D@__crt_stdio_input@@@__crt_stdio_input@@AEAA_NI_N@Z 000000014009d474 f i libucrt:input.obj
 0001:0009c54c       ?process_integer_specifier@?$input_processor@DV?$string_input_adapter@D@__crt_stdio_input@@@__crt_stdio_input@@AEAA_NI_N@Z 000000014009d54c f i libucrt:input.obj
 0001:0009c630       ?process_integer_specifier@?$input_processor@_WV?$stream_input_adapter@_W@__crt_stdio_input@@@__crt_stdio_input@@AEAA_NI_N@Z 000000014009d630 f i libucrt:input.obj
 0001:0009c710       ?process_integer_specifier@?$input_processor@_WV?$string_input_adapter@_W@__crt_stdio_input@@@__crt_stdio_input@@AEAA_NI_N@Z 000000014009d710 f i libucrt:input.obj
 0001:0009c7fc       ?process_literal_character@?$input_processor@DV?$stream_input_adapter@D@__crt_stdio_input@@@__crt_stdio_input@@AEAA_NXZ 000000014009d7fc f i libucrt:input.obj
 0001:0009c858       ?process_literal_character@?$input_processor@DV?$string_input_adapter@D@__crt_stdio_input@@@__crt_stdio_input@@AEAA_NXZ 000000014009d858 f i libucrt:input.obj
 0001:0009c890       ?process_literal_character@?$input_processor@_WV?$stream_input_adapter@_W@__crt_stdio_input@@@__crt_stdio_input@@AEAA_NXZ 000000014009d890 f i libucrt:input.obj
 0001:0009c8e4       ?process_literal_character@?$input_processor@_WV?$string_input_adapter@_W@__crt_stdio_input@@@__crt_stdio_input@@AEAA_NXZ 000000014009d8e4 f i libucrt:input.obj
 0001:0009c930       ?process_literal_character_tchar@?$input_processor@DV?$stream_input_adapter@D@__crt_stdio_input@@@__crt_stdio_input@@AEAA_ND@Z 000000014009d930 f i libucrt:input.obj
 0001:0009c9d8       ?process_literal_character_tchar@?$input_processor@DV?$string_input_adapter@D@__crt_stdio_input@@@__crt_stdio_input@@AEAA_ND@Z 000000014009d9d8 f i libucrt:input.obj
 0001:0009ca80       ?process_literal_character_tchar@?$input_processor@_WV?$stream_input_adapter@_W@__crt_stdio_input@@@__crt_stdio_input@@AEAA_N_W@Z 000000014009da80 f i libucrt:input.obj
 0001:0009ca84       ?process_literal_character_tchar@?$input_processor@_WV?$string_input_adapter@_W@__crt_stdio_input@@@__crt_stdio_input@@AEAA_N_W@Z 000000014009da84 f i libucrt:input.obj
 0001:0009ca88       ?process_state@?$input_processor@DV?$stream_input_adapter@D@__crt_stdio_input@@@__crt_stdio_input@@AEAA_NXZ 000000014009da88 f i libucrt:input.obj
 0001:0009cb60       ?process_state@?$input_processor@DV?$string_input_adapter@D@__crt_stdio_input@@@__crt_stdio_input@@AEAA_NXZ 000000014009db60 f i libucrt:input.obj
 0001:0009cc44       ?process_state@?$input_processor@_WV?$stream_input_adapter@_W@__crt_stdio_input@@@__crt_stdio_input@@AEAA_NXZ 000000014009dc44 f i libucrt:input.obj
 0001:0009cd2c       ?process_state@?$input_processor@_WV?$string_input_adapter@_W@__crt_stdio_input@@@__crt_stdio_input@@AEAA_NXZ 000000014009dd2c f i libucrt:input.obj
 0001:0009ce1c       ?process_string_specifier@?$input_processor@DV?$stream_input_adapter@D@__crt_stdio_input@@@__crt_stdio_input@@AEAA_NW4conversion_mode@2@@Z 000000014009de1c f i libucrt:input.obj
 0001:0009cebc       ?process_string_specifier@?$input_processor@DV?$string_input_adapter@D@__crt_stdio_input@@@__crt_stdio_input@@AEAA_NW4conversion_mode@2@@Z 000000014009debc f i libucrt:input.obj
 0001:0009cf68       ?process_string_specifier@?$input_processor@_WV?$stream_input_adapter@_W@__crt_stdio_input@@@__crt_stdio_input@@AEAA_NW4conversion_mode@2@@Z 000000014009df68 f i libucrt:input.obj
 0001:0009d010       ?process_string_specifier@?$input_processor@_WV?$string_input_adapter@_W@__crt_stdio_input@@@__crt_stdio_input@@AEAA_NW4conversion_mode@2@@Z 000000014009e010 f i libucrt:input.obj
 0001:0009d0c4       ?process_whitespace@?$input_processor@DV?$stream_input_adapter@D@__crt_stdio_input@@@__crt_stdio_input@@AEAA_NXZ 000000014009e0c4 f i libucrt:input.obj
 0001:0009d104       ?process_whitespace@?$input_processor@DV?$string_input_adapter@D@__crt_stdio_input@@@__crt_stdio_input@@AEAA_NXZ 000000014009e104 f i libucrt:input.obj
 0001:0009d150       ?process_whitespace@?$input_processor@_WV?$stream_input_adapter@_W@__crt_stdio_input@@@__crt_stdio_input@@AEAA_NXZ 000000014009e150 f i libucrt:input.obj
 0001:0009d194       ?process_whitespace@?$input_processor@_WV?$string_input_adapter@_W@__crt_stdio_input@@@__crt_stdio_input@@AEAA_NXZ 000000014009e194 f i libucrt:input.obj
 0001:0009d1e8       ?release@?$__crt_unique_heap_ptr@EU__crt_internal_free_policy@@@@QEAAXXZ 000000014009e1e8 f i libucrt:input.obj
 0001:0009d20c       ?reset@?$scanset_buffer@E@__crt_stdio_input@@QEAAXXZ 000000014009e20c f i libucrt:input.obj
 0001:0009d220       ?reset@?$scanset_buffer@_W@__crt_stdio_input@@QEAAXXZ 000000014009e220 f i libucrt:input.obj
 0001:0009d28c       ?reset_token_state@?$format_string_parser@D@__crt_stdio_input@@AEAAXXZ 000000014009e28c f i libucrt:input.obj
 0001:0009d2ac       ?reset_token_state@?$format_string_parser@_W@__crt_stdio_input@@AEAAXXZ 000000014009e2ac f i libucrt:input.obj
 0001:0009d2c8       ?reset_token_state_for_error@?$format_string_parser@D@__crt_stdio_input@@AEAAXH@Z 000000014009e2c8 f i libucrt:input.obj
 0001:0009d2ec       ?reset_token_state_for_error@?$format_string_parser@_W@__crt_stdio_input@@AEAAXH@Z 000000014009e2ec f i libucrt:input.obj
 0001:0009d30c       ?restore_state@?$input_adapter_character_source@V?$stream_input_adapter@D@__crt_stdio_input@@@__crt_strtox@@QEAA_N_K@Z 000000014009e30c f i libucrt:input.obj
 0001:0009d324       ?restore_state@?$input_adapter_character_source@V?$stream_input_adapter@_W@__crt_stdio_input@@@__crt_strtox@@QEAA_N_K@Z 000000014009e324 f i libucrt:input.obj
 0001:0009d33c       ?restore_state@?$input_adapter_character_source@V?$string_input_adapter@D@__crt_stdio_input@@@__crt_strtox@@QEAA_N_K@Z 000000014009e33c f i libucrt:input.obj
 0001:0009d354       ?restore_state@?$input_adapter_character_source@V?$string_input_adapter@_W@__crt_stdio_input@@@__crt_strtox@@QEAA_N_K@Z 000000014009e354 f i libucrt:input.obj
 0001:0009d36c       ?save_state@?$input_adapter_character_source@V?$stream_input_adapter@D@__crt_stdio_input@@@__crt_strtox@@QEBA_KXZ 000000014009e36c f i libucrt:input.obj
 0001:0009d374       ?save_state@?$input_adapter_character_source@V?$stream_input_adapter@_W@__crt_stdio_input@@@__crt_strtox@@QEBA_KXZ 000000014009e374 f i libucrt:input.obj
 0001:0009d37c       ?save_state@?$input_adapter_character_source@V?$string_input_adapter@D@__crt_stdio_input@@@__crt_strtox@@QEBA_KXZ 000000014009e37c f i libucrt:input.obj
 0001:0009d384       ?save_state@?$input_adapter_character_source@V?$string_input_adapter@_W@__crt_stdio_input@@@__crt_strtox@@QEBA_KXZ 000000014009e384 f i libucrt:input.obj
 0001:0009d38c       ?scan_conversion_specifier@?$format_string_parser@D@__crt_stdio_input@@AEAA_NXZ 000000014009e38c f i libucrt:input.obj
 0001:0009d5c4       ?scan_conversion_specifier@?$format_string_parser@_W@__crt_stdio_input@@AEAA_NXZ 000000014009e5c4 f i libucrt:input.obj
 0001:0009d7fc       ?scan_optional_assignment_suppressor@?$format_string_parser@D@__crt_stdio_input@@AEAAXXZ 000000014009e7fc f i libucrt:input.obj
 0001:0009d818       ?scan_optional_assignment_suppressor@?$format_string_parser@_W@__crt_stdio_input@@AEAAXXZ 000000014009e818 f i libucrt:input.obj
 0001:0009d834       ?scan_optional_field_width@?$format_string_parser@D@__crt_stdio_input@@AEAA_NXZ 000000014009e834 f i libucrt:input.obj
 0001:0009d8fc       ?scan_optional_field_width@?$format_string_parser@_W@__crt_stdio_input@@AEAA_NXZ 000000014009e8fc f i libucrt:input.obj
 0001:0009dbe0       ?scan_optional_length_modifier@?$format_string_parser@D@__crt_stdio_input@@AEAAXXZ 000000014009ebe0 f i libucrt:input.obj
 0001:0009dd54       ?scan_optional_length_modifier@?$format_string_parser@_W@__crt_stdio_input@@AEAAXXZ 000000014009ed54 f i libucrt:input.obj
 0001:0009dee8       ?scan_optional_literal_character_trail_bytes_tchar@?$format_string_parser@D@__crt_stdio_input@@AEAA_ND@Z 000000014009eee8 f i libucrt:input.obj
 0001:0009df5c       ?scan_optional_literal_character_trail_bytes_tchar@?$format_string_parser@_W@__crt_stdio_input@@AEAA_N_W@Z 000000014009ef5c f i libucrt:input.obj
 0001:0009df60       ?scan_optional_wide_modifier@?$format_string_parser@D@__crt_stdio_input@@AEAAXXZ 000000014009ef60 f i libucrt:input.obj
 0001:0009df88       ?scan_optional_wide_modifier@?$format_string_parser@_W@__crt_stdio_input@@AEAAXXZ 000000014009ef88 f i libucrt:input.obj
 0001:0009dfd0       ?scan_scanset_range@?$format_string_parser@D@__crt_stdio_input@@AEAA_NXZ 000000014009efd0 f i libucrt:input.obj
 0001:0009e1cc       ?scan_scanset_range@?$format_string_parser@_W@__crt_stdio_input@@AEAA_NXZ 000000014009f1cc f i libucrt:input.obj
 0001:0009e468       ?scanset@?$format_string_parser@D@__crt_stdio_input@@QEBAAEBV?$scanset_buffer@E@2@XZ 000000014009f468 f i libucrt:input.obj
 0001:0009e470       ?scanset@?$format_string_parser@_W@__crt_stdio_input@@QEBAAEBV?$scanset_buffer@_W@2@XZ 000000014009f470 f i libucrt:input.obj
 0001:0009e478       ?secure_buffers@?$input_processor@DV?$stream_input_adapter@D@__crt_stdio_input@@@__crt_stdio_input@@AEBA_NXZ 000000014009f478 f i libucrt:input.obj
 0001:0009e480       ?secure_buffers@?$input_processor@DV?$string_input_adapter@D@__crt_stdio_input@@@__crt_stdio_input@@AEBA_NXZ 000000014009f480 f i libucrt:input.obj
 0001:0009e488       ?secure_buffers@?$input_processor@_WV?$stream_input_adapter@_W@__crt_stdio_input@@@__crt_stdio_input@@AEBA_NXZ 000000014009f488 f i libucrt:input.obj
 0001:0009e490       ?secure_buffers@?$input_processor@_WV?$string_input_adapter@_W@__crt_stdio_input@@@__crt_stdio_input@@AEBA_NXZ 000000014009f490 f i libucrt:input.obj
 0001:0009e498       ?set@?$scanset_buffer@E@__crt_stdio_input@@QEAAXE@Z 000000014009f498 f i libucrt:input.obj
 0001:0009e4bc       ?set@?$scanset_buffer@_W@__crt_stdio_input@@QEAAX_W@Z 000000014009f4bc f i libucrt:input.obj
 0001:0009e540       ?set_wide_for_c_s_or_scanset@?$format_string_parser@D@__crt_stdio_input@@AEAAXXZ 000000014009f540 f i libucrt:input.obj
 0001:0009e56c       ?set_wide_for_c_s_or_scanset@?$format_string_parser@_W@__crt_stdio_input@@AEAAXXZ 000000014009f56c f i libucrt:input.obj
 0001:0009e598       ?should_default_to_wide@?$format_string_parser@D@__crt_stdio_input@@AEAA_NE@Z 000000014009f598 f i libucrt:input.obj
 0001:0009e5a4       ?should_default_to_wide@?$format_string_parser@_W@__crt_stdio_input@@AEAA_N_W@Z 000000014009f5a4 f i libucrt:input.obj
 0001:0009e5d0       ?size@?$scanset_storage@$00@__crt_stdio_input@@QEBA_KXZ 000000014009f5d0 f i libucrt:input.obj
 0001:0009e5d8       ?size@?$scanset_storage@$01@__crt_stdio_input@@QEBA_KXZ 000000014009f5d8 f i libucrt:input.obj
 0001:0009e5e0       ?suppress_assignment@?$format_string_parser@D@__crt_stdio_input@@QEBA_NXZ 000000014009f5e0 f i libucrt:input.obj
 0001:0009e5e4       ?suppress_assignment@?$format_string_parser@_W@__crt_stdio_input@@QEBA_NXZ 000000014009f5e4 f i libucrt:input.obj
 0001:0009e5e8       ?test@?$scanset_buffer@E@__crt_stdio_input@@QEBA_NE@Z 000000014009f5e8 f i libucrt:input.obj
 0001:0009e614       ?test@?$scanset_buffer@_W@__crt_stdio_input@@QEBA_N_W@Z 000000014009f614 f i libucrt:input.obj
 0001:0009e6a4       ?to_floating_point_length@__crt_stdio_input@@YA_KW4length_modifier@1@@Z 000000014009f6a4 f i libucrt:input.obj
 0001:0009e6c8       ?to_integer_length@__crt_stdio_input@@YA_KW4length_modifier@1@@Z 000000014009f6c8 f i libucrt:input.obj
 0001:0009e724       ?unget@?$input_adapter_character_source@V?$stream_input_adapter@D@__crt_stdio_input@@@__crt_strtox@@QEAAXD@Z 000000014009f724 f i libucrt:input.obj
 0001:0009e77c       ?unget@?$input_adapter_character_source@V?$stream_input_adapter@_W@__crt_stdio_input@@@__crt_strtox@@QEAAX_W@Z 000000014009f77c f i libucrt:input.obj
 0001:0009e7d4       ?unget@?$input_adapter_character_source@V?$string_input_adapter@D@__crt_stdio_input@@@__crt_strtox@@QEAAXD@Z 000000014009f7d4 f i libucrt:input.obj
 0001:0009e814       ?unget@?$input_adapter_character_source@V?$string_input_adapter@_W@__crt_stdio_input@@@__crt_strtox@@QEAAX_W@Z 000000014009f814 f i libucrt:input.obj
 0001:0009e85c       ?unget@?$stream_input_adapter@D@__crt_stdio_input@@QEAAXH@Z 000000014009f85c f i libucrt:input.obj
 0001:0009e884       ?unget@?$stream_input_adapter@_W@__crt_stdio_input@@QEAAXG@Z 000000014009f884 f i libucrt:input.obj
 0001:0009e8b4       ?unget@?$string_input_adapter@D@__crt_stdio_input@@QEAAXH@Z 000000014009f8b4 f i libucrt:input.obj
 0001:0009e8d8       ?unget@?$string_input_adapter@_W@__crt_stdio_input@@QEAAXG@Z 000000014009f8d8 f i libucrt:input.obj
 0001:0009e908       ?validate@?$format_string_parser@D@__crt_stdio_input@@QEBA_NXZ 000000014009f908 f i libucrt:input.obj
 0001:0009e938       ?validate@?$format_string_parser@_W@__crt_stdio_input@@QEBA_NXZ 000000014009f938 f i libucrt:input.obj
 0001:0009e968       ?validate@?$input_adapter_character_source@V?$stream_input_adapter@D@__crt_stdio_input@@@__crt_strtox@@QEBA_NXZ 000000014009f968 f i libucrt:input.obj
 0001:0009e9a0       ?validate@?$input_adapter_character_source@V?$stream_input_adapter@_W@__crt_stdio_input@@@__crt_strtox@@QEBA_NXZ 000000014009f9a0 f i libucrt:input.obj
 0001:0009e9d8       ?validate@?$input_adapter_character_source@V?$string_input_adapter@D@__crt_stdio_input@@@__crt_strtox@@QEBA_NXZ 000000014009f9d8 f i libucrt:input.obj
 0001:0009ea10       ?validate@?$input_adapter_character_source@V?$string_input_adapter@_W@__crt_stdio_input@@@__crt_strtox@@QEBA_NXZ 000000014009fa10 f i libucrt:input.obj
 0001:0009ea48       ?validate@?$stream_input_adapter@D@__crt_stdio_input@@QEBA_NXZ 000000014009fa48 f i libucrt:input.obj
 0001:0009ea80       ?validate@?$stream_input_adapter@_W@__crt_stdio_input@@QEBA_NXZ 000000014009fa80 f i libucrt:input.obj
 0001:0009eab0       ?validate@?$string_input_adapter@D@__crt_stdio_input@@QEAA_NXZ 000000014009fab0 f i libucrt:input.obj
 0001:0009eaec       ?validate@?$string_input_adapter@_W@__crt_stdio_input@@QEAA_NXZ 000000014009faec f i libucrt:input.obj
 0001:0009eb28       ?width@?$format_string_parser@D@__crt_stdio_input@@QEBA_KXZ 000000014009fb28 f i libucrt:input.obj
 0001:0009eb30       ?width@?$format_string_parser@_W@__crt_stdio_input@@QEBA_KXZ 000000014009fb30 f i libucrt:input.obj
 0001:0009eb38       ?write_character@?$input_processor@DV?$stream_input_adapter@D@__crt_stdio_input@@@__crt_stdio_input@@AEAA_NQEAD_KAEAPEADAEA_KD@Z 000000014009fb38 f i libucrt:input.obj
 0001:0009eb54       ?write_character@?$input_processor@DV?$stream_input_adapter@D@__crt_stdio_input@@@__crt_stdio_input@@AEAA_NQEFA_W_KAEAPEFA_WAEA_KD@Z 000000014009fb54 f i libucrt:input.obj
 0001:0009ec0c       ?write_character@?$input_processor@DV?$string_input_adapter@D@__crt_stdio_input@@@__crt_stdio_input@@AEAA_NQEAD_KAEAPEADAEA_KD@Z 000000014009fc0c f i libucrt:input.obj
 0001:0009ec28       ?write_character@?$input_processor@DV?$string_input_adapter@D@__crt_stdio_input@@@__crt_stdio_input@@AEAA_NQEFA_W_KAEAPEFA_WAEA_KD@Z 000000014009fc28 f i libucrt:input.obj
 0001:0009ece4       ?write_character@?$input_processor@_WV?$stream_input_adapter@_W@__crt_stdio_input@@@__crt_stdio_input@@AEAA_NQEAD_KAEAPEADAEA_K_W@Z 000000014009fce4 f i libucrt:input.obj
 0001:0009edb8       ?write_character@?$input_processor@_WV?$stream_input_adapter@_W@__crt_stdio_input@@@__crt_stdio_input@@AEAA_NQEFA_W_KAEAPEFA_WAEA_K_W@Z 000000014009fdb8 f i libucrt:input.obj
 0001:0009edd8       ?write_character@?$input_processor@_WV?$string_input_adapter@_W@__crt_stdio_input@@@__crt_stdio_input@@AEAA_NQEAD_KAEAPEADAEA_K_W@Z 000000014009fdd8 f i libucrt:input.obj
 0001:0009eeac       ?write_character@?$input_processor@_WV?$string_input_adapter@_W@__crt_stdio_input@@@__crt_stdio_input@@AEAA_NQEFA_W_KAEAPEFA_WAEA_K_W@Z 000000014009feac f i libucrt:input.obj
 0001:0009eecc       ?write_integer@?$input_processor@DV?$stream_input_adapter@D@__crt_stdio_input@@@__crt_stdio_input@@AEAA_N_K@Z 000000014009fecc f i libucrt:input.obj
 0001:0009ef60       ?write_integer@?$input_processor@DV?$string_input_adapter@D@__crt_stdio_input@@@__crt_stdio_input@@AEAA_N_K@Z 000000014009ff60 f i libucrt:input.obj
 0001:0009eff8       ?write_integer@?$input_processor@_WV?$stream_input_adapter@_W@__crt_stdio_input@@@__crt_stdio_input@@AEAA_N_K@Z 000000014009fff8 f i libucrt:input.obj
 0001:0009f08c       ?write_integer@?$input_processor@_WV?$string_input_adapter@_W@__crt_stdio_input@@@__crt_stdio_input@@AEAA_N_K@Z 00000001400a008c f i libucrt:input.obj
 0001:0009f120       __stdio_common_vfscanf     00000001400a0120 f   libucrt:input.obj
 0001:0009f1d0       __stdio_common_vfwscanf    00000001400a01d0 f   libucrt:input.obj
 0001:0009f280       __stdio_common_vsscanf     00000001400a0280 f   libucrt:input.obj
 0001:0009f3f0       __stdio_common_vswscanf    00000001400a03f0 f   libucrt:input.obj
 0001:0009f54c       _invoke_watson_if_oneof    00000001400a054c f i libucrt:input.obj
 0001:0009f8f4       ??$open_file@AEBQEBDAEBQEBDAEBHPEAU_iobuf@@@?$__crt_char_traits@D@@SAPEAU_iobuf@@AEBQEBD0AEBH$$QEAPEAU1@@Z 00000001400a08f4 f i libucrt:fopen.obj
 0001:0009f90c       ??$open_file@AEBQEB_WAEBQEB_WAEBHPEAU_iobuf@@@?$__crt_char_traits@_W@@SAPEAU_iobuf@@AEBQEB_W0AEBH$$QEAPEAU1@@Z 00000001400a090c f i libucrt:fopen.obj
 0001:0009f924       ?unlock@__crt_stdio_stream@@QEBAXXZ 00000001400a0924 f i libucrt:fopen.obj
 0001:0009f930       _fsopen                    00000001400a0930 f   libucrt:fopen.obj
 0001:0009f938       _wfopen                    00000001400a0938 f   libucrt:fopen.obj
 0001:0009f948       _wfopen_s                  00000001400a0948 f   libucrt:fopen.obj
 0001:0009f9b8       _wfsopen                   00000001400a09b8 f   libucrt:fopen.obj
 0001:0009f9c0       fopen                      00000001400a09c0 f   libucrt:fopen.obj
 0001:0009f9d0       fopen_s                    00000001400a09d0 f   libucrt:fopen.obj
 0001:0009fba8       ?is_in_use@__crt_stdio_stream@@QEBA_NXZ 00000001400a0ba8 f i libucrt:fclose.obj
 0001:0009fbb8       _fclose_nolock             00000001400a0bb8 f   libucrt:fclose.obj
 0001:0009fc78       fclose                     00000001400a0c78 f   libucrt:fclose.obj
 0001:0009fd38       ?eof@__crt_stdio_stream@@QEBA_NXZ 00000001400a0d38 f i libucrt:feoferr.obj
 0001:0009fd48       ?error@__crt_stdio_stream@@QEBA_NXZ 00000001400a0d48 f i libucrt:feoferr.obj
 0001:0009fd58       ?has_any_of@__crt_stdio_stream@@QEBA_NJ@Z 00000001400a0d58 f i libucrt:feoferr.obj
 0001:0009fd68       feof                       00000001400a0d68 f   libucrt:feoferr.obj
 0001:0009fda0       ferror                     00000001400a0da0 f   libucrt:feoferr.obj
 0001:0009fdd8       ?__acrt_stdio_reset_buffer@@YAXV__crt_stdio_stream@@@Z 00000001400a0dd8 f i libucrt:fread.obj
 0001:0009fde8       ?has_any_buffer@__crt_stdio_stream@@QEBA_NXZ 00000001400a0de8 f i libucrt:fread.obj
 0001:0009fe00       ?set_flags@__crt_stdio_stream@@QEBA_NJ@Z 00000001400a0e00 f i libucrt:fread.obj
 0001:0009fe28       _fread_nolock              00000001400a0e28 f   libucrt:fread.obj
 0001:0009fe4c       _fread_nolock_s            00000001400a0e4c f   libucrt:fread.obj
 0001:000a0144       fread                      00000001400a1144 f   libucrt:fread.obj
 0001:000a0168       fread_s                    00000001400a1168 f   libucrt:fread.obj
 0001:000a02e0       ?LongLongSub@@YAJ_J0PEA_J@Z 00000001400a12e0 f i libucrt:fseek.obj
 0001:000a0624       ?has_all_of@__crt_stdio_stream@@QEBA_NJ@Z 00000001400a1624 f i libucrt:fseek.obj
 0001:000a0638       ?lowio_handle@__crt_stdio_stream@@QEBAHXZ 00000001400a1638 f i libucrt:fseek.obj
 0001:000a0644       ?unset_flags@__crt_stdio_stream@@QEBA_NJ@Z 00000001400a1644 f i libucrt:fseek.obj
 0001:000a0674       _fseek_nolock              00000001400a1674 f   libucrt:fseek.obj
 0001:000a0738       _fseeki64                  00000001400a1738 f   libucrt:fseek.obj
 0001:000a07f8       _fseeki64_nolock           00000001400a17f8 f   libucrt:fseek.obj
 0001:000a08b8       fseek                      00000001400a18b8 f   libucrt:fseek.obj
 0001:000a10f8       ?ctrl_z@__crt_stdio_stream@@QEBA_NXZ 00000001400a20f8 f i libucrt:ftell.obj
 0001:000a1108       ?has_big_buffer@__crt_stdio_stream@@QEBA_NXZ 00000001400a2108 f i libucrt:ftell.obj
 0001:000a111c       ?has_crt_buffer@__crt_stdio_stream@@QEBA_NXZ 00000001400a211c f i libucrt:ftell.obj
 0001:000a112c       ?has_setvbuf_buffer@__crt_stdio_stream@@QEBA_NXZ 00000001400a212c f i libucrt:ftell.obj
 0001:000a113c       _ftell_nolock              00000001400a213c f   libucrt:ftell.obj
 0001:000a1218       _ftelli64                  00000001400a2218 f   libucrt:ftell.obj
 0001:000a12d8       _ftelli64_nolock           00000001400a22d8 f   libucrt:ftell.obj
 0001:000a1398       _ftelli64_nolock_internal  00000001400a2398 f   libucrt:ftell.obj
 0001:000a13a0       _utf8_no_of_trailbytes     00000001400a23a0 f i libucrt:ftell.obj
 0001:000a13b4       ftell                      00000001400a23b4 f   libucrt:ftell.obj
 0001:000a1474       labs                       00000001400a2474 f   libucrt:labs.obj
 0001:000a1480       ??$?R_W@__crt_internal_free_policy@@QEBAXQEB_W@Z 00000001400a2480 f i libucrt:system.obj
 0001:000a17dc       ??$taccess_s@PEADH@?$__crt_char_traits@D@@SAH$$QEAPEAD$$QEAH@Z 00000001400a27dc f i libucrt:system.obj
 0001:000a17e8       ??$taccess_s@PEA_WH@?$__crt_char_traits@_W@@SAH$$QEAPEA_W$$QEAH@Z 00000001400a27e8 f i libucrt:system.obj
 0001:000a17f4       ??$tdupenv_s_crt@PEAPEAD$$TAEAY07$$CBD@?$__crt_char_traits@D@@SAH$$QEAPEAPEAD$$QEA$$TAEAY07$$CBD@Z 00000001400a27f4 f i libucrt:system.obj
 0001:000a1804       ??$tdupenv_s_crt@PEAPEA_W$$TAEAY07$$CB_W@?$__crt_char_traits@_W@@SAH$$QEAPEAPEA_W$$QEA$$TAEAY07$$CB_W@Z 00000001400a2804 f i libucrt:system.obj
 0001:000a1814       ??$tspawnve@HAEAPEBDAEAY03PEBD$$T@?$__crt_char_traits@D@@SA_J$$QEAHAEAPEBDAEAY03PEBD$$QEA$$T@Z 00000001400a2814 f i libucrt:system.obj
 0001:000a1824       ??$tspawnve@HAEAPEB_WAEAY03PEB_W$$T@?$__crt_char_traits@_W@@SA_J$$QEAHAEAPEB_WAEAY03PEB_W$$QEA$$T@Z 00000001400a2824 f i libucrt:system.obj
 0001:000a1834       ??$tspawnvpe@HAEAPEBDAEAY03PEBD$$T@?$__crt_char_traits@D@@SA_J$$QEAHAEAPEBDAEAY03PEBD$$QEA$$T@Z 00000001400a2834 f i libucrt:system.obj
 0001:000a1844       ??$tspawnvpe@HAEAPEB_WAEAY03PEB_W$$T@?$__crt_char_traits@_W@@SA_J$$QEAHAEAPEB_WAEAY03PEB_W$$QEA$$T@Z 00000001400a2844 f i libucrt:system.obj
 0001:000a1854       ??0?$__crt_unique_heap_ptr@_WU__crt_internal_free_policy@@@@QEAA@QEA_W@Z 00000001400a2854 f i libucrt:system.obj
 0001:000a185c       ??1?$__crt_unique_heap_ptr@_WU__crt_internal_free_policy@@@@QEAA@XZ 00000001400a285c f i libucrt:system.obj
 0001:000a1880       ??B?$__crt_unique_heap_ptr@_WU__crt_internal_free_policy@@@@QEBA_NXZ 00000001400a2880 f i libucrt:system.obj
 0001:000a188c       ?get@?$__crt_unique_heap_ptr@_WU__crt_internal_free_policy@@@@QEBAPEA_WXZ 00000001400a288c f i libucrt:system.obj
 0001:000a1890       ?get_address_of@?$__crt_unique_heap_ptr@DU__crt_internal_free_policy@@@@QEAAPEAPEADXZ 00000001400a2890 f i libucrt:system.obj
 0001:000a1894       ?get_address_of@?$__crt_unique_heap_ptr@_WU__crt_internal_free_policy@@@@QEAAPEAPEA_WXZ 00000001400a2894 f i libucrt:system.obj
 0001:000a1898       ?is_valid@?$__crt_unique_heap_ptr@_WU__crt_internal_free_policy@@@@QEBA_NXZ 00000001400a2898 f i libucrt:system.obj
 0001:000a18a4       ?release@?$__crt_unique_heap_ptr@_WU__crt_internal_free_policy@@@@QEAAXXZ 00000001400a28a4 f i libucrt:system.obj
 0001:000a18c8       _wsystem                   00000001400a28c8 f   libucrt:system.obj
 0001:000a1a60       system                     00000001400a2a60 f   libucrt:system.obj
 0001:000a1e74       _wfreopen                  00000001400a2e74 f   libucrt:freopen.obj
 0001:000a1eb0       _wfreopen_s                00000001400a2eb0 f   libucrt:freopen.obj
 0001:000a1ecc       freopen                    00000001400a2ecc f   libucrt:freopen.obj
 0001:000a1f08       freopen_s                  00000001400a2f08 f   libucrt:freopen.obj
 0001:000a220c       ?detach@?$__crt_unique_heap_ptr@DU__crt_internal_free_policy@@@@QEAAPEADXZ 00000001400a320c f i libucrt:setvbuf.obj
 0001:000a2234       setvbuf                    00000001400a3234 f   libucrt:setvbuf.obj
 0001:000a23b8       ??$__acrt_convert_wcs_mbs_cp@D_WV<lambda_7c9dea7b4ca7285d2cdb541a38da6275>@@U__crt_win32_buffer_internal_dynamic_resizing@@@@YAHQEBDAEAV?$__crt_win32_buffer@_WU__crt_win32_buffer_internal_dynamic_resizing@@@@AEBV<lambda_7c9dea7b4ca7285d2cdb541a38da6275>@@I@Z 00000001400a33b8 f i libucrt:unlink.obj
 0001:000a2590       ??$__acrt_mbs_to_wcs_cp@U__crt_win32_buffer_internal_dynamic_resizing@@@@YAHQEBDAEAV?$__crt_win32_buffer@_WU__crt_win32_buffer_internal_dynamic_resizing@@@@I@Z 00000001400a3590 f i libucrt:unlink.obj
 0001:000a25a0       ??0?$__crt_win32_buffer@_WU__crt_win32_buffer_internal_dynamic_resizing@@@@QEAA@XZ 00000001400a35a0 f i libucrt:unlink.obj
 0001:000a25c4       ??1?$__crt_win32_buffer@_WU__crt_win32_buffer_internal_dynamic_resizing@@@@QEAA@XZ 00000001400a35c4 f i libucrt:unlink.obj
 0001:000a25f0       ??R<lambda_7c9dea7b4ca7285d2cdb541a38da6275>@@QEBA@IQEBDQEA_W_K@Z 00000001400a35f0 f i libucrt:unlink.obj
 0001:000a2620       ?__acrt_get_utf8_acp_compatibility_codepage@@YAIXZ 00000001400a3620 f i libucrt:unlink.obj
 0001:000a267c       ?_deallocate@?$__crt_win32_buffer@_WU__crt_win32_buffer_internal_dynamic_resizing@@@@AEAAXXZ 00000001400a367c f i libucrt:unlink.obj
 0001:000a26a8       ?allocate@?$__crt_win32_buffer@_WU__crt_win32_buffer_internal_dynamic_resizing@@@@QEAAH_K@Z 00000001400a36a8 f i libucrt:unlink.obj
 0001:000a2724       ?allocate@__crt_win32_buffer_internal_dynamic_resizing@@SAHQEAPEAX_KAEBV__crt_win32_buffer_empty_debug_info@@@Z 00000001400a3724 f i libucrt:unlink.obj
 0001:000a2754       ?capacity@?$__crt_win32_buffer@_WU__crt_win32_buffer_internal_dynamic_resizing@@@@QEBA_KXZ 00000001400a3754 f i libucrt:unlink.obj
 0001:000a275c       ?data@?$__crt_win32_buffer@_WU__crt_win32_buffer_internal_dynamic_resizing@@@@QEAAPEA_WXZ 00000001400a375c f i libucrt:unlink.obj
 0001:000a2764       ?deallocate@__crt_win32_buffer_internal_dynamic_resizing@@SAXQEAXAEBV__crt_win32_buffer_empty_debug_info@@@Z 00000001400a3764 f i libucrt:unlink.obj
