 sizer

 Timestamp is 674c1008 (Sun Dec  1 12:58:08 2024)

 Preferred load address is 0000000140000000

 Start         Length     Name                   Class
 0001:00000000 0009d710H .text$mn                CODE
 0001:0009d710 00001040H .text$mn$00             CODE
 0001:0009e750 00001f40H .text$mn$21             CODE
 0001:000a0690 00001d35H .text$x                 CODE
 0002:00000000 00000110H .CRT$XCA                DATA
 0002:00000110 00000110H .CRT$XCAA               DATA
 0002:00000220 00000110H .CRT$XCZ                DATA
 0002:00000330 00000110H .CRT$XIA                DATA
 0002:00000440 00000110H .CRT$XIAA               DATA
 0002:00000550 00000110H .CRT$XIAC               DATA
 0002:00000660 00000158H .CRT$XIC                DATA
 0002:000007b8 00000110H .CRT$XIZ                DATA
 0002:000008c8 00000110H .CRT$XPA                DATA
 0002:000009d8 00000120H .CRT$XPX                DATA
 0002:00000af8 00000110H .CRT$XPXA               DATA
 0002:00000c08 00000110H .CRT$XPZ                DATA
 0002:00000d18 00000110H .CRT$XTA                DATA
 0002:00000e28 00000118H .CRT$XTZ                DATA
 0002:00000f40 0000e850H .rdata                  DATA
 0002:0000f790 000002f0H .rdata$00               DATA
 0002:0000fa80 00000200H .rdata$CastGuardVftablesA DATA
 0002:0000fc80 000001a0H .rdata$CastGuardVftablesC DATA
 0002:0000fe20 00000c30H .rdata$r                DATA
 0002:00010a50 00000188H .rdata$zzzdbg           DATA
 0002:00010bd8 00000110H .rtc$IAA                DATA
 0002:00010ce8 00000110H .rtc$IZZ                DATA
 0002:00010df8 00000110H .rtc$TAA                DATA
 0002:00010f08 00000110H .rtc$TZZ                DATA
 0002:00011018 00008928H .xdata                  DATA
 0002:00019940 000005bdH .xdata$x                DATA
 0002:00019efd 00000000H .edata                  DATA
 0003:00000000 00001288H .data                   DATA
 0003:00001288 00000370H .data$r                 DATA
 0003:000015f8 00000228H .data$rs                DATA
 0003:00001820 00002051H .bss                    DATA
 0004:00000000 00006d74H .pdata                  DATA
 0005:00000000 000004a8H .idata$5                DATA
 0005:000004a8 0000003cH .idata$2                DATA
 0005:000004e4 00000014H .idata$3                DATA
 0005:000004f8 000004a8H .idata$4                DATA
 0005:000009a0 000008beH .idata$6                DATA
 0006:00000000 00000175H .00cfg                  DATA
 0007:00000000 00000170H .rsrc$01                DATA
 0007:00000170 000002ccH .rsrc$02                DATA

  Address         Publics by Value              Rva+Base               Lib:Object

 0000:00000000       __AbsoluteZero             0000000000000000     <absolute>
 0000:00000000       ___safe_se_handler_count   0000000000000000     <absolute>
 0000:00000000       ___safe_se_handler_table   0000000000000000     <absolute>
 0000:00000000       __arm64x_extra_rfe_table   0000000000000000     <absolute>
 0000:00000000       __arm64x_extra_rfe_table_size 0000000000000000     <absolute>
 0000:00000000       __arm64x_native_entrypoint 0000000000000000     <absolute>
 0000:00000000       __arm64x_redirection_metadata 0000000000000000     <absolute>
 0000:00000000       __arm64x_redirection_metadata_count 0000000000000000     <absolute>
 0000:00000000       __dynamic_value_reloc_table 0000000000000000     <absolute>
 0000:00000000       __enclave_config           0000000000000000     <absolute>
 0000:00000000       __guard_check_icall_a64n_fptr 0000000000000000     <absolute>
 0000:00000000       __guard_eh_cont_count      0000000000000000     <absolute>
 0000:00000000       __guard_eh_cont_table      0000000000000000     <absolute>
 0000:00000000       __guard_fids_count         0000000000000000     <absolute>
 0000:00000000       __guard_fids_table         0000000000000000     <absolute>
 0000:00000000       __guard_iat_count          0000000000000000     <absolute>
 0000:00000000       __guard_iat_table          0000000000000000     <absolute>
 0000:00000000       __guard_longjmp_count      0000000000000000     <absolute>
 0000:00000000       __guard_longjmp_table      0000000000000000     <absolute>
 0000:00000000       __hybrid_auxiliary_delayload_iat 0000000000000000     <absolute>
 0000:00000000       __hybrid_auxiliary_delayload_iat_copy 0000000000000000     <absolute>
 0000:00000000       __hybrid_auxiliary_iat     0000000000000000     <absolute>
 0000:00000000       __hybrid_auxiliary_iat_copy 0000000000000000     <absolute>
 0000:00000000       __hybrid_code_map          0000000000000000     <absolute>
 0000:00000000       __hybrid_code_map_count    0000000000000000     <absolute>
 0000:00000000       __hybrid_image_info_bitfield 0000000000000000     <absolute>
 0000:00000000       __volatile_metadata        0000000000000000     <absolute>
 0000:00000000       __x64_code_ranges_to_entry_points 0000000000000000     <absolute>
 0000:00000000       __x64_code_ranges_to_entry_points_count 0000000000000000     <absolute>
 0000:00000100       __guard_flags              0000000000000100     <absolute>
 0000:00000000       __ImageBase                0000000140000000     <linker-defined>
 0001:00008080       ?_uploadDebugReport@@YAXPEBD_N1@Z 0000000140009080 f   CrashHandlerNoOp.obj
 0001:000080c0       ??_H@YAXPEAX_K1P6APEAX0@Z@Z 00000001400090c0 f i CrashHandlerNoOp.obj
 0001:00008140       ?__empty_global_delete@@YAXPEAX@Z 0000000140009140 f i CrashHandlerNoOp.obj
 0001:00008150       ?__empty_global_delete@@YAXPEAXW4align_val_t@std@@@Z 0000000140009150 f i CrashHandlerNoOp.obj
 0001:00008160       ?__empty_global_delete@@YAXPEAX_K@Z 0000000140009160 f i CrashHandlerNoOp.obj
 0001:00008170       ?__empty_global_delete@@YAXPEAX_KW4align_val_t@std@@@Z 0000000140009170 f i CrashHandlerNoOp.obj
 0001:00008190       ?CountSizeInClass@DebugInfo@@AEBAIH@Z 0000000140009190 f   debuginfo.obj
 0001:00008260       ?Init@DebugInfo@@QEAAXXZ   0000000140009260 f   debuginfo.obj
 0001:00008280       ?Exit@DebugInfo@@QEAAXXZ   0000000140009280 f   debuginfo.obj
 0001:00008290       ?MakeString@DebugInfo@@QEAAHPEBD@Z 0000000140009290 f   debuginfo.obj
 0001:00008400       ?FinishedReading@DebugInfo@@QEAAXXZ 0000000140009400 f   debuginfo.obj
 0001:000089f0       ?GetFile@DebugInfo@@QEAAHH@Z 00000001400099f0 f   debuginfo.obj
 0001:00008b10       ?GetFileByName@DebugInfo@@QEAAHPEAD@Z 0000000140009b10 f   debuginfo.obj
 0001:00008ba0       ?GetNameSpace@DebugInfo@@QEAAHH@Z 0000000140009ba0 f   debuginfo.obj
 0001:00008c90       ?GetNameSpaceByName@DebugInfo@@QEAAHPEAD@Z 0000000140009c90 f   debuginfo.obj
 0001:00008e10       ?StartAnalyze@DebugInfo@@QEAAXXZ 0000000140009e10 f   debuginfo.obj
 0001:00008f30       ?FinishAnalyze@DebugInfo@@QEAAXXZ 0000000140009f30 f   debuginfo.obj
 0001:00009290       ?FindSymbol@DebugInfo@@QEAA_NIPEAPEAUDISymbol@@@Z 000000014000a290 f   debuginfo.obj
 0001:00009440       ?WriteReport@DebugInfo@@QEAA?AV?$basic_string@DU?$char_traits@D@std@@V?$allocator@D@2@@std@@AEBUDebugFilters@@@Z 000000014000a440 f   debuginfo.obj
 0001:0000a6e0       ?virtAddressComp@@YA_NAEBUDISymbol@@0@Z 000000014000b6e0 f   debuginfo.obj
 0001:0000b420       ??$?0$$V@?$_Compressed_pair@V?$allocator@D@std@@V?$_String_val@U?$_Simple_types@D@std@@@2@$00@std@@QEAA@U_Zero_then_variadic_args_t@1@@Z 000000014000c420 f i debuginfo.obj
 0001:0000b460       ??$?0$$V@?$_Compressed_pair@V?$allocator@U?$_Tree_node@U?$pair@$$CBV?$basic_string@DU?$char_traits@D@std@@V?$allocator@D@2@@std@@H@std@@PEAX@std@@@std@@V?$_Tree_val@U?$_Tree_simple_types@U?$pair@$$CBV?$basic_string@DU?$char_traits@D@std@@V?$allocator@D@2@@std@@H@std@@@std@@@2@$00@std@@QEAA@U_Zero_then_variadic_args_t@1@@Z 000000014000c460 f i debuginfo.obj
 0001:0000b4a0       ??$?0AEAPEAU?$_Tree_node@U?$pair@$$CBV?$basic_string@DU?$char_traits@D@std@@V?$allocator@D@2@@std@@H@std@@PEAX@std@@_N$0A@@?$pair@PEAU?$_Tree_node@U?$pair@$$CBV?$basic_string@DU?$char_traits@D@std@@V?$allocator@D@2@@std@@H@std@@PEAX@std@@_N@std@@QEAA@AEAPEAU?$_Tree_node@U?$pair@$$CBV?$basic_string@DU?$char_traits@D@std@@V?$allocator@D@2@@std@@H@std@@PEAX@1@$$QEA_N@Z 000000014000c4a0 f i debuginfo.obj
 0001:0000b4f0       ??$?0AEAPEAUDISymFile@@AEAPEAU0@$0A@@?$pair@PEAUDISymFile@@PEAU1@@std@@QEAA@AEAPEAUDISymFile@@0@Z 000000014000c4f0 f i debuginfo.obj
 0001:0000b540       ??$?0AEAPEAUDISymNameSp@@AEAPEAU0@$0A@@?$pair@PEAUDISymNameSp@@PEAU1@@std@@QEAA@AEAPEAUDISymNameSp@@0@Z 000000014000c540 f i debuginfo.obj
 0001:0000b590       ??$?0AEAPEAUDISymbol@@AEAPEAU0@$0A@@?$pair@PEAUDISymbol@@PEAU1@@std@@QEAA@AEAPEAUDISymbol@@0@Z 000000014000c590 f i debuginfo.obj
 0001:0000b5e0       ??$?0AEAPEAUTemplateSymbol@@AEAPEAU0@$0A@@?$pair@PEAUTemplateSymbol@@PEAU1@@std@@QEAA@AEAPEAUTemplateSymbol@@0@Z 000000014000c5e0 f i debuginfo.obj
 0001:0000b630       ??$?0AEAV?$basic_string@DU?$char_traits@D@std@@V?$allocator@D@2@@std@@AEAH$0A@@?$pair@V?$basic_string@DU?$char_traits@D@std@@V?$allocator@D@2@@std@@H@std@@QEAA@AEAV?$basic_string@DU?$char_traits@D@std@@V?$allocator@D@2@@1@AEAH@Z 000000014000c630 f i debuginfo.obj
 0001:0000b690       ??$?0AEBU?$less@V?$basic_string@DU?$char_traits@D@std@@V?$allocator@D@2@@std@@@std@@U_Zero_then_variadic_args_t@1@@?$_Compressed_pair@U?$less@V?$basic_string@DU?$char_traits@D@std@@V?$allocator@D@2@@std@@@std@@V?$_Compressed_pair@V?$allocator@U?$_Tree_node@U?$pair@$$CBV?$basic_string@DU?$char_traits@D@std@@V?$allocator@D@2@@std@@H@std@@PEAX@std@@@std@@V?$_Tree_val@U?$_Tree_simple_types@U?$pair@$$CBV?$basic_string@DU?$char_traits@D@std@@V?$allocator@D@2@@std@@H@std@@@std@@@2@$00@2@$00@std@@QEAA@U_One_then_variadic_args_t@1@AEBU?$less@V?$basic_string@DU?$char_traits@D@std@@V?$allocator@D@2@@std@@@1@$$QEAU_Zero_then_variadic_args_t@1@@Z 000000014000c690 f i debuginfo.obj
 0001:0000b6e0       ??$?0PEAU?$_Tree_node@U?$pair@$$CBV?$basic_string@DU?$char_traits@D@std@@V?$allocator@D@2@@std@@H@std@@PEAX@std@@_N$0A@@?$pair@PEAU?$_Tree_node@U?$pair@$$CBV?$basic_string@DU?$char_traits@D@std@@V?$allocator@D@2@@std@@H@std@@PEAX@std@@_N@std@@QEAA@$$QEAPEAU?$_Tree_node@U?$pair@$$CBV?$basic_string@DU?$char_traits@D@std@@V?$allocator@D@2@@std@@H@std@@PEAX@1@$$QEA_N@Z 000000014000c6e0 f i debuginfo.obj
 0001:0000b730       ??$?0U?$pair@V?$basic_string@DU?$char_traits@D@std@@V?$allocator@D@2@@std@@H@std@@@?$_Tree_temp_node@V?$allocator@U?$_Tree_node@U?$pair@$$CBV?$basic_string@DU?$char_traits@D@std@@V?$allocator@D@2@@std@@H@std@@PEAX@std@@@std@@@std@@QEAA@AEAV?$allocator@U?$_Tree_node@U?$pair@$$CBV?$basic_string@DU?$char_traits@D@std@@V?$allocator@D@2@@std@@H@std@@PEAX@std@@@1@PEAU?$_Tree_node@U?$pair@$$CBV?$basic_string@DU?$char_traits@D@std@@V?$allocator@D@2@@std@@H@std@@PEAX@1@$$QEAU?$pair@V?$basic_string@DU?$char_traits@D@std@@V?$allocator@D@2@@std@@H@1@@Z 000000014000c730 f i debuginfo.obj
 0001:0000b840       ??$?0V?$_Tree_iterator@V?$_Tree_val@U?$_Tree_simple_types@U?$pair@$$CBV?$basic_string@DU?$char_traits@D@std@@V?$allocator@D@2@@std@@H@std@@@std@@@std@@@std@@AEB_N$0A@@?$pair@V?$_Tree_iterator@V?$_Tree_val@U?$_Tree_simple_types@U?$pair@$$CBV?$basic_string@DU?$char_traits@D@std@@V?$allocator@D@2@@std@@H@std@@@std@@@std@@@std@@_N@std@@QEAA@$$QEAV?$_Tree_iterator@V?$_Tree_val@U?$_Tree_simple_types@U?$pair@$$CBV?$basic_string@DU?$char_traits@D@std@@V?$allocator@D@2@@std@@H@std@@@std@@@std@@@1@AEB_N@Z 000000014000c840 f i debuginfo.obj
 0001:0000b890       ??$?0V?$allocator@D@std@@$$V@?$_Compressed_pair@V?$allocator@D@std@@V?$_String_val@U?$_Simple_types@D@std@@@2@$00@std@@QEAA@U_One_then_variadic_args_t@1@$$QEAV?$allocator@D@1@@Z 000000014000c890 f i debuginfo.obj
 0001:0000b8d0       ??$?0V?$basic_string@DU?$char_traits@D@std@@V?$allocator@D@2@@std@@H$0A@@?$pair@$$CBV?$basic_string@DU?$char_traits@D@std@@V?$allocator@D@2@@std@@H@std@@QEAA@$$QEAU?$pair@V?$basic_string@DU?$char_traits@D@std@@V?$allocator@D@2@@std@@H@1@@Z 000000014000c8d0 f i debuginfo.obj
 0001:0000b930       ??$?__MDU?$char_traits@D@std@@V?$allocator@D@1@@std@@YA?AUstrong_ordering@0@AEBV?$basic_string@DU?$char_traits@D@std@@V?$allocator@D@2@@0@0@Z 000000014000c930 f i debuginfo.obj
 0001:0000ba00       ??$_Adl_verify_range@V?$_Vector_iterator@V?$_Vector_val@U?$_Simple_types@UDISymFile@@@std@@@std@@@std@@V12@@std@@YAXAEBV?$_Vector_iterator@V?$_Vector_val@U?$_Simple_types@UDISymFile@@@std@@@std@@@0@0@Z 000000014000ca00 f i debuginfo.obj
 0001:0000ba10       ??$_Adl_verify_range@V?$_Vector_iterator@V?$_Vector_val@U?$_Simple_types@UDISymNameSp@@@std@@@std@@@std@@V12@@std@@YAXAEBV?$_Vector_iterator@V?$_Vector_val@U?$_Simple_types@UDISymNameSp@@@std@@@std@@@0@0@Z 000000014000ca10 f i debuginfo.obj
 0001:0000ba20       ??$_Adl_verify_range@V?$_Vector_iterator@V?$_Vector_val@U?$_Simple_types@UDISymbol@@@std@@@std@@@std@@V12@@std@@YAXAEBV?$_Vector_iterator@V?$_Vector_val@U?$_Simple_types@UDISymbol@@@std@@@std@@@0@0@Z 000000014000ca20 f i debuginfo.obj
 0001:0000ba30       ??$_Adl_verify_range@V?$_Vector_iterator@V?$_Vector_val@U?$_Simple_types@UTemplateSymbol@@@std@@@std@@@std@@V12@@std@@YAXAEBV?$_Vector_iterator@V?$_Vector_val@U?$_Simple_types@UTemplateSymbol@@@std@@@std@@@0@0@Z 000000014000ca30 f i debuginfo.obj
 0001:0000ba40       ??$_Allocate@$0BA@U_Default_allocate_traits@std@@@std@@YAPEAX_K@Z 000000014000ca40 f i debuginfo.obj
 0001:0000bab0       ??$_Allocate_at_least_helper@V?$allocator@D@std@@@std@@YAPEADAEAV?$allocator@D@0@AEA_K@Z 000000014000cab0 f i debuginfo.obj
 0001:0000bae0       ??$_Allocate_at_least_helper@V?$allocator@UDISymFile@@@std@@@std@@YAPEAUDISymFile@@AEAV?$allocator@UDISymFile@@@0@AEA_K@Z 000000014000cae0 f i debuginfo.obj
 0001:0000bb10       ??$_Allocate_at_least_helper@V?$allocator@UDISymNameSp@@@std@@@std@@YAPEAUDISymNameSp@@AEAV?$allocator@UDISymNameSp@@@0@AEA_K@Z 000000014000cb10 f i debuginfo.obj
 0001:0000bb40       ??$_Allocate_at_least_helper@V?$allocator@UDISymbol@@@std@@@std@@YAPEAUDISymbol@@AEAV?$allocator@UDISymbol@@@0@AEA_K@Z 000000014000cb40 f i debuginfo.obj
 0001:0000bb70       ??$_Allocate_at_least_helper@V?$allocator@UTemplateSymbol@@@std@@@std@@YAPEAUTemplateSymbol@@AEAV?$allocator@UTemplateSymbol@@@0@AEA_K@Z 000000014000cb70 f i debuginfo.obj
 0001:0000bba0       ??$_Allocate_at_least_helper@V?$allocator@V?$basic_string@DU?$char_traits@D@std@@V?$allocator@D@2@@std@@@std@@@std@@YAPEAV?$basic_string@DU?$char_traits@D@std@@V?$allocator@D@2@@0@AEAV?$allocator@V?$basic_string@DU?$char_traits@D@std@@V?$allocator@D@2@@std@@@0@AEA_K@Z 000000014000cba0 f i debuginfo.obj
 0001:0000bbd0       ??$_Allocate_for_capacity@$0A@@?$basic_string@DU?$char_traits@D@std@@V?$allocator@D@2@@std@@CAPEADAEAV?$allocator@D@1@AEA_K@Z 000000014000cbd0 f i debuginfo.obj
 0001:0000bcc0       ??$_Allocate_manually_vector_aligned@U_Default_allocate_traits@std@@@std@@YAPEAX_K@Z 000000014000ccc0 f i debuginfo.obj
 0001:0000bd70       ??$_Buyheadnode@V?$allocator@U?$_Tree_node@U?$pair@$$CBV?$basic_string@DU?$char_traits@D@std@@V?$allocator@D@2@@std@@H@std@@PEAX@std@@@std@@@?$_Tree_node@U?$pair@$$CBV?$basic_string@DU?$char_traits@D@std@@V?$allocator@D@2@@std@@H@std@@PEAX@std@@SAPEAU01@AEAV?$allocator@U?$_Tree_node@U?$pair@$$CBV?$basic_string@DU?$char_traits@D@std@@V?$allocator@D@2@@std@@H@std@@PEAX@std@@@1@@Z 000000014000cd70 f i debuginfo.obj
 0001:0000be10       ??$_Construct@$00PEBD@?$basic_string@DU?$char_traits@D@std@@V?$allocator@D@2@@std@@AEAAXQEBD_K@Z 000000014000ce10 f i debuginfo.obj
 0001:0000c000       ??$_Construct@$01PEBD@?$basic_string@DU?$char_traits@D@std@@V?$allocator@D@2@@std@@AEAAXQEBD_K@Z 000000014000d000 f i debuginfo.obj
 0001:0000c1c0       ??$_Construct_in_place@PEADAEAPEAD@std@@YAXAEAPEAD0@Z 000000014000d1c0 f i debuginfo.obj
 0001:0000c240       ??$_Construct_in_place@PEADAEBQEAD@std@@YAXAEAPEADAEBQEAD@Z 000000014000d240 f i debuginfo.obj
 0001:0000c2c0       ??$_Construct_in_place@PEAU?$_Tree_node@U?$pair@$$CBV?$basic_string@DU?$char_traits@D@std@@V?$allocator@D@2@@std@@H@std@@PEAX@std@@AEAPEAU12@@std@@YAXAEAPEAU?$_Tree_node@U?$pair@$$CBV?$basic_string@DU?$char_traits@D@std@@V?$allocator@D@2@@std@@H@std@@PEAX@0@0@Z 000000014000d2c0 f i debuginfo.obj
 0001:0000c340       ??$_Construct_in_place@PEAU?$_Tree_node@U?$pair@$$CBV?$basic_string@DU?$char_traits@D@std@@V?$allocator@D@2@@std@@H@std@@PEAX@std@@AEBQEAU12@@std@@YAXAEAPEAU?$_Tree_node@U?$pair@$$CBV?$basic_string@DU?$char_traits@D@std@@V?$allocator@D@2@@std@@H@std@@PEAX@0@AEBQEAU10@@Z 000000014000d340 f i debuginfo.obj
 0001:0000c3c0       ??$_Construct_in_place@UDISymFile@@U1@@std@@YAXAEAUDISymFile@@$$QEAU1@@Z 000000014000d3c0 f i debuginfo.obj
 0001:0000c450       ??$_Construct_in_place@UDISymNameSp@@AEBU1@@std@@YAXAEAUDISymNameSp@@AEBU1@@Z 000000014000d450 f i debuginfo.obj
 0001:0000c4e0       ??$_Construct_in_place@UDISymbol@@U1@@std@@YAXAEAUDISymbol@@$$QEAU1@@Z 000000014000d4e0 f i debuginfo.obj
 0001:0000c570       ??$_Convert_size@_K_K@std@@YA_K_K@Z 000000014000d570 f i debuginfo.obj
 0001:0000c580       ??$_Copy_backward_memmove@PEAUDISymFile@@PEAU1@@std@@YAPEAUDISymFile@@PEAU1@00@Z 000000014000d580 f i debuginfo.obj
 0001:0000c650       ??$_Copy_backward_memmove@PEAUDISymNameSp@@PEAU1@@std@@YAPEAUDISymNameSp@@PEAU1@00@Z 000000014000d650 f i debuginfo.obj
 0001:0000c720       ??$_Copy_backward_memmove@PEAUDISymbol@@PEAU1@@std@@YAPEAUDISymbol@@PEAU1@00@Z 000000014000d720 f i debuginfo.obj
 0001:0000c7f0       ??$_Copy_memmove@PEAUDISymFile@@PEAU1@@std@@YAPEAUDISymFile@@PEAU1@00@Z 000000014000d7f0 f i debuginfo.obj
 0001:0000c8c0       ??$_Copy_memmove@PEAUDISymNameSp@@PEAU1@@std@@YAPEAUDISymNameSp@@PEAU1@00@Z 000000014000d8c0 f i debuginfo.obj
 0001:0000c990       ??$_Copy_memmove@PEAUDISymbol@@PEAU1@@std@@YAPEAUDISymbol@@PEAU1@00@Z 000000014000d990 f i debuginfo.obj
 0001:0000ca60       ??$_Deallocate@$0BA@@std@@YAXPEAX_K@Z 000000014000da60 f i debuginfo.obj
 0001:0000cad0       ??$_Destroy_in_place@PEAD@std@@YAXAEAPEAD@Z 000000014000dad0 f i debuginfo.obj
 0001:0000cae0       ??$_Destroy_in_place@PEAU?$_Tree_node@U?$pair@$$CBV?$basic_string@DU?$char_traits@D@std@@V?$allocator@D@2@@std@@H@std@@PEAX@std@@@std@@YAXAEAPEAU?$_Tree_node@U?$pair@$$CBV?$basic_string@DU?$char_traits@D@std@@V?$allocator@D@2@@std@@H@std@@PEAX@0@@Z 000000014000dae0 f i debuginfo.obj
 0001:0000caf0       ??$_Destroy_range@V?$allocator@UDISymFile@@@std@@@std@@YAXPEAUDISymFile@@QEAU1@AEAV?$allocator@UDISymFile@@@0@@Z 000000014000daf0 f i debuginfo.obj
 0001:0000cb10       ??$_Destroy_range@V?$allocator@UDISymNameSp@@@std@@@std@@YAXPEAUDISymNameSp@@QEAU1@AEAV?$allocator@UDISymNameSp@@@0@@Z 000000014000db10 f i debuginfo.obj
 0001:0000cb30       ??$_Destroy_range@V?$allocator@UDISymbol@@@std@@@std@@YAXPEAUDISymbol@@QEAU1@AEAV?$allocator@UDISymbol@@@0@@Z 000000014000db30 f i debuginfo.obj
 0001:0000cb50       ??$_Destroy_range@V?$allocator@UTemplateSymbol@@@std@@@std@@YAXPEAUTemplateSymbol@@QEAU1@AEAV?$allocator@UTemplateSymbol@@@0@@Z 000000014000db50 f i debuginfo.obj
 0001:0000cbc0       ??$_Destroy_range@V?$allocator@V?$basic_string@DU?$char_traits@D@std@@V?$allocator@D@2@@std@@@std@@@std@@YAXPEAV?$basic_string@DU?$char_traits@D@std@@V?$allocator@D@2@@0@QEAV10@AEAV?$allocator@V?$basic_string@DU?$char_traits@D@std@@V?$allocator@D@2@@std@@@0@@Z 000000014000dbc0 f i debuginfo.obj
 0001:0000cc30       ??$_Emplace@U?$pair@V?$basic_string@DU?$char_traits@D@std@@V?$allocator@D@2@@std@@H@std@@@?$_Tree@V?$_Tmap_traits@V?$basic_string@DU?$char_traits@D@std@@V?$allocator@D@2@@std@@HU?$less@V?$basic_string@DU?$char_traits@D@std@@V?$allocator@D@2@@std@@@2@V?$allocator@U?$pair@$$CBV?$basic_string@DU?$char_traits@D@std@@V?$allocator@D@2@@std@@H@std@@@2@$0A@@std@@@std@@IEAA?AU?$pair@PEAU?$_Tree_node@U?$pair@$$CBV?$basic_string@DU?$char_traits@D@std@@V?$allocator@D@2@@std@@H@std@@PEAX@std@@_N@1@$$QEAU?$pair@V?$basic_string@DU?$char_traits@D@std@@V?$allocator@D@2@@std@@H@1@@Z 000000014000dc30 f i debuginfo.obj
 0001:0000ce10       ??$_Emplace_back@UDISymFile@@@?$_Uninitialized_backout_al@V?$allocator@UDISymFile@@@std@@@std@@QEAAX$$QEAUDISymFile@@@Z 000000014000de10 f i debuginfo.obj
 0001:0000ce90       ??$_Emplace_back@UDISymNameSp@@@?$_Uninitialized_backout_al@V?$allocator@UDISymNameSp@@@std@@@std@@QEAAX$$QEAUDISymNameSp@@@Z 000000014000de90 f i debuginfo.obj
 0001:0000cf10       ??$_Emplace_back@UDISymbol@@@?$_Uninitialized_backout_al@V?$allocator@UDISymbol@@@std@@@std@@QEAAX$$QEAUDISymbol@@@Z 000000014000df10 f i debuginfo.obj
 0001:0000cf90       ??$_Emplace_back@UTemplateSymbol@@@?$_Uninitialized_backout_al@V?$allocator@UTemplateSymbol@@@std@@@std@@QEAAX$$QEAUTemplateSymbol@@@Z 000000014000df90 f i debuginfo.obj
 0001:0000d010       ??$_Emplace_back@V?$basic_string@DU?$char_traits@D@std@@V?$allocator@D@2@@std@@@?$_Uninitialized_backout_al@V?$allocator@V?$basic_string@DU?$char_traits@D@std@@V?$allocator@D@2@@std@@@std@@@std@@QEAAX$$QEAV?$basic_string@DU?$char_traits@D@std@@V?$allocator@D@2@@1@@Z 000000014000e010 f i debuginfo.obj
 0001:0000d090       ??$_Emplace_back_with_unused_capacity@AEBUDISymNameSp@@@?$vector@UDISymNameSp@@V?$allocator@UDISymNameSp@@@std@@@std@@AEAAAEAUDISymNameSp@@AEBU2@@Z 000000014000e090 f i debuginfo.obj
 0001:0000d130       ??$_Emplace_back_with_unused_capacity@AEBUTemplateSymbol@@@?$vector@UTemplateSymbol@@V?$allocator@UTemplateSymbol@@@std@@@std@@AEAAAEAUTemplateSymbol@@AEBU2@@Z 000000014000e130 f i debuginfo.obj
 0001:0000d200       ??$_Emplace_back_with_unused_capacity@AEBV?$basic_string@DU?$char_traits@D@std@@V?$allocator@D@2@@std@@@?$vector@V?$basic_string@DU?$char_traits@D@std@@V?$allocator@D@2@@std@@V?$allocator@V?$basic_string@DU?$char_traits@D@std@@V?$allocator@D@2@@std@@@2@@std@@AEAAAEAV?$basic_string@DU?$char_traits@D@std@@V?$allocator@D@2@@1@AEBV21@@Z 000000014000e200 f i debuginfo.obj
 0001:0000d2d0       ??$_Emplace_back_with_unused_capacity@UDISymFile@@@?$vector@UDISymFile@@V?$allocator@UDISymFile@@@std@@@std@@AEAAAEAUDISymFile@@$$QEAU2@@Z 000000014000e2d0 f i debuginfo.obj
 0001:0000d370       ??$_Emplace_back_with_unused_capacity@UDISymbol@@@?$vector@UDISymbol@@V?$allocator@UDISymbol@@@std@@@std@@AEAAAEAUDISymbol@@$$QEAU2@@Z 000000014000e370 f i debuginfo.obj
 0001:0000d410       ??$_Emplace_one_at_back@AEBUDISymNameSp@@@?$vector@UDISymNameSp@@V?$allocator@UDISymNameSp@@@std@@@std@@AEAAAEAUDISymNameSp@@AEBU2@@Z 000000014000e410 f i debuginfo.obj
 0001:0000d490       ??$_Emplace_one_at_back@AEBUTemplateSymbol@@@?$vector@UTemplateSymbol@@V?$allocator@UTemplateSymbol@@@std@@@std@@AEAAAEAUTemplateSymbol@@AEBU2@@Z 000000014000e490 f i debuginfo.obj
 0001:0000d510       ??$_Emplace_one_at_back@AEBV?$basic_string@DU?$char_traits@D@std@@V?$allocator@D@2@@std@@@?$vector@V?$basic_string@DU?$char_traits@D@std@@V?$allocator@D@2@@std@@V?$allocator@V?$basic_string@DU?$char_traits@D@std@@V?$allocator@D@2@@std@@@2@@std@@AEAAAEAV?$basic_string@DU?$char_traits@D@std@@V?$allocator@D@2@@1@AEBV21@@Z 000000014000e510 f i debuginfo.obj
 0001:0000d590       ??$_Emplace_one_at_back@UDISymFile@@@?$vector@UDISymFile@@V?$allocator@UDISymFile@@@std@@@std@@AEAAAEAUDISymFile@@$$QEAU2@@Z 000000014000e590 f i debuginfo.obj
 0001:0000d610       ??$_Emplace_one_at_back@UDISymbol@@@?$vector@UDISymbol@@V?$allocator@UDISymbol@@@std@@@std@@AEAAAEAUDISymbol@@$$QEAU2@@Z 000000014000e610 f i debuginfo.obj
 0001:0000d690       ??$_Emplace_reallocate@AEBUDISymNameSp@@@?$vector@UDISymNameSp@@V?$allocator@UDISymNameSp@@@std@@@std@@AEAAPEAUDISymNameSp@@QEAU2@AEBU2@@Z 000000014000e690 f i debuginfo.obj
 0001:0000d970       ??$_Emplace_reallocate@AEBUTemplateSymbol@@@?$vector@UTemplateSymbol@@V?$allocator@UTemplateSymbol@@@std@@@std@@AEAAPEAUTemplateSymbol@@QEAU2@AEBU2@@Z 000000014000e970 f i debuginfo.obj
 0001:0000dc50       ??$_Emplace_reallocate@AEBV?$basic_string@DU?$char_traits@D@std@@V?$allocator@D@2@@std@@@?$vector@V?$basic_string@DU?$char_traits@D@std@@V?$allocator@D@2@@std@@V?$allocator@V?$basic_string@DU?$char_traits@D@std@@V?$allocator@D@2@@std@@@2@@std@@AEAAPEAV?$basic_string@DU?$char_traits@D@std@@V?$allocator@D@2@@1@QEAV21@AEBV21@@Z 000000014000ec50 f i debuginfo.obj
 0001:0000df20       ??$_Emplace_reallocate@UDISymFile@@@?$vector@UDISymFile@@V?$allocator@UDISymFile@@@std@@@std@@AEAAPEAUDISymFile@@QEAU2@$$QEAU2@@Z 000000014000ef20 f i debuginfo.obj
 0001:0000e200       ??$_Emplace_reallocate@UDISymbol@@@?$vector@UDISymbol@@V?$allocator@UDISymbol@@@std@@@std@@AEAAPEAUDISymbol@@QEAU2@$$QEAU2@@Z 000000014000f200 f i debuginfo.obj
 0001:0000e4e0       ??$_Erase_head@V?$allocator@U?$_Tree_node@U?$pair@$$CBV?$basic_string@DU?$char_traits@D@std@@V?$allocator@D@2@@std@@H@std@@PEAX@std@@@std@@@?$_Tree_val@U?$_Tree_simple_types@U?$pair@$$CBV?$basic_string@DU?$char_traits@D@std@@V?$allocator@D@2@@std@@H@std@@@std@@@std@@QEAAXAEAV?$allocator@U?$_Tree_node@U?$pair@$$CBV?$basic_string@DU?$char_traits@D@std@@V?$allocator@D@2@@std@@H@std@@PEAX@std@@@1@@Z 000000014000f4e0 f i debuginfo.obj
 0001:0000e540       ??$_Erase_tree@V?$allocator@U?$_Tree_node@U?$pair@$$CBV?$basic_string@DU?$char_traits@D@std@@V?$allocator@D@2@@std@@H@std@@PEAX@std@@@std@@@?$_Tree_val@U?$_Tree_simple_types@U?$pair@$$CBV?$basic_string@DU?$char_traits@D@std@@V?$allocator@D@2@@std@@H@std@@@std@@@std@@QEAAXAEAV?$allocator@U?$_Tree_node@U?$pair@$$CBV?$basic_string@DU?$char_traits@D@std@@V?$allocator@D@2@@std@@H@std@@PEAX@std@@@1@PEAU?$_Tree_node@U?$pair@$$CBV?$basic_string@DU?$char_traits@D@std@@V?$allocator@D@2@@std@@H@std@@PEAX@1@@Z 000000014000f540 f i debuginfo.obj
 0001:0000e5c0       ??$_Find@V?$basic_string@DU?$char_traits@D@std@@V?$allocator@D@2@@std@@@?$_Tree@V?$_Tmap_traits@V?$basic_string@DU?$char_traits@D@std@@V?$allocator@D@2@@std@@HU?$less@V?$basic_string@DU?$char_traits@D@std@@V?$allocator@D@2@@std@@@2@V?$allocator@U?$pair@$$CBV?$basic_string@DU?$char_traits@D@std@@V?$allocator@D@2@@std@@H@std@@@2@$0A@@std@@@std@@AEBAPEAU?$_Tree_node@U?$pair@$$CBV?$basic_string@DU?$char_traits@D@std@@V?$allocator@D@2@@std@@H@std@@PEAX@1@AEBV?$basic_string@DU?$char_traits@D@std@@V?$allocator@D@2@@1@@Z 000000014000f5c0 f i debuginfo.obj
 0001:0000e630       ??$_Find_lower_bound@V?$basic_string@DU?$char_traits@D@std@@V?$allocator@D@2@@std@@@?$_Tree@V?$_Tmap_traits@V?$basic_string@DU?$char_traits@D@std@@V?$allocator@D@2@@std@@HU?$less@V?$basic_string@DU?$char_traits@D@std@@V?$allocator@D@2@@std@@@2@V?$allocator@U?$pair@$$CBV?$basic_string@DU?$char_traits@D@std@@V?$allocator@D@2@@std@@H@std@@@2@$0A@@std@@@std@@IEBA?AU?$_Tree_find_result@PEAU?$_Tree_node@U?$pair@$$CBV?$basic_string@DU?$char_traits@D@std@@V?$allocator@D@2@@std@@H@std@@PEAX@std@@@1@AEBV?$basic_string@DU?$char_traits@D@std@@V?$allocator@D@2@@1@@Z 000000014000f630 f i debuginfo.obj
 0001:0000e790       ??$_Freenode0@V?$allocator@U?$_Tree_node@U?$pair@$$CBV?$basic_string@DU?$char_traits@D@std@@V?$allocator@D@2@@std@@H@std@@PEAX@std@@@std@@@?$_Tree_node@U?$pair@$$CBV?$basic_string@DU?$char_traits@D@std@@V?$allocator@D@2@@std@@H@std@@PEAX@std@@SAXAEAV?$allocator@U?$_Tree_node@U?$pair@$$CBV?$basic_string@DU?$char_traits@D@std@@V?$allocator@D@2@@std@@H@std@@PEAX@std@@@1@PEAU01@@Z 000000014000f790 f i debuginfo.obj
 0001:0000e800       ??$_Freenode@V?$allocator@U?$_Tree_node@U?$pair@$$CBV?$basic_string@DU?$char_traits@D@std@@V?$allocator@D@2@@std@@H@std@@PEAX@std@@@std@@@?$_Tree_node@U?$pair@$$CBV?$basic_string@DU?$char_traits@D@std@@V?$allocator@D@2@@std@@H@std@@PEAX@std@@SAXAEAV?$allocator@U?$_Tree_node@U?$pair@$$CBV?$basic_string@DU?$char_traits@D@std@@V?$allocator@D@2@@std@@H@std@@PEAX@std@@@1@PEAU01@@Z 000000014000f800 f i debuginfo.obj
 0001:0000e860       ??$_Get_size_of_n@$00@std@@YA_K_K@Z 000000014000f860 f i debuginfo.obj
 0001:0000e880       ??$_Get_size_of_n@$0BM@@std@@YA_K_K@Z 000000014000f880 f i debuginfo.obj
 0001:0000e8d0       ??$_Get_size_of_n@$0CA@@std@@YA_K_K@Z 000000014000f8d0 f i debuginfo.obj
 0001:0000e920       ??$_Get_size_of_n@$0EI@@std@@YA_K_K@Z 000000014000f920 f i debuginfo.obj
 0001:0000e970       ??$_Get_size_of_n@$0M@@std@@YA_K_K@Z 000000014000f970 f i debuginfo.obj
 0001:0000e9c0       ??$_Get_unwrapped@AEBQEAUDISymFile@@@std@@YA?A_TAEBQEAUDISymFile@@@Z 000000014000f9c0 f i debuginfo.obj
 0001:0000e9e0       ??$_Get_unwrapped@AEBQEAUDISymNameSp@@@std@@YA?A_TAEBQEAUDISymNameSp@@@Z 000000014000f9e0 f i debuginfo.obj
 0001:0000ea00       ??$_Get_unwrapped@AEBQEAUDISymbol@@@std@@YA?A_TAEBQEAUDISymbol@@@Z 000000014000fa00 f i debuginfo.obj
 0001:0000ea20       ??$_Get_unwrapped@AEBQEAUTemplateSymbol@@@std@@YA?A_TAEBQEAUTemplateSymbol@@@Z 000000014000fa20 f i debuginfo.obj
 0001:0000ea40       ??$_Get_unwrapped@AEBQEAV?$basic_string@DU?$char_traits@D@std@@V?$allocator@D@2@@std@@@std@@YA?A_TAEBQEAV?$basic_string@DU?$char_traits@D@std@@V?$allocator@D@2@@0@@Z 000000014000fa40 f i debuginfo.obj
 0001:0000ea60       ??$_Get_unwrapped@AEBV?$_Vector_iterator@V?$_Vector_val@U?$_Simple_types@UDISymFile@@@std@@@std@@@std@@@std@@YA?A_TAEBV?$_Vector_iterator@V?$_Vector_val@U?$_Simple_types@UDISymFile@@@std@@@std@@@0@@Z 000000014000fa60 f i debuginfo.obj
 0001:0000ea80       ??$_Get_unwrapped@AEBV?$_Vector_iterator@V?$_Vector_val@U?$_Simple_types@UDISymNameSp@@@std@@@std@@@std@@@std@@YA?A_TAEBV?$_Vector_iterator@V?$_Vector_val@U?$_Simple_types@UDISymNameSp@@@std@@@std@@@0@@Z 000000014000fa80 f i debuginfo.obj
 0001:0000eaa0       ??$_Get_unwrapped@AEBV?$_Vector_iterator@V?$_Vector_val@U?$_Simple_types@UDISymbol@@@std@@@std@@@std@@@std@@YA?A_TAEBV?$_Vector_iterator@V?$_Vector_val@U?$_Simple_types@UDISymbol@@@std@@@std@@@0@@Z 000000014000faa0 f i debuginfo.obj
 0001:0000eac0       ??$_Get_unwrapped@AEBV?$_Vector_iterator@V?$_Vector_val@U?$_Simple_types@UTemplateSymbol@@@std@@@std@@@std@@@std@@YA?A_TAEBV?$_Vector_iterator@V?$_Vector_val@U?$_Simple_types@UTemplateSymbol@@@std@@@std@@@0@@Z 000000014000fac0 f i debuginfo.obj
 0001:0000eae0       ??$_Guess_median_unchecked@PEAUDISymFile@@P6A_NAEBU1@0@Z@std@@YAXPEAUDISymFile@@00P6A_NAEBU1@1@Z@Z 000000014000fae0 f i debuginfo.obj
 0001:0000ec90       ??$_Guess_median_unchecked@PEAUDISymNameSp@@P6A_NAEBU1@0@Z@std@@YAXPEAUDISymNameSp@@00P6A_NAEBU1@1@Z@Z 000000014000fc90 f i debuginfo.obj
 0001:0000ee40       ??$_Guess_median_unchecked@PEAUDISymbol@@P6A_NAEBU1@0@Z@std@@YAXPEAUDISymbol@@00P6A_NAEBU1@1@Z@Z 000000014000fe40 f i debuginfo.obj
 0001:0000eff0       ??$_Guess_median_unchecked@PEAUTemplateSymbol@@P6A_NAEBU1@0@Z@std@@YAXPEAUTemplateSymbol@@00P6A_NAEBU1@1@Z@Z 000000014000fff0 f i debuginfo.obj
 0001:0000f1a0       ??$_Insertion_sort_unchecked@PEAUDISymFile@@P6A_NAEBU1@0@Z@std@@YAPEAUDISymFile@@QEAU1@0P6A_NAEBU1@1@Z@Z 00000001400101a0 f i debuginfo.obj
 0001:0000f380       ??$_Insertion_sort_unchecked@PEAUDISymNameSp@@P6A_NAEBU1@0@Z@std@@YAPEAUDISymNameSp@@QEAU1@0P6A_NAEBU1@1@Z@Z 0000000140010380 f i debuginfo.obj
 0001:0000f560       ??$_Insertion_sort_unchecked@PEAUDISymbol@@P6A_NAEBU1@0@Z@std@@YAPEAUDISymbol@@QEAU1@0P6A_NAEBU1@1@Z@Z 0000000140010560 f i debuginfo.obj
 0001:0000f740       ??$_Insertion_sort_unchecked@PEAUTemplateSymbol@@P6A_NAEBU1@0@Z@std@@YAPEAUTemplateSymbol@@QEAU1@0P6A_NAEBU1@1@Z@Z 0000000140010740 f i debuginfo.obj
 0001:0000f920       ??$_Kfn@$$CBV?$basic_string@DU?$char_traits@D@std@@V?$allocator@D@2@@std@@H@?$_Tmap_traits@V?$basic_string@DU?$char_traits@D@std@@V?$allocator@D@2@@std@@HU?$less@V?$basic_string@DU?$char_traits@D@std@@V?$allocator@D@2@@std@@@2@V?$allocator@U?$pair@$$CBV?$basic_string@DU?$char_traits@D@std@@V?$allocator@D@2@@std@@H@std@@@2@$0A@@std@@SAAEBV?$basic_string@DU?$char_traits@D@std@@V?$allocator@D@2@@1@AEBU?$pair@$$CBV?$basic_string@DU?$char_traits@D@std@@V?$allocator@D@2@@std@@H@1@@Z 0000000140010920 f i debuginfo.obj
 0001:0000f930       ??$_Lower_bound_duplicate@V?$basic_string@DU?$char_traits@D@std@@V?$allocator@D@2@@std@@@?$_Tree@V?$_Tmap_traits@V?$basic_string@DU?$char_traits@D@std@@V?$allocator@D@2@@std@@HU?$less@V?$basic_string@DU?$char_traits@D@std@@V?$allocator@D@2@@std@@@2@V?$allocator@U?$pair@$$CBV?$basic_string@DU?$char_traits@D@std@@V?$allocator@D@2@@std@@H@std@@@2@$0A@@std@@@std@@IEBA_NQEAU?$_Tree_node@U?$pair@$$CBV?$basic_string@DU?$char_traits@D@std@@V?$allocator@D@2@@std@@H@std@@PEAX@1@AEBV?$basic_string@DU?$char_traits@D@std@@V?$allocator@D@2@@1@@Z 0000000140010930 f i debuginfo.obj
 0001:0000f9d0       ??$_Make_heap_unchecked@PEAUDISymFile@@P6A_NAEBU1@0@Z@std@@YAXPEAUDISymFile@@0P6A_NAEBU1@1@Z@Z 00000001400109d0 f i debuginfo.obj
 0001:0000fad0       ??$_Make_heap_unchecked@PEAUDISymNameSp@@P6A_NAEBU1@0@Z@std@@YAXPEAUDISymNameSp@@0P6A_NAEBU1@1@Z@Z 0000000140010ad0 f i debuginfo.obj
 0001:0000fbd0       ??$_Make_heap_unchecked@PEAUDISymbol@@P6A_NAEBU1@0@Z@std@@YAXPEAUDISymbol@@0P6A_NAEBU1@1@Z@Z 0000000140010bd0 f i debuginfo.obj
 0001:0000fcd0       ??$_Make_heap_unchecked@PEAUTemplateSymbol@@P6A_NAEBU1@0@Z@std@@YAXPEAUTemplateSymbol@@0P6A_NAEBU1@1@Z@Z 0000000140010cd0 f i debuginfo.obj
 0001:0000fdf0       ??$_Max_limit@_J@std@@YA_JXZ 0000000140010df0 f i debuginfo.obj
 0001:0000fe20       ??$_Med3_unchecked@PEAUDISymFile@@P6A_NAEBU1@0@Z@std@@YAXPEAUDISymFile@@00P6A_NAEBU1@1@Z@Z 0000000140010e20 f i debuginfo.obj
 0001:0000ff00       ??$_Med3_unchecked@PEAUDISymNameSp@@P6A_NAEBU1@0@Z@std@@YAXPEAUDISymNameSp@@00P6A_NAEBU1@1@Z@Z 0000000140010f00 f i debuginfo.obj
 0001:0000ffe0       ??$_Med3_unchecked@PEAUDISymbol@@P6A_NAEBU1@0@Z@std@@YAXPEAUDISymbol@@00P6A_NAEBU1@1@Z@Z 0000000140010fe0 f i debuginfo.obj
 0001:000100c0       ??$_Med3_unchecked@PEAUTemplateSymbol@@P6A_NAEBU1@0@Z@std@@YAXPEAUTemplateSymbol@@00P6A_NAEBU1@1@Z@Z 00000001400110c0 f i debuginfo.obj
 0001:000101a0       ??$_Move_backward_unchecked@PEAUDISymFile@@PEAU1@@std@@YAPEAUDISymFile@@PEAU1@00@Z 00000001400111a0 f i debuginfo.obj
 0001:00010240       ??$_Move_backward_unchecked@PEAUDISymNameSp@@PEAU1@@std@@YAPEAUDISymNameSp@@PEAU1@00@Z 0000000140011240 f i debuginfo.obj
 0001:000102e0       ??$_Move_backward_unchecked@PEAUDISymbol@@PEAU1@@std@@YAPEAUDISymbol@@PEAU1@00@Z 00000001400112e0 f i debuginfo.obj
 0001:00010380       ??$_Move_backward_unchecked@PEAUTemplateSymbol@@PEAU1@@std@@YAPEAUTemplateSymbol@@PEAU1@00@Z 0000000140011380 f i debuginfo.obj
 0001:000103f0       ??$_Next_iter@PEAUDISymFile@@@std@@YAPEAUDISymFile@@PEAU1@@Z 00000001400113f0 f i debuginfo.obj
 0001:00010410       ??$_Next_iter@PEAUDISymNameSp@@@std@@YAPEAUDISymNameSp@@PEAU1@@Z 0000000140011410 f i debuginfo.obj
 0001:00010430       ??$_Next_iter@PEAUDISymbol@@@std@@YAPEAUDISymbol@@PEAU1@@Z 0000000140011430 f i debuginfo.obj
 0001:00010450       ??$_Next_iter@PEAUTemplateSymbol@@@std@@YAPEAUTemplateSymbol@@PEAU1@@Z 0000000140011450 f i debuginfo.obj
 0001:00010470       ??$_Partition_by_median_guess_unchecked@PEAUDISymFile@@P6A_NAEBU1@0@Z@std@@YA?AU?$pair@PEAUDISymFile@@PEAU1@@0@PEAUDISymFile@@0P6A_NAEBU2@1@Z@Z 0000000140011470 f i debuginfo.obj
 0001:00010a00       ??$_Partition_by_median_guess_unchecked@PEAUDISymNameSp@@P6A_NAEBU1@0@Z@std@@YA?AU?$pair@PEAUDISymNameSp@@PEAU1@@0@PEAUDISymNameSp@@0P6A_NAEBU2@1@Z@Z 0000000140011a00 f i debuginfo.obj
 0001:00010f90       ??$_Partition_by_median_guess_unchecked@PEAUDISymbol@@P6A_NAEBU1@0@Z@std@@YA?AU?$pair@PEAUDISymbol@@PEAU1@@0@PEAUDISymbol@@0P6A_NAEBU2@1@Z@Z 0000000140011f90 f i debuginfo.obj
 0001:00011520       ??$_Partition_by_median_guess_unchecked@PEAUTemplateSymbol@@P6A_NAEBU1@0@Z@std@@YA?AU?$pair@PEAUTemplateSymbol@@PEAU1@@0@PEAUTemplateSymbol@@0P6A_NAEBU2@1@Z@Z 0000000140012520 f i debuginfo.obj
 0001:00011ab0       ??$_Pass_fn@P6A_NAEBUDISymFile@@0@Z@std@@YA?A_PAEAP6A_NAEBUDISymFile@@0@Z@Z 0000000140012ab0 f i debuginfo.obj
 0001:00011ad0       ??$_Pass_fn@P6A_NAEBUDISymNameSp@@0@Z@std@@YA?A_PAEAP6A_NAEBUDISymNameSp@@0@Z@Z 0000000140012ad0 f i debuginfo.obj
 0001:00011af0       ??$_Pass_fn@P6A_NAEBUDISymbol@@0@Z@std@@YA?A_PAEAP6A_NAEBUDISymbol@@0@Z@Z 0000000140012af0 f i debuginfo.obj
 0001:00011b10       ??$_Pass_fn@P6A_NAEBUTemplateSymbol@@0@Z@std@@YA?A_PAEAP6A_NAEBUTemplateSymbol@@0@Z@Z 0000000140012b10 f i debuginfo.obj
 0001:00011b30       ??$_Pocca@V?$allocator@D@std@@@std@@YAXAEAV?$allocator@D@0@AEBV10@@Z 0000000140012b30 f i debuginfo.obj
 0001:00011b40       ??$_Pocma@V?$allocator@D@std@@@std@@YAXAEAV?$allocator@D@0@0@Z 0000000140012b40 f i debuginfo.obj
 0001:00011b50       ??$_Pop_heap_hole_by_index@PEAUDISymFile@@U1@P6A_NAEBU1@0@Z@std@@YAXPEAUDISymFile@@_J1$$QEAU1@P6A_NAEBU1@3@Z@Z 0000000140012b50 f i debuginfo.obj
 0001:00011d70       ??$_Pop_heap_hole_by_index@PEAUDISymNameSp@@U1@P6A_NAEBU1@0@Z@std@@YAXPEAUDISymNameSp@@_J1$$QEAU1@P6A_NAEBU1@3@Z@Z 0000000140012d70 f i debuginfo.obj
 0001:00011f90       ??$_Pop_heap_hole_by_index@PEAUDISymbol@@U1@P6A_NAEBU1@0@Z@std@@YAXPEAUDISymbol@@_J1$$QEAU1@P6A_NAEBU1@3@Z@Z 0000000140012f90 f i debuginfo.obj
 0001:000121b0       ??$_Pop_heap_hole_by_index@PEAUTemplateSymbol@@U1@P6A_NAEBU1@0@Z@std@@YAXPEAUTemplateSymbol@@_J1$$QEAU1@P6A_NAEBU1@3@Z@Z 00000001400131b0 f i debuginfo.obj
 0001:00012380       ??$_Pop_heap_hole_unchecked@PEAUDISymFile@@U1@P6A_NAEBU1@0@Z@std@@YAXPEAUDISymFile@@00$$QEAU1@P6A_NAEBU1@2@Z@Z 0000000140013380 f i debuginfo.obj
 0001:00012410       ??$_Pop_heap_hole_unchecked@PEAUDISymNameSp@@U1@P6A_NAEBU1@0@Z@std@@YAXPEAUDISymNameSp@@00$$QEAU1@P6A_NAEBU1@2@Z@Z 0000000140013410 f i debuginfo.obj
 0001:000124a0       ??$_Pop_heap_hole_unchecked@PEAUDISymbol@@U1@P6A_NAEBU1@0@Z@std@@YAXPEAUDISymbol@@00$$QEAU1@P6A_NAEBU1@2@Z@Z 00000001400134a0 f i debuginfo.obj
 0001:00012530       ??$_Pop_heap_hole_unchecked@PEAUTemplateSymbol@@U1@P6A_NAEBU1@0@Z@std@@YAXPEAUTemplateSymbol@@00$$QEAU1@P6A_NAEBU1@2@Z@Z 0000000140013530 f i debuginfo.obj
 0001:000125b0       ??$_Pop_heap_unchecked@PEAUDISymFile@@P6A_NAEBU1@0@Z@std@@YAXPEAUDISymFile@@0P6A_NAEBU1@1@Z@Z 00000001400135b0 f i debuginfo.obj
 0001:00012680       ??$_Pop_heap_unchecked@PEAUDISymNameSp@@P6A_NAEBU1@0@Z@std@@YAXPEAUDISymNameSp@@0P6A_NAEBU1@1@Z@Z 0000000140013680 f i debuginfo.obj
 0001:00012750       ??$_Pop_heap_unchecked@PEAUDISymbol@@P6A_NAEBU1@0@Z@std@@YAXPEAUDISymbol@@0P6A_NAEBU1@1@Z@Z 0000000140013750 f i debuginfo.obj
 0001:00012840       ??$_Pop_heap_unchecked@PEAUTemplateSymbol@@P6A_NAEBU1@0@Z@std@@YAXPEAUTemplateSymbol@@0P6A_NAEBU1@1@Z@Z 0000000140013840 f i debuginfo.obj
 0001:00012940       ??$_Prev_iter@PEAUDISymFile@@@std@@YAPEAUDISymFile@@PEAU1@@Z 0000000140013940 f i debuginfo.obj
 0001:00012960       ??$_Prev_iter@PEAUDISymNameSp@@@std@@YAPEAUDISymNameSp@@PEAU1@@Z 0000000140013960 f i debuginfo.obj
 0001:00012980       ??$_Prev_iter@PEAUDISymbol@@@std@@YAPEAUDISymbol@@PEAU1@@Z 0000000140013980 f i debuginfo.obj
 0001:000129a0       ??$_Prev_iter@PEAUTemplateSymbol@@@std@@YAPEAUTemplateSymbol@@PEAU1@@Z 00000001400139a0 f i debuginfo.obj
 0001:000129c0       ??$_Push_heap_by_index@PEAUDISymFile@@U1@P6A_NAEBU1@0@Z@std@@YAXPEAUDISymFile@@_J1$$QEAU1@P6A_NAEBU1@3@Z@Z 00000001400139c0 f i debuginfo.obj
 0001:00012ac0       ??$_Push_heap_by_index@PEAUDISymNameSp@@U1@P6A_NAEBU1@0@Z@std@@YAXPEAUDISymNameSp@@_J1$$QEAU1@P6A_NAEBU1@3@Z@Z 0000000140013ac0 f i debuginfo.obj
 0001:00012bc0       ??$_Push_heap_by_index@PEAUDISymbol@@U1@P6A_NAEBU1@0@Z@std@@YAXPEAUDISymbol@@_J1$$QEAU1@P6A_NAEBU1@3@Z@Z 0000000140013bc0 f i debuginfo.obj
 0001:00012cc0       ??$_Push_heap_by_index@PEAUTemplateSymbol@@U1@P6A_NAEBU1@0@Z@std@@YAXPEAUTemplateSymbol@@_J1$$QEAU1@P6A_NAEBU1@3@Z@Z 0000000140013cc0 f i debuginfo.obj
 0001:00012dd0       ??$_Reallocate_for@V<lambda_1>@?1??assign@?$basic_string@DU?$char_traits@D@std@@V?$allocator@D@2@@std@@QEAAAEAV34@QEBD_K@Z@PEBD@?$basic_string@DU?$char_traits@D@std@@V?$allocator@D@2@@std@@AEAAAEAV01@_KV<lambda_1>@?1??assign@01@QEAAAEAV01@QEBD0@Z@PEBD@Z 0000000140013dd0 f i debuginfo.obj
 0001:00012f20       ??$_Reallocate_grow_by@V<lambda_1>@?1??append@?$basic_string@DU?$char_traits@D@std@@V?$allocator@D@2@@std@@QEAAAEAV34@QEBD_K@Z@PEBD_K@?$basic_string@DU?$char_traits@D@std@@V?$allocator@D@2@@std@@AEAAAEAV01@_KV<lambda_1>@?1??append@01@QEAAAEAV01@QEBD0@Z@PEBD_K@Z 0000000140013f20 f i debuginfo.obj
 0001:00013160       ??$_Reallocate_grow_by@V<lambda_1>@?1??reserve@?$basic_string@DU?$char_traits@D@std@@V?$allocator@D@2@@std@@QEAAX_K@Z@$$V@?$basic_string@DU?$char_traits@D@std@@V?$allocator@D@2@@std@@AEAAAEAV01@_KV<lambda_1>@?1??reserve@01@QEAAX0@Z@@Z 0000000140014160 f i debuginfo.obj
 0001:00013350       ??$_Sort_heap_unchecked@PEAUDISymFile@@P6A_NAEBU1@0@Z@std@@YAXPEAUDISymFile@@0P6A_NAEBU1@1@Z@Z 0000000140014350 f i debuginfo.obj
 0001:000133d0       ??$_Sort_heap_unchecked@PEAUDISymNameSp@@P6A_NAEBU1@0@Z@std@@YAXPEAUDISymNameSp@@0P6A_NAEBU1@1@Z@Z 00000001400143d0 f i debuginfo.obj
 0001:00013450       ??$_Sort_heap_unchecked@PEAUDISymbol@@P6A_NAEBU1@0@Z@std@@YAXPEAUDISymbol@@0P6A_NAEBU1@1@Z@Z 0000000140014450 f i debuginfo.obj
 0001:000134d0       ??$_Sort_heap_unchecked@PEAUTemplateSymbol@@P6A_NAEBU1@0@Z@std@@YAXPEAUTemplateSymbol@@0P6A_NAEBU1@1@Z@Z 00000001400144d0 f i debuginfo.obj
 0001:00013550       ??$_Sort_unchecked@PEAUDISymFile@@P6A_NAEBU1@0@Z@std@@YAXPEAUDISymFile@@0_JP6A_NAEBU1@2@Z@Z 0000000140014550 f i debuginfo.obj
 0001:00013700       ??$_Sort_unchecked@PEAUDISymNameSp@@P6A_NAEBU1@0@Z@std@@YAXPEAUDISymNameSp@@0_JP6A_NAEBU1@2@Z@Z 0000000140014700 f i debuginfo.obj
 0001:000138b0       ??$_Sort_unchecked@PEAUDISymbol@@P6A_NAEBU1@0@Z@std@@YAXPEAUDISymbol@@0_JP6A_NAEBU1@2@Z@Z 00000001400148b0 f i debuginfo.obj
 0001:00013a60       ??$_Sort_unchecked@PEAUTemplateSymbol@@P6A_NAEBU1@0@Z@std@@YAXPEAUTemplateSymbol@@0_JP6A_NAEBU1@2@Z@Z 0000000140014a60 f i debuginfo.obj
 0001:00013c10       ??$_To_address@PEAUDISymFile@@@std@@YA?A_PAEBQEAUDISymFile@@@Z 0000000140014c10 f i debuginfo.obj
 0001:00013c40       ??$_To_address@PEAUDISymNameSp@@@std@@YA?A_PAEBQEAUDISymNameSp@@@Z 0000000140014c40 f i debuginfo.obj
 0001:00013c70       ??$_To_address@PEAUDISymbol@@@std@@YA?A_PAEBQEAUDISymbol@@@Z 0000000140014c70 f i debuginfo.obj
 0001:00013ca0       ??$_Traits_compare@U?$char_traits@D@std@@@std@@YAHQEBD_K01@Z 0000000140014ca0 f i debuginfo.obj
 0001:00013d40       ??$_Traits_find_ch@U?$char_traits@D@std@@@std@@YA_KQEBD_K1D@Z 0000000140014d40 f i debuginfo.obj
 0001:00013de0       ??$_Unfancy@D@std@@YAPEADPEAD@Z 0000000140014de0 f i debuginfo.obj
 0001:00013df0       ??$_Unfancy@UDISymFile@@@std@@YAPEAUDISymFile@@PEAU1@@Z 0000000140014df0 f i debuginfo.obj
 0001:00013e00       ??$_Unfancy@UDISymNameSp@@@std@@YAPEAUDISymNameSp@@PEAU1@@Z 0000000140014e00 f i debuginfo.obj
 0001:00013e10       ??$_Unfancy@UDISymbol@@@std@@YAPEAUDISymbol@@PEAU1@@Z 0000000140014e10 f i debuginfo.obj
 0001:00013e20       ??$_Unfancy@UTemplateSymbol@@@std@@YAPEAUTemplateSymbol@@PEAU1@@Z 0000000140014e20 f i debuginfo.obj
 0001:00013e30       ??$_Unfancy@V?$basic_string@DU?$char_traits@D@std@@V?$allocator@D@2@@std@@@std@@YAPEAV?$basic_string@DU?$char_traits@D@std@@V?$allocator@D@2@@0@PEAV10@@Z 0000000140014e30 f i debuginfo.obj
 0001:00013e40       ??$_Unfancy_maybe_null@UDISymFile@@@std@@YAPEAUDISymFile@@PEAU1@@Z 0000000140014e40 f i debuginfo.obj
 0001:00013e50       ??$_Unfancy_maybe_null@UDISymNameSp@@@std@@YAPEAUDISymNameSp@@PEAU1@@Z 0000000140014e50 f i debuginfo.obj
 0001:00013e60       ??$_Unfancy_maybe_null@UDISymbol@@@std@@YAPEAUDISymbol@@PEAU1@@Z 0000000140014e60 f i debuginfo.obj
 0001:00013e70       ??$_Unfancy_maybe_null@UTemplateSymbol@@@std@@YAPEAUTemplateSymbol@@PEAU1@@Z 0000000140014e70 f i debuginfo.obj
 0001:00013e80       ??$_Uninitialized_move@PEAUDISymFile@@V?$allocator@UDISymFile@@@std@@@std@@YAPEAUDISymFile@@QEAU1@0PEAU1@AEAV?$allocator@UDISymFile@@@0@@Z 0000000140014e80 f i debuginfo.obj
 0001:00013fb0       ??$_Uninitialized_move@PEAUDISymNameSp@@V?$allocator@UDISymNameSp@@@std@@@std@@YAPEAUDISymNameSp@@QEAU1@0PEAU1@AEAV?$allocator@UDISymNameSp@@@0@@Z 0000000140014fb0 f i debuginfo.obj
 0001:000140e0       ??$_Uninitialized_move@PEAUDISymbol@@V?$allocator@UDISymbol@@@std@@@std@@YAPEAUDISymbol@@QEAU1@0PEAU1@AEAV?$allocator@UDISymbol@@@0@@Z 00000001400150e0 f i debuginfo.obj
 0001:00014210       ??$_Uninitialized_move@PEAUTemplateSymbol@@V?$allocator@UTemplateSymbol@@@std@@@std@@YAPEAUTemplateSymbol@@QEAU1@0PEAU1@AEAV?$allocator@UTemplateSymbol@@@0@@Z 0000000140015210 f i debuginfo.obj
 0001:000142e0       ??$_Uninitialized_move@PEAV?$basic_string@DU?$char_traits@D@std@@V?$allocator@D@2@@std@@V?$allocator@V?$basic_string@DU?$char_traits@D@std@@V?$allocator@D@2@@std@@@2@@std@@YAPEAV?$basic_string@DU?$char_traits@D@std@@V?$allocator@D@2@@0@QEAV10@0PEAV10@AEAV?$allocator@V?$basic_string@DU?$char_traits@D@std@@V?$allocator@D@2@@std@@@0@@Z 00000001400152e0 f i debuginfo.obj
 0001:000143b0       ??$addressof@$$CBV?$_Tree_val@U?$_Tree_simple_types@U?$pair@$$CBV?$basic_string@DU?$char_traits@D@std@@V?$allocator@D@2@@std@@H@std@@@std@@@std@@@std@@YAPEBV?$_Tree_val@U?$_Tree_simple_types@U?$pair@$$CBV?$basic_string@DU?$char_traits@D@std@@V?$allocator@D@2@@std@@H@std@@@std@@@0@AEBV10@@Z 00000001400153b0 f i debuginfo.obj
 0001:000143c0       ??$addressof@$$CBV?$basic_string@DU?$char_traits@D@std@@V?$allocator@D@2@@std@@@std@@YAPEBV?$basic_string@DU?$char_traits@D@std@@V?$allocator@D@2@@0@AEBV10@@Z 00000001400153c0 f i debuginfo.obj
 0001:000143d0       ??$addressof@PEAD@std@@YAPEAPEADAEAPEAD@Z 00000001400153d0 f i debuginfo.obj
 0001:000143e0       ??$addressof@PEAU?$_Tree_node@U?$pair@$$CBV?$basic_string@DU?$char_traits@D@std@@V?$allocator@D@2@@std@@H@std@@PEAX@std@@@std@@YAPEAPEAU?$_Tree_node@U?$pair@$$CBV?$basic_string@DU?$char_traits@D@std@@V?$allocator@D@2@@std@@H@std@@PEAX@0@AEAPEAU10@@Z 00000001400153e0 f i debuginfo.obj
 0001:000143f0       ??$addressof@U?$pair@$$CBV?$basic_string@DU?$char_traits@D@std@@V?$allocator@D@2@@std@@H@std@@@std@@YAPEAU?$pair@$$CBV?$basic_string@DU?$char_traits@D@std@@V?$allocator@D@2@@std@@H@0@AEAU10@@Z 00000001400153f0 f i debuginfo.obj
 0001:00014400       ??$addressof@UDISymFile@@@std@@YAPEAUDISymFile@@AEAU1@@Z 0000000140015400 f i debuginfo.obj
 0001:00014410       ??$addressof@UDISymNameSp@@@std@@YAPEAUDISymNameSp@@AEAU1@@Z 0000000140015410 f i debuginfo.obj
 0001:00014420       ??$addressof@UDISymbol@@@std@@YAPEAUDISymbol@@AEAU1@@Z 0000000140015420 f i debuginfo.obj
 0001:00014430       ??$addressof@V?$_String_val@U?$_Simple_types@D@std@@@std@@@std@@YAPEAV?$_String_val@U?$_Simple_types@D@std@@@0@AEAV10@@Z 0000000140015430 f i debuginfo.obj
 0001:00014440       ??$addressof@V?$_Tree_val@U?$_Tree_simple_types@U?$pair@$$CBV?$basic_string@DU?$char_traits@D@std@@V?$allocator@D@2@@std@@H@std@@@std@@@std@@@std@@YAPEAV?$_Tree_val@U?$_Tree_simple_types@U?$pair@$$CBV?$basic_string@DU?$char_traits@D@std@@V?$allocator@D@2@@std@@H@std@@@std@@@0@AEAV10@@Z 0000000140015440 f i debuginfo.obj
 0001:00014450       ??$addressof@V?$_Vector_val@U?$_Simple_types@UDISymFile@@@std@@@std@@@std@@YAPEAV?$_Vector_val@U?$_Simple_types@UDISymFile@@@std@@@0@AEAV10@@Z 0000000140015450 f i debuginfo.obj
 0001:00014460       ??$addressof@V?$_Vector_val@U?$_Simple_types@UDISymNameSp@@@std@@@std@@@std@@YAPEAV?$_Vector_val@U?$_Simple_types@UDISymNameSp@@@std@@@0@AEAV10@@Z 0000000140015460 f i debuginfo.obj
 0001:00014470       ??$addressof@V?$_Vector_val@U?$_Simple_types@UDISymbol@@@std@@@std@@@std@@YAPEAV?$_Vector_val@U?$_Simple_types@UDISymbol@@@std@@@0@AEAV10@@Z 0000000140015470 f i debuginfo.obj
 0001:00014480       ??$addressof@V?$_Vector_val@U?$_Simple_types@UTemplateSymbol@@@std@@@std@@@std@@YAPEAV?$_Vector_val@U?$_Simple_types@UTemplateSymbol@@@std@@@0@AEAV10@@Z 0000000140015480 f i debuginfo.obj
 0001:00014490       ??$addressof@V?$basic_string@DU?$char_traits@D@std@@V?$allocator@D@2@@std@@@std@@YAPEAV?$basic_string@DU?$char_traits@D@std@@V?$allocator@D@2@@0@AEAV10@@Z 0000000140015490 f i debuginfo.obj
 0001:000144a0       ??$construct@U?$pair@$$CBV?$basic_string@DU?$char_traits@D@std@@V?$allocator@D@2@@std@@H@std@@U?$pair@V?$basic_string@DU?$char_traits@D@std@@V?$allocator@D@2@@std@@H@2@@?$_Default_allocator_traits@V?$allocator@U?$_Tree_node@U?$pair@$$CBV?$basic_string@DU?$char_traits@D@std@@V?$allocator@D@2@@std@@H@std@@PEAX@std@@@std@@@std@@SAXAEAV?$allocator@U?$_Tree_node@U?$pair@$$CBV?$basic_string@DU?$char_traits@D@std@@V?$allocator@D@2@@std@@H@std@@PEAX@std@@@1@QEAU?$pair@$$CBV?$basic_string@DU?$char_traits@D@std@@V?$allocator@D@2@@std@@H@1@$$QEAU?$pair@V?$basic_string@DU?$char_traits@D@std@@V?$allocator@D@2@@std@@H@1@@Z 00000001400154a0 f i debuginfo.obj
 0001:000144e0       ??$construct@UDISymFile@@U1@@?$_Default_allocator_traits@V?$allocator@UDISymFile@@@std@@@std@@SAXAEAV?$allocator@UDISymFile@@@1@QEAUDISymFile@@$$QEAU3@@Z 00000001400154e0 f i debuginfo.obj
 0001:00014520       ??$construct@UDISymNameSp@@AEBU1@@?$_Default_allocator_traits@V?$allocator@UDISymNameSp@@@std@@@std@@SAXAEAV?$allocator@UDISymNameSp@@@1@QEAUDISymNameSp@@AEBU3@@Z 0000000140015520 f i debuginfo.obj
 0001:00014560       ??$construct@UDISymNameSp@@U1@@?$_Default_allocator_traits@V?$allocator@UDISymNameSp@@@std@@@std@@SAXAEAV?$allocator@UDISymNameSp@@@1@QEAUDISymNameSp@@$$QEAU3@@Z 0000000140015560 f i debuginfo.obj
 0001:000145a0       ??$construct@UDISymbol@@U1@@?$_Default_allocator_traits@V?$allocator@UDISymbol@@@std@@@std@@SAXAEAV?$allocator@UDISymbol@@@1@QEAUDISymbol@@$$QEAU3@@Z 00000001400155a0 f i debuginfo.obj
 0001:000145e0       ??$construct@UTemplateSymbol@@AEBU1@@?$_Default_allocator_traits@V?$allocator@UTemplateSymbol@@@std@@@std@@SAXAEAV?$allocator@UTemplateSymbol@@@1@QEAUTemplateSymbol@@AEBU3@@Z 00000001400155e0 f i debuginfo.obj
 0001:00014620       ??$construct@UTemplateSymbol@@U1@@?$_Default_allocator_traits@V?$allocator@UTemplateSymbol@@@std@@@std@@SAXAEAV?$allocator@UTemplateSymbol@@@1@QEAUTemplateSymbol@@$$QEAU3@@Z 0000000140015620 f i debuginfo.obj
 0001:00014660       ??$construct@V?$basic_string@DU?$char_traits@D@std@@V?$allocator@D@2@@std@@AEBV12@@?$_Default_allocator_traits@V?$allocator@V?$basic_string@DU?$char_traits@D@std@@V?$allocator@D@2@@std@@@std@@@std@@SAXAEAV?$allocator@V?$basic_string@DU?$char_traits@D@std@@V?$allocator@D@2@@std@@@1@QEAV?$basic_string@DU?$char_traits@D@std@@V?$allocator@D@2@@1@AEBV31@@Z 0000000140015660 f i debuginfo.obj
 0001:000146a0       ??$construct@V?$basic_string@DU?$char_traits@D@std@@V?$allocator@D@2@@std@@V12@@?$_Default_allocator_traits@V?$allocator@V?$basic_string@DU?$char_traits@D@std@@V?$allocator@D@2@@std@@@std@@@std@@SAXAEAV?$allocator@V?$basic_string@DU?$char_traits@D@std@@V?$allocator@D@2@@std@@@1@QEAV?$basic_string@DU?$char_traits@D@std@@V?$allocator@D@2@@1@$$QEAV31@@Z 00000001400156a0 f i debuginfo.obj
 0001:000146e0       ??$construct_at@D$$V@std@@YAPEADQEAD@Z 00000001400156e0 f i debuginfo.obj
 0001:00014730       ??$construct_at@PEADAEAPEAD@std@@YAPEAPEADQEAPEADAEAPEAD@Z 0000000140015730 f i debuginfo.obj
 0001:00014780       ??$construct_at@PEADAEBQEAD@std@@YAPEAPEADQEAPEADAEBQEAD@Z 0000000140015780 f i debuginfo.obj
 0001:000147d0       ??$construct_at@PEAU?$_Tree_node@U?$pair@$$CBV?$basic_string@DU?$char_traits@D@std@@V?$allocator@D@2@@std@@H@std@@PEAX@std@@AEAPEAU12@@std@@YAPEAPEAU?$_Tree_node@U?$pair@$$CBV?$basic_string@DU?$char_traits@D@std@@V?$allocator@D@2@@std@@H@std@@PEAX@0@QEAPEAU10@AEAPEAU10@@Z 00000001400157d0 f i debuginfo.obj
 0001:00014820       ??$construct_at@PEAU?$_Tree_node@U?$pair@$$CBV?$basic_string@DU?$char_traits@D@std@@V?$allocator@D@2@@std@@H@std@@PEAX@std@@AEBQEAU12@@std@@YAPEAPEAU?$_Tree_node@U?$pair@$$CBV?$basic_string@DU?$char_traits@D@std@@V?$allocator@D@2@@std@@H@std@@PEAX@0@QEAPEAU10@AEBQEAU10@@Z 0000000140015820 f i debuginfo.obj
 0001:00014870       ??$construct_at@U?$pair@$$CBV?$basic_string@DU?$char_traits@D@std@@V?$allocator@D@2@@std@@H@std@@U?$pair@V?$basic_string@DU?$char_traits@D@std@@V?$allocator@D@2@@std@@H@2@@std@@YAPEAU?$pair@$$CBV?$basic_string@DU?$char_traits@D@std@@V?$allocator@D@2@@std@@H@0@QEAU10@$$QEAU?$pair@V?$basic_string@DU?$char_traits@D@std@@V?$allocator@D@2@@std@@H@0@@Z 0000000140015870 f i debuginfo.obj
 0001:000148c0       ??$construct_at@UDISymFile@@U1@@std@@YAPEAUDISymFile@@QEAU1@$$QEAU1@@Z 00000001400158c0 f i debuginfo.obj
 0001:00014920       ??$construct_at@UDISymNameSp@@AEBU1@@std@@YAPEAUDISymNameSp@@QEAU1@AEBU1@@Z 0000000140015920 f i debuginfo.obj
 0001:00014980       ??$construct_at@UDISymNameSp@@U1@@std@@YAPEAUDISymNameSp@@QEAU1@$$QEAU1@@Z 0000000140015980 f i debuginfo.obj
 0001:000149e0       ??$construct_at@UDISymbol@@U1@@std@@YAPEAUDISymbol@@QEAU1@$$QEAU1@@Z 00000001400159e0 f i debuginfo.obj
 0001:00014a40       ??$construct_at@UTemplateSymbol@@AEBU1@@std@@YAPEAUTemplateSymbol@@QEAU1@AEBU1@@Z 0000000140015a40 f i debuginfo.obj
 0001:00014a90       ??$construct_at@UTemplateSymbol@@U1@@std@@YAPEAUTemplateSymbol@@QEAU1@$$QEAU1@@Z 0000000140015a90 f i debuginfo.obj
 0001:00014ae0       ??$construct_at@V?$basic_string@DU?$char_traits@D@std@@V?$allocator@D@2@@std@@AEBV12@@std@@YAPEAV?$basic_string@DU?$char_traits@D@std@@V?$allocator@D@2@@0@QEAV10@AEBV10@@Z 0000000140015ae0 f i debuginfo.obj
 0001:00014b30       ??$construct_at@V?$basic_string@DU?$char_traits@D@std@@V?$allocator@D@2@@std@@V12@@std@@YAPEAV?$basic_string@DU?$char_traits@D@std@@V?$allocator@D@2@@0@QEAV10@$$QEAV10@@Z 0000000140015b30 f i debuginfo.obj
 0001:00014b80       ??$destroy@U?$pair@$$CBV?$basic_string@DU?$char_traits@D@std@@V?$allocator@D@2@@std@@H@std@@@?$_Default_allocator_traits@V?$allocator@U?$_Tree_node@U?$pair@$$CBV?$basic_string@DU?$char_traits@D@std@@V?$allocator@D@2@@std@@H@std@@PEAX@std@@@std@@@std@@SAXAEAV?$allocator@U?$_Tree_node@U?$pair@$$CBV?$basic_string@DU?$char_traits@D@std@@V?$allocator@D@2@@std@@H@std@@PEAX@std@@@1@QEAU?$pair@$$CBV?$basic_string@DU?$char_traits@D@std@@V?$allocator@D@2@@std@@H@1@@Z 0000000140015b80 f i debuginfo.obj
 0001:00014bb0       ??$destroy@UTemplateSymbol@@@?$_Default_allocator_traits@V?$allocator@UTemplateSymbol@@@std@@@std@@SAXAEAV?$allocator@UTemplateSymbol@@@1@QEAUTemplateSymbol@@@Z 0000000140015bb0 f i debuginfo.obj
 0001:00014be0       ??$destroy@V?$basic_string@DU?$char_traits@D@std@@V?$allocator@D@2@@std@@@?$_Default_allocator_traits@V?$allocator@V?$basic_string@DU?$char_traits@D@std@@V?$allocator@D@2@@std@@@std@@@std@@SAXAEAV?$allocator@V?$basic_string@DU?$char_traits@D@std@@V?$allocator@D@2@@std@@@1@QEAV?$basic_string@DU?$char_traits@D@std@@V?$allocator@D@2@@1@@Z 0000000140015be0 f i debuginfo.obj
 0001:00014c10       ??$destroy_at@U?$pair@$$CBV?$basic_string@DU?$char_traits@D@std@@V?$allocator@D@2@@std@@H@std@@@std@@YAXQEAU?$pair@$$CBV?$basic_string@DU?$char_traits@D@std@@V?$allocator@D@2@@std@@H@0@@Z 0000000140015c10 f i debuginfo.obj
 0001:00014c40       ??$destroy_at@UTemplateSymbol@@@std@@YAXQEAUTemplateSymbol@@@Z 0000000140015c40 f i debuginfo.obj
 0001:00014c70       ??$destroy_at@V?$basic_string@DU?$char_traits@D@std@@V?$allocator@D@2@@std@@@std@@YAXQEAV?$basic_string@DU?$char_traits@D@std@@V?$allocator@D@2@@0@@Z 0000000140015c70 f i debuginfo.obj
 0001:00014ca0       ??$emplace@U?$pair@V?$basic_string@DU?$char_traits@D@std@@V?$allocator@D@2@@std@@H@std@@@?$_Tree@V?$_Tmap_traits@V?$basic_string@DU?$char_traits@D@std@@V?$allocator@D@2@@std@@HU?$less@V?$basic_string@DU?$char_traits@D@std@@V?$allocator@D@2@@std@@@2@V?$allocator@U?$pair@$$CBV?$basic_string@DU?$char_traits@D@std@@V?$allocator@D@2@@std@@H@std@@@2@$0A@@std@@@std@@QEAA?AU?$pair@V?$_Tree_iterator@V?$_Tree_val@U?$_Tree_simple_types@U?$pair@$$CBV?$basic_string@DU?$char_traits@D@std@@V?$allocator@D@2@@std@@H@std@@@std@@@std@@@std@@_N@1@$$QEAU?$pair@V?$basic_string@DU?$char_traits@D@std@@V?$allocator@D@2@@std@@H@1@@Z 0000000140015ca0 f i debuginfo.obj
 0001:00014d20       ??$exchange@PEAU?$_Tree_node@U?$pair@$$CBV?$basic_string@DU?$char_traits@D@std@@V?$allocator@D@2@@std@@H@std@@PEAX@std@@$$T@std@@YAPEAU?$_Tree_node@U?$pair@$$CBV?$basic_string@DU?$char_traits@D@std@@V?$allocator@D@2@@std@@H@std@@PEAX@0@AEAPEAU10@$$QEA$$T@Z 0000000140015d20 f i debuginfo.obj
 0001:00014d60       ??$exchange@PEAU?$_Tree_node@U?$pair@$$CBV?$basic_string@DU?$char_traits@D@std@@V?$allocator@D@2@@std@@H@std@@PEAX@std@@AEAPEAU12@@std@@YAPEAU?$_Tree_node@U?$pair@$$CBV?$basic_string@DU?$char_traits@D@std@@V?$allocator@D@2@@std@@H@std@@PEAX@0@AEAPEAU10@0@Z 0000000140015d60 f i debuginfo.obj
 0001:00014da0       ??$insert@U?$pair@V?$basic_string@DU?$char_traits@D@std@@V?$allocator@D@2@@std@@H@std@@$0A@@?$map@V?$basic_string@DU?$char_traits@D@std@@V?$allocator@D@2@@std@@HU?$less@V?$basic_string@DU?$char_traits@D@std@@V?$allocator@D@2@@std@@@2@V?$allocator@U?$pair@$$CBV?$basic_string@DU?$char_traits@D@std@@V?$allocator@D@2@@std@@H@std@@@2@@std@@QEAA?AU?$pair@V?$_Tree_iterator@V?$_Tree_val@U?$_Tree_simple_types@U?$pair@$$CBV?$basic_string@DU?$char_traits@D@std@@V?$allocator@D@2@@std@@H@std@@@std@@@std@@@std@@_N@1@$$QEAU?$pair@V?$basic_string@DU?$char_traits@D@std@@V?$allocator@D@2@@std@@H@1@@Z 0000000140015da0 f i debuginfo.obj
 0001:00014de0       ??$make_pair@AEAV?$basic_string@DU?$char_traits@D@std@@V?$allocator@D@2@@std@@AEAH@std@@YA?AU?$pair@V?$basic_string@DU?$char_traits@D@std@@V?$allocator@D@2@@std@@H@0@AEAV?$basic_string@DU?$char_traits@D@std@@V?$allocator@D@2@@0@AEAH@Z 0000000140015de0 f i debuginfo.obj
 0001:00014e20       ??$max@_K@std@@YAAEB_KAEB_K0@Z 0000000140015e20 f i debuginfo.obj
 0001:00014e80       ??$min@_K@std@@YAAEB_KAEB_K0@Z 0000000140015e80 f i debuginfo.obj
 0001:00014ee0       ??$sort@V?$_Vector_iterator@V?$_Vector_val@U?$_Simple_types@UDISymFile@@@std@@@std@@@std@@P6A_NAEBUDISymFile@@0@Z@std@@YAXV?$_Vector_iterator@V?$_Vector_val@U?$_Simple_types@UDISymFile@@@std@@@std@@@0@0P6A_NAEBUDISymFile@@1@Z@Z 0000000140015ee0 f i debuginfo.obj
 0001:00014f90       ??$sort@V?$_Vector_iterator@V?$_Vector_val@U?$_Simple_types@UDISymNameSp@@@std@@@std@@@std@@P6A_NAEBUDISymNameSp@@0@Z@std@@YAXV?$_Vector_iterator@V?$_Vector_val@U?$_Simple_types@UDISymNameSp@@@std@@@std@@@0@0P6A_NAEBUDISymNameSp@@1@Z@Z 0000000140015f90 f i debuginfo.obj
 0001:00015040       ??$sort@V?$_Vector_iterator@V?$_Vector_val@U?$_Simple_types@UDISymbol@@@std@@@std@@@std@@P6A_NAEBUDISymbol@@0@Z@std@@YAXV?$_Vector_iterator@V?$_Vector_val@U?$_Simple_types@UDISymbol@@@std@@@std@@@0@0P6A_NAEBUDISymbol@@1@Z@Z 0000000140016040 f i debuginfo.obj
 0001:000150f0       ??$sort@V?$_Vector_iterator@V?$_Vector_val@U?$_Simple_types@UTemplateSymbol@@@std@@@std@@@std@@P6A_NAEBUTemplateSymbol@@0@Z@std@@YAXV?$_Vector_iterator@V?$_Vector_val@U?$_Simple_types@UTemplateSymbol@@@std@@@std@@@0@0P6A_NAEBUTemplateSymbol@@1@Z@Z 00000001400160f0 f i debuginfo.obj
 0001:000151a0       ??$swap@UDISymFile@@$0A@@std@@YAXAEAUDISymFile@@0@Z 00000001400161a0 f i debuginfo.obj
 0001:00015230       ??$swap@UDISymNameSp@@$0A@@std@@YAXAEAUDISymNameSp@@0@Z 0000000140016230 f i debuginfo.obj
 0001:000152c0       ??$swap@UDISymbol@@$0A@@std@@YAXAEAUDISymbol@@0@Z 00000001400162c0 f i debuginfo.obj
 0001:00015350       ??$swap@UTemplateSymbol@@$0A@@std@@YAXAEAUTemplateSymbol@@0@Z 0000000140016350 f i debuginfo.obj
 0001:000153f0       ??$to_address@UDISymFile@@@std@@YAPEAUDISymFile@@QEAU1@@Z 00000001400163f0 f i debuginfo.obj
 0001:00015400       ??$to_address@UDISymNameSp@@@std@@YAPEAUDISymNameSp@@QEAU1@@Z 0000000140016400 f i debuginfo.obj
 0001:00015410       ??$to_address@UDISymbol@@@std@@YAPEAUDISymbol@@QEAU1@@Z 0000000140016410 f i debuginfo.obj
 0001:00015420       ??0?$_Alloc_construct_ptr@V?$allocator@U?$_Tree_node@U?$pair@$$CBV?$basic_string@DU?$char_traits@D@std@@V?$allocator@D@2@@std@@H@std@@PEAX@std@@@std@@@std@@QEAA@AEAV?$allocator@U?$_Tree_node@U?$pair@$$CBV?$basic_string@DU?$char_traits@D@std@@V?$allocator@D@2@@std@@H@std@@PEAX@std@@@1@@Z 0000000140016420 f i debuginfo.obj
 0001:00015460       ??0?$_String_val@U?$_Simple_types@D@std@@@std@@QEAA@XZ 0000000140016460 f i debuginfo.obj
 0001:000154b0       ??0?$_Tree@V?$_Tmap_traits@V?$basic_string@DU?$char_traits@D@std@@V?$allocator@D@2@@std@@HU?$less@V?$basic_string@DU?$char_traits@D@std@@V?$allocator@D@2@@std@@@2@V?$allocator@U?$pair@$$CBV?$basic_string@DU?$char_traits@D@std@@V?$allocator@D@2@@std@@H@std@@@2@$0A@@std@@@std@@QEAA@AEBU?$less@V?$basic_string@DU?$char_traits@D@std@@V?$allocator@D@2@@std@@@1@@Z 00000001400164b0 f i debuginfo.obj
 0001:00015510       ??0?$_Tree_const_iterator@V?$_Tree_val@U?$_Tree_simple_types@U?$pair@$$CBV?$basic_string@DU?$char_traits@D@std@@V?$allocator@D@2@@std@@H@std@@@std@@@std@@@std@@QEAA@PEAU?$_Tree_node@U?$pair@$$CBV?$basic_string@DU?$char_traits@D@std@@V?$allocator@D@2@@std@@H@std@@PEAX@1@PEBV?$_Tree_val@U?$_Tree_simple_types@U?$pair@$$CBV?$basic_string@DU?$char_traits@D@std@@V?$allocator@D@2@@std@@H@std@@@std@@@1@@Z 0000000140016510 f i debuginfo.obj
 0001:00015550       ??0?$_Tree_iterator@V?$_Tree_val@U?$_Tree_simple_types@U?$pair@$$CBV?$basic_string@DU?$char_traits@D@std@@V?$allocator@D@2@@std@@H@std@@@std@@@std@@@std@@QEAA@PEAU?$_Tree_node@U?$pair@$$CBV?$basic_string@DU?$char_traits@D@std@@V?$allocator@D@2@@std@@H@std@@PEAX@1@PEBV?$_Tree_val@U?$_Tree_simple_types@U?$pair@$$CBV?$basic_string@DU?$char_traits@D@std@@V?$allocator@D@2@@std@@H@std@@@std@@@1@@Z 0000000140016550 f i debuginfo.obj
 0001:00015590       ??0?$_Tree_temp_node_alloc@V?$allocator@U?$_Tree_node@U?$pair@$$CBV?$basic_string@DU?$char_traits@D@std@@V?$allocator@D@2@@std@@H@std@@PEAX@std@@@std@@@std@@QEAA@AEAV?$allocator@U?$_Tree_node@U?$pair@$$CBV?$basic_string@DU?$char_traits@D@std@@V?$allocator@D@2@@std@@H@std@@PEAX@std@@@1@@Z 0000000140016590 f i debuginfo.obj
 0001:000155d0       ??0?$_Tree_unchecked_const_iterator@V?$_Tree_val@U?$_Tree_simple_types@U?$pair@$$CBV?$basic_string@DU?$char_traits@D@std@@V?$allocator@D@2@@std@@H@std@@@std@@@std@@U_Iterator_base0@2@@std@@QEAA@PEAU?$_Tree_node@U?$pair@$$CBV?$basic_string@DU?$char_traits@D@std@@V?$allocator@D@2@@std@@H@std@@PEAX@1@PEBV?$_Tree_val@U?$_Tree_simple_types@U?$pair@$$CBV?$basic_string@DU?$char_traits@D@std@@V?$allocator@D@2@@std@@H@std@@@std@@@1@@Z 00000001400165d0 f i debuginfo.obj
 0001:00015620       ??0?$_Tree_val@U?$_Tree_simple_types@U?$pair@$$CBV?$basic_string@DU?$char_traits@D@std@@V?$allocator@D@2@@std@@H@std@@@std@@@std@@QEAA@XZ 0000000140016620 f i debuginfo.obj
 0001:00015650       ??0?$_Uninitialized_backout_al@V?$allocator@UDISymFile@@@std@@@std@@QEAA@PEAUDISymFile@@AEAV?$allocator@UDISymFile@@@1@@Z 0000000140016650 f i debuginfo.obj
 0001:000156a0       ??0?$_Uninitialized_backout_al@V?$allocator@UDISymNameSp@@@std@@@std@@QEAA@PEAUDISymNameSp@@AEAV?$allocator@UDISymNameSp@@@1@@Z 00000001400166a0 f i debuginfo.obj
 0001:000156f0       ??0?$_Uninitialized_backout_al@V?$allocator@UDISymbol@@@std@@@std@@QEAA@PEAUDISymbol@@AEAV?$allocator@UDISymbol@@@1@@Z 00000001400166f0 f i debuginfo.obj
 0001:00015740       ??0?$_Uninitialized_backout_al@V?$allocator@UTemplateSymbol@@@std@@@std@@QEAA@PEAUTemplateSymbol@@AEAV?$allocator@UTemplateSymbol@@@1@@Z 0000000140016740 f i debuginfo.obj
 0001:00015790       ??0?$_Uninitialized_backout_al@V?$allocator@V?$basic_string@DU?$char_traits@D@std@@V?$allocator@D@2@@std@@@std@@@std@@QEAA@PEAV?$basic_string@DU?$char_traits@D@std@@V?$allocator@D@2@@1@AEAV?$allocator@V?$basic_string@DU?$char_traits@D@std@@V?$allocator@D@2@@std@@@1@@Z 0000000140016790 f i debuginfo.obj
 0001:000157e0       ??0?$_Vector_const_iterator@V?$_Vector_val@U?$_Simple_types@UDISymFile@@@std@@@std@@@std@@QEAA@PEAUDISymFile@@PEBU_Container_base0@1@@Z 00000001400167e0 f i debuginfo.obj
 0001:00015830       ??0?$_Vector_const_iterator@V?$_Vector_val@U?$_Simple_types@UDISymNameSp@@@std@@@std@@@std@@QEAA@PEAUDISymNameSp@@PEBU_Container_base0@1@@Z 0000000140016830 f i debuginfo.obj
 0001:00015880       ??0?$_Vector_const_iterator@V?$_Vector_val@U?$_Simple_types@UDISymbol@@@std@@@std@@@std@@QEAA@PEAUDISymbol@@PEBU_Container_base0@1@@Z 0000000140016880 f i debuginfo.obj
 0001:000158d0       ??0?$_Vector_const_iterator@V?$_Vector_val@U?$_Simple_types@UTemplateSymbol@@@std@@@std@@@std@@QEAA@PEAUTemplateSymbol@@PEBU_Container_base0@1@@Z 00000001400168d0 f i debuginfo.obj
 0001:00015920       ??0?$_Vector_iterator@V?$_Vector_val@U?$_Simple_types@UDISymFile@@@std@@@std@@@std@@QEAA@PEAUDISymFile@@PEBU_Container_base0@1@@Z 0000000140016920 f i debuginfo.obj
 0001:00015960       ??0?$_Vector_iterator@V?$_Vector_val@U?$_Simple_types@UDISymNameSp@@@std@@@std@@@std@@QEAA@PEAUDISymNameSp@@PEBU_Container_base0@1@@Z 0000000140016960 f i debuginfo.obj
 0001:000159a0       ??0?$_Vector_iterator@V?$_Vector_val@U?$_Simple_types@UDISymbol@@@std@@@std@@@std@@QEAA@PEAUDISymbol@@PEBU_Container_base0@1@@Z 00000001400169a0 f i debuginfo.obj
 0001:000159e0       ??0?$_Vector_iterator@V?$_Vector_val@U?$_Simple_types@UTemplateSymbol@@@std@@@std@@@std@@QEAA@PEAUTemplateSymbol@@PEBU_Container_base0@1@@Z 00000001400169e0 f i debuginfo.obj
 0001:00015a20       ??0?$allocator@D@std@@QEAA@XZ 0000000140016a20 f i debuginfo.obj
 0001:00015a30       ??0?$allocator@U?$_Tree_node@U?$pair@$$CBV?$basic_string@DU?$char_traits@D@std@@V?$allocator@D@2@@std@@H@std@@PEAX@std@@@std@@QEAA@XZ 0000000140016a30 f i debuginfo.obj
 0001:00015a40       ??0?$basic_string@DU?$char_traits@D@std@@V?$allocator@D@2@@std@@QEAA@$$QEAV01@@Z 0000000140016a40 f i debuginfo.obj
 0001:00015ae0       ??0?$basic_string@DU?$char_traits@D@std@@V?$allocator@D@2@@std@@QEAA@AEBV01@@Z 0000000140016ae0 f i debuginfo.obj
 0001:00015ba0       ??0?$basic_string@DU?$char_traits@D@std@@V?$allocator@D@2@@std@@QEAA@QEBD@Z 0000000140016ba0 f i debuginfo.obj
 0001:00015c10       ??0?$basic_string@DU?$char_traits@D@std@@V?$allocator@D@2@@std@@QEAA@XZ 0000000140016c10 f i debuginfo.obj
 0001:00015c60       ??0?$map@V?$basic_string@DU?$char_traits@D@std@@V?$allocator@D@2@@std@@HU?$less@V?$basic_string@DU?$char_traits@D@std@@V?$allocator@D@2@@std@@@2@V?$allocator@U?$pair@$$CBV?$basic_string@DU?$char_traits@D@std@@V?$allocator@D@2@@std@@H@std@@@2@@std@@QEAA@XZ 0000000140016c60 f i debuginfo.obj
 0001:00015c90       ??0TemplateSymbol@@QEAA@$$QEAU0@@Z 0000000140016c90 f i debuginfo.obj
 0001:00015d30       ??0TemplateSymbol@@QEAA@AEBU0@@Z 0000000140016d30 f i debuginfo.obj
 0001:00015dd0       ??0TemplateSymbol@@QEAA@XZ 0000000140016dd0 f i debuginfo.obj
 0001:00015e10       ??0_Bxty@?$_String_val@U?$_Simple_types@D@std@@@std@@QEAA@XZ 0000000140016e10 f i debuginfo.obj
 0001:00015e40       ??0_Fake_proxy_ptr_impl@std@@QEAA@AEBU_Fake_allocator@1@AEBU_Container_base0@1@@Z 0000000140016e40 f i debuginfo.obj
 0001:00015e60       ??0bad_alloc@stdext@@AEAA@PEBD@Z 0000000140016e60 f i debuginfo.obj
 0001:00015eb0       ??0bad_array_new_length@stdext@@QEAA@XZ 0000000140016eb0 f i debuginfo.obj
 0001:00015ef0       ??0exception@stdext@@QEAA@PEBDH@Z 0000000140016ef0 f i debuginfo.obj
 0001:00015f30       ??1?$_Alloc_construct_ptr@V?$allocator@U?$_Tree_node@U?$pair@$$CBV?$basic_string@DU?$char_traits@D@std@@V?$allocator@D@2@@std@@H@std@@PEAX@std@@@std@@@std@@QEAA@XZ 0000000140016f30 f i debuginfo.obj
 0001:00015f90       ??1?$_Compressed_pair@V?$allocator@D@std@@V?$_String_val@U?$_Simple_types@D@std@@@2@$00@std@@QEAA@XZ 0000000140016f90 f i debuginfo.obj
 0001:00015fc0       ??1?$_String_val@U?$_Simple_types@D@std@@@std@@QEAA@XZ 0000000140016fc0 f i debuginfo.obj
 0001:00015ff0       ??1?$_Tree@V?$_Tmap_traits@V?$basic_string@DU?$char_traits@D@std@@V?$allocator@D@2@@std@@HU?$less@V?$basic_string@DU?$char_traits@D@std@@V?$allocator@D@2@@std@@@2@V?$allocator@U?$pair@$$CBV?$basic_string@DU?$char_traits@D@std@@V?$allocator@D@2@@std@@H@std@@@2@$0A@@std@@@std@@QEAA@XZ 0000000140016ff0 f i debuginfo.obj
 0001:00016040       ??1?$_Tree_temp_node@V?$allocator@U?$_Tree_node@U?$pair@$$CBV?$basic_string@DU?$char_traits@D@std@@V?$allocator@D@2@@std@@H@std@@PEAX@std@@@std@@@std@@QEAA@XZ 0000000140017040 f i debuginfo.obj
 0001:00016100       ??1?$_Tree_temp_node_alloc@V?$allocator@U?$_Tree_node@U?$pair@$$CBV?$basic_string@DU?$char_traits@D@std@@V?$allocator@D@2@@std@@H@std@@PEAX@std@@@std@@@std@@QEAA@XZ 0000000140017100 f i debuginfo.obj
 0001:00016120       ??1?$_Uninitialized_backout_al@V?$allocator@UDISymFile@@@std@@@std@@QEAA@XZ 0000000140017120 f i debuginfo.obj
 0001:00016160       ??1?$_Uninitialized_backout_al@V?$allocator@UDISymNameSp@@@std@@@std@@QEAA@XZ 0000000140017160 f i debuginfo.obj
 0001:000161a0       ??1?$_Uninitialized_backout_al@V?$allocator@UDISymbol@@@std@@@std@@QEAA@XZ 00000001400171a0 f i debuginfo.obj
 0001:000161e0       ??1?$_Uninitialized_backout_al@V?$allocator@UTemplateSymbol@@@std@@@std@@QEAA@XZ 00000001400171e0 f i debuginfo.obj
 0001:00016220       ??1?$_Uninitialized_backout_al@V?$allocator@V?$basic_string@DU?$char_traits@D@std@@V?$allocator@D@2@@std@@@std@@@std@@QEAA@XZ 0000000140017220 f i debuginfo.obj
 0001:00016260       ??1?$basic_string@DU?$char_traits@D@std@@V?$allocator@D@2@@std@@QEAA@XZ 0000000140017260 f i debuginfo.obj
 0001:00016290       ??1?$map@V?$basic_string@DU?$char_traits@D@std@@V?$allocator@D@2@@std@@HU?$less@V?$basic_string@DU?$char_traits@D@std@@V?$allocator@D@2@@std@@@2@V?$allocator@U?$pair@$$CBV?$basic_string@DU?$char_traits@D@std@@V?$allocator@D@2@@std@@H@std@@@2@@std@@QEAA@XZ 0000000140017290 f i debuginfo.obj
 0001:000162b0       ??1?$pair@$$CBV?$basic_string@DU?$char_traits@D@std@@V?$allocator@D@2@@std@@H@std@@QEAA@XZ 00000001400172b0 f i debuginfo.obj
 0001:000162e0       ??1?$pair@V?$basic_string@DU?$char_traits@D@std@@V?$allocator@D@2@@std@@H@std@@QEAA@XZ 00000001400172e0 f i debuginfo.obj
 0001:00016310       ??1TemplateSymbol@@QEAA@XZ 0000000140017310 f i debuginfo.obj
 0001:00016350       ??1_Bxty@?$_String_val@U?$_Simple_types@D@std@@@std@@QEAA@XZ 0000000140017350 f i debuginfo.obj
 0001:00016360       ??1bad_alloc@stdext@@UEAA@XZ 0000000140017360 f i debuginfo.obj
 0001:000163a0       ??1bad_array_new_length@stdext@@UEAA@XZ 00000001400173a0 f i debuginfo.obj
 0001:000163c0       ??1exception@stdext@@UEAA@XZ 00000001400173c0 f i debuginfo.obj
 0001:000163e0       ??2@YAPEAX_KPEAX@Z         00000001400173e0 f i debuginfo.obj
 0001:00016400       ??4?$basic_string@DU?$char_traits@D@std@@V?$allocator@D@2@@std@@QEAAAEAV01@$$QEAV01@@Z 0000000140017400 f i debuginfo.obj
 0001:000164a0       ??4?$basic_string@DU?$char_traits@D@std@@V?$allocator@D@2@@std@@QEAAAEAV01@AEBV01@@Z 00000001400174a0 f i debuginfo.obj
 0001:00016560       ??4?$basic_string@DU?$char_traits@D@std@@V?$allocator@D@2@@std@@QEAAAEAV01@QEBD@Z 0000000140017560 f i debuginfo.obj
 0001:00016590       ??4TemplateSymbol@@QEAAAEAU0@$$QEAU0@@Z 0000000140017590 f i debuginfo.obj
 0001:00016610       ??8?$_Tree_const_iterator@V?$_Tree_val@U?$_Tree_simple_types@U?$pair@$$CBV?$basic_string@DU?$char_traits@D@std@@V?$allocator@D@2@@std@@H@std@@@std@@@std@@@std@@QEBA_NAEBV01@@Z 0000000140017610 f i debuginfo.obj
 0001:00016660       ??A?$basic_string@DU?$char_traits@D@std@@V?$allocator@D@2@@std@@QEAAAEAD_K@Z 0000000140017660 f i debuginfo.obj
 0001:00016690       ??A?$vector@UDISymFile@@V?$allocator@UDISymFile@@@std@@@std@@QEAAAEAUDISymFile@@_K@Z 0000000140017690 f i debuginfo.obj
 0001:000166d0       ??A?$vector@UDISymNameSp@@V?$allocator@UDISymNameSp@@@std@@@std@@QEAAAEAUDISymNameSp@@_K@Z 00000001400176d0 f i debuginfo.obj
 0001:00016710       ??A?$vector@UDISymbol@@V?$allocator@UDISymbol@@@std@@@std@@QEAAAEAUDISymbol@@_K@Z 0000000140017710 f i debuginfo.obj
 0001:00016750       ??A?$vector@UDISymbol@@V?$allocator@UDISymbol@@@std@@@std@@QEBAAEBUDISymbol@@_K@Z 0000000140017750 f i debuginfo.obj
 0001:00016790       ??A?$vector@UTemplateSymbol@@V?$allocator@UTemplateSymbol@@@std@@@std@@QEAAAEAUTemplateSymbol@@_K@Z 0000000140017790 f i debuginfo.obj
 0001:000167d0       ??A?$vector@V?$basic_string@DU?$char_traits@D@std@@V?$allocator@D@2@@std@@V?$allocator@V?$basic_string@DU?$char_traits@D@std@@V?$allocator@D@2@@std@@@2@@std@@QEBAAEBV?$basic_string@DU?$char_traits@D@std@@V?$allocator@D@2@@1@_K@Z 00000001400177d0 f i debuginfo.obj
 0001:00016810       ??C?$_Tree_iterator@V?$_Tree_val@U?$_Tree_simple_types@U?$pair@$$CBV?$basic_string@DU?$char_traits@D@std@@V?$allocator@D@2@@std@@H@std@@@std@@@std@@@std@@QEBAPEAU?$pair@$$CBV?$basic_string@DU?$char_traits@D@std@@V?$allocator@D@2@@std@@H@1@XZ 0000000140017810 f i debuginfo.obj
 0001:00016840       ??D?$_Tree_const_iterator@V?$_Tree_val@U?$_Tree_simple_types@U?$pair@$$CBV?$basic_string@DU?$char_traits@D@std@@V?$allocator@D@2@@std@@H@std@@@std@@@std@@@std@@QEBAAEBU?$pair@$$CBV?$basic_string@DU?$char_traits@D@std@@V?$allocator@D@2@@std@@H@1@XZ 0000000140017840 f i debuginfo.obj
 0001:00016860       ??D?$_Tree_iterator@V?$_Tree_val@U?$_Tree_simple_types@U?$pair@$$CBV?$basic_string@DU?$char_traits@D@std@@V?$allocator@D@2@@std@@H@std@@@std@@@std@@@std@@QEBAAEAU?$pair@$$CBV?$basic_string@DU?$char_traits@D@std@@V?$allocator@D@2@@std@@H@1@XZ 0000000140017860 f i debuginfo.obj
 0001:00016880       ??Mstd@@YA_NUstrong_ordering@0@U_Literal_zero@0@@Z 0000000140017880 f i debuginfo.obj
 0001:000168c0       ??R<lambda_1>@?1??append@?$basic_string@DU?$char_traits@D@std@@V?$allocator@D@2@@std@@QEAAAEAV23@QEBD_K@Z@QEBA@QEAD0101@Z 00000001400178c0 f i debuginfo.obj
 0001:00016970       ??R<lambda_1>@?1??assign@?$basic_string@DU?$char_traits@D@std@@V?$allocator@D@2@@std@@QEAAAEAV23@QEBD_K@Z@QEBA@QEAD10@Z 0000000140017970 f i debuginfo.obj
 0001:000169e0       ??R<lambda_1>@?1??reserve@?$basic_string@DU?$char_traits@D@std@@V?$allocator@D@2@@std@@QEAAX_K@Z@QEBA@QEADQEBD0@Z 00000001400179e0 f i debuginfo.obj
 0001:00016a30       ??R?$less@V?$basic_string@DU?$char_traits@D@std@@V?$allocator@D@2@@std@@@std@@QEBA_NAEBV?$basic_string@DU?$char_traits@D@std@@V?$allocator@D@2@@1@0@Z 0000000140017a30 f i debuginfo.obj
 0001:00016ac0       ??Y?$basic_string@DU?$char_traits@D@std@@V?$allocator@D@2@@std@@QEAAAEAV01@QEBD@Z 0000000140017ac0 f i debuginfo.obj
 0001:00016af0       ??_G?$basic_string@DU?$char_traits@D@std@@V?$allocator@D@2@@std@@QEAAPEAXI@Z 0000000140017af0 f i debuginfo.obj
 0001:00016b40       ??_G?$pair@$$CBV?$basic_string@DU?$char_traits@D@std@@V?$allocator@D@2@@std@@H@std@@QEAAPEAXI@Z 0000000140017b40 f i debuginfo.obj
 0001:00016b90       ??_GTemplateSymbol@@QEAAPEAXI@Z 0000000140017b90 f i debuginfo.obj
 0001:00016be0       ??_Ebad_alloc@stdext@@UEAAPEAXI@Z 0000000140017be0 f i debuginfo.obj
 0001:00016be0       ??_Gbad_alloc@stdext@@UEAAPEAXI@Z 0000000140017be0 f i debuginfo.obj
 0001:00016c30       ??_Ebad_array_new_length@stdext@@UEAAPEAXI@Z 0000000140017c30 f i debuginfo.obj
 0001:00016c30       ??_Gbad_array_new_length@stdext@@UEAAPEAXI@Z 0000000140017c30 f i debuginfo.obj
 0001:00016c80       ??_Eexception@stdext@@UEAAPEAXI@Z 0000000140017c80 f i debuginfo.obj
 0001:00016c80       ??_Gexception@stdext@@UEAAPEAXI@Z 0000000140017c80 f i debuginfo.obj
 0001:00016cd0       ?GetStringPrep@DebugInfo@@QEBAPEBDH@Z 0000000140017cd0 f i debuginfo.obj
 0001:00016d20       ?_Activate_SSO_buffer@?$_String_val@U?$_Simple_types@D@std@@@std@@QEAAXXZ 0000000140017d20 f i debuginfo.obj
 0001:00016d90       ?_Adjust_manually_vector_aligned@std@@YAXAEAPEAXAEA_K@Z 0000000140017d90 f i debuginfo.obj
 0001:00016e50       ?_Adopt@_Iterator_base0@std@@QEAAXPEBX@Z 0000000140017e50 f i debuginfo.obj
 0001:00016e60       ?_Alloc_proxy@_Container_base0@std@@QEAAXAEBU_Fake_allocator@2@@Z 0000000140017e60 f i debuginfo.obj
 0001:00016e70       ?_Alloc_sentinel_and_proxy@?$_Tree@V?$_Tmap_traits@V?$basic_string@DU?$char_traits@D@std@@V?$allocator@D@2@@std@@HU?$less@V?$basic_string@DU?$char_traits@D@std@@V?$allocator@D@2@@std@@@2@V?$allocator@U?$pair@$$CBV?$basic_string@DU?$char_traits@D@std@@V?$allocator@D@2@@std@@H@std@@@2@$0A@@std@@@std@@IEAAXXZ 0000000140017e70 f i debuginfo.obj
 0001:00016ef0       ?_Allocate@?$_Alloc_construct_ptr@V?$allocator@U?$_Tree_node@U?$pair@$$CBV?$basic_string@DU?$char_traits@D@std@@V?$allocator@D@2@@std@@H@std@@PEAX@std@@@std@@@std@@QEAAXXZ 0000000140017ef0 f i debuginfo.obj
 0001:00016f40       ?_Allocate@_Default_allocate_traits@std@@SAPEAX_K@Z 0000000140017f40 f i debuginfo.obj
 0001:00016f60       ?_Calculate_growth@?$basic_string@DU?$char_traits@D@std@@V?$allocator@D@2@@std@@AEBA_K_K@Z 0000000140017f60 f i debuginfo.obj
 0001:00016fc0       ?_Calculate_growth@?$basic_string@DU?$char_traits@D@std@@V?$allocator@D@2@@std@@CA_K_K00@Z 0000000140017fc0 f i debuginfo.obj
 0001:00017080       ?_Calculate_growth@?$vector@UDISymFile@@V?$allocator@UDISymFile@@@std@@@std@@AEBA_K_K@Z 0000000140018080 f i debuginfo.obj
 0001:00017140       ?_Calculate_growth@?$vector@UDISymNameSp@@V?$allocator@UDISymNameSp@@@std@@@std@@AEBA_K_K@Z 0000000140018140 f i debuginfo.obj
 0001:00017200       ?_Calculate_growth@?$vector@UDISymbol@@V?$allocator@UDISymbol@@@std@@@std@@AEBA_K_K@Z 0000000140018200 f i debuginfo.obj
 0001:000172c0       ?_Calculate_growth@?$vector@UTemplateSymbol@@V?$allocator@UTemplateSymbol@@@std@@@std@@AEBA_K_K@Z 00000001400182c0 f i debuginfo.obj
 0001:00017380       ?_Calculate_growth@?$vector@V?$basic_string@DU?$char_traits@D@std@@V?$allocator@D@2@@std@@V?$allocator@V?$basic_string@DU?$char_traits@D@std@@V?$allocator@D@2@@std@@@2@@std@@AEBA_K_K@Z 0000000140018380 f i debuginfo.obj
 0001:00017440       ?_Change_array@?$vector@UDISymFile@@V?$allocator@UDISymFile@@@std@@@std@@AEAAXQEAUDISymFile@@_K1@Z 0000000140018440 f i debuginfo.obj
 0001:00017580       ?_Change_array@?$vector@UDISymNameSp@@V?$allocator@UDISymNameSp@@@std@@@std@@AEAAXQEAUDISymNameSp@@_K1@Z 0000000140018580 f i debuginfo.obj
 0001:000176c0       ?_Change_array@?$vector@UDISymbol@@V?$allocator@UDISymbol@@@std@@@std@@AEAAXQEAUDISymbol@@_K1@Z 00000001400186c0 f i debuginfo.obj
 0001:00017800       ?_Change_array@?$vector@UTemplateSymbol@@V?$allocator@UTemplateSymbol@@@std@@@std@@AEAAXQEAUTemplateSymbol@@_K1@Z 0000000140018800 f i debuginfo.obj
 0001:00017940       ?_Change_array@?$vector@V?$basic_string@DU?$char_traits@D@std@@V?$allocator@D@2@@std@@V?$allocator@V?$basic_string@DU?$char_traits@D@std@@V?$allocator@D@2@@std@@@2@@std@@AEAAXQEAV?$basic_string@DU?$char_traits@D@std@@V?$allocator@D@2@@2@_K1@Z 0000000140018940 f i debuginfo.obj
 0001:00017a80       ?_Check_grow_by_1@?$_Tree@V?$_Tmap_traits@V?$basic_string@DU?$char_traits@D@std@@V?$allocator@D@2@@std@@HU?$less@V?$basic_string@DU?$char_traits@D@std@@V?$allocator@D@2@@std@@@2@V?$allocator@U?$pair@$$CBV?$basic_string@DU?$char_traits@D@std@@V?$allocator@D@2@@std@@H@std@@@2@$0A@@std@@@std@@IEAAXXZ 0000000140018a80 f i debuginfo.obj
 0001:00017ad0       ?_Check_offset@?$_String_val@U?$_Simple_types@D@std@@@std@@QEBAX_K@Z 0000000140018ad0 f i debuginfo.obj
 0001:00017b10       ?_Clamp_suffix_size@?$_String_val@U?$_Simple_types@D@std@@@std@@QEBA_K_K0@Z 0000000140018b10 f i debuginfo.obj
 0001:00017b60       ?_Construct_empty@?$basic_string@DU?$char_traits@D@std@@V?$allocator@D@2@@std@@AEAAXXZ 0000000140018b60 f i debuginfo.obj
 0001:00017c00       ?_Deallocate_for_capacity@?$basic_string@DU?$char_traits@D@std@@V?$allocator@D@2@@std@@CAXAEAV?$allocator@D@2@QEAD_K@Z 0000000140018c00 f i debuginfo.obj
 0001:00017c40       ?_Doraise@bad_alloc@stdext@@MEBAXXZ 0000000140018c40 f i debuginfo.obj
 0001:00017c70       ?_Doraise@exception@stdext@@MEBAXXZ 0000000140018c70 f i debuginfo.obj
 0001:00017c80       ?_Erase_noexcept@?$basic_string@DU?$char_traits@D@std@@V?$allocator@D@2@@std@@AEAAAEAV12@_K_K@Z 0000000140018c80 f i debuginfo.obj
 0001:00017d80       ?_Extract@?$_In_place_key_extract_map@V?$basic_string@DU?$char_traits@D@std@@V?$allocator@D@2@@std@@U?$pair@V?$basic_string@DU?$char_traits@D@std@@V?$allocator@D@2@@std@@H@2@@std@@SAAEBV?$basic_string@DU?$char_traits@D@std@@V?$allocator@D@2@@2@AEBU?$pair@V?$basic_string@DU?$char_traits@D@std@@V?$allocator@D@2@@std@@H@2@@Z 0000000140018d80 f i debuginfo.obj
 0001:00017d90       ?_Get_first@?$_Compressed_pair@U?$less@V?$basic_string@DU?$char_traits@D@std@@V?$allocator@D@2@@std@@@std@@V?$_Compressed_pair@V?$allocator@U?$_Tree_node@U?$pair@$$CBV?$basic_string@DU?$char_traits@D@std@@V?$allocator@D@2@@std@@H@std@@PEAX@std@@@std@@V?$_Tree_val@U?$_Tree_simple_types@U?$pair@$$CBV?$basic_string@DU?$char_traits@D@std@@V?$allocator@D@2@@std@@H@std@@@std@@@2@$00@2@$00@std@@QEBAAEBU?$less@V?$basic_string@DU?$char_traits@D@std@@V?$allocator@D@2@@std@@@2@XZ 0000000140018d90 f i debuginfo.obj
 0001:00017da0       ?_Get_first@?$_Compressed_pair@V?$allocator@D@std@@V?$_String_val@U?$_Simple_types@D@std@@@2@$00@std@@QEAAAEAV?$allocator@D@2@XZ 0000000140018da0 f i debuginfo.obj
 0001:00017db0       ?_Get_first@?$_Compressed_pair@V?$allocator@D@std@@V?$_String_val@U?$_Simple_types@D@std@@@2@$00@std@@QEBAAEBV?$allocator@D@2@XZ 0000000140018db0 f i debuginfo.obj
 0001:00017dc0       ?_Get_first@?$_Compressed_pair@V?$allocator@U?$_Tree_node@U?$pair@$$CBV?$basic_string@DU?$char_traits@D@std@@V?$allocator@D@2@@std@@H@std@@PEAX@std@@@std@@V?$_Tree_val@U?$_Tree_simple_types@U?$pair@$$CBV?$basic_string@DU?$char_traits@D@std@@V?$allocator@D@2@@std@@H@std@@@std@@@2@$00@std@@QEAAAEAV?$allocator@U?$_Tree_node@U?$pair@$$CBV?$basic_string@DU?$char_traits@D@std@@V?$allocator@D@2@@std@@H@std@@PEAX@std@@@2@XZ 0000000140018dc0 f i debuginfo.obj
 0001:00017dd0       ?_Get_first@?$_Compressed_pair@V?$allocator@U?$_Tree_node@U?$pair@$$CBV?$basic_string@DU?$char_traits@D@std@@V?$allocator@D@2@@std@@H@std@@PEAX@std@@@std@@V?$_Tree_val@U?$_Tree_simple_types@U?$pair@$$CBV?$basic_string@DU?$char_traits@D@std@@V?$allocator@D@2@@std@@H@std@@@std@@@2@$00@std@@QEBAAEBV?$allocator@U?$_Tree_node@U?$pair@$$CBV?$basic_string@DU?$char_traits@D@std@@V?$allocator@D@2@@std@@H@std@@PEAX@std@@@2@XZ 0000000140018dd0 f i debuginfo.obj
 0001:00017de0       ?_Get_first@?$_Compressed_pair@V?$allocator@UDISymFile@@@std@@V?$_Vector_val@U?$_Simple_types@UDISymFile@@@std@@@2@$00@std@@QEAAAEAV?$allocator@UDISymFile@@@2@XZ 0000000140018de0 f i debuginfo.obj
 0001:00017df0       ?_Get_first@?$_Compressed_pair@V?$allocator@UDISymFile@@@std@@V?$_Vector_val@U?$_Simple_types@UDISymFile@@@std@@@2@$00@std@@QEBAAEBV?$allocator@UDISymFile@@@2@XZ 0000000140018df0 f i debuginfo.obj
 0001:00017e00       ?_Get_first@?$_Compressed_pair@V?$allocator@UDISymNameSp@@@std@@V?$_Vector_val@U?$_Simple_types@UDISymNameSp@@@std@@@2@$00@std@@QEAAAEAV?$allocator@UDISymNameSp@@@2@XZ 0000000140018e00 f i debuginfo.obj
 0001:00017e10       ?_Get_first@?$_Compressed_pair@V?$allocator@UDISymNameSp@@@std@@V?$_Vector_val@U?$_Simple_types@UDISymNameSp@@@std@@@2@$00@std@@QEBAAEBV?$allocator@UDISymNameSp@@@2@XZ 0000000140018e10 f i debuginfo.obj
 0001:00017e20       ?_Get_first@?$_Compressed_pair@V?$allocator@UDISymbol@@@std@@V?$_Vector_val@U?$_Simple_types@UDISymbol@@@std@@@2@$00@std@@QEAAAEAV?$allocator@UDISymbol@@@2@XZ 0000000140018e20 f i debuginfo.obj
 0001:00017e30       ?_Get_first@?$_Compressed_pair@V?$allocator@UDISymbol@@@std@@V?$_Vector_val@U?$_Simple_types@UDISymbol@@@std@@@2@$00@std@@QEBAAEBV?$allocator@UDISymbol@@@2@XZ 0000000140018e30 f i debuginfo.obj
 0001:00017e40       ?_Get_first@?$_Compressed_pair@V?$allocator@UTemplateSymbol@@@std@@V?$_Vector_val@U?$_Simple_types@UTemplateSymbol@@@std@@@2@$00@std@@QEAAAEAV?$allocator@UTemplateSymbol@@@2@XZ 0000000140018e40 f i debuginfo.obj
 0001:00017e50       ?_Get_first@?$_Compressed_pair@V?$allocator@UTemplateSymbol@@@std@@V?$_Vector_val@U?$_Simple_types@UTemplateSymbol@@@std@@@2@$00@std@@QEBAAEBV?$allocator@UTemplateSymbol@@@2@XZ 0000000140018e50 f i debuginfo.obj
 0001:00017e60       ?_Get_first@?$_Compressed_pair@V?$allocator@V?$basic_string@DU?$char_traits@D@std@@V?$allocator@D@2@@std@@@std@@V?$_Vector_val@U?$_Simple_types@V?$basic_string@DU?$char_traits@D@std@@V?$allocator@D@2@@std@@@std@@@2@$00@std@@QEAAAEAV?$allocator@V?$basic_string@DU?$char_traits@D@std@@V?$allocator@D@2@@std@@@2@XZ 0000000140018e60 f i debuginfo.obj
 0001:00017e70       ?_Get_first@?$_Compressed_pair@V?$allocator@V?$basic_string@DU?$char_traits@D@std@@V?$allocator@D@2@@std@@@std@@V?$_Vector_val@U?$_Simple_types@V?$basic_string@DU?$char_traits@D@std@@V?$allocator@D@2@@std@@@std@@@2@$00@std@@QEBAAEBV?$allocator@V?$basic_string@DU?$char_traits@D@std@@V?$allocator@D@2@@std@@@2@XZ 0000000140018e70 f i debuginfo.obj
 0001:00017e80       ?_Get_scary@?$_Tree@V?$_Tmap_traits@V?$basic_string@DU?$char_traits@D@std@@V?$allocator@D@2@@std@@HU?$less@V?$basic_string@DU?$char_traits@D@std@@V?$allocator@D@2@@std@@@2@V?$allocator@U?$pair@$$CBV?$basic_string@DU?$char_traits@D@std@@V?$allocator@D@2@@std@@H@std@@@2@$0A@@std@@@std@@IEAAPEAV?$_Tree_val@U?$_Tree_simple_types@U?$pair@$$CBV?$basic_string@DU?$char_traits@D@std@@V?$allocator@D@2@@std@@H@std@@@std@@@2@XZ 0000000140018e80 f i debuginfo.obj
 0001:00017eb0       ?_Get_scary@?$_Tree@V?$_Tmap_traits@V?$basic_string@DU?$char_traits@D@std@@V?$allocator@D@2@@std@@HU?$less@V?$basic_string@DU?$char_traits@D@std@@V?$allocator@D@2@@std@@@2@V?$allocator@U?$pair@$$CBV?$basic_string@DU?$char_traits@D@std@@V?$allocator@D@2@@std@@H@std@@@2@$0A@@std@@@std@@IEBAPEBV?$_Tree_val@U?$_Tree_simple_types@U?$pair@$$CBV?$basic_string@DU?$char_traits@D@std@@V?$allocator@D@2@@std@@H@std@@@std@@@2@XZ 0000000140018eb0 f i debuginfo.obj
 0001:00017ee0       ?_Getal@?$_Tree@V?$_Tmap_traits@V?$basic_string@DU?$char_traits@D@std@@V?$allocator@D@2@@std@@HU?$less@V?$basic_string@DU?$char_traits@D@std@@V?$allocator@D@2@@std@@@2@V?$allocator@U?$pair@$$CBV?$basic_string@DU?$char_traits@D@std@@V?$allocator@D@2@@std@@H@std@@@2@$0A@@std@@@std@@IEAAAEAV?$allocator@U?$_Tree_node@U?$pair@$$CBV?$basic_string@DU?$char_traits@D@std@@V?$allocator@D@2@@std@@H@std@@PEAX@std@@@2@XZ 0000000140018ee0 f i debuginfo.obj
 0001:00017f10       ?_Getal@?$_Tree@V?$_Tmap_traits@V?$basic_string@DU?$char_traits@D@std@@V?$allocator@D@2@@std@@HU?$less@V?$basic_string@DU?$char_traits@D@std@@V?$allocator@D@2@@std@@@2@V?$allocator@U?$pair@$$CBV?$basic_string@DU?$char_traits@D@std@@V?$allocator@D@2@@std@@H@std@@@2@$0A@@std@@@std@@IEBAAEBV?$allocator@U?$_Tree_node@U?$pair@$$CBV?$basic_string@DU?$char_traits@D@std@@V?$allocator@D@2@@std@@H@std@@PEAX@std@@@2@XZ 0000000140018f10 f i debuginfo.obj
 0001:00017f40       ?_Getal@?$basic_string@DU?$char_traits@D@std@@V?$allocator@D@2@@std@@AEAAAEAV?$allocator@D@2@XZ 0000000140018f40 f i debuginfo.obj
 0001:00017f70       ?_Getal@?$basic_string@DU?$char_traits@D@std@@V?$allocator@D@2@@std@@AEBAAEBV?$allocator@D@2@XZ 0000000140018f70 f i debuginfo.obj
 0001:00017fa0       ?_Getal@?$vector@UDISymFile@@V?$allocator@UDISymFile@@@std@@@std@@AEAAAEAV?$allocator@UDISymFile@@@2@XZ 0000000140018fa0 f i debuginfo.obj
 0001:00017fd0       ?_Getal@?$vector@UDISymFile@@V?$allocator@UDISymFile@@@std@@@std@@AEBAAEBV?$allocator@UDISymFile@@@2@XZ 0000000140018fd0 f i debuginfo.obj
 0001:00018000       ?_Getal@?$vector@UDISymNameSp@@V?$allocator@UDISymNameSp@@@std@@@std@@AEAAAEAV?$allocator@UDISymNameSp@@@2@XZ 0000000140019000 f i debuginfo.obj
 0001:00018030       ?_Getal@?$vector@UDISymNameSp@@V?$allocator@UDISymNameSp@@@std@@@std@@AEBAAEBV?$allocator@UDISymNameSp@@@2@XZ 0000000140019030 f i debuginfo.obj
 0001:00018060       ?_Getal@?$vector@UDISymbol@@V?$allocator@UDISymbol@@@std@@@std@@AEAAAEAV?$allocator@UDISymbol@@@2@XZ 0000000140019060 f i debuginfo.obj
 0001:00018090       ?_Getal@?$vector@UDISymbol@@V?$allocator@UDISymbol@@@std@@@std@@AEBAAEBV?$allocator@UDISymbol@@@2@XZ 0000000140019090 f i debuginfo.obj
 0001:000180c0       ?_Getal@?$vector@UTemplateSymbol@@V?$allocator@UTemplateSymbol@@@std@@@std@@AEAAAEAV?$allocator@UTemplateSymbol@@@2@XZ 00000001400190c0 f i debuginfo.obj
 0001:000180f0       ?_Getal@?$vector@UTemplateSymbol@@V?$allocator@UTemplateSymbol@@@std@@@std@@AEBAAEBV?$allocator@UTemplateSymbol@@@2@XZ 00000001400190f0 f i debuginfo.obj
 0001:00018120       ?_Getal@?$vector@V?$basic_string@DU?$char_traits@D@std@@V?$allocator@D@2@@std@@V?$allocator@V?$basic_string@DU?$char_traits@D@std@@V?$allocator@D@2@@std@@@2@@std@@AEAAAEAV?$allocator@V?$basic_string@DU?$char_traits@D@std@@V?$allocator@D@2@@std@@@2@XZ 0000000140019120 f i debuginfo.obj
 0001:00018150       ?_Getal@?$vector@V?$basic_string@DU?$char_traits@D@std@@V?$allocator@D@2@@std@@V?$allocator@V?$basic_string@DU?$char_traits@D@std@@V?$allocator@D@2@@std@@@2@@std@@AEBAAEBV?$allocator@V?$basic_string@DU?$char_traits@D@std@@V?$allocator@D@2@@std@@@2@XZ 0000000140019150 f i debuginfo.obj
 0001:00018180       ?_Getcomp@?$_Tree@V?$_Tmap_traits@V?$basic_string@DU?$char_traits@D@std@@V?$allocator@D@2@@std@@HU?$less@V?$basic_string@DU?$char_traits@D@std@@V?$allocator@D@2@@std@@@2@V?$allocator@U?$pair@$$CBV?$basic_string@DU?$char_traits@D@std@@V?$allocator@D@2@@std@@H@std@@@2@$0A@@std@@@std@@IEBAAEBU?$less@V?$basic_string@DU?$char_traits@D@std@@V?$allocator@D@2@@std@@@2@XZ 0000000140019180 f i debuginfo.obj
 0001:000181b0       ?_Insert_node@?$_Tree_val@U?$_Tree_simple_types@U?$pair@$$CBV?$basic_string@DU?$char_traits@D@std@@V?$allocator@D@2@@std@@H@std@@@std@@@std@@QEAAPEAU?$_Tree_node@U?$pair@$$CBV?$basic_string@DU?$char_traits@D@std@@V?$allocator@D@2@@std@@H@std@@PEAX@2@U?$_Tree_id@PEAU?$_Tree_node@U?$pair@$$CBV?$basic_string@DU?$char_traits@D@std@@V?$allocator@D@2@@std@@H@std@@PEAX@std@@@2@QEAU32@@Z 00000001400191b0 f i debuginfo.obj
 0001:00018560       ?_Large_mode_engaged@?$_String_val@U?$_Simple_types@D@std@@@std@@QEBA_NXZ 0000000140019560 f i debuginfo.obj
 0001:000185a0       ?_Lrotate@?$_Tree_val@U?$_Tree_simple_types@U?$pair@$$CBV?$basic_string@DU?$char_traits@D@std@@V?$allocator@D@2@@std@@H@std@@@std@@@std@@QEAAXPEAU?$_Tree_node@U?$pair@$$CBV?$basic_string@DU?$char_traits@D@std@@V?$allocator@D@2@@std@@H@std@@PEAX@2@@Z 00000001400195a0 f i debuginfo.obj
 0001:000186b0       ?_Myptr@?$_String_val@U?$_Simple_types@D@std@@@std@@QEAAPEADXZ 00000001400196b0 f i debuginfo.obj
 0001:00018700       ?_Myptr@?$_String_val@U?$_Simple_types@D@std@@@std@@QEBAPEBDXZ 0000000140019700 f i debuginfo.obj
 0001:00018750       ?_Orphan_all@_Container_base0@std@@QEAAXXZ 0000000140019750 f i debuginfo.obj
 0001:00018760       ?_Orphan_range@?$vector@UDISymFile@@V?$allocator@UDISymFile@@@std@@@std@@AEBAXPEAUDISymFile@@0@Z 0000000140019760 f i debuginfo.obj
 0001:00018780       ?_Orphan_range@?$vector@UDISymNameSp@@V?$allocator@UDISymNameSp@@@std@@@std@@AEBAXPEAUDISymNameSp@@0@Z 0000000140019780 f i debuginfo.obj
 0001:000187a0       ?_Orphan_range@?$vector@UDISymbol@@V?$allocator@UDISymbol@@@std@@@std@@AEBAXPEAUDISymbol@@0@Z 00000001400197a0 f i debuginfo.obj
 0001:000187c0       ?_Orphan_range@?$vector@UTemplateSymbol@@V?$allocator@UTemplateSymbol@@@std@@@std@@AEBAXPEAUTemplateSymbol@@0@Z 00000001400197c0 f i debuginfo.obj
 0001:000187e0       ?_Orphan_range@?$vector@V?$basic_string@DU?$char_traits@D@std@@V?$allocator@D@2@@std@@V?$allocator@V?$basic_string@DU?$char_traits@D@std@@V?$allocator@D@2@@std@@@2@@std@@AEBAXPEAV?$basic_string@DU?$char_traits@D@std@@V?$allocator@D@2@@2@0@Z 00000001400197e0 f i debuginfo.obj
 0001:00018800       ?_Raise@exception@stdext@@QEBAXXZ 0000000140019800 f i debuginfo.obj
 0001:00018870       ?_Release@?$_Alloc_construct_ptr@V?$allocator@U?$_Tree_node@U?$pair@$$CBV?$basic_string@DU?$char_traits@D@std@@V?$allocator@D@2@@std@@H@std@@PEAX@std@@@std@@@std@@QEAAPEAU?$_Tree_node@U?$pair@$$CBV?$basic_string@DU?$char_traits@D@std@@V?$allocator@D@2@@std@@H@std@@PEAX@2@XZ 0000000140019870 f i debuginfo.obj
 0001:000188b0       ?_Release@?$_Uninitialized_backout_al@V?$allocator@UDISymFile@@@std@@@std@@QEAAPEAUDISymFile@@XZ 00000001400198b0 f i debuginfo.obj
 0001:000188e0       ?_Release@?$_Uninitialized_backout_al@V?$allocator@UDISymNameSp@@@std@@@std@@QEAAPEAUDISymNameSp@@XZ 00000001400198e0 f i debuginfo.obj
 0001:00018910       ?_Release@?$_Uninitialized_backout_al@V?$allocator@UDISymbol@@@std@@@std@@QEAAPEAUDISymbol@@XZ 0000000140019910 f i debuginfo.obj
 0001:00018940       ?_Release@?$_Uninitialized_backout_al@V?$allocator@UTemplateSymbol@@@std@@@std@@QEAAPEAUTemplateSymbol@@XZ 0000000140019940 f i debuginfo.obj
 0001:00018970       ?_Release@?$_Uninitialized_backout_al@V?$allocator@V?$basic_string@DU?$char_traits@D@std@@V?$allocator@D@2@@std@@@std@@@std@@QEAAPEAV?$basic_string@DU?$char_traits@D@std@@V?$allocator@D@2@@2@XZ 0000000140019970 f i debuginfo.obj
 0001:000189a0       ?_Release@_Fake_proxy_ptr_impl@std@@QEAAXXZ 00000001400199a0 f i debuginfo.obj
 0001:000189b0       ?_Rrotate@?$_Tree_val@U?$_Tree_simple_types@U?$pair@$$CBV?$basic_string@DU?$char_traits@D@std@@V?$allocator@D@2@@std@@H@std@@@std@@@std@@QEAAXPEAU?$_Tree_node@U?$pair@$$CBV?$basic_string@DU?$char_traits@D@std@@V?$allocator@D@2@@std@@H@std@@PEAX@2@@Z 00000001400199b0 f i debuginfo.obj
 0001:00018ac0       ?_Swap_proxy_and_iterators@?$basic_string@DU?$char_traits@D@std@@V?$allocator@D@2@@std@@AEAAXAEAV12@@Z 0000000140019ac0 f i debuginfo.obj
 0001:00018b00       ?_Swap_proxy_and_iterators@_Container_base0@std@@QEAAXAEAU12@@Z 0000000140019b00 f i debuginfo.obj
 0001:00018b10       ?_Switch_to_buf@_Bxty@?$_String_val@U?$_Simple_types@D@std@@@std@@QEAAXXZ 0000000140019b10 f i debuginfo.obj
 0001:00018b90       ?_Take_contents@?$basic_string@DU?$char_traits@D@std@@V?$allocator@D@2@@std@@AEAAXAEAV12@@Z 0000000140019b90 f i debuginfo.obj
 0001:00018db0       ?_Throw_bad_array_new_length@std@@YAXXZ 0000000140019db0 f i debuginfo.obj
 0001:00018de0       ?_Throw_tree_length_error@std@@YAXXZ 0000000140019de0 f i debuginfo.obj
 0001:00018e00       ?_Tidy_deallocate@?$basic_string@DU?$char_traits@D@std@@V?$allocator@D@2@@std@@AEAAXXZ 0000000140019e00 f i debuginfo.obj
 0001:00018ee0       ?_Unwrapped@?$_Vector_iterator@V?$_Vector_val@U?$_Simple_types@UDISymFile@@@std@@@std@@@std@@QEBAPEAUDISymFile@@XZ 0000000140019ee0 f i debuginfo.obj
 0001:00018f10       ?_Unwrapped@?$_Vector_iterator@V?$_Vector_val@U?$_Simple_types@UDISymNameSp@@@std@@@std@@@std@@QEBAPEAUDISymNameSp@@XZ 0000000140019f10 f i debuginfo.obj
 0001:00018f40       ?_Unwrapped@?$_Vector_iterator@V?$_Vector_val@U?$_Simple_types@UDISymbol@@@std@@@std@@@std@@QEBAPEAUDISymbol@@XZ 0000000140019f40 f i debuginfo.obj
 0001:00018f70       ?_Unwrapped@?$_Vector_iterator@V?$_Vector_val@U?$_Simple_types@UTemplateSymbol@@@std@@@std@@@std@@QEBAPEAUTemplateSymbol@@XZ 0000000140019f70 f i debuginfo.obj
 0001:00018fa0       ?_Xlen_string@std@@YAXXZ   0000000140019fa0 f i debuginfo.obj
 0001:00018fc0       ?_Xlength@?$vector@UDISymFile@@V?$allocator@UDISymFile@@@std@@@std@@CAXXZ 0000000140019fc0 f i debuginfo.obj
 0001:00018fe0       ?_Xlength@?$vector@UDISymNameSp@@V?$allocator@UDISymNameSp@@@std@@@std@@CAXXZ 0000000140019fe0 f i debuginfo.obj
 0001:00019000       ?_Xlength@?$vector@UDISymbol@@V?$allocator@UDISymbol@@@std@@@std@@CAXXZ 000000014001a000 f i debuginfo.obj
 0001:00019020       ?_Xlength@?$vector@UTemplateSymbol@@V?$allocator@UTemplateSymbol@@@std@@@std@@CAXXZ 000000014001a020 f i debuginfo.obj
 0001:00019040       ?_Xlength@?$vector@V?$basic_string@DU?$char_traits@D@std@@V?$allocator@D@2@@std@@V?$allocator@V?$basic_string@DU?$char_traits@D@std@@V?$allocator@D@2@@std@@@2@@std@@CAXXZ 000000014001a040 f i debuginfo.obj
 0001:00019060       ?_Xran@?$_String_val@U?$_Simple_types@D@std@@@std@@SAXXZ 000000014001a060 f i debuginfo.obj
 0001:00019080       ?allocate@?$allocator@D@std@@QEAAPEAD_K@Z 000000014001a080 f i debuginfo.obj
 0001:000190b0       ?allocate@?$allocator@U?$_Tree_node@U?$pair@$$CBV?$basic_string@DU?$char_traits@D@std@@V?$allocator@D@2@@std@@H@std@@PEAX@std@@@std@@QEAAPEAU?$_Tree_node@U?$pair@$$CBV?$basic_string@DU?$char_traits@D@std@@V?$allocator@D@2@@std@@H@std@@PEAX@2@_K@Z 000000014001a0b0 f i debuginfo.obj
 0001:000190e0       ?allocate@?$allocator@UDISymFile@@@std@@QEAAPEAUDISymFile@@_K@Z 000000014001a0e0 f i debuginfo.obj
 0001:00019110       ?allocate@?$allocator@UDISymNameSp@@@std@@QEAAPEAUDISymNameSp@@_K@Z 000000014001a110 f i debuginfo.obj
 0001:00019140       ?allocate@?$allocator@UDISymbol@@@std@@QEAAPEAUDISymbol@@_K@Z 000000014001a140 f i debuginfo.obj
 0001:00019170       ?allocate@?$allocator@UTemplateSymbol@@@std@@QEAAPEAUTemplateSymbol@@_K@Z 000000014001a170 f i debuginfo.obj
 0001:000191a0       ?allocate@?$allocator@V?$basic_string@DU?$char_traits@D@std@@V?$allocator@D@2@@std@@@std@@QEAAPEAV?$basic_string@DU?$char_traits@D@std@@V?$allocator@D@2@@2@_K@Z 000000014001a1a0 f i debuginfo.obj
 0001:000191d0       ?append@?$basic_string@DU?$char_traits@D@std@@V?$allocator@D@2@@std@@QEAAAEAV12@QEBD@Z 000000014001a1d0 f i debuginfo.obj
 0001:00019220       ?append@?$basic_string@DU?$char_traits@D@std@@V?$allocator@D@2@@std@@QEAAAEAV12@QEBD_K@Z 000000014001a220 f i debuginfo.obj
 0001:00019350       ?assign@?$_Char_traits@DH@std@@SAXAEADAEBD@Z 000000014001a350 f i debuginfo.obj
 0001:00019370       ?assign@?$_Narrow_char_traits@DH@std@@SAXAEADAEBD@Z 000000014001a370 f i debuginfo.obj
 0001:000193c0       ?assign@?$basic_string@DU?$char_traits@D@std@@V?$allocator@D@2@@std@@QEAAAEAV12@QEBD@Z 000000014001a3c0 f i debuginfo.obj
 0001:00019410       ?assign@?$basic_string@DU?$char_traits@D@std@@V?$allocator@D@2@@std@@QEAAAEAV12@QEBD_K@Z 000000014001a410 f i debuginfo.obj
 0001:000194e0       ?back@?$vector@UDISymFile@@V?$allocator@UDISymFile@@@std@@@std@@QEAAAEAUDISymFile@@XZ 000000014001a4e0 f i debuginfo.obj
 0001:00019520       ?back@?$vector@UDISymbol@@V?$allocator@UDISymbol@@@std@@@std@@QEAAAEAUDISymbol@@XZ 000000014001a520 f i debuginfo.obj
 0001:00019560       ?begin@?$vector@UDISymFile@@V?$allocator@UDISymFile@@@std@@@std@@QEAA?AV?$_Vector_iterator@V?$_Vector_val@U?$_Simple_types@UDISymFile@@@std@@@std@@@2@XZ 000000014001a560 f i debuginfo.obj
 0001:000195d0       ?begin@?$vector@UDISymNameSp@@V?$allocator@UDISymNameSp@@@std@@@std@@QEAA?AV?$_Vector_iterator@V?$_Vector_val@U?$_Simple_types@UDISymNameSp@@@std@@@std@@@2@XZ 000000014001a5d0 f i debuginfo.obj
 0001:00019640       ?begin@?$vector@UDISymbol@@V?$allocator@UDISymbol@@@std@@@std@@QEAA?AV?$_Vector_iterator@V?$_Vector_val@U?$_Simple_types@UDISymbol@@@std@@@std@@@2@XZ 000000014001a640 f i debuginfo.obj
 0001:000196b0       ?begin@?$vector@UTemplateSymbol@@V?$allocator@UTemplateSymbol@@@std@@@std@@QEAA?AV?$_Vector_iterator@V?$_Vector_val@U?$_Simple_types@UTemplateSymbol@@@std@@@std@@@2@XZ 000000014001a6b0 f i debuginfo.obj
 0001:00019720       ?c_str@?$basic_string@DU?$char_traits@D@std@@V?$allocator@D@2@@std@@QEBAPEBDXZ 000000014001a720 f i debuginfo.obj
 0001:00019750       ?capacity@?$vector@UDISymFile@@V?$allocator@UDISymFile@@@std@@@std@@QEBA_KXZ 000000014001a750 f i debuginfo.obj
 0001:00019790       ?capacity@?$vector@UDISymNameSp@@V?$allocator@UDISymNameSp@@@std@@@std@@QEBA_KXZ 000000014001a790 f i debuginfo.obj
 0001:000197d0       ?capacity@?$vector@UDISymbol@@V?$allocator@UDISymbol@@@std@@@std@@QEBA_KXZ 000000014001a7d0 f i debuginfo.obj
 0001:00019810       ?capacity@?$vector@UTemplateSymbol@@V?$allocator@UTemplateSymbol@@@std@@@std@@QEBA_KXZ 000000014001a810 f i debuginfo.obj
 0001:00019850       ?capacity@?$vector@V?$basic_string@DU?$char_traits@D@std@@V?$allocator@D@2@@std@@V?$allocator@V?$basic_string@DU?$char_traits@D@std@@V?$allocator@D@2@@std@@@2@@std@@QEBA_KXZ 000000014001a850 f i debuginfo.obj
 0001:00019890       ?clear@?$vector@UDISymbol@@V?$allocator@UDISymbol@@@std@@@std@@QEAAXXZ 000000014001a890 f i debuginfo.obj
 0001:00019960       ?compare@?$_Narrow_char_traits@DH@std@@SAHQEBD0_K@Z 000000014001a960 f i debuginfo.obj
 0001:000199a0       ?compare@?$basic_string@DU?$char_traits@D@std@@V?$allocator@D@2@@std@@QEBAHAEBV12@@Z 000000014001a9a0 f i debuginfo.obj
 0001:00019a30       ?copy@?$_Char_traits@DH@std@@SAPEADQEADQEBD_K@Z 000000014001aa30 f i debuginfo.obj
 0001:00019af0       ?deallocate@?$_Default_allocator_traits@V?$allocator@U?$_Tree_node@U?$pair@$$CBV?$basic_string@DU?$char_traits@D@std@@V?$allocator@D@2@@std@@H@std@@PEAX@std@@@std@@@std@@SAXAEAV?$allocator@U?$_Tree_node@U?$pair@$$CBV?$basic_string@DU?$char_traits@D@std@@V?$allocator@D@2@@std@@H@std@@PEAX@std@@@2@QEAU?$_Tree_node@U?$pair@$$CBV?$basic_string@DU?$char_traits@D@std@@V?$allocator@D@2@@std@@H@std@@PEAX@2@_K@Z 000000014001aaf0 f i debuginfo.obj
 0001:00019b60       ?deallocate@?$allocator@D@std@@QEAAXQEAD_K@Z 000000014001ab60 f i debuginfo.obj
 0001:00019ba0       ?deallocate@?$allocator@U?$_Tree_node@U?$pair@$$CBV?$basic_string@DU?$char_traits@D@std@@V?$allocator@D@2@@std@@H@std@@PEAX@std@@@std@@QEAAXQEAU?$_Tree_node@U?$pair@$$CBV?$basic_string@DU?$char_traits@D@std@@V?$allocator@D@2@@std@@H@std@@PEAX@2@_K@Z 000000014001aba0 f i debuginfo.obj
 0001:00019be0       ?deallocate@?$allocator@UDISymFile@@@std@@QEAAXQEAUDISymFile@@_K@Z 000000014001abe0 f i debuginfo.obj
 0001:00019c20       ?deallocate@?$allocator@UDISymNameSp@@@std@@QEAAXQEAUDISymNameSp@@_K@Z 000000014001ac20 f i debuginfo.obj
 0001:00019c60       ?deallocate@?$allocator@UDISymbol@@@std@@QEAAXQEAUDISymbol@@_K@Z 000000014001ac60 f i debuginfo.obj
 0001:00019ca0       ?deallocate@?$allocator@UTemplateSymbol@@@std@@QEAAXQEAUTemplateSymbol@@_K@Z 000000014001aca0 f i debuginfo.obj
 0001:00019ce0       ?deallocate@?$allocator@V?$basic_string@DU?$char_traits@D@std@@V?$allocator@D@2@@std@@@std@@QEAAXQEAV?$basic_string@DU?$char_traits@D@std@@V?$allocator@D@2@@2@_K@Z 000000014001ace0 f i debuginfo.obj
 0001:00019d20       ?empty@?$basic_string@DU?$char_traits@D@std@@V?$allocator@D@2@@std@@QEBA_NXZ 000000014001ad20 f i debuginfo.obj
 0001:00019d60       ?end@?$_Tree@V?$_Tmap_traits@V?$basic_string@DU?$char_traits@D@std@@V?$allocator@D@2@@std@@HU?$less@V?$basic_string@DU?$char_traits@D@std@@V?$allocator@D@2@@std@@@2@V?$allocator@U?$pair@$$CBV?$basic_string@DU?$char_traits@D@std@@V?$allocator@D@2@@std@@H@std@@@2@$0A@@std@@@std@@QEAA?AV?$_Tree_iterator@V?$_Tree_val@U?$_Tree_simple_types@U?$pair@$$CBV?$basic_string@DU?$char_traits@D@std@@V?$allocator@D@2@@std@@H@std@@@std@@@std@@@2@XZ 000000014001ad60 f i debuginfo.obj
 0001:00019db0       ?end@?$vector@UDISymFile@@V?$allocator@UDISymFile@@@std@@@std@@QEAA?AV?$_Vector_iterator@V?$_Vector_val@U?$_Simple_types@UDISymFile@@@std@@@std@@@2@XZ 000000014001adb0 f i debuginfo.obj
 0001:00019e20       ?end@?$vector@UDISymNameSp@@V?$allocator@UDISymNameSp@@@std@@@std@@QEAA?AV?$_Vector_iterator@V?$_Vector_val@U?$_Simple_types@UDISymNameSp@@@std@@@std@@@2@XZ 000000014001ae20 f i debuginfo.obj
 0001:00019e90       ?end@?$vector@UDISymbol@@V?$allocator@UDISymbol@@@std@@@std@@QEAA?AV?$_Vector_iterator@V?$_Vector_val@U?$_Simple_types@UDISymbol@@@std@@@std@@@2@XZ 000000014001ae90 f i debuginfo.obj
 0001:00019f00       ?end@?$vector@UTemplateSymbol@@V?$allocator@UTemplateSymbol@@@std@@@std@@QEAA?AV?$_Vector_iterator@V?$_Vector_val@U?$_Simple_types@UTemplateSymbol@@@std@@@std@@@2@XZ 000000014001af00 f i debuginfo.obj
 0001:00019f70       ?erase@?$basic_string@DU?$char_traits@D@std@@V?$allocator@D@2@@std@@QEAAAEAV12@_K0@Z 000000014001af70 f i debuginfo.obj
 0001:00019fd0       ?find@?$_Narrow_char_traits@DH@std@@SAPEBDQEBD_KAEBD@Z 000000014001afd0 f i debuginfo.obj
 0001:0001a010       ?find@?$_Tree@V?$_Tmap_traits@V?$basic_string@DU?$char_traits@D@std@@V?$allocator@D@2@@std@@HU?$less@V?$basic_string@DU?$char_traits@D@std@@V?$allocator@D@2@@std@@@2@V?$allocator@U?$pair@$$CBV?$basic_string@DU?$char_traits@D@std@@V?$allocator@D@2@@std@@H@std@@@2@$0A@@std@@@std@@QEAA?AV?$_Tree_iterator@V?$_Tree_val@U?$_Tree_simple_types@U?$pair@$$CBV?$basic_string@DU?$char_traits@D@std@@V?$allocator@D@2@@std@@H@std@@@std@@@std@@@2@AEBV?$basic_string@DU?$char_traits@D@std@@V?$allocator@D@2@@2@@Z 000000014001b010 f i debuginfo.obj
 0001:0001a080       ?find@?$basic_string@DU?$char_traits@D@std@@V?$allocator@D@2@@std@@QEBA_KD_K@Z 000000014001b080 f i debuginfo.obj
 0001:0001a0f0       ?is_constant_evaluated@std@@YA_NXZ 000000014001b0f0 f i debuginfo.obj
 0001:0001a100       ?length@?$_Narrow_char_traits@DH@std@@SA_KQEBD@Z 000000014001b100 f i debuginfo.obj
 0001:0001a150       ?max_size@?$_Default_allocator_traits@V?$allocator@D@std@@@std@@SA_KAEBV?$allocator@D@2@@Z 000000014001b150 f i debuginfo.obj
 0001:0001a160       ?max_size@?$_Default_allocator_traits@V?$allocator@U?$_Tree_node@U?$pair@$$CBV?$basic_string@DU?$char_traits@D@std@@V?$allocator@D@2@@std@@H@std@@PEAX@std@@@std@@@std@@SA_KAEBV?$allocator@U?$_Tree_node@U?$pair@$$CBV?$basic_string@DU?$char_traits@D@std@@V?$allocator@D@2@@std@@H@std@@PEAX@std@@@2@@Z 000000014001b160 f i debuginfo.obj
 0001:0001a180       ?max_size@?$_Default_allocator_traits@V?$allocator@UDISymFile@@@std@@@std@@SA_KAEBV?$allocator@UDISymFile@@@2@@Z 000000014001b180 f i debuginfo.obj
 0001:0001a1a0       ?max_size@?$_Default_allocator_traits@V?$allocator@UDISymNameSp@@@std@@@std@@SA_KAEBV?$allocator@UDISymNameSp@@@2@@Z 000000014001b1a0 f i debuginfo.obj
 0001:0001a1c0       ?max_size@?$_Default_allocator_traits@V?$allocator@UDISymbol@@@std@@@std@@SA_KAEBV?$allocator@UDISymbol@@@2@@Z 000000014001b1c0 f i debuginfo.obj
 0001:0001a1e0       ?max_size@?$_Default_allocator_traits@V?$allocator@UTemplateSymbol@@@std@@@std@@SA_KAEBV?$allocator@UTemplateSymbol@@@2@@Z 000000014001b1e0 f i debuginfo.obj
 0001:0001a200       ?max_size@?$_Default_allocator_traits@V?$allocator@V?$basic_string@DU?$char_traits@D@std@@V?$allocator@D@2@@std@@@std@@@std@@SA_KAEBV?$allocator@V?$basic_string@DU?$char_traits@D@std@@V?$allocator@D@2@@std@@@2@@Z 000000014001b200 f i debuginfo.obj
 0001:0001a220       ?max_size@?$_Tree@V?$_Tmap_traits@V?$basic_string@DU?$char_traits@D@std@@V?$allocator@D@2@@std@@HU?$less@V?$basic_string@DU?$char_traits@D@std@@V?$allocator@D@2@@std@@@2@V?$allocator@U?$pair@$$CBV?$basic_string@DU?$char_traits@D@std@@V?$allocator@D@2@@std@@H@std@@@2@$0A@@std@@@std@@QEBA_KXZ 000000014001b220 f i debuginfo.obj
 0001:0001a280       ?max_size@?$basic_string@DU?$char_traits@D@std@@V?$allocator@D@2@@std@@QEBA_KXZ 000000014001b280 f i debuginfo.obj
 0001:0001a310       ?max_size@?$vector@UDISymFile@@V?$allocator@UDISymFile@@@std@@@std@@QEBA_KXZ 000000014001b310 f i debuginfo.obj
 0001:0001a370       ?max_size@?$vector@UDISymNameSp@@V?$allocator@UDISymNameSp@@@std@@@std@@QEBA_KXZ 000000014001b370 f i debuginfo.obj
 0001:0001a3d0       ?max_size@?$vector@UDISymbol@@V?$allocator@UDISymbol@@@std@@@std@@QEBA_KXZ 000000014001b3d0 f i debuginfo.obj
 0001:0001a430       ?max_size@?$vector@UTemplateSymbol@@V?$allocator@UTemplateSymbol@@@std@@@std@@QEBA_KXZ 000000014001b430 f i debuginfo.obj
 0001:0001a490       ?max_size@?$vector@V?$basic_string@DU?$char_traits@D@std@@V?$allocator@D@2@@std@@V?$allocator@V?$basic_string@DU?$char_traits@D@std@@V?$allocator@D@2@@std@@@2@@std@@QEBA_KXZ 000000014001b490 f i debuginfo.obj
 0001:0001a4f0       ?move@?$_Char_traits@DH@std@@SAPEADQEADQEBD_K@Z 000000014001b4f0 f i debuginfo.obj
 0001:0001a670       ?pointer_to@?$pointer_traits@PEAU?$pair@$$CBV?$basic_string@DU?$char_traits@D@std@@V?$allocator@D@2@@std@@H@std@@@std@@SAPEAU?$pair@$$CBV?$basic_string@DU?$char_traits@D@std@@V?$allocator@D@2@@std@@H@2@AEAU32@@Z 000000014001b670 f i debuginfo.obj
 0001:0001a690       ?push_back@?$vector@UDISymFile@@V?$allocator@UDISymFile@@@std@@@std@@QEAAX$$QEAUDISymFile@@@Z 000000014001b690 f i debuginfo.obj
 0001:0001a6c0       ?push_back@?$vector@UDISymNameSp@@V?$allocator@UDISymNameSp@@@std@@@std@@QEAAXAEBUDISymNameSp@@@Z 000000014001b6c0 f i debuginfo.obj
 0001:0001a6f0       ?push_back@?$vector@UDISymbol@@V?$allocator@UDISymbol@@@std@@@std@@QEAAX$$QEAUDISymbol@@@Z 000000014001b6f0 f i debuginfo.obj
 0001:0001a720       ?push_back@?$vector@UTemplateSymbol@@V?$allocator@UTemplateSymbol@@@std@@@std@@QEAAXAEBUTemplateSymbol@@@Z 000000014001b720 f i debuginfo.obj
 0001:0001a750       ?push_back@?$vector@V?$basic_string@DU?$char_traits@D@std@@V?$allocator@D@2@@std@@V?$allocator@V?$basic_string@DU?$char_traits@D@std@@V?$allocator@D@2@@std@@@2@@std@@QEAAXAEBV?$basic_string@DU?$char_traits@D@std@@V?$allocator@D@2@@2@@Z 000000014001b750 f i debuginfo.obj
 0001:0001a780       ?reserve@?$basic_string@DU?$char_traits@D@std@@V?$allocator@D@2@@std@@QEAAX_K@Z 000000014001b780 f i debuginfo.obj
 0001:0001a800       ?sCopyString@@YAXPEAD_KPEBDH@Z 000000014001b800 f i debuginfo.obj
 0001:0001a860       ?select_on_container_copy_construction@?$_Default_allocator_traits@V?$allocator@D@std@@@std@@SA?AV?$allocator@D@2@AEBV32@@Z 000000014001b860 f i debuginfo.obj
 0001:0001a880       ?size@?$_Tree@V?$_Tmap_traits@V?$basic_string@DU?$char_traits@D@std@@V?$allocator@D@2@@std@@HU?$less@V?$basic_string@DU?$char_traits@D@std@@V?$allocator@D@2@@std@@@2@V?$allocator@U?$pair@$$CBV?$basic_string@DU?$char_traits@D@std@@V?$allocator@D@2@@std@@H@std@@@2@$0A@@std@@@std@@QEBA_KXZ 000000014001b880 f i debuginfo.obj
 0001:0001a8b0       ?size@?$basic_string@DU?$char_traits@D@std@@V?$allocator@D@2@@std@@QEBA_KXZ 000000014001b8b0 f i debuginfo.obj
 0001:0001a8d0       ?size@?$vector@UDISymFile@@V?$allocator@UDISymFile@@@std@@@std@@QEBA_KXZ 000000014001b8d0 f i debuginfo.obj
 0001:0001a910       ?size@?$vector@UDISymNameSp@@V?$allocator@UDISymNameSp@@@std@@@std@@QEBA_KXZ 000000014001b910 f i debuginfo.obj
 0001:0001a950       ?size@?$vector@UDISymbol@@V?$allocator@UDISymbol@@@std@@@std@@QEBA_KXZ 000000014001b950 f i debuginfo.obj
 0001:0001a990       ?size@?$vector@UTemplateSymbol@@V?$allocator@UTemplateSymbol@@@std@@@std@@QEBA_KXZ 000000014001b990 f i debuginfo.obj
 0001:0001a9d0       ?strstr@@YAPEADQEADQEBD@Z  000000014001b9d0 f i debuginfo.obj
 0001:0001aa00       ?what@exception@stdext@@UEBAPEBDXZ 000000014001ba00 f i debuginfo.obj
 0001:0001aa50       __local_stdio_printf_options 000000014001ba50 f i debuginfo.obj
 0001:0001aa60       _vsnprintf                 000000014001ba60 f i debuginfo.obj
 0001:0001aab0       _vsnprintf_l               000000014001bab0 f i debuginfo.obj
 0001:0001b020       main                       000000014001c020 f   main.obj
 0001:0001b4e0       ??$?0$$V@?$_Compressed_pair@V?$allocator@UDISymFile@@@std@@V?$_Vector_val@U?$_Simple_types@UDISymFile@@@std@@@2@$00@std@@QEAA@U_Zero_then_variadic_args_t@1@@Z 000000014001c4e0 f i main.obj
 0001:0001b520       ??$?0$$V@?$_Compressed_pair@V?$allocator@UDISymNameSp@@@std@@V?$_Vector_val@U?$_Simple_types@UDISymNameSp@@@std@@@2@$00@std@@QEAA@U_Zero_then_variadic_args_t@1@@Z 000000014001c520 f i main.obj
 0001:0001b560       ??$?0$$V@?$_Compressed_pair@V?$allocator@UDISymbol@@@std@@V?$_Vector_val@U?$_Simple_types@UDISymbol@@@std@@@2@$00@std@@QEAA@U_Zero_then_variadic_args_t@1@@Z 000000014001c560 f i main.obj
 0001:0001b5a0       ??$?0$$V@?$_Compressed_pair@V?$allocator@UTemplateSymbol@@@std@@V?$_Vector_val@U?$_Simple_types@UTemplateSymbol@@@std@@@2@$00@std@@QEAA@U_Zero_then_variadic_args_t@1@@Z 000000014001c5a0 f i main.obj
 0001:0001b5e0       ??$?0$$V@?$_Compressed_pair@V?$allocator@V?$basic_string@DU?$char_traits@D@std@@V?$allocator@D@2@@std@@@std@@V?$_Vector_val@U?$_Simple_types@V?$basic_string@DU?$char_traits@D@std@@V?$allocator@D@2@@std@@@std@@@2@$00@std@@QEAA@U_Zero_then_variadic_args_t@1@@Z 000000014001c5e0 f i main.obj
 0001:0001b620       ??0?$_Vector_val@U?$_Simple_types@UDISymFile@@@std@@@std@@QEAA@XZ 000000014001c620 f i main.obj
 0001:0001b660       ??0?$_Vector_val@U?$_Simple_types@UDISymNameSp@@@std@@@std@@QEAA@XZ 000000014001c660 f i main.obj
 0001:0001b6a0       ??0?$_Vector_val@U?$_Simple_types@UDISymbol@@@std@@@std@@QEAA@XZ 000000014001c6a0 f i main.obj
 0001:0001b6e0       ??0?$_Vector_val@U?$_Simple_types@UTemplateSymbol@@@std@@@std@@QEAA@XZ 000000014001c6e0 f i main.obj
 0001:0001b720       ??0?$_Vector_val@U?$_Simple_types@V?$basic_string@DU?$char_traits@D@std@@V?$allocator@D@2@@std@@@std@@@std@@QEAA@XZ 000000014001c720 f i main.obj
 0001:0001b760       ??0?$allocator@UDISymFile@@@std@@QEAA@XZ 000000014001c760 f i main.obj
 0001:0001b770       ??0?$allocator@UDISymNameSp@@@std@@QEAA@XZ 000000014001c770 f i main.obj
 0001:0001b780       ??0?$allocator@UDISymbol@@@std@@QEAA@XZ 000000014001c780 f i main.obj
 0001:0001b790       ??0?$allocator@UTemplateSymbol@@@std@@QEAA@XZ 000000014001c790 f i main.obj
 0001:0001b7a0       ??0?$allocator@V?$basic_string@DU?$char_traits@D@std@@V?$allocator@D@2@@std@@@std@@QEAA@XZ 000000014001c7a0 f i main.obj
 0001:0001b7b0       ??0?$vector@UDISymFile@@V?$allocator@UDISymFile@@@std@@@std@@QEAA@XZ 000000014001c7b0 f i main.obj
 0001:0001b810       ??0?$vector@UDISymNameSp@@V?$allocator@UDISymNameSp@@@std@@@std@@QEAA@XZ 000000014001c810 f i main.obj
 0001:0001b870       ??0?$vector@UDISymbol@@V?$allocator@UDISymbol@@@std@@@std@@QEAA@XZ 000000014001c870 f i main.obj
 0001:0001b8d0       ??0?$vector@UTemplateSymbol@@V?$allocator@UTemplateSymbol@@@std@@@std@@QEAA@XZ 000000014001c8d0 f i main.obj
 0001:0001b930       ??0?$vector@V?$basic_string@DU?$char_traits@D@std@@V?$allocator@D@2@@std@@V?$allocator@V?$basic_string@DU?$char_traits@D@std@@V?$allocator@D@2@@std@@@2@@std@@QEAA@XZ 000000014001c930 f i main.obj
 0001:0001b990       ??0DebugFilters@@QEAA@XZ   000000014001c990 f i main.obj
 0001:0001ba20       ??0DebugInfo@@QEAA@XZ      000000014001ca20 f i main.obj
 0001:0001bac0       ??0DebugInfoReader@@QEAA@XZ 000000014001cac0 f i main.obj
 0001:0001bae0       ??0PDBFileReader@@QEAA@XZ  000000014001cae0 f i main.obj
 0001:0001bb20       ??1?$vector@UDISymFile@@V?$allocator@UDISymFile@@@std@@@std@@QEAA@XZ 000000014001cb20 f i main.obj
 0001:0001bb40       ??1?$vector@UDISymNameSp@@V?$allocator@UDISymNameSp@@@std@@@std@@QEAA@XZ 000000014001cb40 f i main.obj
 0001:0001bb60       ??1?$vector@UDISymbol@@V?$allocator@UDISymbol@@@std@@@std@@QEAA@XZ 000000014001cb60 f i main.obj
 0001:0001bb80       ??1?$vector@UTemplateSymbol@@V?$allocator@UTemplateSymbol@@@std@@@std@@QEAA@XZ 000000014001cb80 f i main.obj
 0001:0001bba0       ??1?$vector@V?$basic_string@DU?$char_traits@D@std@@V?$allocator@D@2@@std@@V?$allocator@V?$basic_string@DU?$char_traits@D@std@@V?$allocator@D@2@@std@@@2@@std@@QEAA@XZ 000000014001cba0 f i main.obj
 0001:0001bbc0       ??1DebugFilters@@QEAA@XZ   000000014001cbc0 f i main.obj
 0001:0001bbf0       ??1DebugInfo@@QEAA@XZ      000000014001cbf0 f i main.obj
 0001:0001bc80       ?SetMinSize@DebugFilters@@QEAAXH@Z 000000014001cc80 f i main.obj
 0001:0001bce0       ?_Tidy@?$vector@UDISymFile@@V?$allocator@UDISymFile@@@std@@@std@@AEAAXXZ 000000014001cce0 f i main.obj
 0001:0001bdf0       ?_Tidy@?$vector@UDISymNameSp@@V?$allocator@UDISymNameSp@@@std@@@std@@AEAAXXZ 000000014001cdf0 f i main.obj
 0001:0001bf00       ?_Tidy@?$vector@UDISymbol@@V?$allocator@UDISymbol@@@std@@@std@@AEAAXXZ 000000014001cf00 f i main.obj
 0001:0001c010       ?_Tidy@?$vector@UTemplateSymbol@@V?$allocator@UTemplateSymbol@@@std@@@std@@AEAAXXZ 000000014001d010 f i main.obj
 0001:0001c120       ?_Tidy@?$vector@V?$basic_string@DU?$char_traits@D@std@@V?$allocator@D@2@@std@@V?$allocator@V?$basic_string@DU?$char_traits@D@std@@V?$allocator@D@2@@std@@@2@@std@@AEAAXXZ 000000014001d120 f i main.obj
 0001:0001c220       _vfprintf_l                000000014001d220 f i main.obj
 0001:0001c280       fprintf                    000000014001d280 f i main.obj
 0001:0001c2f0       parg_init                  000000014001d2f0 f   parg.obj
 0001:0001c330       parg_getopt                000000014001d330 f   parg.obj
 0001:0001c380       parg_getopt_long           000000014001d380 f   parg.obj
 0001:0001c5c0       parg_reorder               000000014001d5c0 f   parg.obj
 0001:0001d3b0       ?ContribFromSectionOffset@PDBFileReader@@AEAAPEBUSectionContrib@1@II@Z 000000014001e3b0 f   pdbfile.obj
 0001:0001d4d0       ?ProcessSymbol@PDBFileReader@@AEAAXPEAVIDiaSymbol@@AEAVDebugInfo@@@Z 000000014001e4d0 f   pdbfile.obj
 0001:0001d8a0       ?ReadEverything@PDBFileReader@@AEAAXAEAVDebugInfo@@@Z 000000014001e8a0 f   pdbfile.obj
 0001:0001e080       ?ReadDebugInfo@PDBFileReader@@UEAA_NPEBDAEAVDebugInfo@@@Z 000000014001f080 f   pdbfile.obj
 0001:0001e9aa       CoUninitialize             000000014001f9aa f   ole32:ole32.dll
 0001:0001e9b0       CoCreateInstance           000000014001f9b0 f   ole32:ole32.dll
 0001:0001e9b6       CoInitialize               000000014001f9b6 f   ole32:ole32.dll
 0001:0001e9bc       SysAllocString             000000014001f9bc f   oleaut32:OLEAUT32.dll
 0001:0001e9c2       SysFreeString              000000014001f9c2 f   oleaut32:OLEAUT32.dll
 0001:0001e9c8       SysStringLen               000000014001f9c8 f   oleaut32:OLEAUT32.dll
 0001:0001e9ce       IsDebuggerPresent          000000014001f9ce f   kernel32:KERNEL32.dll
 0001:0001e9d4       DebugBreak                 000000014001f9d4 f   kernel32:KERNEL32.dll
 0001:0001e9da       FreeLibrary                000000014001f9da f   kernel32:KERNEL32.dll
 0001:0001e9e0       GetProcAddress             000000014001f9e0 f   kernel32:KERNEL32.dll
 0001:0001e9e6       LoadLibraryA               000000014001f9e6 f   kernel32:KERNEL32.dll
 0001:0001e9ec       ??0bad_alloc@std@@QEAA@AEBV01@@Z 000000014001f9ec f i libcpmt:xthrow.obj
 0001:0001ea38       ??0bad_alloc@std@@QEAA@XZ  000000014001fa38 f i libcpmt:xthrow.obj
 0001:0001ea60       ??0bad_function_call@std@@QEAA@AEBV01@@Z 000000014001fa60 f i libcpmt:xthrow.obj
 0001:0001eaac       ??0bad_function_call@std@@QEAA@XZ 000000014001faac f i libcpmt:xthrow.obj
 0001:0001eac8       ??0exception@std@@QEAA@AEBV01@@Z 000000014001fac8 f i libcpmt:xthrow.obj
 0001:0001eb08       ??0exception@std@@QEAA@QEBD@Z 000000014001fb08 f i libcpmt:xthrow.obj
 0001:0001eb54       ??0exception@std@@QEAA@QEBDH@Z 000000014001fb54 f i libcpmt:xthrow.obj
 0001:0001eb70       ??0exception@std@@QEAA@XZ  000000014001fb70 f i libcpmt:xthrow.obj
 0001:0001eb8c       ??0invalid_argument@std@@QEAA@AEBV01@@Z 000000014001fb8c f i libcpmt:xthrow.obj
 0001:0001ebd8       ??0invalid_argument@std@@QEAA@PEBD@Z 000000014001fbd8 f i libcpmt:xthrow.obj
 0001:0001ec30       ??0length_error@std@@QEAA@AEBV01@@Z 000000014001fc30 f i libcpmt:xthrow.obj
 0001:0001ec7c       ??0length_error@std@@QEAA@PEBD@Z 000000014001fc7c f i libcpmt:xthrow.obj
 0001:0001ecd4       ??0logic_error@std@@QEAA@AEBV01@@Z 000000014001fcd4 f i libcpmt:xthrow.obj
 0001:0001ed20       ??0logic_error@std@@QEAA@PEBD@Z 000000014001fd20 f i libcpmt:xthrow.obj
 0001:0001ed78       ??0out_of_range@std@@QEAA@AEBV01@@Z 000000014001fd78 f i libcpmt:xthrow.obj
 0001:0001edc4       ??0out_of_range@std@@QEAA@PEBD@Z 000000014001fdc4 f i libcpmt:xthrow.obj
 0001:0001ee1c       ??0overflow_error@std@@QEAA@AEBV01@@Z 000000014001fe1c f i libcpmt:xthrow.obj
 0001:0001ee68       ??0overflow_error@std@@QEAA@PEBD@Z 000000014001fe68 f i libcpmt:xthrow.obj
 0001:0001eec0       ??0regex_error@std@@QEAA@AEBV01@@Z 000000014001fec0 f i libcpmt:xthrow.obj
 0001:0001ef20       ??0regex_error@std@@QEAA@W4error_type@regex_constants@1@@Z 000000014001ff20 f i libcpmt:xthrow.obj
 0001:0001efa0       ??0runtime_error@std@@QEAA@AEBV01@@Z 000000014001ffa0 f i libcpmt:xthrow.obj
 0001:0001efec       ??0runtime_error@std@@QEAA@PEBD@Z 000000014001ffec f i libcpmt:xthrow.obj
 0001:0001f044       ??1bad_alloc@std@@UEAA@XZ  0000000140020044 f i libcpmt:xthrow.obj
 0001:0001f05c       ??1bad_function_call@std@@UEAA@XZ 000000014002005c f i libcpmt:xthrow.obj
 0001:0001f074       ??1exception@std@@UEAA@XZ  0000000140020074 f i libcpmt:xthrow.obj
 0001:0001f08c       ??1invalid_argument@std@@UEAA@XZ 000000014002008c f i libcpmt:xthrow.obj
 0001:0001f0a4       ??1length_error@std@@UEAA@XZ 00000001400200a4 f i libcpmt:xthrow.obj
 0001:0001f0bc       ??1logic_error@std@@UEAA@XZ 00000001400200bc f i libcpmt:xthrow.obj
 0001:0001f0d4       ??1out_of_range@std@@UEAA@XZ 00000001400200d4 f i libcpmt:xthrow.obj
 0001:0001f0ec       ??1overflow_error@std@@UEAA@XZ 00000001400200ec f i libcpmt:xthrow.obj
 0001:0001f104       ??1regex_error@std@@UEAA@XZ 0000000140020104 f i libcpmt:xthrow.obj
 0001:0001f11c       ??1runtime_error@std@@UEAA@XZ 000000014002011c f i libcpmt:xthrow.obj
 0001:0001f134       ??_Ebad_alloc@std@@UEAAPEAXI@Z 0000000140020134 f i libcpmt:xthrow.obj
 0001:0001f134       ??_Gbad_alloc@std@@UEAAPEAXI@Z 0000000140020134 f i libcpmt:xthrow.obj
 0001:0001f188       ??_Ebad_function_call@std@@UEAAPEAXI@Z 0000000140020188 f i libcpmt:xthrow.obj
 0001:0001f188       ??_Gbad_function_call@std@@UEAAPEAXI@Z 0000000140020188 f i libcpmt:xthrow.obj
 0001:0001f1dc       ??_Eexception@std@@UEAAPEAXI@Z 00000001400201dc f i libcpmt:xthrow.obj
 0001:0001f1dc       ??_Gexception@std@@UEAAPEAXI@Z 00000001400201dc f i libcpmt:xthrow.obj
 0001:0001f230       ??_Einvalid_argument@std@@UEAAPEAXI@Z 0000000140020230 f i libcpmt:xthrow.obj
 0001:0001f230       ??_Ginvalid_argument@std@@UEAAPEAXI@Z 0000000140020230 f i libcpmt:xthrow.obj
 0001:0001f284       ??_Elength_error@std@@UEAAPEAXI@Z 0000000140020284 f i libcpmt:xthrow.obj
 0001:0001f284       ??_Glength_error@std@@UEAAPEAXI@Z 0000000140020284 f i libcpmt:xthrow.obj
 0001:0001f2d8       ??_Elogic_error@std@@UEAAPEAXI@Z 00000001400202d8 f i libcpmt:xthrow.obj
 0001:0001f2d8       ??_Glogic_error@std@@UEAAPEAXI@Z 00000001400202d8 f i libcpmt:xthrow.obj
 0001:0001f32c       ??_Eout_of_range@std@@UEAAPEAXI@Z 000000014002032c f i libcpmt:xthrow.obj
 0001:0001f32c       ??_Gout_of_range@std@@UEAAPEAXI@Z 000000014002032c f i libcpmt:xthrow.obj
 0001:0001f380       ??_Eoverflow_error@std@@UEAAPEAXI@Z 0000000140020380 f i libcpmt:xthrow.obj
 0001:0001f380       ??_Goverflow_error@std@@UEAAPEAXI@Z 0000000140020380 f i libcpmt:xthrow.obj
 0001:0001f3d4       ??_Eregex_error@std@@UEAAPEAXI@Z 00000001400203d4 f i libcpmt:xthrow.obj
 0001:0001f3d4       ??_Gregex_error@std@@UEAAPEAXI@Z 00000001400203d4 f i libcpmt:xthrow.obj
 0001:0001f428       ??_Eruntime_error@std@@UEAAPEAXI@Z 0000000140020428 f i libcpmt:xthrow.obj
 0001:0001f428       ??_Gruntime_error@std@@UEAAPEAXI@Z 0000000140020428 f i libcpmt:xthrow.obj
 0001:0001f47c       ?_Stringify@regex_error@std@@CAPEBDW4error_type@regex_constants@2@@Z 000000014002047c f i libcpmt:xthrow.obj
 0001:0001f57c       ?_Xbad_alloc@std@@YAXXZ    000000014002057c f   libcpmt:xthrow.obj
 0001:0001f5a4       ?_Xbad_function_call@std@@YAXXZ 00000001400205a4 f   libcpmt:xthrow.obj
 0001:0001f5cc       ?_Xinvalid_argument@std@@YAXPEBD@Z 00000001400205cc f   libcpmt:xthrow.obj
 0001:0001f5f8       ?_Xlength_error@std@@YAXPEBD@Z 00000001400205f8 f   libcpmt:xthrow.obj
 0001:0001f624       ?_Xout_of_range@std@@YAXPEBD@Z 0000000140020624 f   libcpmt:xthrow.obj
 0001:0001f650       ?_Xoverflow_error@std@@YAXPEBD@Z 0000000140020650 f   libcpmt:xthrow.obj
 0001:0001f67c       ?_Xregex_error@std@@YAXW4error_type@regex_constants@1@@Z 000000014002067c f   libcpmt:xthrow.obj
 0001:0001f6a8       ?_Xruntime_error@std@@YAXPEBD@Z 00000001400206a8 f   libcpmt:xthrow.obj
 0001:0001f6d4       ?what@bad_function_call@std@@UEBAPEBDXZ 00000001400206d4 f i libcpmt:xthrow.obj
 0001:0001f6e0       ?what@exception@std@@UEBAPEBDXZ 00000001400206e0 f i libcpmt:xthrow.obj
 0001:0001f6f8       ??2@YAPEAX_K@Z             00000001400206f8 f   LIBCMT:new_scalar.obj
 0001:0001f744       ??3@YAXPEAX@Z              0000000140020744 f   LIBCMT:delete_scalar.obj
 0001:0001f74c       ??3@YAXPEAX_K@Z            000000014002074c f   LIBCMT:delete_scalar_size.obj
 0001:0001f754       ??_U@YAPEAX_K@Z            0000000140020754 f   LIBCMT:new_array.obj
 0001:0001f75c       ??_V@YAXPEAX@Z             000000014002075c f   LIBCMT:delete_array.obj
 0001:0001f764       __raise_securityfailure    0000000140020764 f   LIBCMT:gs_report.obj
 0001:0001f7a8       __report_gsfailure         00000001400207a8 f   LIBCMT:gs_report.obj
 0001:0001f8b0       __report_rangecheckfailure 00000001400208b0 f   LIBCMT:gs_report.obj
 0001:0001f8cc       __report_securityfailure   00000001400208cc f   LIBCMT:gs_report.obj
 0001:0001f990       __report_securityfailureEx 0000000140020990 f   LIBCMT:gs_report.obj
 0001:0001fbfc       __GSHandlerCheck           0000000140020bfc f   LIBCMT:gshandler.obj
 0001:0001fc20       __GSHandlerCheckCommon     0000000140020c20 f   LIBCMT:gshandler.obj
 0001:0001fcb0       __security_check_cookie    0000000140020cb0 f   LIBCMT:amdsecgs.obj
 0001:0001ffe8       ?configure_argv@__scrt_narrow_argv_policy@@SAHXZ 0000000140020fe8 f i LIBCMT:exe_main.obj
 0001:00020004       ?initialize_environment@__scrt_narrow_environment_policy@@SAHXZ 0000000140021004 f i LIBCMT:exe_main.obj
 0001:00020050       ?set_app_type@__scrt_main_policy@@SAXXZ 0000000140021050 f i LIBCMT:exe_main.obj
 0001:0002005c       ?set_commode@__scrt_file_policy@@SAXXZ 000000014002105c f i LIBCMT:exe_main.obj
 0001:0002007c       ?set_fmode@__scrt_file_policy@@SAXXZ 000000014002107c f i LIBCMT:exe_main.obj
 0001:00020098       mainCRTStartup             0000000140021098 f   LIBCMT:exe_main.obj
 0001:000200b0       ??1type_info@@UEAA@XZ      00000001400210b0 f   LIBCMT:std_type_info_static.obj
 0001:000200c0       ??_Etype_info@@UEAAPEAXI@Z 00000001400210c0 f i LIBCMT:std_type_info_static.obj
 0001:000200c0       ??_Gtype_info@@UEAAPEAXI@Z 00000001400210c0 f i LIBCMT:std_type_info_static.obj
 0001:000200f8       ??0bad_alloc@std@@AEAA@QEBD@Z 00000001400210f8 f i LIBCMT:throw_bad_alloc.obj
 0001:00020114       ??0bad_array_new_length@std@@QEAA@AEBV01@@Z 0000000140021114 f i LIBCMT:throw_bad_alloc.obj
 0001:00020160       ??0bad_array_new_length@std@@QEAA@XZ 0000000140021160 f i LIBCMT:throw_bad_alloc.obj
 0001:00020188       ??1bad_array_new_length@std@@UEAA@XZ 0000000140021188 f i LIBCMT:throw_bad_alloc.obj
 0001:000201a0       ??_Ebad_array_new_length@std@@UEAAPEAXI@Z 00000001400211a0 f i LIBCMT:throw_bad_alloc.obj
 0001:000201a0       ??_Gbad_array_new_length@std@@UEAAPEAXI@Z 00000001400211a0 f i LIBCMT:throw_bad_alloc.obj
 0001:000201f4       ?__scrt_throw_std_bad_alloc@@YAXXZ 00000001400211f4 f   LIBCMT:throw_bad_alloc.obj
 0001:0002021c       ?__scrt_throw_std_bad_array_new_length@@YAXXZ 000000014002121c f   LIBCMT:throw_bad_alloc.obj
 0001:000202dc       NtCurrentTeb               00000001400212dc f i LIBCMT:utility.obj
 0001:000202e8       __scrt_acquire_startup_lock 00000001400212e8 f   LIBCMT:utility.obj
 0001:00020330       __scrt_dllmain_after_initialize_c 0000000140021330 f   LIBCMT:utility.obj
 0001:00020374       __scrt_dllmain_before_initialize_c 0000000140021374 f   LIBCMT:utility.obj
 0001:00020390       __scrt_dllmain_crt_thread_attach 0000000140021390 f   LIBCMT:utility.obj
 0001:000203c4       __scrt_dllmain_crt_thread_detach 00000001400213c4 f   LIBCMT:utility.obj
 0001:000203e0       __scrt_dllmain_exception_filter 00000001400213e0 f   LIBCMT:utility.obj
 0001:00020458       __scrt_dllmain_uninitialize_c 0000000140021458 f   LIBCMT:utility.obj
 0001:00020494       __scrt_dllmain_uninitialize_critical 0000000140021494 f   LIBCMT:utility.obj
 0001:000204b0       __scrt_initialize_crt      00000001400214b0 f   LIBCMT:utility.obj
 0001:000204f8       __scrt_initialize_onexit_tables 00000001400214f8 f   LIBCMT:utility.obj
 0001:000205a8       __scrt_is_nonwritable_in_current_image 00000001400215a8 f   LIBCMT:utility.obj
 0001:00020668       __scrt_release_startup_lock 0000000140021668 f   LIBCMT:utility.obj
 0001:00020698       __scrt_uninitialize_crt    0000000140021698 f   LIBCMT:utility.obj
 0001:000206cc       _onexit                    00000001400216cc f   LIBCMT:utility.obj
 0001:00020714       at_quick_exit              0000000140021714 f   LIBCMT:utility.obj
 0001:00020738       atexit                     0000000140021738 f   LIBCMT:utility.obj
 0001:000207dc       __security_init_cookie     00000001400217dc f   LIBCMT:gs_support.obj
 0001:000208b4       _matherr                   00000001400218b4 f   LIBCMT:matherr.obj
 0001:000208b8       _get_startup_argv_mode     00000001400218b8 f   LIBCMT:argv_mode.obj
 0001:000208c0       _get_startup_commit_mode   00000001400218c0 f   LIBCMT:commit_mode.obj
 0001:000208c4       _get_startup_file_mode     00000001400218c4 f   LIBCMT:file_mode.obj
 0001:000208cc       _get_startup_new_mode      00000001400218cc f   LIBCMT:new_mode.obj
 0001:000208d0       _get_startup_thread_locale_mode 00000001400218d0 f   LIBCMT:thread_locale.obj
 0001:000208d4       ?__scrt_initialize_type_info@@YAXXZ 00000001400218d4 f   LIBCMT:tncleanup.obj
 0001:000208e8       ?__scrt_uninitialize_type_info@@YAXXZ 00000001400218e8 f   LIBCMT:tncleanup.obj
 0001:000208f8       _should_initialize_environment 00000001400218f8 f   LIBCMT:env_mode.obj
 0001:000208fc       _initialize_invalid_parameter_handler 00000001400218fc f   LIBCMT:invalid_parameter_handler.obj
 0001:00020900       _initialize_denormal_control 0000000140021900 f   LIBCMT:denormal_control.obj
 0001:00020904       __local_stdio_scanf_options 0000000140021904 f i LIBCMT:default_local_stdio_options.obj
 0001:00020910       __scrt_initialize_default_local_stdio_options 0000000140021910 f   LIBCMT:default_local_stdio_options.obj
 0001:00020934       __scrt_is_user_matherr_present 0000000140021934 f   LIBCMT:matherr_detection.obj
 0001:00020944       __scrt_get_dyn_tls_init_callback 0000000140021944 f   LIBCMT:dyn_tls_init.obj
 0001:00020950       __scrt_get_dyn_tls_dtor_callback 0000000140021950 f   LIBCMT:dyn_tls_dtor.obj
 0001:0002095c       __crt_debugger_hook        000000014002195c f   LIBCMT:utility_desktop.obj
 0001:00020968       __scrt_fastfail            0000000140021968 f   LIBCMT:utility_desktop.obj
 0001:00020b04       __scrt_get_show_window_mode 0000000140021b04 f   LIBCMT:utility_desktop.obj
 0001:00020b4c       __scrt_initialize_mta      0000000140021b4c f   LIBCMT:utility_desktop.obj
 0001:00020b54       __scrt_initialize_winrt    0000000140021b54 f   LIBCMT:utility_desktop.obj
 0001:00020b58       __scrt_is_managed_app      0000000140021b58 f   LIBCMT:utility_desktop.obj
 0001:00020bc0       __scrt_set_unhandled_exception_filter 0000000140021bc0 f   LIBCMT:utility_desktop.obj
 0001:00020bd4       __scrt_exe_initialize_mta  0000000140021bd4 f   LIBCMT:utility_desktop.obj
 0001:00020bd4       __scrt_stub_for_initialize_mta 0000000140021bd4 f   LIBCMT:utility_desktop.obj
 0001:00020bd8       __scrt_unhandled_exception_filter 0000000140021bd8 f   LIBCMT:utility_desktop.obj
 0001:00020c4c       _RTC_Initialize            0000000140021c4c f   LIBCMT:initsect.obj
 0001:00020c98       _RTC_Terminate             0000000140021c98 f   LIBCMT:initsect.obj
 0001:00020ce4       _guard_check_icall_nop     0000000140021ce4 f i LIBCMT:guard_support.obj
 0001:00020ce8       ReadNoFence64              0000000140021ce8 f i LIBCMT:guard_support.obj
 0001:00020cec       ReadPointerNoFence         0000000140021cec f i LIBCMT:guard_support.obj
 0001:00020cf0       __castguard_check_failure_debugbreak 0000000140021cf0 f i LIBCMT:guard_support.obj
 0001:00020d14       __castguard_check_failure_fastfail 0000000140021d14 f i LIBCMT:guard_support.obj
 0001:00020d40       __castguard_check_failure_nop 0000000140021d40 f i LIBCMT:guard_support.obj
 0001:00020d44       __castguard_check_failure_os_handled 0000000140021d44 f i LIBCMT:guard_support.obj
 0001:00020da0       __castguard_check_failure_user_handled 0000000140021da0 f i LIBCMT:guard_support.obj
 0001:00020e2c       __castguard_set_user_handler 0000000140021e2c f i LIBCMT:guard_support.obj
 0001:00020e3c       __castguard_slow_path_check_debugbreak 0000000140021e3c f i LIBCMT:guard_support.obj
 0001:00020e80       __castguard_slow_path_check_fastfail 0000000140021e80 f i LIBCMT:guard_support.obj
 0001:00020ec8       __castguard_slow_path_check_nop 0000000140021ec8 f i LIBCMT:guard_support.obj
 0001:00020ecc       __castguard_slow_path_check_os_handled 0000000140021ecc f i LIBCMT:guard_support.obj
 0001:00020f2c       __castguard_slow_path_check_user_handled 0000000140021f2c f i LIBCMT:guard_support.obj
 0001:00020fb0       _guard_icall_checks_enforced 0000000140021fb0 f i LIBCMT:guard_support.obj
 0001:00020fcc       _guard_rf_checks_enforced  0000000140021fcc f i LIBCMT:guard_support.obj
 0001:00020fd0       __isa_available_init       0000000140021fd0 f   LIBCMT:cpu_disp.obj
 0001:0002134c       __scrt_is_ucrt_dll_in_use  000000014002234c f   LIBCMT:ucrt_detection.obj
 0001:00021360       strstr                     0000000140022360 f   libvcruntime:strstr.obj
 0001:000215d0       ??$__crt_interlocked_exchange_pointer@$$A6AXXZP6AXXZ@@YAP6AXXZPEDS6AXXZQ6AXXZ@Z 00000001400225d0 f i libvcruntime:purevirt.obj
 0001:000215d8       ??$__crt_interlocked_read_pointer@$$A6AXXZ@@YAP6AXXZPEDS6AXXZ@Z 00000001400225d8 f i libvcruntime:purevirt.obj
 0001:000215e0       ?__crt_interlocked_read_64@@YA_JPED_J@Z 00000001400225e0 f i libvcruntime:purevirt.obj
 0001:000215e8       _get_purecall_handler      00000001400225e8 f   libvcruntime:purevirt.obj
 0001:000215f4       _purecall                  00000001400225f4 f   libvcruntime:purevirt.obj
 0001:00021614       _set_purecall_handler      0000000140022614 f   libvcruntime:purevirt.obj
 0001:00021624       strchr                     0000000140022624 f   libvcruntime:strchr.obj
 0001:000216c0       ??$?RD@__crt_public_free_policy@@QEBAXQEBD@Z 00000001400226c0 f i libvcruntime:std_exception.obj
 0001:000216cc       ??0?$__crt_unique_heap_ptr@DU__crt_public_free_policy@@@@QEAA@QEAD@Z 00000001400226cc f i libvcruntime:std_exception.obj
 0001:000216d4       ??1?$__crt_unique_heap_ptr@DU__crt_public_free_policy@@@@QEAA@XZ 00000001400226d4 f i libvcruntime:std_exception.obj
 0001:000216f8       ??B?$__crt_unique_heap_ptr@DU__crt_public_free_policy@@@@QEBA_NXZ 00000001400226f8 f i libvcruntime:std_exception.obj
 0001:00021704       ?detach@?$__crt_unique_heap_ptr@DU__crt_public_free_policy@@@@QEAAPEADXZ 0000000140022704 f i libvcruntime:std_exception.obj
 0001:00021710       ?get@?$__crt_unique_heap_ptr@DU__crt_public_free_policy@@@@QEBAPEADXZ 0000000140022710 f i libvcruntime:std_exception.obj
 0001:00021714       ?is_valid@?$__crt_unique_heap_ptr@DU__crt_public_free_policy@@@@QEBA_NXZ 0000000140022714 f i libvcruntime:std_exception.obj
 0001:00021720       ?release@?$__crt_unique_heap_ptr@DU__crt_public_free_policy@@@@QEAAXXZ 0000000140022720 f i libvcruntime:std_exception.obj
 0001:00021744       __std_exception_copy       0000000140022744 f   libvcruntime:std_exception.obj
 0001:000217f4       __std_exception_destroy    00000001400227f4 f   libvcruntime:std_exception.obj
 0001:00021824       _CxxThrowException         0000000140022824 f   libvcruntime:throw.obj
 0001:000218f4       __C_specific_handler       00000001400228f4 f   libvcruntime:riscchandler.obj
 0001:00021b90       __vcrt_initialize          0000000140022b90 f   libvcruntime:initialization.obj
 0001:00021bc4       __vcrt_thread_attach       0000000140022bc4 f   libvcruntime:initialization.obj
 0001:00021be0       __vcrt_thread_detach       0000000140022be0 f   libvcruntime:initialization.obj
 0001:00021bf4       __vcrt_uninitialize        0000000140022bf4 f   libvcruntime:initialization.obj
 0001:00021c14       __vcrt_uninitialize_critical 0000000140022c14 f   libvcruntime:initialization.obj
 0001:00021c3c       ??$?RD@__crt_internal_free_policy@@QEBAXQEBD@Z 0000000140022c3c f i libvcruntime:std_type_info.obj
 0001:00021c48       ??$?RX@__crt_internal_free_policy@@QEBAXQEBX@Z 0000000140022c48 f i libvcruntime:std_type_info.obj
 0001:00021c54       ??$__crt_interlocked_compare_exchange_pointer@$$CBDPEAD$$T@@YAPEBDPEDSEBDQEAD$$T@Z 0000000140022c54 f i libvcruntime:std_type_info.obj
 0001:00021c60       ??$__crt_interlocked_read_pointer@$$CBD@@YAPEBDPEDSEBD@Z 0000000140022c60 f i libvcruntime:std_type_info.obj
 0001:00021c68       ??0?$__crt_unique_heap_ptr@DU__crt_internal_free_policy@@@@QEAA@QEAD@Z 0000000140022c68 f i libvcruntime:std_type_info.obj
 0001:00021c70       ??0?$__crt_unique_heap_ptr@XU__crt_internal_free_policy@@@@QEAA@QEAX@Z 0000000140022c70 f i libvcruntime:std_type_info.obj
 0001:00021c78       ??1?$__crt_unique_heap_ptr@DU__crt_internal_free_policy@@@@QEAA@XZ 0000000140022c78 f i libvcruntime:std_type_info.obj
 0001:00021c9c       ??1?$__crt_unique_heap_ptr@XU__crt_internal_free_policy@@@@QEAA@XZ 0000000140022c9c f i libvcruntime:std_type_info.obj
 0001:00021cc0       ??B?$__crt_unique_heap_ptr@DU__crt_internal_free_policy@@@@QEBA_NXZ 0000000140022cc0 f i libvcruntime:std_type_info.obj
 0001:00021ccc       ??B?$__crt_unique_heap_ptr@XU__crt_internal_free_policy@@@@QEBA_NXZ 0000000140022ccc f i libvcruntime:std_type_info.obj
 0001:00021cf0       ?detach@?$__crt_unique_heap_ptr@XU__crt_internal_free_policy@@@@QEAAPEAXXZ 0000000140022cf0 f i libvcruntime:std_type_info.obj
 0001:00021cfc       ?get@?$__crt_unique_heap_ptr@DU__crt_internal_free_policy@@@@QEBAPEADXZ 0000000140022cfc f i libvcruntime:std_type_info.obj
 0001:00021d00       ?get@?$__crt_unique_heap_ptr@XU__crt_internal_free_policy@@@@QEBAPEAXXZ 0000000140022d00 f i libvcruntime:std_type_info.obj
 0001:00021d04       ?is_valid@?$__crt_unique_heap_ptr@DU__crt_internal_free_policy@@@@QEBA_NXZ 0000000140022d04 f i libvcruntime:std_type_info.obj
 0001:00021d10       ?is_valid@?$__crt_unique_heap_ptr@XU__crt_internal_free_policy@@@@QEBA_NXZ 0000000140022d10 f i libvcruntime:std_type_info.obj
 0001:00021d1c       ?release@?$__crt_unique_heap_ptr@DU__crt_internal_free_policy@@@@QEAAXXZ 0000000140022d1c f i libvcruntime:std_type_info.obj
 0001:00021d40       ?release@?$__crt_unique_heap_ptr@XU__crt_internal_free_policy@@@@QEAAXXZ 0000000140022d40 f i libvcruntime:std_type_info.obj
 0001:00021d64       __std_type_info_compare    0000000140022d64 f   libvcruntime:std_type_info.obj
 0001:00021d94       __std_type_info_destroy_list 0000000140022d94 f   libvcruntime:std_type_info.obj
 0001:00021dc8       __std_type_info_hash       0000000140022dc8 f   libvcruntime:std_type_info.obj
 0001:00021e10       __std_type_info_name       0000000140022e10 f   libvcruntime:std_type_info.obj
 0001:00021f6c       __DestructExceptionObject  0000000140022f6c f   libvcruntime:ehhelpers.obj
 0001:00021ff4       ?_CallMemberFunction0@@YAXQEAX0@Z 0000000140022ff4 f i libvcruntime:ehhelpers.obj
 0001:00022068       ?raw_name@type_info@@QEBAPEBDXZ 0000000140023068 f i libvcruntime:ehhelpers.obj
 0001:00022070       _IsExceptionObjectToBeDestroyed 0000000140023070 f   libvcruntime:ehhelpers.obj
 0001:000220ac       _SetWinRTOutOfMemoryExceptionCallback 00000001400230ac f   libvcruntime:ehhelpers.obj
 0001:000220b8       __AdjustPointer            00000001400230b8 f   libvcruntime:ehhelpers.obj
 0001:000220e4       __FrameUnwindFilter        00000001400230e4 f   libvcruntime:ehhelpers.obj
 0001:00022164       __GetPlatformExceptionInfo 0000000140023164 f   libvcruntime:ehhelpers.obj
 0001:000221d8       __current_exception        00000001400231d8 f   libvcruntime:ehhelpers.obj
 0001:000221f0       __current_exception_context 00000001400231f0 f   libvcruntime:ehhelpers.obj
 0001:00022208       __processing_throw         0000000140023208 f   libvcruntime:ehhelpers.obj
 0001:00022220       __std_terminate            0000000140023220 f   libvcruntime:ehhelpers.obj
 0001:0002222c       _is_exception_typeof       000000014002322c f   libvcruntime:ehhelpers.obj
 0001:00022340       _NLG_Notify                0000000140023340 f   libvcruntime:notify.obj
 0001:00022370       __NLG_Dispatch2            0000000140023370 f   libvcruntime:notify.obj
 0001:00022380       __NLG_Return2              0000000140023380 f   libvcruntime:notify.obj
 0001:0002238c       __except_validate_context_record 000000014002338c f   libvcruntime:jbcxrval.obj
 0001:000223d0       __except_validate_jump_buffer 00000001400233d0 f   libvcruntime:jbcxrval.obj
 0001:00022420       __except_validate_jump_buffer_common 0000000140023420 f i libvcruntime:jbcxrval.obj
 0001:00022494       ??$?RU__vcrt_ptd@@@__crt_internal_free_policy@@QEBAXQEBU__vcrt_ptd@@@Z 0000000140023494 f i libvcruntime:per_thread_data.obj
 0001:000224a0       ??0?$__crt_unique_heap_ptr@U__vcrt_ptd@@U__crt_internal_free_policy@@@@QEAA@QEAU__vcrt_ptd@@@Z 00000001400234a0 f i libvcruntime:per_thread_data.obj
 0001:000224c8       ??1?$__crt_unique_heap_ptr@U__vcrt_ptd@@U__crt_internal_free_policy@@@@QEAA@XZ 00000001400234c8 f i libvcruntime:per_thread_data.obj
 0001:000224f8       ??B?$__crt_unique_heap_ptr@U__vcrt_ptd@@U__crt_internal_free_policy@@@@QEBA_NXZ 00000001400234f8 f i libvcruntime:per_thread_data.obj
 0001:00022504       ?detach@?$__crt_unique_heap_ptr@U__vcrt_ptd@@U__crt_internal_free_policy@@@@QEAAPEAU__vcrt_ptd@@XZ 0000000140023504 f i libvcruntime:per_thread_data.obj
 0001:00022510       ?get@?$__crt_unique_heap_ptr@U__vcrt_ptd@@U__crt_internal_free_policy@@@@QEBAPEAU__vcrt_ptd@@XZ 0000000140023510 f i libvcruntime:per_thread_data.obj
 0001:00022514       ?is_valid@?$__crt_unique_heap_ptr@U__vcrt_ptd@@U__crt_internal_free_policy@@@@QEBA_NXZ 0000000140023514 f i libvcruntime:per_thread_data.obj
 0001:00022520       ?release@?$__crt_unique_heap_ptr@U__vcrt_ptd@@U__crt_internal_free_policy@@@@QEAAXXZ 0000000140023520 f i libvcruntime:per_thread_data.obj
 0001:00022578       __vcrt_freefls             0000000140023578 f   libvcruntime:per_thread_data.obj
 0001:000225a0       __vcrt_freeptd_for_this_thread 00000001400235a0 f   libvcruntime:per_thread_data.obj
 0001:000225f8       __vcrt_getptd              00000001400235f8 f   libvcruntime:per_thread_data.obj
 0001:00022618       __vcrt_getptd_noexit       0000000140023618 f   libvcruntime:per_thread_data.obj
 0001:00022708       __vcrt_getptd_noinit       0000000140023708 f   libvcruntime:per_thread_data.obj
 0001:00022768       __vcrt_initialize_ptd      0000000140023768 f   libvcruntime:per_thread_data.obj
 0001:000227c0       __vcrt_uninitialize_ptd    00000001400237c0 f   libvcruntime:per_thread_data.obj
 0001:000227ec       __vcrt_initialize_locks    00000001400237ec f   libvcruntime:locks.obj
 0001:00022844       __vcrt_lock                0000000140023844 f   libvcruntime:locks.obj
 0001:00022864       __vcrt_uninitialize_locks  0000000140023864 f   libvcruntime:locks.obj
 0001:000228a8       __vcrt_unlock              00000001400238a8 f   libvcruntime:locks.obj
 0001:000228c8       ??$?0$00@DName@@QEAA@PEBDU?$StringLifeSelector@$00@@@Z 00000001400238c8 f i libvcruntime:undname.obj
 0001:00022918       ??$?0$00@pcharNode@@QEAA@PEBDHU?$StringLifeSelector@$00@@@Z 0000000140023918 f i libvcruntime:undname.obj
 0001:00022934       ??$?0$01@DName@@QEAA@PEBDU?$StringLifeSelector@$01@@@Z 0000000140023934 f i libvcruntime:undname.obj
 0001:00022984       ??$?0$01@pcharNode@@QEAA@PEBDHU?$StringLifeSelector@$01@@@Z 0000000140023984 f i libvcruntime:undname.obj
 0001:00022a14       ??$?0$0A@@DName@@QEAA@PEBDU?$StringLifeSelector@$0A@@@@Z 0000000140023a14 f i libvcruntime:undname.obj
 0001:00022a64       ??$?0$0A@@pcharNode@@QEAA@PEBDHU?$StringLifeSelector@$0A@@@@Z 0000000140023a64 f i libvcruntime:undname.obj
 0001:00022af4       ??$?0_K$0A@@?$optional@_K@std@@QEAA@$$QEA_K@Z 0000000140023af4 f i libvcruntime:undname.obj
 0001:00022b08       ??$?0_K@?$_Optional_construct_base@_K@std@@QEAA@Uin_place_t@1@$$QEA_K@Z 0000000140023b08 f i libvcruntime:undname.obj
 0001:00022b1c       ??$?0_K@?$_Optional_destruct_base@_K$00@std@@QEAA@Uin_place_t@1@$$QEA_K@Z 0000000140023b1c f i libvcruntime:undname.obj
 0001:00022b30       ??$append@VDNameNode@@@DName@@AEAAXPEBVDNameNode@@@Z 0000000140023b30 f i libvcruntime:undname.obj
 0001:00022bac       ??$append@VDNameStatusNode@@@DName@@AEAAXPEBVDNameStatusNode@@@Z 0000000140023bac f i libvcruntime:undname.obj
 0001:00022c28       ??$append@VcharNode@@@DName@@AEAAXPEBVcharNode@@@Z 0000000140023c28 f i libvcruntime:undname.obj
 0001:00022ca4       ??$append@VpDNameNode@@@DName@@AEAAXPEBVpDNameNode@@@Z 0000000140023ca4 f i libvcruntime:undname.obj
 0001:00022d20       ??$append@VpcharNode@@@DName@@AEAAXPEBVpcharNode@@@Z 0000000140023d20 f i libvcruntime:undname.obj
 0001:00022d9c       ??$doPchar@$00@DName@@AEAAXPEBDH@Z 0000000140023d9c f i libvcruntime:undname.obj
 0001:00022e58       ??$doPchar@$01@DName@@AEAAXPEBDH@Z 0000000140023e58 f i libvcruntime:undname.obj
 0001:00022f14       ??$doPchar@$0A@@DName@@AEAAXPEBDH@Z 0000000140023f14 f i libvcruntime:undname.obj
 0001:00022fd0       ??$forward@_K@std@@YA$$QEA_KAEA_K@Z 0000000140023fd0 f i libvcruntime:undname.obj
 0001:00023134       ??0?$_Optional_construct_base@_K@std@@QEAA@XZ 0000000140024134 f i libvcruntime:undname.obj
 0001:00023140       ??0?$_Optional_destruct_base@_K$00@std@@QEAA@XZ 0000000140024140 f i libvcruntime:undname.obj
 0001:0002314c       ??0?$optional@_K@std@@QEAA@XZ 000000014002414c f i libvcruntime:undname.obj
 0001:00023158       ??0Block@_HeapManager@@QEAA@XZ 0000000140024158 f i libvcruntime:undname.obj
 0001:00023164       ??0DName@@QEAA@AEAPEBDD@Z  0000000140024164 f   libvcruntime:undname.obj
 0001:00023244       ??0DName@@QEAA@AEBUStringLiteral@@@Z 0000000140024244 f   libvcruntime:undname.obj
 0001:0002327c       ??0DName@@QEAA@AEBV0@@Z    000000014002427c f i libvcruntime:undname.obj
 0001:00023290       ??0DName@@QEAA@D@Z         0000000140024290 f   libvcruntime:undname.obj
 0001:000232b8       ??0DName@@QEAA@PEAV0@@Z    00000001400242b8 f   libvcruntime:undname.obj
 0001:0002335c       ??0DName@@QEAA@W4DNameStatus@@@Z 000000014002435c f   libvcruntime:undname.obj
 0001:00023398       ??0DName@@QEAA@XZ          0000000140024398 f i libvcruntime:undname.obj
 0001:000233a8       ??0DName@@QEAA@_J@Z        00000001400243a8 f   libvcruntime:undname.obj
 0001:00023474       ??0DName@@QEAA@_K@Z        0000000140024474 f   libvcruntime:undname.obj
 0001:00023520       ??0DNameNode@@IEAA@XZ      0000000140024520 f i libvcruntime:undname.obj
 0001:00023534       ??0Replicator@@QEAA@XZ     0000000140024534 f i libvcruntime:undname.obj
 0001:00023570       ??0UnDecorator@@QEAA@PEBDP6APEADJ@ZK@Z 0000000140024570 f i libvcruntime:undname.obj
 0001:00023644       ??0_Nontrivial_dummy_type@std@@QEAA@XZ 0000000140024644 f i libvcruntime:undname.obj
 0001:00023648       ??0charNode@@QEAA@D@Z      0000000140024648 f i libvcruntime:undname.obj
 0001:00023660       ??0pDNameNode@@QEAA@PEAVDName@@@Z 0000000140024660 f   libvcruntime:undname.obj
 0001:00023690       ??0pairNode@@QEAA@PEBVDNameNode@@0@Z 0000000140024690 f i libvcruntime:undname.obj
 0001:000236b8       ??2@YAPEAX_KAEAV_HeapManager@@H@Z 00000001400246b8 f   libvcruntime:undname.obj
 0001:000236ec       ??4DName@@QEAAAEAV0@AEBUStringLiteral@@@Z 00000001400246ec f   libvcruntime:undname.obj
 0001:0002371c       ??4DName@@QEAAAEAV0@AEBV0@@Z 000000014002471c f   libvcruntime:undname.obj
 0001:00023730       ??4DName@@QEAAAEAV0@D@Z    0000000140024730 f i libvcruntime:undname.obj
 0001:00023758       ??4DName@@QEAAAEAV0@PEAV0@@Z 0000000140024758 f   libvcruntime:undname.obj
 0001:000237ec       ??4DName@@QEAAAEAV0@W4DNameStatus@@@Z 00000001400247ec f   libvcruntime:undname.obj
 0001:00023814       ??AReplicator@@QEBA?AVDName@@H@Z 0000000140024814 f   libvcruntime:undname.obj
 0001:00023864       ??B?$optional@_K@std@@QEBA_NXZ 0000000140024864 f i libvcruntime:undname.obj
 0001:00023868       ??D?$_Optional_construct_base@_K@std@@QEGAAAEA_KXZ 0000000140024868 f i libvcruntime:undname.obj
 0001:0002386c       ??H@YA?AVDName@@AEBUStringLiteral@@AEBV0@@Z 000000014002486c f i libvcruntime:undname.obj
 0001:000238b0       ??H@YA?AVDName@@DAEBV0@@Z  00000001400248b0 f i libvcruntime:undname.obj
 0001:00023904       ??H@YA?AVDName@@W4DNameStatus@@AEBV0@@Z 0000000140024904 f i libvcruntime:undname.obj
 0001:00023948       ??HDName@@QEBA?AV0@AEBUStringLiteral@@@Z 0000000140024948 f   libvcruntime:undname.obj
 0001:0002397c       ??HDName@@QEBA?AV0@AEBV0@@Z 000000014002497c f   libvcruntime:undname.obj
 0001:000239b0       ??HDName@@QEBA?AV0@D@Z     00000001400249b0 f   libvcruntime:undname.obj
 0001:000239e4       ??HDName@@QEBA?AV0@PEAV0@@Z 00000001400249e4 f   libvcruntime:undname.obj
 0001:00023a18       ??HDName@@QEBA?AV0@W4DNameStatus@@@Z 0000000140024a18 f   libvcruntime:undname.obj
 0001:00023a4c       ??HStringLiteral@@QEBA?AU0@H@Z 0000000140024a4c f i libvcruntime:undname.obj
 0001:00023a68       ??YDName@@QEAAAEAV0@AEBUStringLiteral@@@Z 0000000140024a68 f   libvcruntime:undname.obj
 0001:00023b08       ??YDName@@QEAAAEAV0@AEBV0@@Z 0000000140024b08 f   libvcruntime:undname.obj
 0001:00023be8       ??YDName@@QEAAAEAV0@D@Z    0000000140024be8 f   libvcruntime:undname.obj
 0001:00023c70       ??YDName@@QEAAAEAV0@PEAV0@@Z 0000000140024c70 f   libvcruntime:undname.obj
 0001:00023d28       ??YDName@@QEAAAEAV0@W4DNameStatus@@@Z 0000000140024d28 f   libvcruntime:undname.obj
 0001:00023db0       ??YReplicator@@QEAAAEAV0@AEBVDName@@@Z 0000000140024db0 f   libvcruntime:undname.obj
 0001:00023e20       ??_5DName@@QEAAAEAV0@AEBV0@@Z 0000000140024e20 f   libvcruntime:undname.obj
 0001:00023e40       ??__K_l@@YA?AUStringLiteral@@PEBD_K@Z 0000000140024e40 f i libvcruntime:undname.obj
 0001:00023e50       ?Constructor@_HeapManager@@QEAAXP6APEAX_K@ZP6AXPEAX@Z@Z 0000000140024e50 f i libvcruntime:undname.obj
 0001:00023e6c       ?Destructor@_HeapManager@@QEAAXXZ 0000000140024e6c f i libvcruntime:undname.obj
 0001:00023ec8       ?UScore@UnDecorator@@SA?AUStringLiteral@@W4Tokens@@@Z 0000000140024ec8 f   libvcruntime:undname.obj
 0001:00023f28       ?composeDeclaration@UnDecorator@@CA?AVDName@@AEBV2@@Z 0000000140024f28 f i libvcruntime:undname.obj
 0001:000252dc       ?doAccessSpecifiers@UnDecorator@@SAHXZ 00000001400262dc f i libvcruntime:undname.obj
 0001:000252f0       ?doAllocationLanguage@UnDecorator@@SAHXZ 00000001400262f0 f i libvcruntime:undname.obj
 0001:00025304       ?doAllocationModel@UnDecorator@@SAHXZ 0000000140026304 f i libvcruntime:undname.obj
 0001:00025318       ?doEcsu@UnDecorator@@SAHXZ 0000000140026318 f i libvcruntime:undname.obj
 0001:0002532c       ?doEllipsis@UnDecorator@@SAHXZ 000000014002632c f i libvcruntime:undname.obj
 0001:00025340       ?doFunctionReturns@UnDecorator@@SAHXZ 0000000140026340 f i libvcruntime:undname.obj
 0001:00025354       ?doMSKeywords@UnDecorator@@SAHXZ 0000000140026354 f i libvcruntime:undname.obj
 0001:00025368       ?doMemberTypes@UnDecorator@@SAHXZ 0000000140026368 f i libvcruntime:undname.obj
 0001:0002537c       ?doNameOnly@UnDecorator@@SAHXZ 000000014002637c f i libvcruntime:undname.obj
 0001:0002538c       ?doNoIdentCharCheck@UnDecorator@@SAHXZ 000000014002638c f i libvcruntime:undname.obj
 0001:0002539c       ?doPchar@DName@@AEAAXD@Z   000000014002639c f   libvcruntime:undname.obj
 0001:00025400       ?doPtr64@UnDecorator@@SAHXZ 0000000140026400 f i libvcruntime:undname.obj
 0001:00025414       ?doRestrictionSpec@UnDecorator@@SAHXZ 0000000140026414 f i libvcruntime:undname.obj
 0001:00025428       ?doThisTypes@UnDecorator@@SAHXZ 0000000140026428 f i libvcruntime:undname.obj
 0001:00025440       ?doThrowTypes@UnDecorator@@SAHXZ 0000000140026440 f i libvcruntime:undname.obj
 0001:00025454       ?doTypeOnly@UnDecorator@@SAHXZ 0000000140026454 f i libvcruntime:undname.obj
 0001:00025464       ?doUnderScore@UnDecorator@@SAHXZ 0000000140026464 f i libvcruntime:undname.obj
 0001:00025474       ?getAddressOf@UnDecorator@@CA?AVDName@@XZ 0000000140026474 f   libvcruntime:undname.obj
 0001:00025528       ?getArgumentList@UnDecorator@@CA?AVDName@@XZ 0000000140026528 f   libvcruntime:undname.obj
 0001:00025720       ?getArgumentTypes@UnDecorator@@CA?AVDName@@XZ 0000000140026720 f   libvcruntime:undname.obj
 0001:000258c0       ?getArrayAccess@UnDecorator@@CA?AVDName@@XZ 00000001400268c0 f   libvcruntime:undname.obj
 0001:00025980       ?getArrayObject@UnDecorator@@CA?AVDName@@XZ 0000000140026980 f   libvcruntime:undname.obj
 0001:00025a84       ?getArrayType@UnDecorator@@CA?AVDName@@AEBV2@@Z 0000000140026a84 f i libvcruntime:undname.obj
 0001:00025d78       ?getBasedType@UnDecorator@@CA?AVDName@@XZ 0000000140026d78 f   libvcruntime:undname.obj
 0001:00025eac       ?getBasicDataType@UnDecorator@@CA?AVDName@@AEBV2@@Z 0000000140026eac f   libvcruntime:undname.obj
 0001:00026630       ?getCHPEName@UnDecorator@@QEAAPEADPEADH@Z 0000000140027630 f i libvcruntime:undname.obj
 0001:00026794       ?getCallIndex@UnDecorator@@CA?AVDName@@XZ 0000000140027794 f i libvcruntime:undname.obj
 0001:000267b4       ?getCallingConvention@UnDecorator@@CA?AVDName@@XZ 00000001400277b4 f   libvcruntime:undname.obj
 0001:0002691c       ?getDataIndirectType@UnDecorator@@CA?AVDName@@AEBV2@W4IndirectionKind@@0H@Z 000000014002791c f   libvcruntime:undname.obj
 0001:0002767c       ?getDataIndirectType@UnDecorator@@CA?AVDName@@XZ 000000014002867c f i libvcruntime:undname.obj
 0001:000276c4       ?getDataType@UnDecorator@@CA?AVDName@@PEAV2@@Z 00000001400286c4 f   libvcruntime:undname.obj
 0001:0002781c       ?getDecoratedName@UnDecorator@@CA?AVDName@@XZ 000000014002881c f   libvcruntime:undname.obj
 0001:00027bbc       ?getDimension@UnDecorator@@CA?AVDName@@_N@Z 0000000140028bbc f   libvcruntime:undname.obj
 0001:00027d58       ?getDispatchTarget@UnDecorator@@CA?AVDName@@XZ 0000000140028d58 f   libvcruntime:undname.obj
 0001:00027dcc       ?getDisplacement@UnDecorator@@CA?AVDName@@XZ 0000000140028dcc f i libvcruntime:undname.obj
 0001:00027dec       ?getECSUDataType@UnDecorator@@CA?AVDName@@XZ 0000000140028dec f   libvcruntime:undname.obj
 0001:00028064       ?getECSUName@UnDecorator@@CA?AVDName@@XZ 0000000140029064 f i libvcruntime:undname.obj
 0001:00028080       ?getEnumType@UnDecorator@@CA?AVDName@@XZ 0000000140029080 f i libvcruntime:undname.obj
 0001:000281f0       ?getExtendedDataIndirectType@UnDecorator@@CA?AVDName@@AEAW4IndirectionKind@@AEA_NH@Z 00000001400291f0 f   libvcruntime:undname.obj
 0001:000284fc       ?getExternalDataType@UnDecorator@@CA?AVDName@@AEBV2@@Z 00000001400294fc f i libvcruntime:undname.obj
 0001:000285ec       ?getFloatingPoint@UnDecorator@@CA?AVDName@@H@Z 00000001400295ec f   libvcruntime:undname.obj
 0001:000287ac       ?getFunctionIndirectType@UnDecorator@@CA?AVDName@@AEBV2@@Z 00000001400297ac f   libvcruntime:undname.obj
 0001:00028e30       ?getGuardNumber@UnDecorator@@CA?AVDName@@XZ 0000000140029e30 f i libvcruntime:undname.obj
 0001:00028e50       ?getLastChar@DName@@QEBADXZ 0000000140029e50 f i libvcruntime:undname.obj
 0001:00028e70       ?getLastChar@DNameStatusNode@@UEBADXZ 0000000140029e70 f i libvcruntime:undname.obj
 0001:00028e80       ?getLastChar@charNode@@UEBADXZ 0000000140029e80 f i libvcruntime:undname.obj
 0001:00028e84       ?getLastChar@pDNameNode@@UEBADXZ 0000000140029e84 f i libvcruntime:undname.obj
 0001:00028eb8       ?getLastChar@pairNode@@UEBADXZ 0000000140029eb8 f i libvcruntime:undname.obj
 0001:00028efc       ?getLastChar@pcharNode@@UEBADXZ 0000000140029efc f i libvcruntime:undname.obj
 0001:00028f18       ?getLexicalFrame@UnDecorator@@CA?AVDName@@XZ 0000000140029f18 f i libvcruntime:undname.obj
 0001:00028f94       ?getMemberAccess@UnDecorator@@CA?AVDName@@XZ 0000000140029f94 f   libvcruntime:undname.obj
 0001:0002904c       ?getMemoryWithBuffer@_HeapManager@@QEAAPEAX_K@Z 000000014002a04c f   libvcruntime:undname.obj
 0001:00029100       ?getMemoryWithoutBuffer@_HeapManager@@QEAAPEAX_K@Z 000000014002a100 f   libvcruntime:undname.obj
 0001:00029118       ?getNoexcept@UnDecorator@@CA?AVDName@@XZ 000000014002a118 f   libvcruntime:undname.obj
 0001:00029194       ?getNumberOfDimensions@UnDecorator@@CAHXZ 000000014002a194 f   libvcruntime:undname.obj
 0001:00029204       ?getOperatorName@UnDecorator@@CA?AVDName@@_NPEA_N@Z 000000014002a204 f i libvcruntime:undname.obj
 0001:00029e08       ?getPointerToMember@UnDecorator@@CA?AVDName@@XZ 000000014002ae08 f   libvcruntime:undname.obj
 0001:00029f3c       ?getPointerType@UnDecorator@@CA?AVDName@@AEBV2@0@Z 000000014002af3c f i libvcruntime:undname.obj
 0001:00029f60       ?getPointerTypeArray@UnDecorator@@CA?AVDName@@AEBV2@0@Z 000000014002af60 f i libvcruntime:undname.obj
 0001:00029f80       ?getPrimaryDataType@UnDecorator@@CA?AVDName@@AEBV2@@Z 000000014002af80 f   libvcruntime:undname.obj
 0001:0002a2e8       ?getPtrRefDataType@UnDecorator@@CA?AVDName@@AEBV2@H@Z 000000014002b2e8 f   libvcruntime:undname.obj
 0001:0002a528       ?getPtrRefType@UnDecorator@@CA?AVDName@@AEBV2@0W4IndirectionKind@@@Z 000000014002b528 f   libvcruntime:undname.obj
 0001:0002a788       ?getReferenceType@UnDecorator@@CA?AVDName@@AEBV2@0W4IndirectionKind@@@Z 000000014002b788 f i libvcruntime:undname.obj
 0001:0002a7a4       ?getRestrictionSpec@UnDecorator@@CA?AVDName@@XZ 000000014002b7a4 f   libvcruntime:undname.obj
 0001:0002a9f4       ?getReturnType@UnDecorator@@CA?AVDName@@PEAV2@@Z 000000014002b9f4 f   libvcruntime:undname.obj
 0001:0002aa38       ?getScope@UnDecorator@@CA?AVDName@@XZ 000000014002ba38 f   libvcruntime:undname.obj
 0001:0002b01c       ?getScopedName@UnDecorator@@CA?AVDName@@XZ 000000014002c01c f   libvcruntime:undname.obj
 0001:0002b1ac       ?getSignedDimension@UnDecorator@@CA?AVDName@@XZ 000000014002c1ac f   libvcruntime:undname.obj
 0001:0002b254       ?getStorageConvention@UnDecorator@@CA?AVDName@@XZ 000000014002c254 f i libvcruntime:undname.obj
 0001:0002b29c       ?getString@DName@@QEBAPEADPEAD0@Z 000000014002c29c f i libvcruntime:undname.obj
 0001:0002b2bc       ?getString@DName@@QEBAPEADPEADH@Z 000000014002c2bc f i libvcruntime:undname.obj
 0001:0002b374       ?getString@DNameStatusNode@@UEBAPEADPEAD0@Z 000000014002c374 f i libvcruntime:undname.obj
 0001:0002b3cc       ?getString@charNode@@UEBAPEADPEAD0@Z 000000014002c3cc f i libvcruntime:undname.obj
 0001:0002b3e4       ?getString@pDNameNode@@UEBAPEADPEAD0@Z 000000014002c3e4 f i libvcruntime:undname.obj
 0001:0002b41c       ?getString@pairNode@@UEBAPEADPEAD0@Z 000000014002c41c f i libvcruntime:undname.obj
 0001:0002b47c       ?getString@pcharNode@@UEBAPEADPEAD0@Z 000000014002c47c f i libvcruntime:undname.obj
 0001:0002b4c0       ?getStringEncoding@UnDecorator@@CA?AVDName@@W4PrefixKind@@H@Z 000000014002c4c0 f   libvcruntime:undname.obj
 0001:0002b610       ?getStringHelper@@YAPEADPEADPEBD1H@Z 000000014002c610 f i libvcruntime:undname.obj
 0001:0002b648       ?getStringObject@UnDecorator@@CA?AVDName@@XZ 000000014002c648 f   libvcruntime:undname.obj
 0001:0002b6fc       ?getSymbolName@UnDecorator@@CA?AVDName@@XZ 000000014002c6fc f i libvcruntime:undname.obj
 0001:0002b75c       ?getTemplateArgumentList@UnDecorator@@CA?AVDName@@XZ 000000014002c75c f   libvcruntime:undname.obj
 0001:0002ba00       ?getTemplateName@UnDecorator@@CA?AVDName@@_N@Z 000000014002ca00 f   libvcruntime:undname.obj
 0001:0002bd58       ?getTemplateNonTypeArgument@UnDecorator@@CA?AVDName@@XZ 000000014002cd58 f   libvcruntime:undname.obj
 0001:0002c3fc       ?getTemplateTypeArgument@UnDecorator@@CA?AVDName@@XZ 000000014002d3fc f   libvcruntime:undname.obj
 0001:0002c5c0       ?getThisType@UnDecorator@@CA?AVDName@@XZ 000000014002d5c0 f i libvcruntime:undname.obj
 0001:0002c610       ?getThrowTypes@UnDecorator@@CA?AVDName@@XZ 000000014002d610 f   libvcruntime:undname.obj
 0001:0002c63c       ?getTypeEncoding@UnDecorator@@CAHXZ 000000014002d63c f i libvcruntime:undname.obj
 0001:0002cae0       ?getUndecoratedName@UnDecorator@@QEAAPEADPEADH@Z 000000014002dae0 f i libvcruntime:undname.obj
 0001:0002cc98       ?getUnionObject@UnDecorator@@CA?AVDName@@XZ 000000014002dc98 f   libvcruntime:undname.obj
 0001:0002cda4       ?getVCallThunkType@UnDecorator@@CA?AVDName@@XZ 000000014002dda4 f i libvcruntime:undname.obj
 0001:0002ce38       ?getValue@UnDecorator@@CA?AV?$optional@_K@std@@XZ 000000014002de38 f   libvcruntime:undname.obj
 0001:0002ce8c       ?getValueObject@UnDecorator@@CA?AVDName@@XZ 000000014002de8c f   libvcruntime:undname.obj
 0001:0002d070       ?getVbTableType@UnDecorator@@CA?AVDName@@AEBV2@@Z 000000014002e070 f i libvcruntime:undname.obj
 0001:0002d08c       ?getVdispMapType@UnDecorator@@CA?AVDName@@AEBV2@@Z 000000014002e08c f i libvcruntime:undname.obj
 0001:0002d128       ?getVfTableType@UnDecorator@@CA?AVDName@@AEBV2@@Z 000000014002e128 f i libvcruntime:undname.obj
 0001:0002d3b4       ?getZName@UnDecorator@@CA?AVDName@@_N0@Z 000000014002e3b4 f   libvcruntime:undname.obj
 0001:0002d740       ?get_current_character_and_increment_buffer@UnDecorator@@CADXZ 000000014002e740 f i libvcruntime:undname.obj
 0001:0002d760       ?haveTemplateParameters@UnDecorator@@SAHXZ 000000014002e760 f i libvcruntime:undname.obj
 0001:0002d770       ?increment_buffer@UnDecorator@@CA_N_K@Z 000000014002e770 f i libvcruntime:undname.obj
 0001:0002d7a8       ?increment_buffer_no_check@UnDecorator@@CAXXZ 000000014002e7a8 f i libvcruntime:undname.obj
 0001:0002d7b4       ?increment_buffer_no_check@UnDecorator@@CAX_K@Z 000000014002e7b4 f i libvcruntime:undname.obj
 0001:0002d7c0       ?isArray@DName@@QEBAHXZ    000000014002e7c0 f i libvcruntime:undname.obj
 0001:0002d7cc       ?isComArray@DName@@QEBAHXZ 000000014002e7cc f i libvcruntime:undname.obj
 0001:0002d7d8       ?isEmpty@DName@@QEBAHXZ    000000014002e7d8 f i libvcruntime:undname.obj
 0001:0002d7e4       ?isFull@Replicator@@QEBAHXZ 000000014002e7e4 f i libvcruntime:undname.obj
 0001:0002d7f0       ?isNoTE@DName@@QEBAHXZ     000000014002e7f0 f i libvcruntime:undname.obj
 0001:0002d7fc       ?isPinPtr@DName@@QEBAHXZ   000000014002e7fc f i libvcruntime:undname.obj
 0001:0002d808       ?isPtrRef@DName@@QEBAHXZ   000000014002e808 f i libvcruntime:undname.obj
 0001:0002d814       ?isUDC@DName@@QEBAHXZ      000000014002e814 f i libvcruntime:undname.obj
 0001:0002d830       ?isUDTThunk@DName@@QEBAHXZ 000000014002e830 f i libvcruntime:undname.obj
 0001:0002d84c       ?isVCallThunk@DName@@QEBAHXZ 000000014002e84c f i libvcruntime:undname.obj
 0001:0002d858       ?isValid@DName@@QEBAHXZ    000000014002e858 f i libvcruntime:undname.obj
 0001:0002d864       ?length@DName@@QEBAHXZ     000000014002e864 f i libvcruntime:undname.obj
 0001:0002d884       ?length@DNameStatusNode@@UEBAHXZ 000000014002e884 f i libvcruntime:undname.obj
 0001:0002d888       ?length@charNode@@UEBAHXZ  000000014002e888 f i libvcruntime:undname.obj
 0001:0002d890       ?length@pDNameNode@@UEBAHXZ 000000014002e890 f i libvcruntime:undname.obj
 0001:0002d8c4       ?length@pairNode@@UEBAHXZ  000000014002e8c4 f i libvcruntime:undname.obj
 0001:0002d91c       ?length@pcharNode@@UEBAHXZ 000000014002e91c f i libvcruntime:undname.obj
 0001:0002d920       ?make@DNameStatusNode@@SAPEBV1@W4DNameStatus@@@Z 000000014002e920 f i libvcruntime:undname.obj
 0001:0002d948       ?parseDecoratedName@UnDecorator@@CA?AVDName@@XZ 000000014002e948 f   libvcruntime:undname.obj
 0001:0002daa4       ?raw_length@DNameStatusNode@@UEBAHXZ 000000014002eaa4 f i libvcruntime:undname.obj
 0001:0002daa8       ?raw_length@charNode@@UEBAHXZ 000000014002eaa8 f i libvcruntime:undname.obj
 0001:0002dab0       ?raw_length@pDNameNode@@UEBAHXZ 000000014002eab0 f i libvcruntime:undname.obj
 0001:0002dab4       ?raw_length@pairNode@@UEBAHXZ 000000014002eab4 f i libvcruntime:undname.obj
 0001:0002dab8       ?raw_length@pcharNode@@UEBAHXZ 000000014002eab8 f i libvcruntime:undname.obj
 0001:0002dabc       ?setIsArray@DName@@QEAAXXZ 000000014002eabc f i libvcruntime:undname.obj
 0001:0002dac4       ?setIsComArray@DName@@QEAAXXZ 000000014002eac4 f i libvcruntime:undname.obj
 0001:0002dacc       ?setIsNoTE@DName@@QEAAXXZ  000000014002eacc f i libvcruntime:undname.obj
 0001:0002dad4       ?setIsPinPtr@DName@@QEAAXXZ 000000014002ead4 f i libvcruntime:undname.obj
 0001:0002dadc       ?setIsUDC@DName@@QEAAXXZ   000000014002eadc f i libvcruntime:undname.obj
 0001:0002daec       ?setIsVCallThunk@DName@@QEAAXXZ 000000014002eaec f i libvcruntime:undname.obj
 0001:0002daf4       ?setPtrRef@DName@@QEAAAEAV1@XZ 000000014002eaf4 f i libvcruntime:undname.obj
 0001:0002db00       ?status@DName@@QEBA?AW4DNameStatus@@XZ 000000014002eb00 f i libvcruntime:undname.obj
 0001:0002db78       __unDName                  000000014002eb78 f   libvcruntime:undname.obj
 0001:0002dba8       __unDNameEx                000000014002eba8 f   libvcruntime:undname.obj
 0001:0002dcd0       _vsprintf_s_l              000000014002ecd0 f i libvcruntime:undname.obj
 0001:0002dd4c       snprintf                   000000014002ed4c f i libvcruntime:undname.obj
 0001:0002ddb8       sprintf_s                  000000014002edb8 f i libvcruntime:undname.obj
 0001:0002de20       unDNameGenerateCHPE        000000014002ee20 f   libvcruntime:undname.obj
 0001:0002dfbc       vsnprintf                  000000014002efbc f i libvcruntime:undname.obj
 0001:0002e038       ??$__crt_interlocked_exchange_pointer@UHINSTANCE__@@PEAU1@@@YAPEAUHINSTANCE__@@PEDSEAU0@QEAU0@@Z 000000014002f038 f i libvcruntime:winapi_downlevel.obj
 0001:0002e040       ??$__crt_interlocked_exchange_pointer@UHINSTANCE__@@PEAX@@YAPEAUHINSTANCE__@@PEDSEAU0@QEAX@Z 000000014002f040 f i libvcruntime:winapi_downlevel.obj
 0001:0002e048       ??$__crt_interlocked_exchange_pointer@XPEAX@@YAPEAXPEDSEAXQEAX@Z 000000014002f048 f i libvcruntime:winapi_downlevel.obj
 0001:0002e050       ??$__crt_interlocked_read_pointer@UHINSTANCE__@@@@YAPEAUHINSTANCE__@@PEDSEAU0@@Z 000000014002f050 f i libvcruntime:winapi_downlevel.obj
 0001:0002e058       ??$__crt_interlocked_read_pointer@X@@YAPEAXPEDSEAX@Z 000000014002f058 f i libvcruntime:winapi_downlevel.obj
 0001:0002e6e0       __vcrt_FlsAlloc            000000014002f6e0 f   libvcruntime:winapi_downlevel.obj
 0001:0002e738       __vcrt_FlsFree             000000014002f738 f   libvcruntime:winapi_downlevel.obj
 0001:0002e790       __vcrt_FlsGetValue         000000014002f790 f   libvcruntime:winapi_downlevel.obj
 0001:0002e7e8       __vcrt_FlsSetValue         000000014002f7e8 f   libvcruntime:winapi_downlevel.obj
 0001:0002e850       __vcrt_InitializeCriticalSectionEx 000000014002f850 f   libvcruntime:winapi_downlevel.obj
 0001:0002e8cc       ??$?0AEAViterator@TryBlockMap4@FH4@@AEAV012@$0A@@?$pair@Viterator@TryBlockMap4@FH4@@V123@@std@@QEAA@AEAViterator@TryBlockMap4@FH4@@0@Z 000000014002f8cc f i libvcruntime:risctrnsctrl.obj
 0001:0002e8e8       ??$?0AEAViterator@TryBlockMap@__FrameHandler3@@AEAV012@$0A@@?$pair@Viterator@TryBlockMap@__FrameHandler3@@V123@@std@@QEAA@AEAViterator@TryBlockMap@__FrameHandler3@@0@Z 000000014002f8e8 f i libvcruntime:risctrnsctrl.obj
 0001:0002ead0       ??$_CallSETranslator@V__FrameHandler3@@@@YAHPEAUEHExceptionRecord@@PEA_KPEAU_CONTEXT@@PEAU_xDISPATCHER_CONTEXT@@PEBU_s_FuncInfo@@K1H@Z 000000014002fad0 f i libvcruntime:risctrnsctrl.obj
 0001:0002eb38       ??$_CallSETranslator@V__FrameHandler4@@@@YAHPEAUEHExceptionRecord@@PEA_KPEAU_CONTEXT@@PEAU_xDISPATCHER_CONTEXT@@PEAUFuncInfo4@FH4@@K1H@Z 000000014002fb38 f i libvcruntime:risctrnsctrl.obj
 0001:0002eba0       ??$forward@AEAViterator@TryBlockMap4@FH4@@@std@@YAAEAViterator@TryBlockMap4@FH4@@AEAV123@@Z 000000014002fba0 f i libvcruntime:risctrnsctrl.obj
 0001:0002eba4       ??$forward@AEAViterator@TryBlockMap@__FrameHandler3@@@std@@YAAEAViterator@TryBlockMap@__FrameHandler3@@AEAV123@@Z 000000014002fba4 f i libvcruntime:risctrnsctrl.obj
 0001:0002eba8       ??0FuncInfo4@FH4@@QEAA@XZ  000000014002fba8 f i libvcruntime:risctrnsctrl.obj
 0001:0002ebc0       ??0FuncInfoHeader@FH4@@QEAA@XZ 000000014002fbc0 f i libvcruntime:risctrnsctrl.obj
 0001:0002ebc8       ??0iterator@TryBlockMap4@FH4@@QEAA@AEAV12@I@Z 000000014002fbc8 f i libvcruntime:risctrnsctrl.obj
 0001:0002ebd8       ??0iterator@TryBlockMap@__FrameHandler3@@QEAA@AEAV12@I@Z 000000014002fbd8 f i libvcruntime:risctrnsctrl.obj
 0001:0002ebe8       ??4iterator@TryBlockMap4@FH4@@QEAAAEAV012@AEBV012@@Z 000000014002fbe8 f i libvcruntime:risctrnsctrl.obj
 0001:0002ebf4       ??9iterator@TryBlockMap4@FH4@@QEBA_NAEBV012@@Z 000000014002fbf4 f i libvcruntime:risctrnsctrl.obj
 0001:0002ec00       ??Diterator@TryBlockMap4@FH4@@QEAA?AUTryBlockMapEntry4@2@XZ 000000014002fc00 f i libvcruntime:risctrnsctrl.obj
 0001:0002ec14       ??Eiterator@TryBlockMap4@FH4@@QEAAAEAV012@XZ 000000014002fc14 f i libvcruntime:risctrnsctrl.obj
 0001:0002ecd8       ?CatchTryBlock@__FrameHandler3@@SAPEBU_s_TryBlockMapEntry@@PEBU_s_FuncInfo@@H@Z 000000014002fcd8 f   libvcruntime:risctrnsctrl.obj
 0001:0002ed54       ?DecompFuncInfo@FH4@@YA_JPEAEAEAUFuncInfo4@1@_KH@Z 000000014002fd54 f i libvcruntime:risctrnsctrl.obj
 0001:0002ed6c       ?DecompFuncInfo@FH4@@YA_JPEAEAEAUFuncInfo4@1@_KH_N@Z 000000014002fd6c f i libvcruntime:risctrnsctrl.obj
 0001:0002eef0       ?DecompTryBlock@TryBlockMap4@FH4@@AEAAXXZ 000000014002fef0 f i libvcruntime:risctrnsctrl.obj
 0001:0002efa8       ?ExecutionInCatch@__FrameHandler3@@SA_NPEAU_xDISPATCHER_CONTEXT@@PEBU_s_FuncInfo@@@Z 000000014002ffa8 f   libvcruntime:risctrnsctrl.obj
 0001:0002efdc       ?ExecutionInCatch@__FrameHandler4@@SA_NPEAU_xDISPATCHER_CONTEXT@@PEAUFuncInfo4@FH4@@@Z 000000014002ffdc f   libvcruntime:risctrnsctrl.obj
 0001:0002efe4       ?FrameUnwindToEmptyState@__FrameHandler3@@SAXPEA_KPEAU_xDISPATCHER_CONTEXT@@PEBU_s_FuncInfo@@@Z 000000014002ffe4 f   libvcruntime:risctrnsctrl.obj
 0001:0002f064       ?FrameUnwindToEmptyState@__FrameHandler4@@SAXPEA_KPEAU_xDISPATCHER_CONTEXT@@PEAUFuncInfo4@FH4@@@Z 0000000140030064 f   libvcruntime:risctrnsctrl.obj
 0001:0002f0a4       ?GetEstablisherFrame@__FrameHandler3@@SAPEA_KPEA_KPEAU_xDISPATCHER_CONTEXT@@PEBU_s_FuncInfo@@0@Z 00000001400300a4 f   libvcruntime:risctrnsctrl.obj
 0001:0002f1a8       ?GetEstablisherFrame@__FrameHandler4@@SAPEA_KPEA_KPEAU_xDISPATCHER_CONTEXT@@PEAUFuncInfo4@FH4@@0@Z 00000001400301a8 f   libvcruntime:risctrnsctrl.obj
 0001:0002f1d4       ?GetRangeOfTrysToCheck@__FrameHandler3@@SA?AU?$pair@Viterator@TryBlockMap@__FrameHandler3@@V123@@std@@AEAVTryBlockMap@1@HPEAU_xDISPATCHER_CONTEXT@@PEBU_s_FuncInfo@@H@Z 00000001400301d4 f   libvcruntime:risctrnsctrl.obj
 0001:0002f354       ?GetRangeOfTrysToCheck@__FrameHandler4@@SA?AU?$pair@Viterator@TryBlockMap4@FH4@@V123@@std@@AEAVTryBlockMap4@FH4@@HPEAU_xDISPATCHER_CONTEXT@@PEAUFuncInfo4@5@H@Z 0000000140030354 f   libvcruntime:risctrnsctrl.obj
 0001:0002f518       ?ReadInt@FH4@@YAHPEAPEAE@Z 0000000140030518 f i libvcruntime:risctrnsctrl.obj
 0001:0002f528       ?ReadUnsigned@FH4@@YAIPEAPEAE@Z 0000000140030528 f i libvcruntime:risctrnsctrl.obj
 0001:0002f564       ?UnwindNestedFrames@__FrameHandler3@@SAXPEA_KPEAUEHExceptionRecord@@PEAU_CONTEXT@@0PEAXPEBU_s_FuncInfo@@HHPEBU_s_HandlerType@@PEAU_xDISPATCHER_CONTEXT@@E@Z 0000000140030564 f   libvcruntime:risctrnsctrl.obj
 0001:0002f6a8       ?UnwindNestedFrames@__FrameHandler4@@SAXPEA_KPEAUEHExceptionRecord@@PEAU_CONTEXT@@0PEAXPEAUFuncInfo4@FH4@@HHPEAUHandlerType4@5@PEAU_xDISPATCHER_CONTEXT@@E@Z 00000001400306a8 f   libvcruntime:risctrnsctrl.obj
 0001:0002f810       ?begin@TryBlockMap4@FH4@@QEAA?AViterator@12@XZ 0000000140030810 f i libvcruntime:risctrnsctrl.obj
 0001:0002f820       ?end@TryBlockMap4@FH4@@QEAA?AViterator@12@XZ 0000000140030820 f i libvcruntime:risctrnsctrl.obj
 0001:0002f830       ?imageRelToByteBuffer@FH4@@YAPEAE_KH@Z 0000000140030830 f i libvcruntime:risctrnsctrl.obj
 0001:0002f838       ?incrementToSentinel@iterator@TryBlockMap4@FH4@@QEAAXXZ 0000000140030838 f i libvcruntime:risctrnsctrl.obj
 0001:0002f83c       ?setBuffer@TryBlockMap4@FH4@@QEAAXViterator@12@@Z 000000014003083c f i libvcruntime:risctrnsctrl.obj
 0001:0002fa70       _CreateFrameInfo           0000000140030a70 f   libvcruntime:risctrnsctrl.obj
 0001:0002fab8       _FindAndUnlinkFrame        0000000140030ab8 f   libvcruntime:risctrnsctrl.obj
 0001:0002fb20       _GetImageBase              0000000140030b20 f   libvcruntime:risctrnsctrl.obj
 0001:0002fb38       _GetThrowImageBase         0000000140030b38 f   libvcruntime:risctrnsctrl.obj
 0001:0002fb50       _SetImageBase              0000000140030b50 f   libvcruntime:risctrnsctrl.obj
 0001:0002fb70       _SetThrowImageBase         0000000140030b70 f   libvcruntime:risctrnsctrl.obj
 0001:0002fb90       __CxxFrameHandler          0000000140030b90 f   libvcruntime:risctrnsctrl.obj
 0001:0002fb98       __CxxFrameHandler2         0000000140030b98 f   libvcruntime:risctrnsctrl.obj
 0001:0002fba0       __CxxFrameHandler3         0000000140030ba0 f   libvcruntime:risctrnsctrl.obj
 0001:0002fc48       __CxxFrameHandler4         0000000140030c48 f   libvcruntime:risctrnsctrl.obj
 0001:0002fd38       ?GetCurrentState@__FrameHandler3@@SAHPEA_KPEAU_xDISPATCHER_CONTEXT@@PEBU_s_FuncInfo@@@Z 0000000140030d38 f   libvcruntime:ehstate.obj
 0001:0002fd68       ?GetUnwindTryBlock@__FrameHandler3@@SAHPEA_KPEAU_xDISPATCHER_CONTEXT@@PEBU_s_FuncInfo@@@Z 0000000140030d68 f   libvcruntime:ehstate.obj
 0001:0002fd9c       ?SetState@__FrameHandler3@@SAXPEA_KPEBU_s_FuncInfo@@H@Z 0000000140030d9c f   libvcruntime:ehstate.obj
 0001:0002fdac       ?SetUnwindTryBlock@__FrameHandler3@@SAXPEA_KPEAU_xDISPATCHER_CONTEXT@@PEBU_s_FuncInfo@@H@Z 0000000140030dac f   libvcruntime:ehstate.obj
 0001:0002fdf8       ?StateFromControlPc@__FrameHandler3@@SAHPEBU_s_FuncInfo@@PEAU_xDISPATCHER_CONTEXT@@@Z 0000000140030df8 f   libvcruntime:ehstate.obj
 0001:0002fe04       ?StateFromControlPc@__FrameHandler4@@SAHPEAUFuncInfo4@FH4@@PEAU_xDISPATCHER_CONTEXT@@@Z 0000000140030e04 f   libvcruntime:ehstate.obj
 0001:0002fe10       ?StateFromIp@__FrameHandler3@@SAHPEBU_s_FuncInfo@@PEAU_xDISPATCHER_CONTEXT@@_K@Z 0000000140030e10 f   libvcruntime:ehstate.obj
 0001:0002fe90       ?StateFromIp@__FrameHandler4@@SAHPEAUFuncInfo4@FH4@@PEAU_xDISPATCHER_CONTEXT@@_K@Z 0000000140030e90 f   libvcruntime:ehstate.obj
 0001:0002ffb8       ?__FuncRelToRealOffset@@YA_KPEAU_xDISPATCHER_CONTEXT@@I@Z 0000000140030fb8 f i libvcruntime:ehstate.obj
 0001:0002ffcc       ?__RVAtoRealOffset@@YA_KPEAU_xDISPATCHER_CONTEXT@@H@Z 0000000140030fcc f i libvcruntime:ehstate.obj
 0001:00031bd8       ??$TypeMatchHelper@V__FrameHandler3@@@@YAHPEBU_s_HandlerType@@PEBU_s_CatchableType@@PEBU_s_ThrowInfo@@@Z 0000000140032bd8 f i libvcruntime:frame.obj
 0001:00031d64       ??$TypeMatchHelper@V__FrameHandler4@@@@YAHPEAUHandlerType4@FH4@@PEBU_s_CatchableType@@PEBU_s_ThrowInfo@@@Z 0000000140032d64 f i libvcruntime:frame.obj
 0001:00031f04       ??$__InternalCxxFrameHandler@V__FrameHandler3@@@@YA?AW4_EXCEPTION_DISPOSITION@@PEAUEHExceptionRecord@@PEA_KPEAU_CONTEXT@@PEAU_xDISPATCHER_CONTEXT@@PEBU_s_FuncInfo@@H1E@Z 0000000140032f04 f i libvcruntime:frame.obj
 0001:000321c8       ??$__InternalCxxFrameHandler@V__FrameHandler4@@@@YA?AW4_EXCEPTION_DISPOSITION@@PEAUEHExceptionRecord@@PEA_KPEAU_CONTEXT@@PEAU_xDISPATCHER_CONTEXT@@PEAUFuncInfo4@FH4@@H1E@Z 00000001400331c8 f i libvcruntime:frame.obj
 0001:00032504       ??$__InternalCxxFrameHandlerWrapper@V__FrameHandler3@@@@YA?AW4_EXCEPTION_DISPOSITION@@PEAUEHExceptionRecord@@PEA_KPEAU_CONTEXT@@PEAU_xDISPATCHER_CONTEXT@@PEBU_s_FuncInfo@@H1E@Z 0000000140033504 f i libvcruntime:frame.obj
 0001:0003250c       ??$__InternalCxxFrameHandlerWrapper@V__FrameHandler4@@@@YA?AW4_EXCEPTION_DISPOSITION@@PEAUEHExceptionRecord@@PEA_KPEAU_CONTEXT@@PEAU_xDISPATCHER_CONTEXT@@PEAUFuncInfo4@FH4@@H1E@Z 000000014003350c f i libvcruntime:frame.obj
 0001:0003256c       ??0HandlerMap4@FH4@@QEAA@PEBUTryBlockMapEntry4@1@_KH@Z 000000014003356c f i libvcruntime:frame.obj
 0001:00032610       ??0HandlerMap@__FrameHandler3@@QEAA@PEBU_s_TryBlockMapEntry@@_KI@Z 0000000140033610 f i libvcruntime:frame.obj
 0001:0003262c       ??0HandlerType4@FH4@@QEAA@XZ 000000014003362c f i libvcruntime:frame.obj
 0001:00032648       ??0TryBlockMap4@FH4@@QEAA@PEBUFuncInfo4@1@_K@Z 0000000140033648 f i libvcruntime:frame.obj
 0001:00032768       ??0TryBlockMap@__FrameHandler3@@QEAA@PEBU_s_FuncInfo@@_K@Z 0000000140033768 f i libvcruntime:frame.obj
 0001:00032778       ??0UWMap4@FH4@@QEAA@PEBUFuncInfo4@1@_K@Z 0000000140033778 f i libvcruntime:frame.obj
 0001:000327d8       ??0bad_exception@std@@QEAA@AEBV01@@Z 00000001400337d8 f i libvcruntime:frame.obj
 0001:00032824       ??0bad_exception@std@@QEAA@XZ 0000000140033824 f i libvcruntime:frame.obj
 0001:0003284c       ??0iterator@HandlerMap4@FH4@@QEAA@AEAV12@I@Z 000000014003384c f i libvcruntime:frame.obj
 0001:0003285c       ??0iterator@HandlerMap@__FrameHandler3@@QEAA@AEAV12@I@Z 000000014003385c f i libvcruntime:frame.obj
 0001:0003286c       ??0iterator@UWMap4@FH4@@QEAA@AEAV12@PEAE@Z 000000014003386c f i libvcruntime:frame.obj
 0001:0003287c       ??1bad_exception@std@@UEAA@XZ 000000014003387c f i libvcruntime:frame.obj
 0001:00032894       ??4iterator@UWMap4@FH4@@QEAAAEAV012@AEBV012@@Z 0000000140033894 f i libvcruntime:frame.obj
 0001:000328bc       ??8iterator@HandlerMap4@FH4@@QEBA_NAEBV012@@Z 00000001400338bc f i libvcruntime:frame.obj
 0001:000328c8       ??8iterator@HandlerMap@__FrameHandler3@@QEBA_NAEBV012@@Z 00000001400338c8 f i libvcruntime:frame.obj
 0001:000328d4       ??8type_info@@QEBA_NAEBV0@@Z 00000001400338d4 f i libvcruntime:frame.obj
 0001:000328f8       ??9iterator@HandlerMap4@FH4@@QEBA_NAEBV012@@Z 00000001400338f8 f i libvcruntime:frame.obj
 0001:00032904       ??9iterator@HandlerMap@__FrameHandler3@@QEBA_NAEBV012@@Z 0000000140033904 f i libvcruntime:frame.obj
 0001:00032910       ??Diterator@HandlerMap4@FH4@@QEAA?AUHandlerType4@2@XZ 0000000140033910 f i libvcruntime:frame.obj
 0001:00032938       ??Diterator@HandlerMap@__FrameHandler3@@QEAA?BU_s_HandlerType@@XZ 0000000140033938 f i libvcruntime:frame.obj
 0001:00032964       ??Diterator@TryBlockMap@__FrameHandler3@@QEAA?BU_s_TryBlockMapEntry@@XZ 0000000140033964 f i libvcruntime:frame.obj
 0001:0003299c       ??Diterator@UWMap4@FH4@@QEAA?AUUnwindMapEntry4@2@XZ 000000014003399c f i libvcruntime:frame.obj
 0001:00032a04       ??Eiterator@HandlerMap4@FH4@@QEAAAEAV012@XZ 0000000140033a04 f i libvcruntime:frame.obj
 0001:00032a28       ??Eiterator@HandlerMap@__FrameHandler3@@QEAAAEAV012@XZ 0000000140033a28 f i libvcruntime:frame.obj
 0001:00032a30       ??Eiterator@TryBlockMap@__FrameHandler3@@QEAAAEAV012@XZ 0000000140033a30 f i libvcruntime:frame.obj
 0001:00032a38       ??Eiterator@UWMap4@FH4@@QEAAAEAV012@XZ 0000000140033a38 f i libvcruntime:frame.obj
 0001:00032a60       ??Giterator@UWMap4@FH4@@QEBA_JAEBV012@@Z 0000000140033a60 f i libvcruntime:frame.obj
 0001:00032a6c       ??Miterator@TryBlockMap4@FH4@@QEBA_NAEBV012@@Z 0000000140033a6c f i libvcruntime:frame.obj
 0001:00032a78       ??Miterator@TryBlockMap@__FrameHandler3@@QEBA_NAEBV012@@Z 0000000140033a78 f i libvcruntime:frame.obj
 0001:00032a84       ??Oiterator@UWMap4@FH4@@QEBA_NAEBV012@@Z 0000000140033a84 f i libvcruntime:frame.obj
 0001:00032a94       ??Piterator@UWMap4@FH4@@QEBA_NAEBV012@@Z 0000000140033a94 f i libvcruntime:frame.obj
 0001:00032aa4       ??_Ebad_exception@std@@UEAAPEAXI@Z 0000000140033aa4 f i libvcruntime:frame.obj
 0001:00032aa4       ??_Gbad_exception@std@@UEAAPEAXI@Z 0000000140033aa4 f i libvcruntime:frame.obj
 0001:00032af8       ?BuildCatchObject@__FrameHandler3@@SAXPEAUEHExceptionRecord@@PEAXPEBU_s_HandlerType@@PEBU_s_CatchableType@@@Z 0000000140033af8 f   libvcruntime:frame.obj
 0001:00032b00       ?BuildCatchObject@__FrameHandler4@@SAXPEAUEHExceptionRecord@@PEAXPEAUHandlerType4@FH4@@PEBU_s_CatchableType@@@Z 0000000140033b00 f   libvcruntime:frame.obj
 0001:00032b08       ?BuildCatchObjectHelper@__FrameHandler3@@SAHPEAUEHExceptionRecord@@PEAXPEBU_s_HandlerType@@PEBU_s_CatchableType@@@Z 0000000140033b08 f   libvcruntime:frame.obj
 0001:00032b10       ?BuildCatchObjectHelper@__FrameHandler4@@SAHPEAUEHExceptionRecord@@PEAXPEAUHandlerType4@FH4@@PEBU_s_CatchableType@@@Z 0000000140033b10 f   libvcruntime:frame.obj
 0001:00032b18       ?CxxCallCatchBlock@__FrameHandler3@@SAPEAXPEAU_EXCEPTION_RECORD@@@Z 0000000140033b18 f   libvcruntime:frame.obj
 0001:00032d7c       ?CxxCallCatchBlock@__FrameHandler4@@SAPEAXPEAU_EXCEPTION_RECORD@@@Z 0000000140033d7c f   libvcruntime:frame.obj
 0001:0003305c       ?DecompHandler@HandlerMap4@FH4@@AEAAXXZ 000000014003405c f i libvcruntime:frame.obj
 0001:00033338       ?FrameUnwindToState@__FrameHandler3@@SAXPEA_KPEAU_xDISPATCHER_CONTEXT@@PEBU_s_FuncInfo@@H@Z 0000000140034338 f   libvcruntime:frame.obj
 0001:00033524       ?FrameUnwindToState@__FrameHandler4@@SAXPEA_KPEAU_xDISPATCHER_CONTEXT@@PEAUFuncInfo4@FH4@@H@Z 0000000140034524 f   libvcruntime:frame.obj
 0001:000338ec       ?GetHandlerSearchState@__FrameHandler3@@SAHPEA_KPEAU_xDISPATCHER_CONTEXT@@PEBU_s_FuncInfo@@@Z 00000001400348ec f i libvcruntime:frame.obj
 0001:000339a8       ?GetHandlerSearchState@__FrameHandler4@@SAHPEA_KPEAU_xDISPATCHER_CONTEXT@@PEAUFuncInfo4@FH4@@@Z 00000001400349a8 f i libvcruntime:frame.obj
 0001:00033a24       ?GetMaxState@__FrameHandler3@@SAHPEAU_xDISPATCHER_CONTEXT@@PEBU_s_FuncInfo@@@Z 0000000140034a24 f i libvcruntime:frame.obj
 0001:00033a28       ?GetMaxState@__FrameHandler4@@SAHPEAU_xDISPATCHER_CONTEXT@@PEAUFuncInfo4@FH4@@@Z 0000000140034a28 f i libvcruntime:frame.obj
 0001:00033c44       ?ReadEntry@UWMap4@FH4@@AEAAXPEAPEAE@Z 0000000140034c44 f i libvcruntime:frame.obj
 0001:00033d08       ?TypeMatch@__FrameHandler3@@SAHPEBU_s_HandlerType@@PEBU_s_CatchableType@@PEBU_s_ThrowInfo@@@Z 0000000140034d08 f   libvcruntime:frame.obj
 0001:00033d10       ?TypeMatch@__FrameHandler4@@SAHPEAUHandlerType4@FH4@@PEBU_s_CatchableType@@PEBU_s_ThrowInfo@@@Z 0000000140034d10 f   libvcruntime:frame.obj
 0001:00033d18       ?WalkBack@UWMap4@FH4@@AEAAXPEAPEAE@Z 0000000140034d18 f i libvcruntime:frame.obj
 0001:00033d5c       ?WalkBack@iterator@UWMap4@FH4@@QEAAXXZ 0000000140034d5c f i libvcruntime:frame.obj
 0001:00033da8       ?WalkForward@UWMap4@FH4@@AEAAXPEAPEAE@Z 0000000140034da8 f i libvcruntime:frame.obj
 0001:00033db0       ?_CallMemberFunction1@@YAXQEAX00@Z 0000000140034db0 f i libvcruntime:frame.obj
 0001:00033dbc       ?_CallMemberFunction2@@YAXQEAX00H@Z 0000000140034dbc f i libvcruntime:frame.obj
 0001:00033dec       ?begin@HandlerMap4@FH4@@QEAA?AViterator@12@XZ 0000000140034dec f i libvcruntime:frame.obj
 0001:00033dfc       ?begin@HandlerMap@__FrameHandler3@@QEAA?AViterator@12@XZ 0000000140034dfc f i libvcruntime:frame.obj
 0001:00033e0c       ?begin@UWMap4@FH4@@QEAA?AViterator@12@XZ 0000000140034e0c f i libvcruntime:frame.obj
 0001:00033e20       ?end@HandlerMap4@FH4@@QEAA?AViterator@12@XZ 0000000140034e20 f i libvcruntime:frame.obj
 0001:00033e30       ?end@HandlerMap@__FrameHandler3@@QEAA?AViterator@12@XZ 0000000140034e30 f i libvcruntime:frame.obj
 0001:00033e40       ?getESTypes@__FrameHandler3@@SAPEBU_s_ESTypeList@@PEBU_s_FuncInfo@@@Z 0000000140034e40 f i libvcruntime:frame.obj
 0001:00033e74       ?getESTypes@__FrameHandler4@@SAPEBU_s_ESTypeList@@PEAUFuncInfo4@FH4@@@Z 0000000140034e74 f i libvcruntime:frame.obj
 0001:00033e78       ?getLastEntry@HandlerMap4@FH4@@QEAAPEAUHandlerType4@2@XZ 0000000140034e78 f i libvcruntime:frame.obj
 0001:00033edc       ?getLastEntry@HandlerMap@__FrameHandler3@@QEAAPEBU_s_HandlerType@@XZ 0000000140034edc f i libvcruntime:frame.obj
 0001:00033ef4       ?getMagicNum@__FrameHandler3@@SAIPEBU_s_FuncInfo@@@Z 0000000140034ef4 f i libvcruntime:frame.obj
 0001:00033f00       ?getMagicNum@__FrameHandler4@@SAIPEAUFuncInfo4@FH4@@@Z 0000000140034f00 f i libvcruntime:frame.obj
 0001:00033f08       ?getNumTryBlocks@TryBlockMap4@FH4@@QEAAIXZ 0000000140034f08 f i libvcruntime:frame.obj
 0001:00033f0c       ?getNumTryBlocks@TryBlockMap@__FrameHandler3@@QEAAIXZ 0000000140034f0c f i libvcruntime:frame.obj
 0001:00033f14       ?getStartStop@UWMap4@FH4@@QEAAXHHAEAViterator@12@0@Z 0000000140034f14 f i libvcruntime:frame.obj
 0001:00034018       ?getStateFromIterators@UWMap4@FH4@@SAHAEBViterator@12@H0H0@Z 0000000140035018 f i libvcruntime:frame.obj
 0001:000340f4       ?isEHs@__FrameHandler3@@SA_NPEBU_s_FuncInfo@@@Z 00000001400350f4 f i libvcruntime:frame.obj
 0001:000340fc       ?isEHs@__FrameHandler4@@SA_NPEAUFuncInfo4@FH4@@@Z 00000001400350fc f i libvcruntime:frame.obj
 0001:00034108       ?isNoExcept@__FrameHandler3@@SA_NPEBU_s_FuncInfo@@@Z 0000000140035108 f i libvcruntime:frame.obj
 0001:00034114       ?isNoExcept@__FrameHandler4@@SA_NPEAUFuncInfo4@FH4@@@Z 0000000140035114 f i libvcruntime:frame.obj
 0001:00034120       ?reset@HandlerType4@FH4@@QEAAXXZ 0000000140035120 f i libvcruntime:frame.obj
 0001:0003413c       ?resetBuffer@HandlerMap4@FH4@@QEAAXXZ 000000014003513c f i libvcruntime:frame.obj
 0001:0003414c       ?setBuffer@HandlerMap4@FH4@@QEAAXI@Z 000000014003514c f i libvcruntime:frame.obj
 0001:00034194       __BuildCatchObject         0000000140035194 f   libvcruntime:frame.obj
 0001:0003419c       __BuildCatchObjectHelper   000000014003519c f   libvcruntime:frame.obj
 0001:000341a4       __TypeMatch                00000001400351a4 f   libvcruntime:frame.obj
 0001:000341ac       __vcrt_EncodePointer       00000001400351ac f i libvcruntime:frame.obj
 0001:00034210       _CallSettingFrame          0000000140035210 f   libvcruntime:handlers.obj
 0001:00034260       _CallSettingFrame_LookupContinuationIndex 0000000140035260 f   libvcruntime:handlers.obj
 0001:000342a0       _CallSettingFrame_NotifyContinuationAddr 00000001400352a0 f   libvcruntime:handlers.obj
 0001:000342d0       _CallSettingFrameEncoded   00000001400352d0 f   libvcruntime:handlers.obj
 0001:00034328       ??$__crt_fast_decode_pointer@P6AXPEB_W00I_K@Z@@YAP6AXPEB_W00I_K@ZQ6AX000I1@Z@Z 0000000140035328 f i libucrt:invalid_parameter.obj
 0001:00034344       ??$__crt_fast_encode_pointer@P6AXPEB_W00I_K@Z@@YAP6AXPEB_W00I_K@ZQ6AX000I1@Z@Z 0000000140035344 f i libucrt:invalid_parameter.obj
 0001:0003436c       ??$initialize_from_array@$$BY00Q6AXPEB_W00I_K@Z@?$dual_state_global@P6AXPEB_W00I_K@Z@__crt_state_management@@QEAAXAEAY00Q6AXPEB_W00I_K@Z@Z 000000014003536c f i libucrt:invalid_parameter.obj
 0001:00034374       ??0?$cached@H@__crt_cached_ptd_host@@QEAA@XZ 0000000140035374 f i libucrt:invalid_parameter.obj
 0001:00034380       ??0?$cached@K@__crt_cached_ptd_host@@QEAA@XZ 0000000140035380 f i libucrt:invalid_parameter.obj
 0001:0003438c       ??0__crt_cached_ptd_host@@QEAA@QEAU__crt_locale_pointers@@@Z 000000014003538c f i libucrt:invalid_parameter.obj
 0001:000343d0       ??0__crt_scoped_get_last_error_reset@@QEAA@XZ 00000001400353d0 f i libucrt:invalid_parameter.obj
 0001:000343f0       ??1__crt_cached_ptd_host@@QEAA@XZ 00000001400353f0 f i libucrt:invalid_parameter.obj
 0001:00034450       ??1__crt_scoped_get_last_error_reset@@QEAA@XZ 0000000140035450 f i libucrt:invalid_parameter.obj
 0001:0003445c       ?__crt_rotate_pointer_value@@YA_K_KH@Z 000000014003545c f i libucrt:invalid_parameter.obj
 0001:000344f0       ?check_synchronize_global_state_index@__crt_cached_ptd_host@@AEAA_KAEBV__crt_scoped_get_last_error_reset@@@Z 00000001400354f0 f i libucrt:invalid_parameter.obj
 0001:0003450c       ?check_synchronize_global_state_index@__crt_cached_ptd_host@@AEAA_KXZ 000000014003550c f i libucrt:invalid_parameter.obj
 0001:00034550       ?check_synchronize_per_thread_data@__crt_cached_ptd_host@@AEAAPEAU__acrt_ptd@@XZ 0000000140035550 f i libucrt:invalid_parameter.obj
 0001:000345d0       ?dangerous_get_state_array@?$dual_state_global@P6AXPEB_W00I_K@Z@__crt_state_management@@QEAAPEAP6AXPEB_W00I_K@ZXZ 00000001400355d0 f i libucrt:invalid_parameter.obj
 0001:000345d4       ?force_synchronize_global_state_index@__crt_cached_ptd_host@@AEAA_KAEBV__crt_scoped_get_last_error_reset@@@Z 00000001400355d4 f i libucrt:invalid_parameter.obj
 0001:000345e4       ?force_synchronize_per_thread_data@__crt_cached_ptd_host@@AEAAPEAU__acrt_ptd@@XZ 00000001400355e4 f i libucrt:invalid_parameter.obj
 0001:00034650       ?get_current_global_state_index@__crt_cached_ptd_host@@QEAA_KXZ 0000000140035650 f i libucrt:invalid_parameter.obj
 0001:000346a0       ?get_current_state_index@__crt_state_management@@YA_KAEBV__crt_scoped_get_last_error_reset@@@Z 00000001400356a0 f i libucrt:invalid_parameter.obj
 0001:000346a4       ?get_current_state_index@__crt_state_management@@YA_KXZ 00000001400356a4 f i libucrt:invalid_parameter.obj
 0001:000346a8       ?get_raw_ptd@__crt_cached_ptd_host@@QEAAPEAU__acrt_ptd@@XZ 00000001400356a8 f i libucrt:invalid_parameter.obj
 0001:00034728       ?get_raw_ptd_noexit@__crt_cached_ptd_host@@QEAAPEAU__acrt_ptd@@XZ 0000000140035728 f i libucrt:invalid_parameter.obj
 0001:000347ac       ?try_synchronize_per_thread_data@__crt_cached_ptd_host@@AEAAPEAU__acrt_ptd@@XZ 00000001400357ac f i libucrt:invalid_parameter.obj
 0001:00034828       ?unsafe_value@?$cached@H@__crt_cached_ptd_host@@QEAAHXZ 0000000140035828 f i libucrt:invalid_parameter.obj
 0001:0003482c       ?unsafe_value@?$cached@K@__crt_cached_ptd_host@@QEAAKXZ 000000014003582c f i libucrt:invalid_parameter.obj
 0001:00034830       ?valid@?$cached@H@__crt_cached_ptd_host@@QEBA_NXZ 0000000140035830 f i libucrt:invalid_parameter.obj
 0001:00034834       ?valid@?$cached@K@__crt_cached_ptd_host@@QEBA_NXZ 0000000140035834 f i libucrt:invalid_parameter.obj
 0001:00034838       ?value@?$dual_state_global@P6AXPEB_W00I_K@Z@__crt_state_management@@QEAAAEAP6AXPEB_W00I_K@ZAEAV__crt_cached_ptd_host@@@Z 0000000140035838 f i libucrt:invalid_parameter.obj
 0001:00034898       ?value@?$dual_state_global@P6AXPEB_W00I_K@Z@__crt_state_management@@QEAAAEAP6AXPEB_W00I_K@ZXZ 0000000140035898 f i libucrt:invalid_parameter.obj
 0001:0003489c       __acrt_call_reportfault    000000014003589c f   libucrt:invalid_parameter.obj
 0001:00034a50       __acrt_enable_global_locale_sync 0000000140035a50 f i libucrt:invalid_parameter.obj
 0001:00034a5c       __acrt_initialize_invalid_parameter_handler 0000000140035a5c f   libucrt:invalid_parameter.obj
 0001:00034a68       __acrt_locale_changed      0000000140035a68 f i libucrt:invalid_parameter.obj
 0001:00034a78       _get_invalid_parameter_handler 0000000140035a78 f   libucrt:invalid_parameter.obj
 0001:00034a98       _get_thread_local_invalid_parameter_handler 0000000140035a98 f   libucrt:invalid_parameter.obj
 0001:00034ab8       _invalid_parameter         0000000140035ab8 f   libucrt:invalid_parameter.obj
 0001:00034b7c       _invalid_parameter_internal 0000000140035b7c f   libucrt:invalid_parameter.obj
 0001:00034c7c       _invalid_parameter_noinfo  0000000140035c7c f   libucrt:invalid_parameter.obj
 0001:00034ca4       _invalid_parameter_noinfo_noreturn 0000000140035ca4 f   libucrt:invalid_parameter.obj
 0001:00034ce0       _invoke_watson             0000000140035ce0 f   libucrt:invalid_parameter.obj
 0001:00034d38       _set_invalid_parameter_handler 0000000140035d38 f   libucrt:invalid_parameter.obj
 0001:00034d7c       _set_thread_local_invalid_parameter_handler 0000000140035d7c f   libucrt:invalid_parameter.obj
 0001:00034dac       _set_abort_behavior        0000000140035dac f   libucrt:abort.obj
 0001:00034dd0       abort                      0000000140035dd0 f   libucrt:abort.obj
 0001:00034e3c       ??$?0AEBV?$stream_output_adapter@D@__crt_stdio_output@@AEB_KAEBQEBDAEAV__crt_cached_ptd_host@@AEBQEAD@?$format_validation_base@DV?$stream_output_adapter@D@__crt_stdio_output@@@__crt_stdio_output@@IEAA@AEBV?$stream_output_adapter@D@1@AEB_KAEBQEBDAEAV__crt_cached_ptd_host@@AEBQEAD@Z 0000000140035e3c f i libucrt:output.obj
 0001:00034ec8       ??$?0AEBV?$stream_output_adapter@D@__crt_stdio_output@@AEB_KAEBQEBDAEAV__crt_cached_ptd_host@@AEBQEAD@?$positional_parameter_base@DV?$stream_output_adapter@D@__crt_stdio_output@@@__crt_stdio_output@@IEAA@AEBV?$stream_output_adapter@D@1@AEB_KAEBQEBDAEAV__crt_cached_ptd_host@@AEBQEAD@Z 0000000140035ec8 f i libucrt:output.obj
 0001:00034f78       ??$?0AEBV?$stream_output_adapter@D@__crt_stdio_output@@AEB_KAEBQEBDAEAV__crt_cached_ptd_host@@AEBQEAD@?$standard_base@DV?$stream_output_adapter@D@__crt_stdio_output@@@__crt_stdio_output@@IEAA@AEBV?$stream_output_adapter@D@1@AEB_KAEBQEBDAEAV__crt_cached_ptd_host@@AEBQEAD@Z 0000000140035f78 f i libucrt:output.obj
 0001:00035004       ??$?0AEBV?$stream_output_adapter@_W@__crt_stdio_output@@AEB_KAEBQEB_WAEAV__crt_cached_ptd_host@@AEBQEAD@?$format_validation_base@_WV?$stream_output_adapter@_W@__crt_stdio_output@@@__crt_stdio_output@@IEAA@AEBV?$stream_output_adapter@_W@1@AEB_KAEBQEB_WAEAV__crt_cached_ptd_host@@AEBQEAD@Z 0000000140036004 f i libucrt:output.obj
 0001:00035098       ??$?0AEBV?$stream_output_adapter@_W@__crt_stdio_output@@AEB_KAEBQEB_WAEAV__crt_cached_ptd_host@@AEBQEAD@?$positional_parameter_base@_WV?$stream_output_adapter@_W@__crt_stdio_output@@@__crt_stdio_output@@IEAA@AEBV?$stream_output_adapter@_W@1@AEB_KAEBQEB_WAEAV__crt_cached_ptd_host@@AEBQEAD@Z 0000000140036098 f i libucrt:output.obj
 0001:00035150       ??$?0AEBV?$stream_output_adapter@_W@__crt_stdio_output@@AEB_KAEBQEB_WAEAV__crt_cached_ptd_host@@AEBQEAD@?$standard_base@_WV?$stream_output_adapter@_W@__crt_stdio_output@@@__crt_stdio_output@@IEAA@AEBV?$stream_output_adapter@_W@1@AEB_KAEBQEB_WAEAV__crt_cached_ptd_host@@AEBQEAD@Z 0000000140036150 f i libucrt:output.obj
 0001:000351e4       ??$?0AEBV?$string_output_adapter@D@__crt_stdio_output@@AEB_KAEBQEBDAEAV__crt_cached_ptd_host@@AEBQEAD@?$format_validation_base@DV?$string_output_adapter@D@__crt_stdio_output@@@__crt_stdio_output@@IEAA@AEBV?$string_output_adapter@D@1@AEB_KAEBQEBDAEAV__crt_cached_ptd_host@@AEBQEAD@Z 00000001400361e4 f i libucrt:output.obj
 0001:00035270       ??$?0AEBV?$string_output_adapter@D@__crt_stdio_output@@AEB_KAEBQEBDAEAV__crt_cached_ptd_host@@AEBQEAD@?$positional_parameter_base@DV?$string_output_adapter@D@__crt_stdio_output@@@__crt_stdio_output@@IEAA@AEBV?$string_output_adapter@D@1@AEB_KAEBQEBDAEAV__crt_cached_ptd_host@@AEBQEAD@Z 0000000140036270 f i libucrt:output.obj
 0001:00035320       ??$?0AEBV?$string_output_adapter@D@__crt_stdio_output@@AEB_KAEBQEBDAEAV__crt_cached_ptd_host@@AEBQEAD@?$standard_base@DV?$string_output_adapter@D@__crt_stdio_output@@@__crt_stdio_output@@IEAA@AEBV?$string_output_adapter@D@1@AEB_KAEBQEBDAEAV__crt_cached_ptd_host@@AEBQEAD@Z 0000000140036320 f i libucrt:output.obj
 0001:000353ac       ??$?0AEBV?$string_output_adapter@_W@__crt_stdio_output@@AEB_KAEBQEB_WAEAV__crt_cached_ptd_host@@AEBQEAD@?$format_validation_base@_WV?$string_output_adapter@_W@__crt_stdio_output@@@__crt_stdio_output@@IEAA@AEBV?$string_output_adapter@_W@1@AEB_KAEBQEB_WAEAV__crt_cached_ptd_host@@AEBQEAD@Z 00000001400363ac f i libucrt:output.obj
 0001:00035440       ??$?0AEBV?$string_output_adapter@_W@__crt_stdio_output@@AEB_KAEBQEB_WAEAV__crt_cached_ptd_host@@AEBQEAD@?$positional_parameter_base@_WV?$string_output_adapter@_W@__crt_stdio_output@@@__crt_stdio_output@@IEAA@AEBV?$string_output_adapter@_W@1@AEB_KAEBQEB_WAEAV__crt_cached_ptd_host@@AEBQEAD@Z 0000000140036440 f i libucrt:output.obj
 0001:000354f8       ??$?0AEBV?$string_output_adapter@_W@__crt_stdio_output@@AEB_KAEBQEB_WAEAV__crt_cached_ptd_host@@AEBQEAD@?$standard_base@_WV?$string_output_adapter@_W@__crt_stdio_output@@@__crt_stdio_output@@IEAA@AEBV?$string_output_adapter@_W@1@AEB_KAEBQEB_WAEAV__crt_cached_ptd_host@@AEBQEAD@Z 00000001400364f8 f i libucrt:output.obj
 0001:0003588c       ??$__crt_interlocked_read@J@@YAJPEDJ@Z 000000014003688c f i libucrt:output.obj
 0001:00035890       ??$_tcstol_internal@DPEAPEAD$0A@@@YAJAEAV__crt_cached_ptd_host@@QEBDQEAPEADH@Z 0000000140036890 f i libucrt:output.obj
 0001:000358cc       ??$_tcstol_internal@_WPEAPEA_W$0A@@@YAJAEAV__crt_cached_ptd_host@@QEB_WQEAPEA_WH@Z 00000001400368cc f i libucrt:output.obj
 0001:00036e68       ??$count@D@formatting_buffer@__crt_stdio_output@@QEBA_KXZ 0000000140037e68 f i libucrt:output.obj
 0001:00036e8c       ??$count@_W@formatting_buffer@__crt_stdio_output@@QEBA_KXZ 0000000140037e8c f i libucrt:output.obj
 0001:00036eb0       ??$data@D@formatting_buffer@__crt_stdio_output@@QEAAPEADXZ 0000000140037eb0 f i libucrt:output.obj
 0001:00036ec4       ??$data@_W@formatting_buffer@__crt_stdio_output@@QEAAPEA_WXZ 0000000140037ec4 f i libucrt:output.obj
 0001:00036ed8       ??$ensure_buffer_is_big_enough@D@formatting_buffer@__crt_stdio_output@@QEAA_N_KAEAV__crt_cached_ptd_host@@@Z 0000000140037ed8 f i libucrt:output.obj
 0001:00036fac       ??$ensure_buffer_is_big_enough@_W@formatting_buffer@__crt_stdio_output@@QEAA_N_KAEAV__crt_cached_ptd_host@@@Z 0000000140037fac f i libucrt:output.obj
 0001:00037084       ??$extract_argument_from_va_list@C_J@?$positional_parameter_base@DV?$stream_output_adapter@D@__crt_stdio_output@@@__crt_stdio_output@@IEAA_NAEA_J@Z 0000000140038084 f i libucrt:output.obj
 0001:000371d0       ??$extract_argument_from_va_list@C_J@?$positional_parameter_base@DV?$string_output_adapter@D@__crt_stdio_output@@@__crt_stdio_output@@IEAA_NAEA_J@Z 00000001400381d0 f i libucrt:output.obj
 0001:0003731c       ??$extract_argument_from_va_list@C_J@?$positional_parameter_base@_WV?$stream_output_adapter@_W@__crt_stdio_output@@@__crt_stdio_output@@IEAA_NAEA_J@Z 000000014003831c f i libucrt:output.obj
 0001:0003746c       ??$extract_argument_from_va_list@C_J@?$positional_parameter_base@_WV?$string_output_adapter@_W@__crt_stdio_output@@@__crt_stdio_output@@IEAA_NAEA_J@Z 000000014003846c f i libucrt:output.obj
 0001:000375bc       ??$extract_argument_from_va_list@C_J@?$standard_base@DV?$stream_output_adapter@D@__crt_stdio_output@@@__crt_stdio_output@@IEAA_NAEA_J@Z 00000001400385bc f i libucrt:output.obj
 0001:000375d8       ??$extract_argument_from_va_list@C_J@?$standard_base@DV?$string_output_adapter@D@__crt_stdio_output@@@__crt_stdio_output@@IEAA_NAEA_J@Z 00000001400385d8 f i libucrt:output.obj
 0001:000375f4       ??$extract_argument_from_va_list@C_J@?$standard_base@_WV?$stream_output_adapter@_W@__crt_stdio_output@@@__crt_stdio_output@@IEAA_NAEA_J@Z 00000001400385f4 f i libucrt:output.obj
 0001:00037610       ??$extract_argument_from_va_list@C_J@?$standard_base@_WV?$string_output_adapter@_W@__crt_stdio_output@@@__crt_stdio_output@@IEAA_NAEA_J@Z 0000000140038610 f i libucrt:output.obj
 0001:0003762c       ??$extract_argument_from_va_list@E_J@?$positional_parameter_base@DV?$stream_output_adapter@D@__crt_stdio_output@@@__crt_stdio_output@@IEAA_NAEA_J@Z 000000014003862c f i libucrt:output.obj
 0001:00037778       ??$extract_argument_from_va_list@E_J@?$positional_parameter_base@DV?$string_output_adapter@D@__crt_stdio_output@@@__crt_stdio_output@@IEAA_NAEA_J@Z 0000000140038778 f i libucrt:output.obj
 0001:000378c4       ??$extract_argument_from_va_list@E_J@?$positional_parameter_base@_WV?$stream_output_adapter@_W@__crt_stdio_output@@@__crt_stdio_output@@IEAA_NAEA_J@Z 00000001400388c4 f i libucrt:output.obj
 0001:00037a10       ??$extract_argument_from_va_list@E_J@?$positional_parameter_base@_WV?$string_output_adapter@_W@__crt_stdio_output@@@__crt_stdio_output@@IEAA_NAEA_J@Z 0000000140038a10 f i libucrt:output.obj
 0001:00037b5c       ??$extract_argument_from_va_list@E_J@?$standard_base@DV?$stream_output_adapter@D@__crt_stdio_output@@@__crt_stdio_output@@IEAA_NAEA_J@Z 0000000140038b5c f i libucrt:output.obj
 0001:00037b78       ??$extract_argument_from_va_list@E_J@?$standard_base@DV?$string_output_adapter@D@__crt_stdio_output@@@__crt_stdio_output@@IEAA_NAEA_J@Z 0000000140038b78 f i libucrt:output.obj
 0001:00037b94       ??$extract_argument_from_va_list@E_J@?$standard_base@_WV?$stream_output_adapter@_W@__crt_stdio_output@@@__crt_stdio_output@@IEAA_NAEA_J@Z 0000000140038b94 f i libucrt:output.obj
 0001:00037bb0       ??$extract_argument_from_va_list@E_J@?$standard_base@_WV?$string_output_adapter@_W@__crt_stdio_output@@@__crt_stdio_output@@IEAA_NAEA_J@Z 0000000140038bb0 f i libucrt:output.obj
 0001:00037bcc       ??$extract_argument_from_va_list@F_J@?$positional_parameter_base@DV?$stream_output_adapter@D@__crt_stdio_output@@@__crt_stdio_output@@IEAA_NAEA_J@Z 0000000140038bcc f i libucrt:output.obj
 0001:00037d18       ??$extract_argument_from_va_list@F_J@?$positional_parameter_base@DV?$string_output_adapter@D@__crt_stdio_output@@@__crt_stdio_output@@IEAA_NAEA_J@Z 0000000140038d18 f i libucrt:output.obj
 0001:00037e64       ??$extract_argument_from_va_list@F_J@?$positional_parameter_base@_WV?$stream_output_adapter@_W@__crt_stdio_output@@@__crt_stdio_output@@IEAA_NAEA_J@Z 0000000140038e64 f i libucrt:output.obj
 0001:00037fb4       ??$extract_argument_from_va_list@F_J@?$positional_parameter_base@_WV?$string_output_adapter@_W@__crt_stdio_output@@@__crt_stdio_output@@IEAA_NAEA_J@Z 0000000140038fb4 f i libucrt:output.obj
 0001:00038104       ??$extract_argument_from_va_list@F_J@?$standard_base@DV?$stream_output_adapter@D@__crt_stdio_output@@@__crt_stdio_output@@IEAA_NAEA_J@Z 0000000140039104 f i libucrt:output.obj
 0001:00038120       ??$extract_argument_from_va_list@F_J@?$standard_base@DV?$string_output_adapter@D@__crt_stdio_output@@@__crt_stdio_output@@IEAA_NAEA_J@Z 0000000140039120 f i libucrt:output.obj
 0001:0003813c       ??$extract_argument_from_va_list@F_J@?$standard_base@_WV?$stream_output_adapter@_W@__crt_stdio_output@@@__crt_stdio_output@@IEAA_NAEA_J@Z 000000014003913c f i libucrt:output.obj
 0001:00038158       ??$extract_argument_from_va_list@F_J@?$standard_base@_WV?$string_output_adapter@_W@__crt_stdio_output@@@__crt_stdio_output@@IEAA_NAEA_J@Z 0000000140039158 f i libucrt:output.obj
 0001:00038174       ??$extract_argument_from_va_list@GD@?$positional_parameter_base@DV?$stream_output_adapter@D@__crt_stdio_output@@@__crt_stdio_output@@IEAA_NAEAD@Z 0000000140039174 f i libucrt:output.obj
 0001:000382bc       ??$extract_argument_from_va_list@GD@?$positional_parameter_base@DV?$string_output_adapter@D@__crt_stdio_output@@@__crt_stdio_output@@IEAA_NAEAD@Z 00000001400392bc f i libucrt:output.obj
 0001:00038404       ??$extract_argument_from_va_list@GD@?$standard_base@DV?$stream_output_adapter@D@__crt_stdio_output@@@__crt_stdio_output@@IEAA_NAEAD@Z 0000000140039404 f i libucrt:output.obj
 0001:00038420       ??$extract_argument_from_va_list@GD@?$standard_base@DV?$string_output_adapter@D@__crt_stdio_output@@@__crt_stdio_output@@IEAA_NAEAD@Z 0000000140039420 f i libucrt:output.obj
 0001:0003843c       ??$extract_argument_from_va_list@G_J@?$positional_parameter_base@DV?$stream_output_adapter@D@__crt_stdio_output@@@__crt_stdio_output@@IEAA_NAEA_J@Z 000000014003943c f i libucrt:output.obj
 0001:00038588       ??$extract_argument_from_va_list@G_J@?$positional_parameter_base@DV?$string_output_adapter@D@__crt_stdio_output@@@__crt_stdio_output@@IEAA_NAEA_J@Z 0000000140039588 f i libucrt:output.obj
 0001:000386d4       ??$extract_argument_from_va_list@G_J@?$positional_parameter_base@_WV?$stream_output_adapter@_W@__crt_stdio_output@@@__crt_stdio_output@@IEAA_NAEA_J@Z 00000001400396d4 f i libucrt:output.obj
 0001:00038820       ??$extract_argument_from_va_list@G_J@?$positional_parameter_base@_WV?$string_output_adapter@_W@__crt_stdio_output@@@__crt_stdio_output@@IEAA_NAEA_J@Z 0000000140039820 f i libucrt:output.obj
 0001:0003896c       ??$extract_argument_from_va_list@G_J@?$standard_base@DV?$stream_output_adapter@D@__crt_stdio_output@@@__crt_stdio_output@@IEAA_NAEA_J@Z 000000014003996c f i libucrt:output.obj
 0001:00038988       ??$extract_argument_from_va_list@G_J@?$standard_base@DV?$string_output_adapter@D@__crt_stdio_output@@@__crt_stdio_output@@IEAA_NAEA_J@Z 0000000140039988 f i libucrt:output.obj
 0001:000389a4       ??$extract_argument_from_va_list@G_J@?$standard_base@_WV?$stream_output_adapter@_W@__crt_stdio_output@@@__crt_stdio_output@@IEAA_NAEA_J@Z 00000001400399a4 f i libucrt:output.obj
 0001:000389c0       ??$extract_argument_from_va_list@G_J@?$standard_base@_WV?$string_output_adapter@_W@__crt_stdio_output@@@__crt_stdio_output@@IEAA_NAEA_J@Z 00000001400399c0 f i libucrt:output.obj
 0001:000389dc       ??$extract_argument_from_va_list@H_J@?$positional_parameter_base@DV?$stream_output_adapter@D@__crt_stdio_output@@@__crt_stdio_output@@IEAA_NAEA_J@Z 00000001400399dc f i libucrt:output.obj
 0001:00038b24       ??$extract_argument_from_va_list@H_J@?$positional_parameter_base@DV?$string_output_adapter@D@__crt_stdio_output@@@__crt_stdio_output@@IEAA_NAEA_J@Z 0000000140039b24 f i libucrt:output.obj
 0001:00038c6c       ??$extract_argument_from_va_list@H_J@?$positional_parameter_base@_WV?$stream_output_adapter@_W@__crt_stdio_output@@@__crt_stdio_output@@IEAA_NAEA_J@Z 0000000140039c6c f i libucrt:output.obj
 0001:00038db8       ??$extract_argument_from_va_list@H_J@?$positional_parameter_base@_WV?$string_output_adapter@_W@__crt_stdio_output@@@__crt_stdio_output@@IEAA_NAEA_J@Z 0000000140039db8 f i libucrt:output.obj
 0001:00038f04       ??$extract_argument_from_va_list@H_J@?$standard_base@DV?$stream_output_adapter@D@__crt_stdio_output@@@__crt_stdio_output@@IEAA_NAEA_J@Z 0000000140039f04 f i libucrt:output.obj
 0001:00038f20       ??$extract_argument_from_va_list@H_J@?$standard_base@DV?$string_output_adapter@D@__crt_stdio_output@@@__crt_stdio_output@@IEAA_NAEA_J@Z 0000000140039f20 f i libucrt:output.obj
 0001:00038f3c       ??$extract_argument_from_va_list@H_J@?$standard_base@_WV?$stream_output_adapter@_W@__crt_stdio_output@@@__crt_stdio_output@@IEAA_NAEA_J@Z 0000000140039f3c f i libucrt:output.obj
 0001:00038f58       ??$extract_argument_from_va_list@H_J@?$standard_base@_WV?$string_output_adapter@_W@__crt_stdio_output@@@__crt_stdio_output@@IEAA_NAEA_J@Z 0000000140039f58 f i libucrt:output.obj
 0001:00038f74       ??$extract_argument_from_va_list@I_J@?$positional_parameter_base@DV?$stream_output_adapter@D@__crt_stdio_output@@@__crt_stdio_output@@IEAA_NAEA_J@Z 0000000140039f74 f i libucrt:output.obj
 0001:000390bc       ??$extract_argument_from_va_list@I_J@?$positional_parameter_base@DV?$string_output_adapter@D@__crt_stdio_output@@@__crt_stdio_output@@IEAA_NAEA_J@Z 000000014003a0bc f i libucrt:output.obj
 0001:00039204       ??$extract_argument_from_va_list@I_J@?$positional_parameter_base@_WV?$stream_output_adapter@_W@__crt_stdio_output@@@__crt_stdio_output@@IEAA_NAEA_J@Z 000000014003a204 f i libucrt:output.obj
 0001:00039350       ??$extract_argument_from_va_list@I_J@?$positional_parameter_base@_WV?$string_output_adapter@_W@__crt_stdio_output@@@__crt_stdio_output@@IEAA_NAEA_J@Z 000000014003a350 f i libucrt:output.obj
 0001:0003949c       ??$extract_argument_from_va_list@I_J@?$standard_base@DV?$stream_output_adapter@D@__crt_stdio_output@@@__crt_stdio_output@@IEAA_NAEA_J@Z 000000014003a49c f i libucrt:output.obj
 0001:000394b8       ??$extract_argument_from_va_list@I_J@?$standard_base@DV?$string_output_adapter@D@__crt_stdio_output@@@__crt_stdio_output@@IEAA_NAEA_J@Z 000000014003a4b8 f i libucrt:output.obj
 0001:000394d4       ??$extract_argument_from_va_list@I_J@?$standard_base@_WV?$stream_output_adapter@_W@__crt_stdio_output@@@__crt_stdio_output@@IEAA_NAEA_J@Z 000000014003a4d4 f i libucrt:output.obj
 0001:000394f0       ??$extract_argument_from_va_list@I_J@?$standard_base@_WV?$string_output_adapter@_W@__crt_stdio_output@@@__crt_stdio_output@@IEAA_NAEA_J@Z 000000014003a4f0 f i libucrt:output.obj
 0001:0003950c       ??$extract_argument_from_va_list@PEADPEAD@?$positional_parameter_base@DV?$stream_output_adapter@D@__crt_stdio_output@@@__crt_stdio_output@@IEAA_NAEAPEAD@Z 000000014003a50c f i libucrt:output.obj
 0001:00039654       ??$extract_argument_from_va_list@PEADPEAD@?$positional_parameter_base@DV?$string_output_adapter@D@__crt_stdio_output@@@__crt_stdio_output@@IEAA_NAEAPEAD@Z 000000014003a654 f i libucrt:output.obj
 0001:0003979c       ??$extract_argument_from_va_list@PEADPEAD@?$positional_parameter_base@_WV?$stream_output_adapter@_W@__crt_stdio_output@@@__crt_stdio_output@@IEAA_NAEAPEAD@Z 000000014003a79c f i libucrt:output.obj
 0001:000398e8       ??$extract_argument_from_va_list@PEADPEAD@?$positional_parameter_base@_WV?$string_output_adapter@_W@__crt_stdio_output@@@__crt_stdio_output@@IEAA_NAEAPEAD@Z 000000014003a8e8 f i libucrt:output.obj
 0001:00039a34       ??$extract_argument_from_va_list@PEADPEAD@?$standard_base@DV?$stream_output_adapter@D@__crt_stdio_output@@@__crt_stdio_output@@IEAA_NAEAPEAD@Z 000000014003aa34 f i libucrt:output.obj
 0001:00039a50       ??$extract_argument_from_va_list@PEADPEAD@?$standard_base@DV?$string_output_adapter@D@__crt_stdio_output@@@__crt_stdio_output@@IEAA_NAEAPEAD@Z 000000014003aa50 f i libucrt:output.obj
 0001:00039a6c       ??$extract_argument_from_va_list@PEADPEAD@?$standard_base@_WV?$stream_output_adapter@_W@__crt_stdio_output@@@__crt_stdio_output@@IEAA_NAEAPEAD@Z 000000014003aa6c f i libucrt:output.obj
 0001:00039a88       ??$extract_argument_from_va_list@PEADPEAD@?$standard_base@_WV?$string_output_adapter@_W@__crt_stdio_output@@@__crt_stdio_output@@IEAA_NAEAPEAD@Z 000000014003aa88 f i libucrt:output.obj
 0001:00039aa4       ??$extract_argument_from_va_list@PEAUansi_string@?1??type_case_Z@?$output_processor@DV?$stream_output_adapter@D@__crt_stdio_output@@V?$format_validation_base@DV?$stream_output_adapter@D@__crt_stdio_output@@@2@@__crt_stdio_output@@AEAA_NXZ@PEAU1?1??234@AEAA_NXZ@@?$standard_base@DV?$stream_output_adapter@D@__crt_stdio_output@@@__crt_stdio_output@@IEAA_NAEAPEAUansi_string@?1??type_case_Z@?$output_processor@DV?$stream_output_adapter@D@__crt_stdio_output@@V?$format_validation_base@DV?$stream_output_adapter@D@__crt_stdio_output@@@2@@1@AEAA_NXZ@@Z 000000014003aaa4 f i libucrt:output.obj
 0001:00039ac0       ??$extract_argument_from_va_list@PEAUansi_string@?1??type_case_Z@?$output_processor@DV?$stream_output_adapter@D@__crt_stdio_output@@V?$positional_parameter_base@DV?$stream_output_adapter@D@__crt_stdio_output@@@2@@__crt_stdio_output@@AEAA_NXZ@PEAU1?1??234@AEAA_NXZ@@?$positional_parameter_base@DV?$stream_output_adapter@D@__crt_stdio_output@@@__crt_stdio_output@@IEAA_NAEAPEAUansi_string@?1??type_case_Z@?$output_processor@DV?$stream_output_adapter@D@__crt_stdio_output@@V?$positional_parameter_base@DV?$stream_output_adapter@D@__crt_stdio_output@@@2@@1@AEAA_NXZ@@Z 000000014003aac0 f i libucrt:output.obj
 0001:00039c08       ??$extract_argument_from_va_list@PEAUansi_string@?1??type_case_Z@?$output_processor@DV?$stream_output_adapter@D@__crt_stdio_output@@V?$positional_parameter_base@DV?$stream_output_adapter@D@__crt_stdio_output@@@2@@__crt_stdio_output@@AEAA_NXZ@PEAU1?1??234@AEAA_NXZ@@?$standard_base@DV?$stream_output_adapter@D@__crt_stdio_output@@@__crt_stdio_output@@IEAA_NAEAPEAUansi_string@?1??type_case_Z@?$output_processor@DV?$stream_output_adapter@D@__crt_stdio_output@@V?$positional_parameter_base@DV?$stream_output_adapter@D@__crt_stdio_output@@@2@@1@AEAA_NXZ@@Z 000000014003ac08 f i libucrt:output.obj
 0001:00039c24       ??$extract_argument_from_va_list@PEAUansi_string@?1??type_case_Z@?$output_processor@DV?$stream_output_adapter@D@__crt_stdio_output@@V?$standard_base@DV?$stream_output_adapter@D@__crt_stdio_output@@@2@@__crt_stdio_output@@AEAA_NXZ@PEAU1?1??234@AEAA_NXZ@@?$standard_base@DV?$stream_output_adapter@D@__crt_stdio_output@@@__crt_stdio_output@@IEAA_NAEAPEAUansi_string@?1??type_case_Z@?$output_processor@DV?$stream_output_adapter@D@__crt_stdio_output@@V?$standard_base@DV?$stream_output_adapter@D@__crt_stdio_output@@@2@@1@AEAA_NXZ@@Z 000000014003ac24 f i libucrt:output.obj
 0001:00039c40       ??$extract_argument_from_va_list@PEAUansi_string@?1??type_case_Z@?$output_processor@DV?$string_output_adapter@D@__crt_stdio_output@@V?$format_validation_base@DV?$string_output_adapter@D@__crt_stdio_output@@@2@@__crt_stdio_output@@AEAA_NXZ@PEAU1?1??234@AEAA_NXZ@@?$standard_base@DV?$string_output_adapter@D@__crt_stdio_output@@@__crt_stdio_output@@IEAA_NAEAPEAUansi_string@?1??type_case_Z@?$output_processor@DV?$string_output_adapter@D@__crt_stdio_output@@V?$format_validation_base@DV?$string_output_adapter@D@__crt_stdio_output@@@2@@1@AEAA_NXZ@@Z 000000014003ac40 f i libucrt:output.obj
 0001:00039c5c       ??$extract_argument_from_va_list@PEAUansi_string@?1??type_case_Z@?$output_processor@DV?$string_output_adapter@D@__crt_stdio_output@@V?$positional_parameter_base@DV?$string_output_adapter@D@__crt_stdio_output@@@2@@__crt_stdio_output@@AEAA_NXZ@PEAU1?1??234@AEAA_NXZ@@?$positional_parameter_base@DV?$string_output_adapter@D@__crt_stdio_output@@@__crt_stdio_output@@IEAA_NAEAPEAUansi_string@?1??type_case_Z@?$output_processor@DV?$string_output_adapter@D@__crt_stdio_output@@V?$positional_parameter_base@DV?$string_output_adapter@D@__crt_stdio_output@@@2@@1@AEAA_NXZ@@Z 000000014003ac5c f i libucrt:output.obj
 0001:00039da4       ??$extract_argument_from_va_list@PEAUansi_string@?1??type_case_Z@?$output_processor@DV?$string_output_adapter@D@__crt_stdio_output@@V?$positional_parameter_base@DV?$string_output_adapter@D@__crt_stdio_output@@@2@@__crt_stdio_output@@AEAA_NXZ@PEAU1?1??234@AEAA_NXZ@@?$standard_base@DV?$string_output_adapter@D@__crt_stdio_output@@@__crt_stdio_output@@IEAA_NAEAPEAUansi_string@?1??type_case_Z@?$output_processor@DV?$string_output_adapter@D@__crt_stdio_output@@V?$positional_parameter_base@DV?$string_output_adapter@D@__crt_stdio_output@@@2@@1@AEAA_NXZ@@Z 000000014003ada4 f i libucrt:output.obj
 0001:00039dc0       ??$extract_argument_from_va_list@PEAUansi_string@?1??type_case_Z@?$output_processor@DV?$string_output_adapter@D@__crt_stdio_output@@V?$standard_base@DV?$string_output_adapter@D@__crt_stdio_output@@@2@@__crt_stdio_output@@AEAA_NXZ@PEAU1?1??234@AEAA_NXZ@@?$standard_base@DV?$string_output_adapter@D@__crt_stdio_output@@@__crt_stdio_output@@IEAA_NAEAPEAUansi_string@?1??type_case_Z@?$output_processor@DV?$string_output_adapter@D@__crt_stdio_output@@V?$standard_base@DV?$string_output_adapter@D@__crt_stdio_output@@@2@@1@AEAA_NXZ@@Z 000000014003adc0 f i libucrt:output.obj
 0001:00039ddc       ??$extract_argument_from_va_list@PEAUansi_string@?1??type_case_Z@?$output_processor@_WV?$stream_output_adapter@_W@__crt_stdio_output@@V?$format_validation_base@_WV?$stream_output_adapter@_W@__crt_stdio_output@@@2@@__crt_stdio_output@@AEAA_NXZ@PEAU1?1??234@AEAA_NXZ@@?$standard_base@_WV?$stream_output_adapter@_W@__crt_stdio_output@@@__crt_stdio_output@@IEAA_NAEAPEAUansi_string@?1??type_case_Z@?$output_processor@_WV?$stream_output_adapter@_W@__crt_stdio_output@@V?$format_validation_base@_WV?$stream_output_adapter@_W@__crt_stdio_output@@@2@@1@AEAA_NXZ@@Z 000000014003addc f i libucrt:output.obj
 0001:00039df8       ??$extract_argument_from_va_list@PEAUansi_string@?1??type_case_Z@?$output_processor@_WV?$stream_output_adapter@_W@__crt_stdio_output@@V?$positional_parameter_base@_WV?$stream_output_adapter@_W@__crt_stdio_output@@@2@@__crt_stdio_output@@AEAA_NXZ@PEAU1?1??234@AEAA_NXZ@@?$positional_parameter_base@_WV?$stream_output_adapter@_W@__crt_stdio_output@@@__crt_stdio_output@@IEAA_NAEAPEAUansi_string@?1??type_case_Z@?$output_processor@_WV?$stream_output_adapter@_W@__crt_stdio_output@@V?$positional_parameter_base@_WV?$stream_output_adapter@_W@__crt_stdio_output@@@2@@1@AEAA_NXZ@@Z 000000014003adf8 f i libucrt:output.obj
 0001:00039f44       ??$extract_argument_from_va_list@PEAUansi_string@?1??type_case_Z@?$output_processor@_WV?$stream_output_adapter@_W@__crt_stdio_output@@V?$positional_parameter_base@_WV?$stream_output_adapter@_W@__crt_stdio_output@@@2@@__crt_stdio_output@@AEAA_NXZ@PEAU1?1??234@AEAA_NXZ@@?$standard_base@_WV?$stream_output_adapter@_W@__crt_stdio_output@@@__crt_stdio_output@@IEAA_NAEAPEAUansi_string@?1??type_case_Z@?$output_processor@_WV?$stream_output_adapter@_W@__crt_stdio_output@@V?$positional_parameter_base@_WV?$stream_output_adapter@_W@__crt_stdio_output@@@2@@1@AEAA_NXZ@@Z 000000014003af44 f i libucrt:output.obj
 0001:00039f60       ??$extract_argument_from_va_list@PEAUansi_string@?1??type_case_Z@?$output_processor@_WV?$stream_output_adapter@_W@__crt_stdio_output@@V?$standard_base@_WV?$stream_output_adapter@_W@__crt_stdio_output@@@2@@__crt_stdio_output@@AEAA_NXZ@PEAU1?1??234@AEAA_NXZ@@?$standard_base@_WV?$stream_output_adapter@_W@__crt_stdio_output@@@__crt_stdio_output@@IEAA_NAEAPEAUansi_string@?1??type_case_Z@?$output_processor@_WV?$stream_output_adapter@_W@__crt_stdio_output@@V?$standard_base@_WV?$stream_output_adapter@_W@__crt_stdio_output@@@2@@1@AEAA_NXZ@@Z 000000014003af60 f i libucrt:output.obj
 0001:00039f7c       ??$extract_argument_from_va_list@PEAUansi_string@?1??type_case_Z@?$output_processor@_WV?$string_output_adapter@_W@__crt_stdio_output@@V?$format_validation_base@_WV?$string_output_adapter@_W@__crt_stdio_output@@@2@@__crt_stdio_output@@AEAA_NXZ@PEAU1?1??234@AEAA_NXZ@@?$standard_base@_WV?$string_output_adapter@_W@__crt_stdio_output@@@__crt_stdio_output@@IEAA_NAEAPEAUansi_string@?1??type_case_Z@?$output_processor@_WV?$string_output_adapter@_W@__crt_stdio_output@@V?$format_validation_base@_WV?$string_output_adapter@_W@__crt_stdio_output@@@2@@1@AEAA_NXZ@@Z 000000014003af7c f i libucrt:output.obj
 0001:00039f98       ??$extract_argument_from_va_list@PEAUansi_string@?1??type_case_Z@?$output_processor@_WV?$string_output_adapter@_W@__crt_stdio_output@@V?$positional_parameter_base@_WV?$string_output_adapter@_W@__crt_stdio_output@@@2@@__crt_stdio_output@@AEAA_NXZ@PEAU1?1??234@AEAA_NXZ@@?$positional_parameter_base@_WV?$string_output_adapter@_W@__crt_stdio_output@@@__crt_stdio_output@@IEAA_NAEAPEAUansi_string@?1??type_case_Z@?$output_processor@_WV?$string_output_adapter@_W@__crt_stdio_output@@V?$positional_parameter_base@_WV?$string_output_adapter@_W@__crt_stdio_output@@@2@@1@AEAA_NXZ@@Z 000000014003af98 f i libucrt:output.obj
 0001:0003a0e4       ??$extract_argument_from_va_list@PEAUansi_string@?1??type_case_Z@?$output_processor@_WV?$string_output_adapter@_W@__crt_stdio_output@@V?$positional_parameter_base@_WV?$string_output_adapter@_W@__crt_stdio_output@@@2@@__crt_stdio_output@@AEAA_NXZ@PEAU1?1??234@AEAA_NXZ@@?$standard_base@_WV?$string_output_adapter@_W@__crt_stdio_output@@@__crt_stdio_output@@IEAA_NAEAPEAUansi_string@?1??type_case_Z@?$output_processor@_WV?$string_output_adapter@_W@__crt_stdio_output@@V?$positional_parameter_base@_WV?$string_output_adapter@_W@__crt_stdio_output@@@2@@1@AEAA_NXZ@@Z 000000014003b0e4 f i libucrt:output.obj
 0001:0003a100       ??$extract_argument_from_va_list@PEAUansi_string@?1??type_case_Z@?$output_processor@_WV?$string_output_adapter@_W@__crt_stdio_output@@V?$standard_base@_WV?$string_output_adapter@_W@__crt_stdio_output@@@2@@__crt_stdio_output@@AEAA_NXZ@PEAU1?1??234@AEAA_NXZ@@?$standard_base@_WV?$string_output_adapter@_W@__crt_stdio_output@@@__crt_stdio_output@@IEAA_NAEAPEAUansi_string@?1??type_case_Z@?$output_processor@_WV?$string_output_adapter@_W@__crt_stdio_output@@V?$standard_base@_WV?$string_output_adapter@_W@__crt_stdio_output@@@2@@1@AEAA_NXZ@@Z 000000014003b100 f i libucrt:output.obj
 0001:0003a11c       ??$extract_argument_from_va_list@PEAXPEAX@?$positional_parameter_base@DV?$stream_output_adapter@D@__crt_stdio_output@@@__crt_stdio_output@@IEAA_NAEAPEAX@Z 000000014003b11c f i libucrt:output.obj
 0001:0003a264       ??$extract_argument_from_va_list@PEAXPEAX@?$positional_parameter_base@DV?$string_output_adapter@D@__crt_stdio_output@@@__crt_stdio_output@@IEAA_NAEAPEAX@Z 000000014003b264 f i libucrt:output.obj
 0001:0003a3ac       ??$extract_argument_from_va_list@PEAXPEAX@?$positional_parameter_base@_WV?$stream_output_adapter@_W@__crt_stdio_output@@@__crt_stdio_output@@IEAA_NAEAPEAX@Z 000000014003b3ac f i libucrt:output.obj
 0001:0003a4f8       ??$extract_argument_from_va_list@PEAXPEAX@?$positional_parameter_base@_WV?$string_output_adapter@_W@__crt_stdio_output@@@__crt_stdio_output@@IEAA_NAEAPEAX@Z 000000014003b4f8 f i libucrt:output.obj
 0001:0003a644       ??$extract_argument_from_va_list@PEAXPEAX@?$standard_base@DV?$stream_output_adapter@D@__crt_stdio_output@@@__crt_stdio_output@@IEAA_NAEAPEAX@Z 000000014003b644 f i libucrt:output.obj
 0001:0003a660       ??$extract_argument_from_va_list@PEAXPEAX@?$standard_base@DV?$string_output_adapter@D@__crt_stdio_output@@@__crt_stdio_output@@IEAA_NAEAPEAX@Z 000000014003b660 f i libucrt:output.obj
 0001:0003a67c       ??$extract_argument_from_va_list@PEAXPEAX@?$standard_base@_WV?$stream_output_adapter@_W@__crt_stdio_output@@@__crt_stdio_output@@IEAA_NAEAPEAX@Z 000000014003b67c f i libucrt:output.obj
 0001:0003a698       ??$extract_argument_from_va_list@PEAXPEAX@?$standard_base@_WV?$string_output_adapter@_W@__crt_stdio_output@@@__crt_stdio_output@@IEAA_NAEAPEAX@Z 000000014003b698 f i libucrt:output.obj
 0001:0003a6b4       ??$extract_argument_from_va_list@U_CRT_DOUBLE@@U1@@?$positional_parameter_base@DV?$stream_output_adapter@D@__crt_stdio_output@@@__crt_stdio_output@@IEAA_NAEAU_CRT_DOUBLE@@@Z 000000014003b6b4 f i libucrt:output.obj
 0001:0003a800       ??$extract_argument_from_va_list@U_CRT_DOUBLE@@U1@@?$positional_parameter_base@DV?$string_output_adapter@D@__crt_stdio_output@@@__crt_stdio_output@@IEAA_NAEAU_CRT_DOUBLE@@@Z 000000014003b800 f i libucrt:output.obj
 0001:0003a94c       ??$extract_argument_from_va_list@U_CRT_DOUBLE@@U1@@?$positional_parameter_base@_WV?$stream_output_adapter@_W@__crt_stdio_output@@@__crt_stdio_output@@IEAA_NAEAU_CRT_DOUBLE@@@Z 000000014003b94c f i libucrt:output.obj
 0001:0003aa98       ??$extract_argument_from_va_list@U_CRT_DOUBLE@@U1@@?$positional_parameter_base@_WV?$string_output_adapter@_W@__crt_stdio_output@@@__crt_stdio_output@@IEAA_NAEAU_CRT_DOUBLE@@@Z 000000014003ba98 f i libucrt:output.obj
 0001:0003abe4       ??$extract_argument_from_va_list@U_CRT_DOUBLE@@U1@@?$standard_base@DV?$stream_output_adapter@D@__crt_stdio_output@@@__crt_stdio_output@@IEAA_NAEAU_CRT_DOUBLE@@@Z 000000014003bbe4 f i libucrt:output.obj
 0001:0003ac04       ??$extract_argument_from_va_list@U_CRT_DOUBLE@@U1@@?$standard_base@DV?$string_output_adapter@D@__crt_stdio_output@@@__crt_stdio_output@@IEAA_NAEAU_CRT_DOUBLE@@@Z 000000014003bc04 f i libucrt:output.obj
 0001:0003ac24       ??$extract_argument_from_va_list@U_CRT_DOUBLE@@U1@@?$standard_base@_WV?$stream_output_adapter@_W@__crt_stdio_output@@@__crt_stdio_output@@IEAA_NAEAU_CRT_DOUBLE@@@Z 000000014003bc24 f i libucrt:output.obj
 0001:0003ac44       ??$extract_argument_from_va_list@U_CRT_DOUBLE@@U1@@?$standard_base@_WV?$string_output_adapter@_W@__crt_stdio_output@@@__crt_stdio_output@@IEAA_NAEAU_CRT_DOUBLE@@@Z 000000014003bc44 f i libucrt:output.obj
 0001:0003ac64       ??$extract_argument_from_va_list@_J_J@?$positional_parameter_base@DV?$stream_output_adapter@D@__crt_stdio_output@@@__crt_stdio_output@@IEAA_NAEA_J@Z 000000014003bc64 f i libucrt:output.obj
 0001:0003adac       ??$extract_argument_from_va_list@_J_J@?$positional_parameter_base@DV?$string_output_adapter@D@__crt_stdio_output@@@__crt_stdio_output@@IEAA_NAEA_J@Z 000000014003bdac f i libucrt:output.obj
 0001:0003aef4       ??$extract_argument_from_va_list@_J_J@?$positional_parameter_base@_WV?$stream_output_adapter@_W@__crt_stdio_output@@@__crt_stdio_output@@IEAA_NAEA_J@Z 000000014003bef4 f i libucrt:output.obj
 0001:0003b040       ??$extract_argument_from_va_list@_J_J@?$positional_parameter_base@_WV?$string_output_adapter@_W@__crt_stdio_output@@@__crt_stdio_output@@IEAA_NAEA_J@Z 000000014003c040 f i libucrt:output.obj
 0001:0003b18c       ??$extract_argument_from_va_list@_J_J@?$standard_base@DV?$stream_output_adapter@D@__crt_stdio_output@@@__crt_stdio_output@@IEAA_NAEA_J@Z 000000014003c18c f i libucrt:output.obj
 0001:0003b1a8       ??$extract_argument_from_va_list@_J_J@?$standard_base@DV?$string_output_adapter@D@__crt_stdio_output@@@__crt_stdio_output@@IEAA_NAEA_J@Z 000000014003c1a8 f i libucrt:output.obj
 0001:0003b1c4       ??$extract_argument_from_va_list@_J_J@?$standard_base@_WV?$stream_output_adapter@_W@__crt_stdio_output@@@__crt_stdio_output@@IEAA_NAEA_J@Z 000000014003c1c4 f i libucrt:output.obj
 0001:0003b1e0       ??$extract_argument_from_va_list@_J_J@?$standard_base@_WV?$string_output_adapter@_W@__crt_stdio_output@@@__crt_stdio_output@@IEAA_NAEA_J@Z 000000014003c1e0 f i libucrt:output.obj
 0001:0003b1fc       ??$extract_argument_from_va_list@_K_J@?$positional_parameter_base@DV?$stream_output_adapter@D@__crt_stdio_output@@@__crt_stdio_output@@IEAA_NAEA_J@Z 000000014003c1fc f i libucrt:output.obj
 0001:0003b344       ??$extract_argument_from_va_list@_K_J@?$positional_parameter_base@DV?$string_output_adapter@D@__crt_stdio_output@@@__crt_stdio_output@@IEAA_NAEA_J@Z 000000014003c344 f i libucrt:output.obj
 0001:0003b48c       ??$extract_argument_from_va_list@_K_J@?$positional_parameter_base@_WV?$stream_output_adapter@_W@__crt_stdio_output@@@__crt_stdio_output@@IEAA_NAEA_J@Z 000000014003c48c f i libucrt:output.obj
 0001:0003b5d8       ??$extract_argument_from_va_list@_K_J@?$positional_parameter_base@_WV?$string_output_adapter@_W@__crt_stdio_output@@@__crt_stdio_output@@IEAA_NAEA_J@Z 000000014003c5d8 f i libucrt:output.obj
 0001:0003b724       ??$extract_argument_from_va_list@_K_J@?$standard_base@DV?$stream_output_adapter@D@__crt_stdio_output@@@__crt_stdio_output@@IEAA_NAEA_J@Z 000000014003c724 f i libucrt:output.obj
 0001:0003b740       ??$extract_argument_from_va_list@_K_J@?$standard_base@DV?$string_output_adapter@D@__crt_stdio_output@@@__crt_stdio_output@@IEAA_NAEA_J@Z 000000014003c740 f i libucrt:output.obj
 0001:0003b75c       ??$extract_argument_from_va_list@_K_J@?$standard_base@_WV?$stream_output_adapter@_W@__crt_stdio_output@@@__crt_stdio_output@@IEAA_NAEA_J@Z 000000014003c75c f i libucrt:output.obj
 0001:0003b778       ??$extract_argument_from_va_list@_K_J@?$standard_base@_WV?$string_output_adapter@_W@__crt_stdio_output@@@__crt_stdio_output@@IEAA_NAEA_J@Z 000000014003c778 f i libucrt:output.obj
 0001:0003b794       ??$extract_argument_from_va_list@_W_W@?$positional_parameter_base@DV?$stream_output_adapter@D@__crt_stdio_output@@@__crt_stdio_output@@IEAA_NAEA_W@Z 000000014003c794 f i libucrt:output.obj
 0001:0003b8e0       ??$extract_argument_from_va_list@_W_W@?$positional_parameter_base@DV?$string_output_adapter@D@__crt_stdio_output@@@__crt_stdio_output@@IEAA_NAEA_W@Z 000000014003c8e0 f i libucrt:output.obj
 0001:0003ba2c       ??$extract_argument_from_va_list@_W_W@?$positional_parameter_base@_WV?$stream_output_adapter@_W@__crt_stdio_output@@@__crt_stdio_output@@IEAA_NAEA_W@Z 000000014003ca2c f i libucrt:output.obj
 0001:0003bb78       ??$extract_argument_from_va_list@_W_W@?$positional_parameter_base@_WV?$string_output_adapter@_W@__crt_stdio_output@@@__crt_stdio_output@@IEAA_NAEA_W@Z 000000014003cb78 f i libucrt:output.obj
 0001:0003bcc4       ??$extract_argument_from_va_list@_W_W@?$standard_base@DV?$stream_output_adapter@D@__crt_stdio_output@@@__crt_stdio_output@@IEAA_NAEA_W@Z 000000014003ccc4 f i libucrt:output.obj
 0001:0003bce0       ??$extract_argument_from_va_list@_W_W@?$standard_base@DV?$string_output_adapter@D@__crt_stdio_output@@@__crt_stdio_output@@IEAA_NAEA_W@Z 000000014003cce0 f i libucrt:output.obj
 0001:0003bcfc       ??$extract_argument_from_va_list@_W_W@?$standard_base@_WV?$stream_output_adapter@_W@__crt_stdio_output@@@__crt_stdio_output@@IEAA_NAEA_W@Z 000000014003ccfc f i libucrt:output.obj
 0001:0003bd18       ??$extract_argument_from_va_list@_W_W@?$standard_base@_WV?$string_output_adapter@_W@__crt_stdio_output@@@__crt_stdio_output@@IEAA_NAEA_W@Z 000000014003cd18 f i libucrt:output.obj
 0001:0003bd34       ??$get_parameter_type@D@?$positional_parameter_base@DV?$stream_output_adapter@D@__crt_stdio_output@@@__crt_stdio_output@@CA?AW4parameter_type@01@PEAD@Z 000000014003cd34 f i libucrt:output.obj
 0001:0003bd3c       ??$get_parameter_type@D@?$positional_parameter_base@DV?$string_output_adapter@D@__crt_stdio_output@@@__crt_stdio_output@@CA?AW4parameter_type@01@PEAD@Z 000000014003cd3c f i libucrt:output.obj
 0001:0003bd44       ??$get_parameter_type@D@?$positional_parameter_base@_WV?$stream_output_adapter@_W@__crt_stdio_output@@@__crt_stdio_output@@CA?AW4parameter_type@01@PEAD@Z 000000014003cd44 f i libucrt:output.obj
 0001:0003bd4c       ??$get_parameter_type@D@?$positional_parameter_base@_WV?$string_output_adapter@_W@__crt_stdio_output@@@__crt_stdio_output@@CA?AW4parameter_type@01@PEAD@Z 000000014003cd4c f i libucrt:output.obj
 0001:0003bd54       ??$get_parameter_type@Uansi_string@?1??type_case_Z@?$output_processor@DV?$stream_output_adapter@D@__crt_stdio_output@@V?$positional_parameter_base@DV?$stream_output_adapter@D@__crt_stdio_output@@@2@@__crt_stdio_output@@AEAA_NXZ@@?$positional_parameter_base@DV?$stream_output_adapter@D@__crt_stdio_output@@@__crt_stdio_output@@CA?AW4parameter_type@01@PEAUansi_string@?1??type_case_Z@?$output_processor@DV?$stream_output_adapter@D@__crt_stdio_output@@V?$positional_parameter_base@DV?$stream_output_adapter@D@__crt_stdio_output@@@2@@1@AEAA_NXZ@@Z 000000014003cd54 f i libucrt:output.obj
 0001:0003bd5c       ??$get_parameter_type@Uansi_string@?1??type_case_Z@?$output_processor@DV?$string_output_adapter@D@__crt_stdio_output@@V?$positional_parameter_base@DV?$string_output_adapter@D@__crt_stdio_output@@@2@@__crt_stdio_output@@AEAA_NXZ@@?$positional_parameter_base@DV?$string_output_adapter@D@__crt_stdio_output@@@__crt_stdio_output@@CA?AW4parameter_type@01@PEAUansi_string@?1??type_case_Z@?$output_processor@DV?$string_output_adapter@D@__crt_stdio_output@@V?$positional_parameter_base@DV?$string_output_adapter@D@__crt_stdio_output@@@2@@1@AEAA_NXZ@@Z 000000014003cd5c f i libucrt:output.obj
 0001:0003bd64       ??$get_parameter_type@Uansi_string@?1??type_case_Z@?$output_processor@_WV?$stream_output_adapter@_W@__crt_stdio_output@@V?$positional_parameter_base@_WV?$stream_output_adapter@_W@__crt_stdio_output@@@2@@__crt_stdio_output@@AEAA_NXZ@@?$positional_parameter_base@_WV?$stream_output_adapter@_W@__crt_stdio_output@@@__crt_stdio_output@@CA?AW4parameter_type@01@PEAUansi_string@?1??type_case_Z@?$output_processor@_WV?$stream_output_adapter@_W@__crt_stdio_output@@V?$positional_parameter_base@_WV?$stream_output_adapter@_W@__crt_stdio_output@@@2@@1@AEAA_NXZ@@Z 000000014003cd64 f i libucrt:output.obj
 0001:0003bd6c       ??$get_parameter_type@Uansi_string@?1??type_case_Z@?$output_processor@_WV?$string_output_adapter@_W@__crt_stdio_output@@V?$positional_parameter_base@_WV?$string_output_adapter@_W@__crt_stdio_output@@@2@@__crt_stdio_output@@AEAA_NXZ@@?$positional_parameter_base@_WV?$string_output_adapter@_W@__crt_stdio_output@@@__crt_stdio_output@@CA?AW4parameter_type@01@PEAUansi_string@?1??type_case_Z@?$output_processor@_WV?$string_output_adapter@_W@__crt_stdio_output@@V?$positional_parameter_base@_WV?$string_output_adapter@_W@__crt_stdio_output@@@2@@1@AEAA_NXZ@@Z 000000014003cd6c f i libucrt:output.obj
 0001:0003bd74       ??$get_parameter_type@X@?$positional_parameter_base@DV?$stream_output_adapter@D@__crt_stdio_output@@@__crt_stdio_output@@CA?AW4parameter_type@01@PEAX@Z 000000014003cd74 f i libucrt:output.obj
 0001:0003bd7c       ??$get_parameter_type@X@?$positional_parameter_base@DV?$string_output_adapter@D@__crt_stdio_output@@@__crt_stdio_output@@CA?AW4parameter_type@01@PEAX@Z 000000014003cd7c f i libucrt:output.obj
 0001:0003bd84       ??$get_parameter_type@X@?$positional_parameter_base@_WV?$stream_output_adapter@_W@__crt_stdio_output@@@__crt_stdio_output@@CA?AW4parameter_type@01@PEAX@Z 000000014003cd84 f i libucrt:output.obj
 0001:0003bd8c       ??$get_parameter_type@X@?$positional_parameter_base@_WV?$string_output_adapter@_W@__crt_stdio_output@@@__crt_stdio_output@@CA?AW4parameter_type@01@PEAX@Z 000000014003cd8c f i libucrt:output.obj
 0001:0003bd94       ??$is_character_specifier@D@?$positional_parameter_base@DV?$stream_output_adapter@D@__crt_stdio_output@@@__crt_stdio_output@@CA_ND@Z 000000014003cd94 f i libucrt:output.obj
 0001:0003bda0       ??$is_character_specifier@D@?$positional_parameter_base@DV?$string_output_adapter@D@__crt_stdio_output@@@__crt_stdio_output@@CA_ND@Z 000000014003cda0 f i libucrt:output.obj
 0001:0003bdac       ??$is_character_specifier@_W@?$positional_parameter_base@_WV?$stream_output_adapter@_W@__crt_stdio_output@@@__crt_stdio_output@@CA_N_W@Z 000000014003cdac f i libucrt:output.obj
 0001:0003bdc0       ??$is_character_specifier@_W@?$positional_parameter_base@_WV?$string_output_adapter@_W@__crt_stdio_output@@@__crt_stdio_output@@CA_N_W@Z 000000014003cdc0 f i libucrt:output.obj
 0001:0003bdd4       ??$is_integral_specifier@D@?$positional_parameter_base@DV?$stream_output_adapter@D@__crt_stdio_output@@@__crt_stdio_output@@CA_ND@Z 000000014003cdd4 f i libucrt:output.obj
 0001:0003be00       ??$is_integral_specifier@D@?$positional_parameter_base@DV?$string_output_adapter@D@__crt_stdio_output@@@__crt_stdio_output@@CA_ND@Z 000000014003ce00 f i libucrt:output.obj
 0001:0003be2c       ??$is_integral_specifier@_W@?$positional_parameter_base@_WV?$stream_output_adapter@_W@__crt_stdio_output@@@__crt_stdio_output@@CA_N_W@Z 000000014003ce2c f i libucrt:output.obj
 0001:0003be5c       ??$is_integral_specifier@_W@?$positional_parameter_base@_WV?$string_output_adapter@_W@__crt_stdio_output@@@__crt_stdio_output@@CA_N_W@Z 000000014003ce5c f i libucrt:output.obj
 0001:0003be8c       ??$is_overflow_condition@K@__crt_strtox@@YA_NIK@Z 000000014003ce8c f i libucrt:output.obj
 0001:0003bebc       ??$is_pointer_specifier@D@?$positional_parameter_base@DV?$stream_output_adapter@D@__crt_stdio_output@@@__crt_stdio_output@@CA_ND@Z 000000014003cebc f i libucrt:output.obj
 0001:0003bec4       ??$is_pointer_specifier@D@?$positional_parameter_base@DV?$string_output_adapter@D@__crt_stdio_output@@@__crt_stdio_output@@CA_ND@Z 000000014003cec4 f i libucrt:output.obj
 0001:0003becc       ??$is_pointer_specifier@_W@?$positional_parameter_base@_WV?$stream_output_adapter@_W@__crt_stdio_output@@@__crt_stdio_output@@CA_N_W@Z 000000014003cecc f i libucrt:output.obj
 0001:0003bed8       ??$is_pointer_specifier@_W@?$positional_parameter_base@_WV?$string_output_adapter@_W@__crt_stdio_output@@@__crt_stdio_output@@CA_N_W@Z 000000014003ced8 f i libucrt:output.obj
 0001:0003bee4       ??$is_string_specifier@D@?$positional_parameter_base@DV?$stream_output_adapter@D@__crt_stdio_output@@@__crt_stdio_output@@CA_ND@Z 000000014003cee4 f i libucrt:output.obj
 0001:0003bef0       ??$is_string_specifier@D@?$positional_parameter_base@DV?$string_output_adapter@D@__crt_stdio_output@@@__crt_stdio_output@@CA_ND@Z 000000014003cef0 f i libucrt:output.obj
 0001:0003befc       ??$is_string_specifier@_W@?$positional_parameter_base@_WV?$stream_output_adapter@_W@__crt_stdio_output@@@__crt_stdio_output@@CA_N_W@Z 000000014003cefc f i libucrt:output.obj
 0001:0003bf10       ??$is_string_specifier@_W@?$positional_parameter_base@_WV?$string_output_adapter@_W@__crt_stdio_output@@@__crt_stdio_output@@CA_N_W@Z 000000014003cf10 f i libucrt:output.obj
 0001:0003bf24       ??$is_wide_character_specifier@D@__crt_stdio_output@@YA_N_KDW4length_modifier@0@@Z 000000014003cf24 f i libucrt:output.obj
 0001:0003bf58       ??$is_wide_character_specifier@_W@__crt_stdio_output@@YA_N_K_WW4length_modifier@0@@Z 000000014003cf58 f i libucrt:output.obj
 0001:0003bfa8       ??$make_c_string_character_source@DPEAPEAD@__crt_strtox@@YA?AV?$c_string_character_source@D@0@QEBDQEAPEAD@Z 000000014003cfa8 f i libucrt:output.obj
 0001:0003bfc0       ??$make_c_string_character_source@_WPEAPEA_W@__crt_strtox@@YA?AV?$c_string_character_source@_W@0@QEB_WQEAPEA_W@Z 000000014003cfc0 f i libucrt:output.obj
 0001:0003bfd8       ??$parse_integer@KV?$c_string_character_source@D@__crt_strtox@@$0A@@__crt_strtox@@YAKAEAV__crt_cached_ptd_host@@V?$c_string_character_source@D@0@H_N@Z 000000014003cfd8 f i libucrt:output.obj
 0001:0003c338       ??$parse_integer@KV?$c_string_character_source@_W@__crt_strtox@@$0A@@__crt_strtox@@YAKAEAV__crt_cached_ptd_host@@V?$c_string_character_source@_W@0@H_N@Z 000000014003d338 f i libucrt:output.obj
 0001:0003cc8c       ??$peek_va_arg@C@__crt_stdio_output@@YACPEAD@Z 000000014003dc8c f i libucrt:output.obj
 0001:0003cc90       ??$peek_va_arg@E@__crt_stdio_output@@YAEPEAD@Z 000000014003dc90 f i libucrt:output.obj
 0001:0003cc94       ??$peek_va_arg@F@__crt_stdio_output@@YAFPEAD@Z 000000014003dc94 f i libucrt:output.obj
 0001:0003cc98       ??$peek_va_arg@G@__crt_stdio_output@@YAGPEAD@Z 000000014003dc98 f i libucrt:output.obj
 0001:0003cc9c       ??$peek_va_arg@H@__crt_stdio_output@@YAHPEAD@Z 000000014003dc9c f i libucrt:output.obj
 0001:0003cca0       ??$peek_va_arg@I@__crt_stdio_output@@YAIPEAD@Z 000000014003dca0 f i libucrt:output.obj
 0001:0003cca4       ??$peek_va_arg@PEAD@__crt_stdio_output@@YAPEADPEAD@Z 000000014003dca4 f i libucrt:output.obj
 0001:0003cca8       ??$peek_va_arg@PEAUansi_string@?1??type_case_Z@?$output_processor@DV?$stream_output_adapter@D@__crt_stdio_output@@V?$positional_parameter_base@DV?$stream_output_adapter@D@__crt_stdio_output@@@2@@__crt_stdio_output@@AEAA_NXZ@@__crt_stdio_output@@YAPEAUansi_string@?1??type_case_Z@?$output_processor@DV?$stream_output_adapter@D@__crt_stdio_output@@V?$positional_parameter_base@DV?$stream_output_adapter@D@__crt_stdio_output@@@2@@0@AEAA_NXZ@PEAD@Z 000000014003dca8 f i libucrt:output.obj
 0001:0003ccac       ??$peek_va_arg@PEAUansi_string@?1??type_case_Z@?$output_processor@DV?$string_output_adapter@D@__crt_stdio_output@@V?$positional_parameter_base@DV?$string_output_adapter@D@__crt_stdio_output@@@2@@__crt_stdio_output@@AEAA_NXZ@@__crt_stdio_output@@YAPEAUansi_string@?1??type_case_Z@?$output_processor@DV?$string_output_adapter@D@__crt_stdio_output@@V?$positional_parameter_base@DV?$string_output_adapter@D@__crt_stdio_output@@@2@@0@AEAA_NXZ@PEAD@Z 000000014003dcac f i libucrt:output.obj
 0001:0003ccb0       ??$peek_va_arg@PEAUansi_string@?1??type_case_Z@?$output_processor@_WV?$stream_output_adapter@_W@__crt_stdio_output@@V?$positional_parameter_base@_WV?$stream_output_adapter@_W@__crt_stdio_output@@@2@@__crt_stdio_output@@AEAA_NXZ@@__crt_stdio_output@@YAPEAUansi_string@?1??type_case_Z@?$output_processor@_WV?$stream_output_adapter@_W@__crt_stdio_output@@V?$positional_parameter_base@_WV?$stream_output_adapter@_W@__crt_stdio_output@@@2@@0@AEAA_NXZ@PEAD@Z 000000014003dcb0 f i libucrt:output.obj
 0001:0003ccb4       ??$peek_va_arg@PEAUansi_string@?1??type_case_Z@?$output_processor@_WV?$string_output_adapter@_W@__crt_stdio_output@@V?$positional_parameter_base@_WV?$string_output_adapter@_W@__crt_stdio_output@@@2@@__crt_stdio_output@@AEAA_NXZ@@__crt_stdio_output@@YAPEAUansi_string@?1??type_case_Z@?$output_processor@_WV?$string_output_adapter@_W@__crt_stdio_output@@V?$positional_parameter_base@_WV?$string_output_adapter@_W@__crt_stdio_output@@@2@@0@AEAA_NXZ@PEAD@Z 000000014003dcb4 f i libucrt:output.obj
 0001:0003ccb8       ??$peek_va_arg@PEAX@__crt_stdio_output@@YAPEAXPEAD@Z 000000014003dcb8 f i libucrt:output.obj
 0001:0003ccbc       ??$peek_va_arg@U_CRT_DOUBLE@@@__crt_stdio_output@@YA?AU_CRT_DOUBLE@@PEAD@Z 000000014003dcbc f i libucrt:output.obj
 0001:0003ccc0       ??$peek_va_arg@_J@__crt_stdio_output@@YA_JPEAD@Z 000000014003dcc0 f i libucrt:output.obj
 0001:0003ccc4       ??$peek_va_arg@_K@__crt_stdio_output@@YA_KPEAD@Z 000000014003dcc4 f i libucrt:output.obj
 0001:0003ccc8       ??$peek_va_arg@_W@__crt_stdio_output@@YA_WPEAD@Z 000000014003dcc8 f i libucrt:output.obj
 0001:0003cccc       ??$puttc_nolock_internal@AEBDPEAU_iobuf@@AEAV__crt_cached_ptd_host@@@?$__crt_char_traits@D@@SAHAEBD$$QEAPEAU_iobuf@@AEAV__crt_cached_ptd_host@@@Z 000000014003dccc f i libucrt:output.obj
 0001:0003ccdc       ??$puttc_nolock_internal@AEB_WPEAU_iobuf@@AEAV__crt_cached_ptd_host@@@?$__crt_char_traits@_W@@SAGAEB_W$$QEAPEAU_iobuf@@AEAV__crt_cached_ptd_host@@@Z 000000014003dcdc f i libucrt:output.obj
 0001:0003ccec       ??$read_va_arg@C@__crt_stdio_output@@YACAEAPEAD@Z 000000014003dcec f i libucrt:output.obj
 0001:0003ccfc       ??$read_va_arg@E@__crt_stdio_output@@YAEAEAPEAD@Z 000000014003dcfc f i libucrt:output.obj
 0001:0003cd0c       ??$read_va_arg@F@__crt_stdio_output@@YAFAEAPEAD@Z 000000014003dd0c f i libucrt:output.obj
 0001:0003cd20       ??$read_va_arg@G@__crt_stdio_output@@YAGAEAPEAD@Z 000000014003dd20 f i libucrt:output.obj
 0001:0003cd34       ??$read_va_arg@H@__crt_stdio_output@@YAHAEAPEAD@Z 000000014003dd34 f i libucrt:output.obj
 0001:0003cd44       ??$read_va_arg@I@__crt_stdio_output@@YAIAEAPEAD@Z 000000014003dd44 f i libucrt:output.obj
 0001:0003cd54       ??$read_va_arg@PEAD@__crt_stdio_output@@YAPEADAEAPEAD@Z 000000014003dd54 f i libucrt:output.obj
 0001:0003cd68       ??$read_va_arg@PEAUansi_string@?1??type_case_Z@?$output_processor@DV?$stream_output_adapter@D@__crt_stdio_output@@V?$format_validation_base@DV?$stream_output_adapter@D@__crt_stdio_output@@@2@@__crt_stdio_output@@AEAA_NXZ@@__crt_stdio_output@@YAPEAUansi_string@?1??type_case_Z@?$output_processor@DV?$stream_output_adapter@D@__crt_stdio_output@@V?$format_validation_base@DV?$stream_output_adapter@D@__crt_stdio_output@@@2@@0@AEAA_NXZ@AEAPEAD@Z 000000014003dd68 f i libucrt:output.obj
 0001:0003cd7c       ??$read_va_arg@PEAUansi_string@?1??type_case_Z@?$output_processor@DV?$stream_output_adapter@D@__crt_stdio_output@@V?$positional_parameter_base@DV?$stream_output_adapter@D@__crt_stdio_output@@@2@@__crt_stdio_output@@AEAA_NXZ@@__crt_stdio_output@@YAPEAUansi_string@?1??type_case_Z@?$output_processor@DV?$stream_output_adapter@D@__crt_stdio_output@@V?$positional_parameter_base@DV?$stream_output_adapter@D@__crt_stdio_output@@@2@@0@AEAA_NXZ@AEAPEAD@Z 000000014003dd7c f i libucrt:output.obj
 0001:0003cd90       ??$read_va_arg@PEAUansi_string@?1??type_case_Z@?$output_processor@DV?$stream_output_adapter@D@__crt_stdio_output@@V?$standard_base@DV?$stream_output_adapter@D@__crt_stdio_output@@@2@@__crt_stdio_output@@AEAA_NXZ@@__crt_stdio_output@@YAPEAUansi_string@?1??type_case_Z@?$output_processor@DV?$stream_output_adapter@D@__crt_stdio_output@@V?$standard_base@DV?$stream_output_adapter@D@__crt_stdio_output@@@2@@0@AEAA_NXZ@AEAPEAD@Z 000000014003dd90 f i libucrt:output.obj
 0001:0003cda4       ??$read_va_arg@PEAUansi_string@?1??type_case_Z@?$output_processor@DV?$string_output_adapter@D@__crt_stdio_output@@V?$format_validation_base@DV?$string_output_adapter@D@__crt_stdio_output@@@2@@__crt_stdio_output@@AEAA_NXZ@@__crt_stdio_output@@YAPEAUansi_string@?1??type_case_Z@?$output_processor@DV?$string_output_adapter@D@__crt_stdio_output@@V?$format_validation_base@DV?$string_output_adapter@D@__crt_stdio_output@@@2@@0@AEAA_NXZ@AEAPEAD@Z 000000014003dda4 f i libucrt:output.obj
 0001:0003cdb8       ??$read_va_arg@PEAUansi_string@?1??type_case_Z@?$output_processor@DV?$string_output_adapter@D@__crt_stdio_output@@V?$positional_parameter_base@DV?$string_output_adapter@D@__crt_stdio_output@@@2@@__crt_stdio_output@@AEAA_NXZ@@__crt_stdio_output@@YAPEAUansi_string@?1??type_case_Z@?$output_processor@DV?$string_output_adapter@D@__crt_stdio_output@@V?$positional_parameter_base@DV?$string_output_adapter@D@__crt_stdio_output@@@2@@0@AEAA_NXZ@AEAPEAD@Z 000000014003ddb8 f i libucrt:output.obj
 0001:0003cdcc       ??$read_va_arg@PEAUansi_string@?1??type_case_Z@?$output_processor@DV?$string_output_adapter@D@__crt_stdio_output@@V?$standard_base@DV?$string_output_adapter@D@__crt_stdio_output@@@2@@__crt_stdio_output@@AEAA_NXZ@@__crt_stdio_output@@YAPEAUansi_string@?1??type_case_Z@?$output_processor@DV?$string_output_adapter@D@__crt_stdio_output@@V?$standard_base@DV?$string_output_adapter@D@__crt_stdio_output@@@2@@0@AEAA_NXZ@AEAPEAD@Z 000000014003ddcc f i libucrt:output.obj
 0001:0003cde0       ??$read_va_arg@PEAUansi_string@?1??type_case_Z@?$output_processor@_WV?$stream_output_adapter@_W@__crt_stdio_output@@V?$format_validation_base@_WV?$stream_output_adapter@_W@__crt_stdio_output@@@2@@__crt_stdio_output@@AEAA_NXZ@@__crt_stdio_output@@YAPEAUansi_string@?1??type_case_Z@?$output_processor@_WV?$stream_output_adapter@_W@__crt_stdio_output@@V?$format_validation_base@_WV?$stream_output_adapter@_W@__crt_stdio_output@@@2@@0@AEAA_NXZ@AEAPEAD@Z 000000014003dde0 f i libucrt:output.obj
 0001:0003cdf4       ??$read_va_arg@PEAUansi_string@?1??type_case_Z@?$output_processor@_WV?$stream_output_adapter@_W@__crt_stdio_output@@V?$positional_parameter_base@_WV?$stream_output_adapter@_W@__crt_stdio_output@@@2@@__crt_stdio_output@@AEAA_NXZ@@__crt_stdio_output@@YAPEAUansi_string@?1??type_case_Z@?$output_processor@_WV?$stream_output_adapter@_W@__crt_stdio_output@@V?$positional_parameter_base@_WV?$stream_output_adapter@_W@__crt_stdio_output@@@2@@0@AEAA_NXZ@AEAPEAD@Z 000000014003ddf4 f i libucrt:output.obj
 0001:0003ce08       ??$read_va_arg@PEAUansi_string@?1??type_case_Z@?$output_processor@_WV?$stream_output_adapter@_W@__crt_stdio_output@@V?$standard_base@_WV?$stream_output_adapter@_W@__crt_stdio_output@@@2@@__crt_stdio_output@@AEAA_NXZ@@__crt_stdio_output@@YAPEAUansi_string@?1??type_case_Z@?$output_processor@_WV?$stream_output_adapter@_W@__crt_stdio_output@@V?$standard_base@_WV?$stream_output_adapter@_W@__crt_stdio_output@@@2@@0@AEAA_NXZ@AEAPEAD@Z 000000014003de08 f i libucrt:output.obj
 0001:0003ce1c       ??$read_va_arg@PEAUansi_string@?1??type_case_Z@?$output_processor@_WV?$string_output_adapter@_W@__crt_stdio_output@@V?$format_validation_base@_WV?$string_output_adapter@_W@__crt_stdio_output@@@2@@__crt_stdio_output@@AEAA_NXZ@@__crt_stdio_output@@YAPEAUansi_string@?1??type_case_Z@?$output_processor@_WV?$string_output_adapter@_W@__crt_stdio_output@@V?$format_validation_base@_WV?$string_output_adapter@_W@__crt_stdio_output@@@2@@0@AEAA_NXZ@AEAPEAD@Z 000000014003de1c f i libucrt:output.obj
 0001:0003ce30       ??$read_va_arg@PEAUansi_string@?1??type_case_Z@?$output_processor@_WV?$string_output_adapter@_W@__crt_stdio_output@@V?$positional_parameter_base@_WV?$string_output_adapter@_W@__crt_stdio_output@@@2@@__crt_stdio_output@@AEAA_NXZ@@__crt_stdio_output@@YAPEAUansi_string@?1??type_case_Z@?$output_processor@_WV?$string_output_adapter@_W@__crt_stdio_output@@V?$positional_parameter_base@_WV?$string_output_adapter@_W@__crt_stdio_output@@@2@@0@AEAA_NXZ@AEAPEAD@Z 000000014003de30 f i libucrt:output.obj
 0001:0003ce44       ??$read_va_arg@PEAUansi_string@?1??type_case_Z@?$output_processor@_WV?$string_output_adapter@_W@__crt_stdio_output@@V?$standard_base@_WV?$string_output_adapter@_W@__crt_stdio_output@@@2@@__crt_stdio_output@@AEAA_NXZ@@__crt_stdio_output@@YAPEAUansi_string@?1??type_case_Z@?$output_processor@_WV?$string_output_adapter@_W@__crt_stdio_output@@V?$standard_base@_WV?$string_output_adapter@_W@__crt_stdio_output@@@2@@0@AEAA_NXZ@AEAPEAD@Z 000000014003de44 f i libucrt:output.obj
 0001:0003ce58       ??$read_va_arg@PEAX@__crt_stdio_output@@YAPEAXAEAPEAD@Z 000000014003de58 f i libucrt:output.obj
 0001:0003ce6c       ??$read_va_arg@U_CRT_DOUBLE@@@__crt_stdio_output@@YA?AU_CRT_DOUBLE@@AEAPEAD@Z 000000014003de6c f i libucrt:output.obj
 0001:0003ce80       ??$read_va_arg@_J@__crt_stdio_output@@YA_JAEAPEAD@Z 000000014003de80 f i libucrt:output.obj
 0001:0003ce94       ??$read_va_arg@_K@__crt_stdio_output@@YA_KAEAPEAD@Z 000000014003de94 f i libucrt:output.obj
 0001:0003cea8       ??$read_va_arg@_W@__crt_stdio_output@@YA_WAEAPEAD@Z 000000014003dea8 f i libucrt:output.obj
 0001:0003cebc       ??$scratch_count@D@formatting_buffer@__crt_stdio_output@@QEBA_KXZ 000000014003debc f i libucrt:output.obj
 0001:0003cee0       ??$scratch_data@D@formatting_buffer@__crt_stdio_output@@QEAAPEADXZ 000000014003dee0 f i libucrt:output.obj
 0001:0003cf0c       ??$type_case_integer@$07@?$output_processor@DV?$stream_output_adapter@D@__crt_stdio_output@@V?$format_validation_base@DV?$stream_output_adapter@D@__crt_stdio_output@@@2@@__crt_stdio_output@@AEAA_N_N@Z 000000014003df0c f i libucrt:output.obj
 0001:0003d190       ??$type_case_integer@$07@?$output_processor@DV?$stream_output_adapter@D@__crt_stdio_output@@V?$positional_parameter_base@DV?$stream_output_adapter@D@__crt_stdio_output@@@2@@__crt_stdio_output@@AEAA_N_N@Z 000000014003e190 f i libucrt:output.obj
 0001:0003d448       ??$type_case_integer@$07@?$output_processor@DV?$stream_output_adapter@D@__crt_stdio_output@@V?$standard_base@DV?$stream_output_adapter@D@__crt_stdio_output@@@2@@__crt_stdio_output@@AEAA_N_N@Z 000000014003e448 f i libucrt:output.obj
 0001:0003d6cc       ??$type_case_integer@$07@?$output_processor@DV?$string_output_adapter@D@__crt_stdio_output@@V?$format_validation_base@DV?$string_output_adapter@D@__crt_stdio_output@@@2@@__crt_stdio_output@@AEAA_N_N@Z 000000014003e6cc f i libucrt:output.obj
 0001:0003d950       ??$type_case_integer@$07@?$output_processor@DV?$string_output_adapter@D@__crt_stdio_output@@V?$positional_parameter_base@DV?$string_output_adapter@D@__crt_stdio_output@@@2@@__crt_stdio_output@@AEAA_N_N@Z 000000014003e950 f i libucrt:output.obj
 0001:0003dc08       ??$type_case_integer@$07@?$output_processor@DV?$string_output_adapter@D@__crt_stdio_output@@V?$standard_base@DV?$string_output_adapter@D@__crt_stdio_output@@@2@@__crt_stdio_output@@AEAA_N_N@Z 000000014003ec08 f i libucrt:output.obj
 0001:0003de8c       ??$type_case_integer@$07@?$output_processor@_WV?$stream_output_adapter@_W@__crt_stdio_output@@V?$format_validation_base@_WV?$stream_output_adapter@_W@__crt_stdio_output@@@2@@__crt_stdio_output@@AEAA_N_N@Z 000000014003ee8c f i libucrt:output.obj
 0001:0003e118       ??$type_case_integer@$07@?$output_processor@_WV?$stream_output_adapter@_W@__crt_stdio_output@@V?$positional_parameter_base@_WV?$stream_output_adapter@_W@__crt_stdio_output@@@2@@__crt_stdio_output@@AEAA_N_N@Z 000000014003f118 f i libucrt:output.obj
 0001:0003e3d8       ??$type_case_integer@$07@?$output_processor@_WV?$stream_output_adapter@_W@__crt_stdio_output@@V?$standard_base@_WV?$stream_output_adapter@_W@__crt_stdio_output@@@2@@__crt_stdio_output@@AEAA_N_N@Z 000000014003f3d8 f i libucrt:output.obj
 0001:0003e664       ??$type_case_integer@$07@?$output_processor@_WV?$string_output_adapter@_W@__crt_stdio_output@@V?$format_validation_base@_WV?$string_output_adapter@_W@__crt_stdio_output@@@2@@__crt_stdio_output@@AEAA_N_N@Z 000000014003f664 f i libucrt:output.obj
 0001:0003e8f0       ??$type_case_integer@$07@?$output_processor@_WV?$string_output_adapter@_W@__crt_stdio_output@@V?$positional_parameter_base@_WV?$string_output_adapter@_W@__crt_stdio_output@@@2@@__crt_stdio_output@@AEAA_N_N@Z 000000014003f8f0 f i libucrt:output.obj
 0001:0003ebb0       ??$type_case_integer@$07@?$output_processor@_WV?$string_output_adapter@_W@__crt_stdio_output@@V?$standard_base@_WV?$string_output_adapter@_W@__crt_stdio_output@@@2@@__crt_stdio_output@@AEAA_N_N@Z 000000014003fbb0 f i libucrt:output.obj
 0001:0003ee3c       ??$type_case_integer@$09@?$output_processor@DV?$stream_output_adapter@D@__crt_stdio_output@@V?$format_validation_base@DV?$stream_output_adapter@D@__crt_stdio_output@@@2@@__crt_stdio_output@@AEAA_N_N@Z 000000014003fe3c f i libucrt:output.obj
 0001:0003f0c0       ??$type_case_integer@$09@?$output_processor@DV?$stream_output_adapter@D@__crt_stdio_output@@V?$positional_parameter_base@DV?$stream_output_adapter@D@__crt_stdio_output@@@2@@__crt_stdio_output@@AEAA_N_N@Z 00000001400400c0 f i libucrt:output.obj
 0001:0003f378       ??$type_case_integer@$09@?$output_processor@DV?$stream_output_adapter@D@__crt_stdio_output@@V?$standard_base@DV?$stream_output_adapter@D@__crt_stdio_output@@@2@@__crt_stdio_output@@AEAA_N_N@Z 0000000140040378 f i libucrt:output.obj
 0001:0003f5fc       ??$type_case_integer@$09@?$output_processor@DV?$string_output_adapter@D@__crt_stdio_output@@V?$format_validation_base@DV?$string_output_adapter@D@__crt_stdio_output@@@2@@__crt_stdio_output@@AEAA_N_N@Z 00000001400405fc f i libucrt:output.obj
 0001:0003f880       ??$type_case_integer@$09@?$output_processor@DV?$string_output_adapter@D@__crt_stdio_output@@V?$positional_parameter_base@DV?$string_output_adapter@D@__crt_stdio_output@@@2@@__crt_stdio_output@@AEAA_N_N@Z 0000000140040880 f i libucrt:output.obj
 0001:0003fb38       ??$type_case_integer@$09@?$output_processor@DV?$string_output_adapter@D@__crt_stdio_output@@V?$standard_base@DV?$string_output_adapter@D@__crt_stdio_output@@@2@@__crt_stdio_output@@AEAA_N_N@Z 0000000140040b38 f i libucrt:output.obj
 0001:0003fdbc       ??$type_case_integer@$09@?$output_processor@_WV?$stream_output_adapter@_W@__crt_stdio_output@@V?$format_validation_base@_WV?$stream_output_adapter@_W@__crt_stdio_output@@@2@@__crt_stdio_output@@AEAA_N_N@Z 0000000140040dbc f i libucrt:output.obj
 0001:00040048       ??$type_case_integer@$09@?$output_processor@_WV?$stream_output_adapter@_W@__crt_stdio_output@@V?$positional_parameter_base@_WV?$stream_output_adapter@_W@__crt_stdio_output@@@2@@__crt_stdio_output@@AEAA_N_N@Z 0000000140041048 f i libucrt:output.obj
 0001:00040308       ??$type_case_integer@$09@?$output_processor@_WV?$stream_output_adapter@_W@__crt_stdio_output@@V?$standard_base@_WV?$stream_output_adapter@_W@__crt_stdio_output@@@2@@__crt_stdio_output@@AEAA_N_N@Z 0000000140041308 f i libucrt:output.obj
 0001:00040594       ??$type_case_integer@$09@?$output_processor@_WV?$string_output_adapter@_W@__crt_stdio_output@@V?$format_validation_base@_WV?$string_output_adapter@_W@__crt_stdio_output@@@2@@__crt_stdio_output@@AEAA_N_N@Z 0000000140041594 f i libucrt:output.obj
 0001:00040820       ??$type_case_integer@$09@?$output_processor@_WV?$string_output_adapter@_W@__crt_stdio_output@@V?$positional_parameter_base@_WV?$string_output_adapter@_W@__crt_stdio_output@@@2@@__crt_stdio_output@@AEAA_N_N@Z 0000000140041820 f i libucrt:output.obj
 0001:00040ae0       ??$type_case_integer@$09@?$output_processor@_WV?$string_output_adapter@_W@__crt_stdio_output@@V?$standard_base@_WV?$string_output_adapter@_W@__crt_stdio_output@@@2@@__crt_stdio_output@@AEAA_N_N@Z 0000000140041ae0 f i libucrt:output.obj
 0001:00040d6c       ??$type_case_integer@$0BA@@?$output_processor@DV?$stream_output_adapter@D@__crt_stdio_output@@V?$format_validation_base@DV?$stream_output_adapter@D@__crt_stdio_output@@@2@@__crt_stdio_output@@AEAA_N_N@Z 0000000140041d6c f i libucrt:output.obj
 0001:00040ff0       ??$type_case_integer@$0BA@@?$output_processor@DV?$stream_output_adapter@D@__crt_stdio_output@@V?$positional_parameter_base@DV?$stream_output_adapter@D@__crt_stdio_output@@@2@@__crt_stdio_output@@AEAA_N_N@Z 0000000140041ff0 f i libucrt:output.obj
 0001:000412a8       ??$type_case_integer@$0BA@@?$output_processor@DV?$stream_output_adapter@D@__crt_stdio_output@@V?$standard_base@DV?$stream_output_adapter@D@__crt_stdio_output@@@2@@__crt_stdio_output@@AEAA_N_N@Z 00000001400422a8 f i libucrt:output.obj
 0001:0004152c       ??$type_case_integer@$0BA@@?$output_processor@DV?$string_output_adapter@D@__crt_stdio_output@@V?$format_validation_base@DV?$string_output_adapter@D@__crt_stdio_output@@@2@@__crt_stdio_output@@AEAA_N_N@Z 000000014004252c f i libucrt:output.obj
 0001:000417b0       ??$type_case_integer@$0BA@@?$output_processor@DV?$string_output_adapter@D@__crt_stdio_output@@V?$positional_parameter_base@DV?$string_output_adapter@D@__crt_stdio_output@@@2@@__crt_stdio_output@@AEAA_N_N@Z 00000001400427b0 f i libucrt:output.obj
 0001:00041a68       ??$type_case_integer@$0BA@@?$output_processor@DV?$string_output_adapter@D@__crt_stdio_output@@V?$standard_base@DV?$string_output_adapter@D@__crt_stdio_output@@@2@@__crt_stdio_output@@AEAA_N_N@Z 0000000140042a68 f i libucrt:output.obj
 0001:00041cec       ??$type_case_integer@$0BA@@?$output_processor@_WV?$stream_output_adapter@_W@__crt_stdio_output@@V?$format_validation_base@_WV?$stream_output_adapter@_W@__crt_stdio_output@@@2@@__crt_stdio_output@@AEAA_N_N@Z 0000000140042cec f i libucrt:output.obj
 0001:00041f78       ??$type_case_integer@$0BA@@?$output_processor@_WV?$stream_output_adapter@_W@__crt_stdio_output@@V?$positional_parameter_base@_WV?$stream_output_adapter@_W@__crt_stdio_output@@@2@@__crt_stdio_output@@AEAA_N_N@Z 0000000140042f78 f i libucrt:output.obj
 0001:00042238       ??$type_case_integer@$0BA@@?$output_processor@_WV?$stream_output_adapter@_W@__crt_stdio_output@@V?$standard_base@_WV?$stream_output_adapter@_W@__crt_stdio_output@@@2@@__crt_stdio_output@@AEAA_N_N@Z 0000000140043238 f i libucrt:output.obj
 0001:000424c4       ??$type_case_integer@$0BA@@?$output_processor@_WV?$string_output_adapter@_W@__crt_stdio_output@@V?$format_validation_base@_WV?$string_output_adapter@_W@__crt_stdio_output@@@2@@__crt_stdio_output@@AEAA_N_N@Z 00000001400434c4 f i libucrt:output.obj
 0001:00042750       ??$type_case_integer@$0BA@@?$output_processor@_WV?$string_output_adapter@_W@__crt_stdio_output@@V?$positional_parameter_base@_WV?$string_output_adapter@_W@__crt_stdio_output@@@2@@__crt_stdio_output@@AEAA_N_N@Z 0000000140043750 f i libucrt:output.obj
 0001:00042a10       ??$type_case_integer@$0BA@@?$output_processor@_WV?$string_output_adapter@_W@__crt_stdio_output@@V?$standard_base@_WV?$string_output_adapter@_W@__crt_stdio_output@@@2@@__crt_stdio_output@@AEAA_N_N@Z 0000000140043a10 f i libucrt:output.obj
 0001:00042c9c       ??$type_case_integer_parse_into_buffer@I$07@?$output_processor@DV?$stream_output_adapter@D@__crt_stdio_output@@V?$format_validation_base@DV?$stream_output_adapter@D@__crt_stdio_output@@@2@@__crt_stdio_output@@AEAAXI_N@Z 0000000140043c9c f i libucrt:output.obj
 0001:00042d24       ??$type_case_integer_parse_into_buffer@I$07@?$output_processor@DV?$stream_output_adapter@D@__crt_stdio_output@@V?$positional_parameter_base@DV?$stream_output_adapter@D@__crt_stdio_output@@@2@@__crt_stdio_output@@AEAAXI_N@Z 0000000140043d24 f i libucrt:output.obj
 0001:00042dac       ??$type_case_integer_parse_into_buffer@I$07@?$output_processor@DV?$stream_output_adapter@D@__crt_stdio_output@@V?$standard_base@DV?$stream_output_adapter@D@__crt_stdio_output@@@2@@__crt_stdio_output@@AEAAXI_N@Z 0000000140043dac f i libucrt:output.obj
 0001:00042e34       ??$type_case_integer_parse_into_buffer@I$07@?$output_processor@DV?$string_output_adapter@D@__crt_stdio_output@@V?$format_validation_base@DV?$string_output_adapter@D@__crt_stdio_output@@@2@@__crt_stdio_output@@AEAAXI_N@Z 0000000140043e34 f i libucrt:output.obj
 0001:00042ebc       ??$type_case_integer_parse_into_buffer@I$07@?$output_processor@DV?$string_output_adapter@D@__crt_stdio_output@@V?$positional_parameter_base@DV?$string_output_adapter@D@__crt_stdio_output@@@2@@__crt_stdio_output@@AEAAXI_N@Z 0000000140043ebc f i libucrt:output.obj
 0001:00042f44       ??$type_case_integer_parse_into_buffer@I$07@?$output_processor@DV?$string_output_adapter@D@__crt_stdio_output@@V?$standard_base@DV?$string_output_adapter@D@__crt_stdio_output@@@2@@__crt_stdio_output@@AEAAXI_N@Z 0000000140043f44 f i libucrt:output.obj
 0001:00042fcc       ??$type_case_integer_parse_into_buffer@I$07@?$output_processor@_WV?$stream_output_adapter@_W@__crt_stdio_output@@V?$format_validation_base@_WV?$stream_output_adapter@_W@__crt_stdio_output@@@2@@__crt_stdio_output@@AEAAXI_N@Z 0000000140043fcc f i libucrt:output.obj
 0001:00043074       ??$type_case_integer_parse_into_buffer@I$07@?$output_processor@_WV?$stream_output_adapter@_W@__crt_stdio_output@@V?$positional_parameter_base@_WV?$stream_output_adapter@_W@__crt_stdio_output@@@2@@__crt_stdio_output@@AEAAXI_N@Z 0000000140044074 f i libucrt:output.obj
 0001:0004311c       ??$type_case_integer_parse_into_buffer@I$07@?$output_processor@_WV?$stream_output_adapter@_W@__crt_stdio_output@@V?$standard_base@_WV?$stream_output_adapter@_W@__crt_stdio_output@@@2@@__crt_stdio_output@@AEAAXI_N@Z 000000014004411c f i libucrt:output.obj
 0001:000431c4       ??$type_case_integer_parse_into_buffer@I$07@?$output_processor@_WV?$string_output_adapter@_W@__crt_stdio_output@@V?$format_validation_base@_WV?$string_output_adapter@_W@__crt_stdio_output@@@2@@__crt_stdio_output@@AEAAXI_N@Z 00000001400441c4 f i libucrt:output.obj
 0001:0004326c       ??$type_case_integer_parse_into_buffer@I$07@?$output_processor@_WV?$string_output_adapter@_W@__crt_stdio_output@@V?$positional_parameter_base@_WV?$string_output_adapter@_W@__crt_stdio_output@@@2@@__crt_stdio_output@@AEAAXI_N@Z 000000014004426c f i libucrt:output.obj
 0001:00043314       ??$type_case_integer_parse_into_buffer@I$07@?$output_processor@_WV?$string_output_adapter@_W@__crt_stdio_output@@V?$standard_base@_WV?$string_output_adapter@_W@__crt_stdio_output@@@2@@__crt_stdio_output@@AEAAXI_N@Z 0000000140044314 f i libucrt:output.obj
 0001:000433bc       ??$type_case_integer_parse_into_buffer@I$09@?$output_processor@DV?$stream_output_adapter@D@__crt_stdio_output@@V?$format_validation_base@DV?$stream_output_adapter@D@__crt_stdio_output@@@2@@__crt_stdio_output@@AEAAXI_N@Z 00000001400443bc f i libucrt:output.obj
 0001:00043490       ??$type_case_integer_parse_into_buffer@I$09@?$output_processor@DV?$stream_output_adapter@D@__crt_stdio_output@@V?$positional_parameter_base@DV?$stream_output_adapter@D@__crt_stdio_output@@@2@@__crt_stdio_output@@AEAAXI_N@Z 0000000140044490 f i libucrt:output.obj
 0001:00043564       ??$type_case_integer_parse_into_buffer@I$09@?$output_processor@DV?$stream_output_adapter@D@__crt_stdio_output@@V?$standard_base@DV?$stream_output_adapter@D@__crt_stdio_output@@@2@@__crt_stdio_output@@AEAAXI_N@Z 0000000140044564 f i libucrt:output.obj
 0001:00043638       ??$type_case_integer_parse_into_buffer@I$09@?$output_processor@DV?$string_output_adapter@D@__crt_stdio_output@@V?$format_validation_base@DV?$string_output_adapter@D@__crt_stdio_output@@@2@@__crt_stdio_output@@AEAAXI_N@Z 0000000140044638 f i libucrt:output.obj
 0001:0004370c       ??$type_case_integer_parse_into_buffer@I$09@?$output_processor@DV?$string_output_adapter@D@__crt_stdio_output@@V?$positional_parameter_base@DV?$string_output_adapter@D@__crt_stdio_output@@@2@@__crt_stdio_output@@AEAAXI_N@Z 000000014004470c f i libucrt:output.obj
 0001:000437e0       ??$type_case_integer_parse_into_buffer@I$09@?$output_processor@DV?$string_output_adapter@D@__crt_stdio_output@@V?$standard_base@DV?$string_output_adapter@D@__crt_stdio_output@@@2@@__crt_stdio_output@@AEAAXI_N@Z 00000001400447e0 f i libucrt:output.obj
 0001:000438b4       ??$type_case_integer_parse_into_buffer@I$09@?$output_processor@_WV?$stream_output_adapter@_W@__crt_stdio_output@@V?$format_validation_base@_WV?$stream_output_adapter@_W@__crt_stdio_output@@@2@@__crt_stdio_output@@AEAAXI_N@Z 00000001400448b4 f i libucrt:output.obj
 0001:000439a0       ??$type_case_integer_parse_into_buffer@I$09@?$output_processor@_WV?$stream_output_adapter@_W@__crt_stdio_output@@V?$positional_parameter_base@_WV?$stream_output_adapter@_W@__crt_stdio_output@@@2@@__crt_stdio_output@@AEAAXI_N@Z 00000001400449a0 f i libucrt:output.obj
 0001:00043a8c       ??$type_case_integer_parse_into_buffer@I$09@?$output_processor@_WV?$stream_output_adapter@_W@__crt_stdio_output@@V?$standard_base@_WV?$stream_output_adapter@_W@__crt_stdio_output@@@2@@__crt_stdio_output@@AEAAXI_N@Z 0000000140044a8c f i libucrt:output.obj
 0001:00043b78       ??$type_case_integer_parse_into_buffer@I$09@?$output_processor@_WV?$string_output_adapter@_W@__crt_stdio_output@@V?$format_validation_base@_WV?$string_output_adapter@_W@__crt_stdio_output@@@2@@__crt_stdio_output@@AEAAXI_N@Z 0000000140044b78 f i libucrt:output.obj
 0001:00043c64       ??$type_case_integer_parse_into_buffer@I$09@?$output_processor@_WV?$string_output_adapter@_W@__crt_stdio_output@@V?$positional_parameter_base@_WV?$string_output_adapter@_W@__crt_stdio_output@@@2@@__crt_stdio_output@@AEAAXI_N@Z 0000000140044c64 f i libucrt:output.obj
 0001:00043d50       ??$type_case_integer_parse_into_buffer@I$09@?$output_processor@_WV?$string_output_adapter@_W@__crt_stdio_output@@V?$standard_base@_WV?$string_output_adapter@_W@__crt_stdio_output@@@2@@__crt_stdio_output@@AEAAXI_N@Z 0000000140044d50 f i libucrt:output.obj
 0001:00043e3c       ??$type_case_integer_parse_into_buffer@I$0BA@@?$output_processor@DV?$stream_output_adapter@D@__crt_stdio_output@@V?$format_validation_base@DV?$stream_output_adapter@D@__crt_stdio_output@@@2@@__crt_stdio_output@@AEAAXI_N@Z 0000000140044e3c f i libucrt:output.obj
 0001:00043ee4       ??$type_case_integer_parse_into_buffer@I$0BA@@?$output_processor@DV?$stream_output_adapter@D@__crt_stdio_output@@V?$positional_parameter_base@DV?$stream_output_adapter@D@__crt_stdio_output@@@2@@__crt_stdio_output@@AEAAXI_N@Z 0000000140044ee4 f i libucrt:output.obj
 0001:00043f8c       ??$type_case_integer_parse_into_buffer@I$0BA@@?$output_processor@DV?$stream_output_adapter@D@__crt_stdio_output@@V?$standard_base@DV?$stream_output_adapter@D@__crt_stdio_output@@@2@@__crt_stdio_output@@AEAAXI_N@Z 0000000140044f8c f i libucrt:output.obj
 0001:00044034       ??$type_case_integer_parse_into_buffer@I$0BA@@?$output_processor@DV?$string_output_adapter@D@__crt_stdio_output@@V?$format_validation_base@DV?$string_output_adapter@D@__crt_stdio_output@@@2@@__crt_stdio_output@@AEAAXI_N@Z 0000000140045034 f i libucrt:output.obj
 0001:000440dc       ??$type_case_integer_parse_into_buffer@I$0BA@@?$output_processor@DV?$string_output_adapter@D@__crt_stdio_output@@V?$positional_parameter_base@DV?$string_output_adapter@D@__crt_stdio_output@@@2@@__crt_stdio_output@@AEAAXI_N@Z 00000001400450dc f i libucrt:output.obj
 0001:00044184       ??$type_case_integer_parse_into_buffer@I$0BA@@?$output_processor@DV?$string_output_adapter@D@__crt_stdio_output@@V?$standard_base@DV?$string_output_adapter@D@__crt_stdio_output@@@2@@__crt_stdio_output@@AEAAXI_N@Z 0000000140045184 f i libucrt:output.obj
 0001:0004422c       ??$type_case_integer_parse_into_buffer@I$0BA@@?$output_processor@_WV?$stream_output_adapter@_W@__crt_stdio_output@@V?$format_validation_base@_WV?$stream_output_adapter@_W@__crt_stdio_output@@@2@@__crt_stdio_output@@AEAAXI_N@Z 000000014004522c f i libucrt:output.obj
 0001:000442f4       ??$type_case_integer_parse_into_buffer@I$0BA@@?$output_processor@_WV?$stream_output_adapter@_W@__crt_stdio_output@@V?$positional_parameter_base@_WV?$stream_output_adapter@_W@__crt_stdio_output@@@2@@__crt_stdio_output@@AEAAXI_N@Z 00000001400452f4 f i libucrt:output.obj
 0001:000443bc       ??$type_case_integer_parse_into_buffer@I$0BA@@?$output_processor@_WV?$stream_output_adapter@_W@__crt_stdio_output@@V?$standard_base@_WV?$stream_output_adapter@_W@__crt_stdio_output@@@2@@__crt_stdio_output@@AEAAXI_N@Z 00000001400453bc f i libucrt:output.obj
 0001:00044484       ??$type_case_integer_parse_into_buffer@I$0BA@@?$output_processor@_WV?$string_output_adapter@_W@__crt_stdio_output@@V?$format_validation_base@_WV?$string_output_adapter@_W@__crt_stdio_output@@@2@@__crt_stdio_output@@AEAAXI_N@Z 0000000140045484 f i libucrt:output.obj
 0001:0004454c       ??$type_case_integer_parse_into_buffer@I$0BA@@?$output_processor@_WV?$string_output_adapter@_W@__crt_stdio_output@@V?$positional_parameter_base@_WV?$string_output_adapter@_W@__crt_stdio_output@@@2@@__crt_stdio_output@@AEAAXI_N@Z 000000014004554c f i libucrt:output.obj
 0001:00044614       ??$type_case_integer_parse_into_buffer@I$0BA@@?$output_processor@_WV?$string_output_adapter@_W@__crt_stdio_output@@V?$standard_base@_WV?$string_output_adapter@_W@__crt_stdio_output@@@2@@__crt_stdio_output@@AEAAXI_N@Z 0000000140045614 f i libucrt:output.obj
 0001:000446dc       ??$type_case_integer_parse_into_buffer@_K$07@?$output_processor@DV?$stream_output_adapter@D@__crt_stdio_output@@V?$format_validation_base@DV?$stream_output_adapter@D@__crt_stdio_output@@@2@@__crt_stdio_output@@AEAAX_K_N@Z 00000001400456dc f i libucrt:output.obj
 0001:00044764       ??$type_case_integer_parse_into_buffer@_K$07@?$output_processor@DV?$stream_output_adapter@D@__crt_stdio_output@@V?$positional_parameter_base@DV?$stream_output_adapter@D@__crt_stdio_output@@@2@@__crt_stdio_output@@AEAAX_K_N@Z 0000000140045764 f i libucrt:output.obj
 0001:000447ec       ??$type_case_integer_parse_into_buffer@_K$07@?$output_processor@DV?$stream_output_adapter@D@__crt_stdio_output@@V?$standard_base@DV?$stream_output_adapter@D@__crt_stdio_output@@@2@@__crt_stdio_output@@AEAAX_K_N@Z 00000001400457ec f i libucrt:output.obj
 0001:00044874       ??$type_case_integer_parse_into_buffer@_K$07@?$output_processor@DV?$string_output_adapter@D@__crt_stdio_output@@V?$format_validation_base@DV?$string_output_adapter@D@__crt_stdio_output@@@2@@__crt_stdio_output@@AEAAX_K_N@Z 0000000140045874 f i libucrt:output.obj
 0001:000448fc       ??$type_case_integer_parse_into_buffer@_K$07@?$output_processor@DV?$string_output_adapter@D@__crt_stdio_output@@V?$positional_parameter_base@DV?$string_output_adapter@D@__crt_stdio_output@@@2@@__crt_stdio_output@@AEAAX_K_N@Z 00000001400458fc f i libucrt:output.obj
 0001:00044984       ??$type_case_integer_parse_into_buffer@_K$07@?$output_processor@DV?$string_output_adapter@D@__crt_stdio_output@@V?$standard_base@DV?$string_output_adapter@D@__crt_stdio_output@@@2@@__crt_stdio_output@@AEAAX_K_N@Z 0000000140045984 f i libucrt:output.obj
 0001:00044a0c       ??$type_case_integer_parse_into_buffer@_K$07@?$output_processor@_WV?$stream_output_adapter@_W@__crt_stdio_output@@V?$format_validation_base@_WV?$stream_output_adapter@_W@__crt_stdio_output@@@2@@__crt_stdio_output@@AEAAX_K_N@Z 0000000140045a0c f i libucrt:output.obj
 0001:00044ab4       ??$type_case_integer_parse_into_buffer@_K$07@?$output_processor@_WV?$stream_output_adapter@_W@__crt_stdio_output@@V?$positional_parameter_base@_WV?$stream_output_adapter@_W@__crt_stdio_output@@@2@@__crt_stdio_output@@AEAAX_K_N@Z 0000000140045ab4 f i libucrt:output.obj
 0001:00044b5c       ??$type_case_integer_parse_into_buffer@_K$07@?$output_processor@_WV?$stream_output_adapter@_W@__crt_stdio_output@@V?$standard_base@_WV?$stream_output_adapter@_W@__crt_stdio_output@@@2@@__crt_stdio_output@@AEAAX_K_N@Z 0000000140045b5c f i libucrt:output.obj
 0001:00044c04       ??$type_case_integer_parse_into_buffer@_K$07@?$output_processor@_WV?$string_output_adapter@_W@__crt_stdio_output@@V?$format_validation_base@_WV?$string_output_adapter@_W@__crt_stdio_output@@@2@@__crt_stdio_output@@AEAAX_K_N@Z 0000000140045c04 f i libucrt:output.obj
 0001:00044cac       ??$type_case_integer_parse_into_buffer@_K$07@?$output_processor@_WV?$string_output_adapter@_W@__crt_stdio_output@@V?$positional_parameter_base@_WV?$string_output_adapter@_W@__crt_stdio_output@@@2@@__crt_stdio_output@@AEAAX_K_N@Z 0000000140045cac f i libucrt:output.obj
 0001:00044d54       ??$type_case_integer_parse_into_buffer@_K$07@?$output_processor@_WV?$string_output_adapter@_W@__crt_stdio_output@@V?$standard_base@_WV?$string_output_adapter@_W@__crt_stdio_output@@@2@@__crt_stdio_output@@AEAAX_K_N@Z 0000000140045d54 f i libucrt:output.obj
 0001:00044dfc       ??$type_case_integer_parse_into_buffer@_K$09@?$output_processor@DV?$stream_output_adapter@D@__crt_stdio_output@@V?$format_validation_base@DV?$stream_output_adapter@D@__crt_stdio_output@@@2@@__crt_stdio_output@@AEAAX_K_N@Z 0000000140045dfc f i libucrt:output.obj
 0001:00044ed8       ??$type_case_integer_parse_into_buffer@_K$09@?$output_processor@DV?$stream_output_adapter@D@__crt_stdio_output@@V?$positional_parameter_base@DV?$stream_output_adapter@D@__crt_stdio_output@@@2@@__crt_stdio_output@@AEAAX_K_N@Z 0000000140045ed8 f i libucrt:output.obj
 0001:00044fb4       ??$type_case_integer_parse_into_buffer@_K$09@?$output_processor@DV?$stream_output_adapter@D@__crt_stdio_output@@V?$standard_base@DV?$stream_output_adapter@D@__crt_stdio_output@@@2@@__crt_stdio_output@@AEAAX_K_N@Z 0000000140045fb4 f i libucrt:output.obj
 0001:00045090       ??$type_case_integer_parse_into_buffer@_K$09@?$output_processor@DV?$string_output_adapter@D@__crt_stdio_output@@V?$format_validation_base@DV?$string_output_adapter@D@__crt_stdio_output@@@2@@__crt_stdio_output@@AEAAX_K_N@Z 0000000140046090 f i libucrt:output.obj
 0001:0004516c       ??$type_case_integer_parse_into_buffer@_K$09@?$output_processor@DV?$string_output_adapter@D@__crt_stdio_output@@V?$positional_parameter_base@DV?$string_output_adapter@D@__crt_stdio_output@@@2@@__crt_stdio_output@@AEAAX_K_N@Z 000000014004616c f i libucrt:output.obj
 0001:00045248       ??$type_case_integer_parse_into_buffer@_K$09@?$output_processor@DV?$string_output_adapter@D@__crt_stdio_output@@V?$standard_base@DV?$string_output_adapter@D@__crt_stdio_output@@@2@@__crt_stdio_output@@AEAAX_K_N@Z 0000000140046248 f i libucrt:output.obj
 0001:00045324       ??$type_case_integer_parse_into_buffer@_K$09@?$output_processor@_WV?$stream_output_adapter@_W@__crt_stdio_output@@V?$format_validation_base@_WV?$stream_output_adapter@_W@__crt_stdio_output@@@2@@__crt_stdio_output@@AEAAX_K_N@Z 0000000140046324 f i libucrt:output.obj
 0001:00045418       ??$type_case_integer_parse_into_buffer@_K$09@?$output_processor@_WV?$stream_output_adapter@_W@__crt_stdio_output@@V?$positional_parameter_base@_WV?$stream_output_adapter@_W@__crt_stdio_output@@@2@@__crt_stdio_output@@AEAAX_K_N@Z 0000000140046418 f i libucrt:output.obj
 0001:0004550c       ??$type_case_integer_parse_into_buffer@_K$09@?$output_processor@_WV?$stream_output_adapter@_W@__crt_stdio_output@@V?$standard_base@_WV?$stream_output_adapter@_W@__crt_stdio_output@@@2@@__crt_stdio_output@@AEAAX_K_N@Z 000000014004650c f i libucrt:output.obj
 0001:00045600       ??$type_case_integer_parse_into_buffer@_K$09@?$output_processor@_WV?$string_output_adapter@_W@__crt_stdio_output@@V?$format_validation_base@_WV?$string_output_adapter@_W@__crt_stdio_output@@@2@@__crt_stdio_output@@AEAAX_K_N@Z 0000000140046600 f i libucrt:output.obj
 0001:000456f4       ??$type_case_integer_parse_into_buffer@_K$09@?$output_processor@_WV?$string_output_adapter@_W@__crt_stdio_output@@V?$positional_parameter_base@_WV?$string_output_adapter@_W@__crt_stdio_output@@@2@@__crt_stdio_output@@AEAAX_K_N@Z 00000001400466f4 f i libucrt:output.obj
 0001:000457e8       ??$type_case_integer_parse_into_buffer@_K$09@?$output_processor@_WV?$string_output_adapter@_W@__crt_stdio_output@@V?$standard_base@_WV?$string_output_adapter@_W@__crt_stdio_output@@@2@@__crt_stdio_output@@AEAAX_K_N@Z 00000001400467e8 f i libucrt:output.obj
 0001:000458dc       ??$type_case_integer_parse_into_buffer@_K$0BA@@?$output_processor@DV?$stream_output_adapter@D@__crt_stdio_output@@V?$format_validation_base@DV?$stream_output_adapter@D@__crt_stdio_output@@@2@@__crt_stdio_output@@AEAAX_K_N@Z 00000001400468dc f i libucrt:output.obj
 0001:00045984       ??$type_case_integer_parse_into_buffer@_K$0BA@@?$output_processor@DV?$stream_output_adapter@D@__crt_stdio_output@@V?$positional_parameter_base@DV?$stream_output_adapter@D@__crt_stdio_output@@@2@@__crt_stdio_output@@AEAAX_K_N@Z 0000000140046984 f i libucrt:output.obj
 0001:00045a2c       ??$type_case_integer_parse_into_buffer@_K$0BA@@?$output_processor@DV?$stream_output_adapter@D@__crt_stdio_output@@V?$standard_base@DV?$stream_output_adapter@D@__crt_stdio_output@@@2@@__crt_stdio_output@@AEAAX_K_N@Z 0000000140046a2c f i libucrt:output.obj
 0001:00045ad4       ??$type_case_integer_parse_into_buffer@_K$0BA@@?$output_processor@DV?$string_output_adapter@D@__crt_stdio_output@@V?$format_validation_base@DV?$string_output_adapter@D@__crt_stdio_output@@@2@@__crt_stdio_output@@AEAAX_K_N@Z 0000000140046ad4 f i libucrt:output.obj
 0001:00045b7c       ??$type_case_integer_parse_into_buffer@_K$0BA@@?$output_processor@DV?$string_output_adapter@D@__crt_stdio_output@@V?$positional_parameter_base@DV?$string_output_adapter@D@__crt_stdio_output@@@2@@__crt_stdio_output@@AEAAX_K_N@Z 0000000140046b7c f i libucrt:output.obj
 0001:00045c24       ??$type_case_integer_parse_into_buffer@_K$0BA@@?$output_processor@DV?$string_output_adapter@D@__crt_stdio_output@@V?$standard_base@DV?$string_output_adapter@D@__crt_stdio_output@@@2@@__crt_stdio_output@@AEAAX_K_N@Z 0000000140046c24 f i libucrt:output.obj
 0001:00045ccc       ??$type_case_integer_parse_into_buffer@_K$0BA@@?$output_processor@_WV?$stream_output_adapter@_W@__crt_stdio_output@@V?$format_validation_base@_WV?$stream_output_adapter@_W@__crt_stdio_output@@@2@@__crt_stdio_output@@AEAAX_K_N@Z 0000000140046ccc f i libucrt:output.obj
 0001:00045d94       ??$type_case_integer_parse_into_buffer@_K$0BA@@?$output_processor@_WV?$stream_output_adapter@_W@__crt_stdio_output@@V?$positional_parameter_base@_WV?$stream_output_adapter@_W@__crt_stdio_output@@@2@@__crt_stdio_output@@AEAAX_K_N@Z 0000000140046d94 f i libucrt:output.obj
 0001:00045e5c       ??$type_case_integer_parse_into_buffer@_K$0BA@@?$output_processor@_WV?$stream_output_adapter@_W@__crt_stdio_output@@V?$standard_base@_WV?$stream_output_adapter@_W@__crt_stdio_output@@@2@@__crt_stdio_output@@AEAAX_K_N@Z 0000000140046e5c f i libucrt:output.obj
 0001:00045f24       ??$type_case_integer_parse_into_buffer@_K$0BA@@?$output_processor@_WV?$string_output_adapter@_W@__crt_stdio_output@@V?$format_validation_base@_WV?$string_output_adapter@_W@__crt_stdio_output@@@2@@__crt_stdio_output@@AEAAX_K_N@Z 0000000140046f24 f i libucrt:output.obj
 0001:00045fec       ??$type_case_integer_parse_into_buffer@_K$0BA@@?$output_processor@_WV?$string_output_adapter@_W@__crt_stdio_output@@V?$positional_parameter_base@_WV?$string_output_adapter@_W@__crt_stdio_output@@@2@@__crt_stdio_output@@AEAAX_K_N@Z 0000000140046fec f i libucrt:output.obj
 0001:000460b4       ??$type_case_integer_parse_into_buffer@_K$0BA@@?$output_processor@_WV?$string_output_adapter@_W@__crt_stdio_output@@V?$standard_base@_WV?$string_output_adapter@_W@__crt_stdio_output@@@2@@__crt_stdio_output@@AEAAX_K_N@Z 00000001400470b4 f i libucrt:output.obj
 0001:0004617c       ??$write_multiple_characters@V?$stream_output_adapter@D@__crt_stdio_output@@D@__crt_stdio_output@@YAXAEBV?$stream_output_adapter@D@0@DHQEAHAEAV__crt_cached_ptd_host@@@Z 000000014004717c f i libucrt:output.obj
 0001:00046234       ??$write_multiple_characters@V?$stream_output_adapter@_W@__crt_stdio_output@@D@__crt_stdio_output@@YAXAEBV?$stream_output_adapter@_W@0@DHQEAHAEAV__crt_cached_ptd_host@@@Z 0000000140047234 f i libucrt:output.obj
 0001:000462f0       ??$write_multiple_characters@V?$string_output_adapter@D@__crt_stdio_output@@D@__crt_stdio_output@@YAXAEBV?$string_output_adapter@D@0@DHQEAHAEAV__crt_cached_ptd_host@@@Z 00000001400472f0 f i libucrt:output.obj
 0001:00046384       ??$write_multiple_characters@V?$string_output_adapter@_W@__crt_stdio_output@@D@__crt_stdio_output@@YAXAEBV?$string_output_adapter@_W@0@DHQEAHAEAV__crt_cached_ptd_host@@@Z 0000000140047384 f i libucrt:output.obj
 0001:000465b0       ??0?$c_string_character_source@D@__crt_strtox@@QEAA@QEBDQEAPEBD@Z 00000001400475b0 f i libucrt:output.obj
 0001:000465c8       ??0?$c_string_character_source@_W@__crt_strtox@@QEAA@QEB_WQEAPEB_W@Z 00000001400475c8 f i libucrt:output.obj
 0001:000465e0       ??0?$common_data@D@__crt_stdio_output@@IEAA@AEAV__crt_cached_ptd_host@@@Z 00000001400475e0 f i libucrt:output.obj
 0001:00046628       ??0?$common_data@_W@__crt_stdio_output@@IEAA@AEAV__crt_cached_ptd_host@@@Z 0000000140047628 f i libucrt:output.obj
 0001:00046674       ??0?$output_adapter_data@DV?$stream_output_adapter@D@__crt_stdio_output@@@__crt_stdio_output@@IEAA@AEBV?$stream_output_adapter@D@1@_KQEBDAEAV__crt_cached_ptd_host@@QEAD@Z 0000000140047674 f i libucrt:output.obj
 0001:000466ec       ??0?$output_adapter_data@DV?$string_output_adapter@D@__crt_stdio_output@@@__crt_stdio_output@@IEAA@AEBV?$string_output_adapter@D@1@_KQEBDAEAV__crt_cached_ptd_host@@QEAD@Z 00000001400476ec f i libucrt:output.obj
 0001:00046764       ??0?$output_adapter_data@_WV?$stream_output_adapter@_W@__crt_stdio_output@@@__crt_stdio_output@@IEAA@AEBV?$stream_output_adapter@_W@1@_KQEB_WAEAV__crt_cached_ptd_host@@QEAD@Z 0000000140047764 f i libucrt:output.obj
 0001:000467e4       ??0?$output_adapter_data@_WV?$string_output_adapter@_W@__crt_stdio_output@@@__crt_stdio_output@@IEAA@AEBV?$string_output_adapter@_W@1@_KQEB_WAEAV__crt_cached_ptd_host@@QEAD@Z 00000001400477e4 f i libucrt:output.obj
 0001:00046864       ??0?$output_processor@DV?$stream_output_adapter@D@__crt_stdio_output@@V?$format_validation_base@DV?$stream_output_adapter@D@__crt_stdio_output@@@2@@__crt_stdio_output@@QEAA@AEBV?$stream_output_adapter@D@1@_KQEBDAEAV__crt_cached_ptd_host@@QEAD@Z 0000000140047864 f i libucrt:output.obj
 0001:000468e4       ??0?$output_processor@DV?$stream_output_adapter@D@__crt_stdio_output@@V?$positional_parameter_base@DV?$stream_output_adapter@D@__crt_stdio_output@@@2@@__crt_stdio_output@@QEAA@AEBV?$stream_output_adapter@D@1@_KQEBDAEAV__crt_cached_ptd_host@@QEAD@Z 00000001400478e4 f i libucrt:output.obj
 0001:0004698c       ??0?$output_processor@DV?$stream_output_adapter@D@__crt_stdio_output@@V?$standard_base@DV?$stream_output_adapter@D@__crt_stdio_output@@@2@@__crt_stdio_output@@QEAA@AEBV?$stream_output_adapter@D@1@_KQEBDAEAV__crt_cached_ptd_host@@QEAD@Z 000000014004798c f i libucrt:output.obj
 0001:00046a0c       ??0?$output_processor@DV?$string_output_adapter@D@__crt_stdio_output@@V?$format_validation_base@DV?$string_output_adapter@D@__crt_stdio_output@@@2@@__crt_stdio_output@@QEAA@AEBV?$string_output_adapter@D@1@_KQEBDAEAV__crt_cached_ptd_host@@QEAD@Z 0000000140047a0c f i libucrt:output.obj
 0001:00046a8c       ??0?$output_processor@DV?$string_output_adapter@D@__crt_stdio_output@@V?$positional_parameter_base@DV?$string_output_adapter@D@__crt_stdio_output@@@2@@__crt_stdio_output@@QEAA@AEBV?$string_output_adapter@D@1@_KQEBDAEAV__crt_cached_ptd_host@@QEAD@Z 0000000140047a8c f i libucrt:output.obj
 0001:00046b34       ??0?$output_processor@DV?$string_output_adapter@D@__crt_stdio_output@@V?$standard_base@DV?$string_output_adapter@D@__crt_stdio_output@@@2@@__crt_stdio_output@@QEAA@AEBV?$string_output_adapter@D@1@_KQEBDAEAV__crt_cached_ptd_host@@QEAD@Z 0000000140047b34 f i libucrt:output.obj
 0001:00046bb4       ??0?$output_processor@_WV?$stream_output_adapter@_W@__crt_stdio_output@@V?$format_validation_base@_WV?$stream_output_adapter@_W@__crt_stdio_output@@@2@@__crt_stdio_output@@QEAA@AEBV?$stream_output_adapter@_W@1@_KQEB_WAEAV__crt_cached_ptd_host@@QEAD@Z 0000000140047bb4 f i libucrt:output.obj
 0001:00046c3c       ??0?$output_processor@_WV?$stream_output_adapter@_W@__crt_stdio_output@@V?$positional_parameter_base@_WV?$stream_output_adapter@_W@__crt_stdio_output@@@2@@__crt_stdio_output@@QEAA@AEBV?$stream_output_adapter@_W@1@_KQEB_WAEAV__crt_cached_ptd_host@@QEAD@Z 0000000140047c3c f i libucrt:output.obj
 0001:00046ce8       ??0?$output_processor@_WV?$stream_output_adapter@_W@__crt_stdio_output@@V?$standard_base@_WV?$stream_output_adapter@_W@__crt_stdio_output@@@2@@__crt_stdio_output@@QEAA@AEBV?$stream_output_adapter@_W@1@_KQEB_WAEAV__crt_cached_ptd_host@@QEAD@Z 0000000140047ce8 f i libucrt:output.obj
 0001:00046d70       ??0?$output_processor@_WV?$string_output_adapter@_W@__crt_stdio_output@@V?$format_validation_base@_WV?$string_output_adapter@_W@__crt_stdio_output@@@2@@__crt_stdio_output@@QEAA@AEBV?$string_output_adapter@_W@1@_KQEB_WAEAV__crt_cached_ptd_host@@QEAD@Z 0000000140047d70 f i libucrt:output.obj
 0001:00046df8       ??0?$output_processor@_WV?$string_output_adapter@_W@__crt_stdio_output@@V?$positional_parameter_base@_WV?$string_output_adapter@_W@__crt_stdio_output@@@2@@__crt_stdio_output@@QEAA@AEBV?$string_output_adapter@_W@1@_KQEB_WAEAV__crt_cached_ptd_host@@QEAD@Z 0000000140047df8 f i libucrt:output.obj
 0001:00046ea4       ??0?$output_processor@_WV?$string_output_adapter@_W@__crt_stdio_output@@V?$standard_base@_WV?$string_output_adapter@_W@__crt_stdio_output@@@2@@__crt_stdio_output@@QEAA@AEBV?$string_output_adapter@_W@1@_KQEB_WAEAV__crt_cached_ptd_host@@QEAD@Z 0000000140047ea4 f i libucrt:output.obj
 0001:00046f2c       ??0?$stream_output_adapter@D@__crt_stdio_output@@QEAA@QEAU_iobuf@@@Z 0000000140047f2c f i libucrt:output.obj
 0001:00046f34       ??0?$stream_output_adapter@_W@__crt_stdio_output@@QEAA@QEAU_iobuf@@@Z 0000000140047f34 f i libucrt:output.obj
 0001:00046f3c       ??0?$string_output_adapter@D@__crt_stdio_output@@QEAA@QEAU?$string_output_adapter_context@D@1@@Z 0000000140047f3c f i libucrt:output.obj
 0001:00046f44       ??0?$string_output_adapter@_W@__crt_stdio_output@@QEAA@QEAU?$string_output_adapter_context@_W@1@@Z 0000000140047f44 f i libucrt:output.obj
 0001:00046f4c       ??0__acrt_stdio_temporary_buffering_guard@@QEAA@QEAU_iobuf@@AEAV__crt_cached_ptd_host@@@Z 0000000140047f4c f i libucrt:output.obj
 0001:00046f7c       ??0__crt_stdio_stream@@QEAA@QEAU_iobuf@@@Z 0000000140047f7c f i libucrt:output.obj
 0001:00046f84       ??0formatting_buffer@__crt_stdio_output@@QEAA@XZ 0000000140047f84 f i libucrt:output.obj
 0001:00046fa0       ??0guard@?$cached@H@__crt_cached_ptd_host@@QEAA@AEAU12@@Z 0000000140047fa0 f i libucrt:output.obj
 0001:00046fb8       ??1?$c_string_character_source@D@__crt_strtox@@QEAA@XZ 0000000140047fb8 f i libucrt:output.obj
 0001:00046fcc       ??1?$c_string_character_source@_W@__crt_strtox@@QEAA@XZ 0000000140047fcc f i libucrt:output.obj
 0001:00046fe0       ??1?$common_data@D@__crt_stdio_output@@QEAA@XZ 0000000140047fe0 f i libucrt:output.obj
 0001:0004700c       ??1?$common_data@_W@__crt_stdio_output@@QEAA@XZ 000000014004800c f i libucrt:output.obj
 0001:00047038       ??1?$format_validation_base@DV?$stream_output_adapter@D@__crt_stdio_output@@@__crt_stdio_output@@QEAA@XZ 0000000140048038 f i libucrt:output.obj
 0001:00047064       ??1?$format_validation_base@DV?$string_output_adapter@D@__crt_stdio_output@@@__crt_stdio_output@@QEAA@XZ 0000000140048064 f i libucrt:output.obj
 0001:00047090       ??1?$format_validation_base@_WV?$stream_output_adapter@_W@__crt_stdio_output@@@__crt_stdio_output@@QEAA@XZ 0000000140048090 f i libucrt:output.obj
 0001:000470bc       ??1?$format_validation_base@_WV?$string_output_adapter@_W@__crt_stdio_output@@@__crt_stdio_output@@QEAA@XZ 00000001400480bc f i libucrt:output.obj
 0001:000470e8       ??1?$output_adapter_data@DV?$stream_output_adapter@D@__crt_stdio_output@@@__crt_stdio_output@@QEAA@XZ 00000001400480e8 f i libucrt:output.obj
 0001:00047114       ??1?$output_adapter_data@DV?$string_output_adapter@D@__crt_stdio_output@@@__crt_stdio_output@@QEAA@XZ 0000000140048114 f i libucrt:output.obj
 0001:00047140       ??1?$output_adapter_data@_WV?$stream_output_adapter@_W@__crt_stdio_output@@@__crt_stdio_output@@QEAA@XZ 0000000140048140 f i libucrt:output.obj
 0001:0004716c       ??1?$output_adapter_data@_WV?$string_output_adapter@_W@__crt_stdio_output@@@__crt_stdio_output@@QEAA@XZ 000000014004816c f i libucrt:output.obj
 0001:00047198       ??1?$output_processor@DV?$stream_output_adapter@D@__crt_stdio_output@@V?$format_validation_base@DV?$stream_output_adapter@D@__crt_stdio_output@@@2@@__crt_stdio_output@@QEAA@XZ 0000000140048198 f i libucrt:output.obj
 0001:000471c4       ??1?$output_processor@DV?$stream_output_adapter@D@__crt_stdio_output@@V?$positional_parameter_base@DV?$stream_output_adapter@D@__crt_stdio_output@@@2@@__crt_stdio_output@@QEAA@XZ 00000001400481c4 f i libucrt:output.obj
 0001:000471f0       ??1?$output_processor@DV?$stream_output_adapter@D@__crt_stdio_output@@V?$standard_base@DV?$stream_output_adapter@D@__crt_stdio_output@@@2@@__crt_stdio_output@@QEAA@XZ 00000001400481f0 f i libucrt:output.obj
 0001:0004721c       ??1?$output_processor@DV?$string_output_adapter@D@__crt_stdio_output@@V?$format_validation_base@DV?$string_output_adapter@D@__crt_stdio_output@@@2@@__crt_stdio_output@@QEAA@XZ 000000014004821c f i libucrt:output.obj
 0001:00047248       ??1?$output_processor@DV?$string_output_adapter@D@__crt_stdio_output@@V?$positional_parameter_base@DV?$string_output_adapter@D@__crt_stdio_output@@@2@@__crt_stdio_output@@QEAA@XZ 0000000140048248 f i libucrt:output.obj
 0001:00047274       ??1?$output_processor@DV?$string_output_adapter@D@__crt_stdio_output@@V?$standard_base@DV?$string_output_adapter@D@__crt_stdio_output@@@2@@__crt_stdio_output@@QEAA@XZ 0000000140048274 f i libucrt:output.obj
 0001:000472a0       ??1?$output_processor@_WV?$stream_output_adapter@_W@__crt_stdio_output@@V?$format_validation_base@_WV?$stream_output_adapter@_W@__crt_stdio_output@@@2@@__crt_stdio_output@@QEAA@XZ 00000001400482a0 f i libucrt:output.obj
 0001:000472cc       ??1?$output_processor@_WV?$stream_output_adapter@_W@__crt_stdio_output@@V?$positional_parameter_base@_WV?$stream_output_adapter@_W@__crt_stdio_output@@@2@@__crt_stdio_output@@QEAA@XZ 00000001400482cc f i libucrt:output.obj
 0001:000472f8       ??1?$output_processor@_WV?$stream_output_adapter@_W@__crt_stdio_output@@V?$standard_base@_WV?$stream_output_adapter@_W@__crt_stdio_output@@@2@@__crt_stdio_output@@QEAA@XZ 00000001400482f8 f i libucrt:output.obj
 0001:00047324       ??1?$output_processor@_WV?$string_output_adapter@_W@__crt_stdio_output@@V?$format_validation_base@_WV?$string_output_adapter@_W@__crt_stdio_output@@@2@@__crt_stdio_output@@QEAA@XZ 0000000140048324 f i libucrt:output.obj
 0001:00047350       ??1?$output_processor@_WV?$string_output_adapter@_W@__crt_stdio_output@@V?$positional_parameter_base@_WV?$string_output_adapter@_W@__crt_stdio_output@@@2@@__crt_stdio_output@@QEAA@XZ 0000000140048350 f i libucrt:output.obj
 0001:0004737c       ??1?$output_processor@_WV?$string_output_adapter@_W@__crt_stdio_output@@V?$standard_base@_WV?$string_output_adapter@_W@__crt_stdio_output@@@2@@__crt_stdio_output@@QEAA@XZ 000000014004837c f i libucrt:output.obj
 0001:000473a8       ??1?$positional_parameter_base@DV?$stream_output_adapter@D@__crt_stdio_output@@@__crt_stdio_output@@QEAA@XZ 00000001400483a8 f i libucrt:output.obj
 0001:000473d4       ??1?$positional_parameter_base@DV?$string_output_adapter@D@__crt_stdio_output@@@__crt_stdio_output@@QEAA@XZ 00000001400483d4 f i libucrt:output.obj
 0001:00047400       ??1?$positional_parameter_base@_WV?$stream_output_adapter@_W@__crt_stdio_output@@@__crt_stdio_output@@QEAA@XZ 0000000140048400 f i libucrt:output.obj
 0001:0004742c       ??1?$positional_parameter_base@_WV?$string_output_adapter@_W@__crt_stdio_output@@@__crt_stdio_output@@QEAA@XZ 000000014004842c f i libucrt:output.obj
 0001:00047458       ??1?$standard_base@DV?$stream_output_adapter@D@__crt_stdio_output@@@__crt_stdio_output@@QEAA@XZ 0000000140048458 f i libucrt:output.obj
 0001:00047484       ??1?$standard_base@DV?$string_output_adapter@D@__crt_stdio_output@@@__crt_stdio_output@@QEAA@XZ 0000000140048484 f i libucrt:output.obj
 0001:000474b0       ??1?$standard_base@_WV?$stream_output_adapter@_W@__crt_stdio_output@@@__crt_stdio_output@@QEAA@XZ 00000001400484b0 f i libucrt:output.obj
 0001:000474dc       ??1?$standard_base@_WV?$string_output_adapter@_W@__crt_stdio_output@@@__crt_stdio_output@@QEAA@XZ 00000001400484dc f i libucrt:output.obj
 0001:00047508       ??1__acrt_stdio_temporary_buffering_guard@@QEAA@XZ 0000000140048508 f i libucrt:output.obj
 0001:0004751c       ??1formatting_buffer@__crt_stdio_output@@QEAA@XZ 000000014004851c f i libucrt:output.obj
 0001:00047548       ??1guard@?$cached@H@__crt_cached_ptd_host@@QEAA@XZ 0000000140048548 f i libucrt:output.obj
 0001:00047560       ??4?$__crt_unique_heap_ptr@DU__crt_internal_free_policy@@@@QEAAAEAV0@$$QEAV0@@Z 0000000140048560 f i libucrt:output.obj
 0001:000475a4       ??A?$spectre_mitigated_lookup_table@Ustate_transition_pair@__crt_stdio_output@@$0IA@@__crt_stdio_output@@QEBAAEBUstate_transition_pair@1@_K@Z 00000001400485a4 f i libucrt:output.obj
 0001:000475b0       ??C__crt_stdio_stream@@QEBAPEAU__crt_stdio_stream_data@@XZ 00000001400485b0 f i libucrt:output.obj
 0001:00047ee4       ?__crt_interlocked_read_32@@YAHPEDH@Z 0000000140048ee4 f i libucrt:output.obj
 0001:00047ee8       ?adjust_hexit@?$output_processor@DV?$stream_output_adapter@D@__crt_stdio_output@@V?$format_validation_base@DV?$stream_output_adapter@D@__crt_stdio_output@@@2@@__crt_stdio_output@@CADH_N@Z 0000000140048ee8 f i libucrt:output.obj
 0001:00047ef8       ?adjust_hexit@?$output_processor@DV?$stream_output_adapter@D@__crt_stdio_output@@V?$positional_parameter_base@DV?$stream_output_adapter@D@__crt_stdio_output@@@2@@__crt_stdio_output@@CADH_N@Z 0000000140048ef8 f i libucrt:output.obj
 0001:00047f08       ?adjust_hexit@?$output_processor@DV?$stream_output_adapter@D@__crt_stdio_output@@V?$standard_base@DV?$stream_output_adapter@D@__crt_stdio_output@@@2@@__crt_stdio_output@@CADH_N@Z 0000000140048f08 f i libucrt:output.obj
 0001:00047f18       ?adjust_hexit@?$output_processor@DV?$string_output_adapter@D@__crt_stdio_output@@V?$format_validation_base@DV?$string_output_adapter@D@__crt_stdio_output@@@2@@__crt_stdio_output@@CADH_N@Z 0000000140048f18 f i libucrt:output.obj
 0001:00047f28       ?adjust_hexit@?$output_processor@DV?$string_output_adapter@D@__crt_stdio_output@@V?$positional_parameter_base@DV?$string_output_adapter@D@__crt_stdio_output@@@2@@__crt_stdio_output@@CADH_N@Z 0000000140048f28 f i libucrt:output.obj
 0001:00047f38       ?adjust_hexit@?$output_processor@DV?$string_output_adapter@D@__crt_stdio_output@@V?$standard_base@DV?$string_output_adapter@D@__crt_stdio_output@@@2@@__crt_stdio_output@@CADH_N@Z 0000000140048f38 f i libucrt:output.obj
 0001:00047f48       ?adjust_hexit@?$output_processor@_WV?$stream_output_adapter@_W@__crt_stdio_output@@V?$format_validation_base@_WV?$stream_output_adapter@_W@__crt_stdio_output@@@2@@__crt_stdio_output@@CADH_N@Z 0000000140048f48 f i libucrt:output.obj
 0001:00047f58       ?adjust_hexit@?$output_processor@_WV?$stream_output_adapter@_W@__crt_stdio_output@@V?$positional_parameter_base@_WV?$stream_output_adapter@_W@__crt_stdio_output@@@2@@__crt_stdio_output@@CADH_N@Z 0000000140048f58 f i libucrt:output.obj
 0001:00047f68       ?adjust_hexit@?$output_processor@_WV?$stream_output_adapter@_W@__crt_stdio_output@@V?$standard_base@_WV?$stream_output_adapter@_W@__crt_stdio_output@@@2@@__crt_stdio_output@@CADH_N@Z 0000000140048f68 f i libucrt:output.obj
 0001:00047f78       ?adjust_hexit@?$output_processor@_WV?$string_output_adapter@_W@__crt_stdio_output@@V?$format_validation_base@_WV?$string_output_adapter@_W@__crt_stdio_output@@@2@@__crt_stdio_output@@CADH_N@Z 0000000140048f78 f i libucrt:output.obj
 0001:00047f88       ?adjust_hexit@?$output_processor@_WV?$string_output_adapter@_W@__crt_stdio_output@@V?$positional_parameter_base@_WV?$string_output_adapter@_W@__crt_stdio_output@@@2@@__crt_stdio_output@@CADH_N@Z 0000000140048f88 f i libucrt:output.obj
 0001:00047f98       ?adjust_hexit@?$output_processor@_WV?$string_output_adapter@_W@__crt_stdio_output@@V?$standard_base@_WV?$string_output_adapter@_W@__crt_stdio_output@@@2@@__crt_stdio_output@@CADH_N@Z 0000000140048f98 f i libucrt:output.obj
 0001:00047fa8       ?advance_to_next_pass@?$positional_parameter_base@DV?$stream_output_adapter@D@__crt_stdio_output@@@__crt_stdio_output@@IEAA_NXZ 0000000140048fa8 f i libucrt:output.obj
 0001:00048010       ?advance_to_next_pass@?$positional_parameter_base@DV?$string_output_adapter@D@__crt_stdio_output@@@__crt_stdio_output@@IEAA_NXZ 0000000140049010 f i libucrt:output.obj
 0001:00048078       ?advance_to_next_pass@?$positional_parameter_base@_WV?$stream_output_adapter@_W@__crt_stdio_output@@@__crt_stdio_output@@IEAA_NXZ 0000000140049078 f i libucrt:output.obj
 0001:000480e0       ?advance_to_next_pass@?$positional_parameter_base@_WV?$string_output_adapter@_W@__crt_stdio_output@@@__crt_stdio_output@@IEAA_NXZ 00000001400490e0 f i libucrt:output.obj
 0001:00048148       ?advance_to_next_pass@?$standard_base@DV?$stream_output_adapter@D@__crt_stdio_output@@@__crt_stdio_output@@IEAA_NXZ 0000000140049148 f i libucrt:output.obj
 0001:00048160       ?advance_to_next_pass@?$standard_base@DV?$string_output_adapter@D@__crt_stdio_output@@@__crt_stdio_output@@IEAA_NXZ 0000000140049160 f i libucrt:output.obj
 0001:00048178       ?advance_to_next_pass@?$standard_base@_WV?$stream_output_adapter@_W@__crt_stdio_output@@@__crt_stdio_output@@IEAA_NXZ 0000000140049178 f i libucrt:output.obj
 0001:00048190       ?advance_to_next_pass@?$standard_base@_WV?$string_output_adapter@_W@__crt_stdio_output@@@__crt_stdio_output@@IEAA_NXZ 0000000140049190 f i libucrt:output.obj
 0001:000481a8       ?check@?$cached@H@__crt_cached_ptd_host@@QEBA_NH@Z 00000001400491a8 f i libucrt:output.obj
 0001:000481bc       ?create_guard@?$cached@H@__crt_cached_ptd_host@@QEAA?AVguard@12@XZ 00000001400491bc f i libucrt:output.obj
 0001:000481d4       ?crop_zeroes@__crt_stdio_output@@YAXPEADQEAU__crt_locale_pointers@@@Z 00000001400491d4 f i libucrt:output.obj
 0001:00048258       ?disable@guard@?$cached@H@__crt_cached_ptd_host@@QEAAXXZ 0000000140049258 f i libucrt:output.obj
 0001:00048260       ?enable@guard@?$cached@H@__crt_cached_ptd_host@@QEAAXXZ 0000000140049260 f i libucrt:output.obj
 0001:00048268       ?find_next_state@?$output_processor@DV?$stream_output_adapter@D@__crt_stdio_output@@V?$format_validation_base@DV?$stream_output_adapter@D@__crt_stdio_output@@@2@@__crt_stdio_output@@AEBA?AW4state@2@DW432@@Z 0000000140049268 f i libucrt:output.obj
 0001:000482ac       ?find_next_state@?$output_processor@DV?$stream_output_adapter@D@__crt_stdio_output@@V?$positional_parameter_base@DV?$stream_output_adapter@D@__crt_stdio_output@@@2@@__crt_stdio_output@@AEBA?AW4state@2@DW432@@Z 00000001400492ac f i libucrt:output.obj
 0001:000482f0       ?find_next_state@?$output_processor@DV?$stream_output_adapter@D@__crt_stdio_output@@V?$standard_base@DV?$stream_output_adapter@D@__crt_stdio_output@@@2@@__crt_stdio_output@@AEBA?AW4state@2@DW432@@Z 00000001400492f0 f i libucrt:output.obj
 0001:00048334       ?find_next_state@?$output_processor@DV?$string_output_adapter@D@__crt_stdio_output@@V?$format_validation_base@DV?$string_output_adapter@D@__crt_stdio_output@@@2@@__crt_stdio_output@@AEBA?AW4state@2@DW432@@Z 0000000140049334 f i libucrt:output.obj
 0001:00048378       ?find_next_state@?$output_processor@DV?$string_output_adapter@D@__crt_stdio_output@@V?$positional_parameter_base@DV?$string_output_adapter@D@__crt_stdio_output@@@2@@__crt_stdio_output@@AEBA?AW4state@2@DW432@@Z 0000000140049378 f i libucrt:output.obj
 0001:000483bc       ?find_next_state@?$output_processor@DV?$string_output_adapter@D@__crt_stdio_output@@V?$standard_base@DV?$string_output_adapter@D@__crt_stdio_output@@@2@@__crt_stdio_output@@AEBA?AW4state@2@DW432@@Z 00000001400493bc f i libucrt:output.obj
 0001:00048400       ?find_next_state@?$output_processor@_WV?$stream_output_adapter@_W@__crt_stdio_output@@V?$format_validation_base@_WV?$stream_output_adapter@_W@__crt_stdio_output@@@2@@__crt_stdio_output@@AEBA?AW4state@2@_WW432@@Z 0000000140049400 f i libucrt:output.obj
 0001:00048450       ?find_next_state@?$output_processor@_WV?$stream_output_adapter@_W@__crt_stdio_output@@V?$positional_parameter_base@_WV?$stream_output_adapter@_W@__crt_stdio_output@@@2@@__crt_stdio_output@@AEBA?AW4state@2@_WW432@@Z 0000000140049450 f i libucrt:output.obj
 0001:000484a0       ?find_next_state@?$output_processor@_WV?$stream_output_adapter@_W@__crt_stdio_output@@V?$standard_base@_WV?$stream_output_adapter@_W@__crt_stdio_output@@@2@@__crt_stdio_output@@AEBA?AW4state@2@_WW432@@Z 00000001400494a0 f i libucrt:output.obj
 0001:000484ec       ?find_next_state@?$output_processor@_WV?$string_output_adapter@_W@__crt_stdio_output@@V?$format_validation_base@_WV?$string_output_adapter@_W@__crt_stdio_output@@@2@@__crt_stdio_output@@AEBA?AW4state@2@_WW432@@Z 00000001400494ec f i libucrt:output.obj
 0001:0004853c       ?find_next_state@?$output_processor@_WV?$string_output_adapter@_W@__crt_stdio_output@@V?$positional_parameter_base@_WV?$string_output_adapter@_W@__crt_stdio_output@@@2@@__crt_stdio_output@@AEBA?AW4state@2@_WW432@@Z 000000014004953c f i libucrt:output.obj
 0001:0004858c       ?find_next_state@?$output_processor@_WV?$string_output_adapter@_W@__crt_stdio_output@@V?$standard_base@_WV?$string_output_adapter@_W@__crt_stdio_output@@@2@@__crt_stdio_output@@AEBA?AW4state@2@_WW432@@Z 000000014004958c f i libucrt:output.obj
 0001:000485d8       ?force_decimal_point@__crt_stdio_output@@YAXPEADQEAU__crt_locale_pointers@@@Z 00000001400495d8 f i libucrt:output.obj
 0001:00048650       ?get@?$c_string_character_source@D@__crt_strtox@@QEAADXZ 0000000140049650 f i libucrt:output.obj
 0001:00048660       ?get@?$c_string_character_source@_W@__crt_strtox@@QEAA_WXZ 0000000140049660 f i libucrt:output.obj
 0001:00048680       ?get_errno@__crt_cached_ptd_host@@QEAA@XZ 0000000140049680 f i libucrt:output.obj
 0001:00048688       ?get_flags@__crt_stdio_stream@@QEBAJXZ 0000000140049688 f i libucrt:output.obj
 0001:000486a0       ?get_locale@__crt_cached_ptd_host@@QEAAPEAU__crt_locale_pointers@@XZ 00000001400496a0 f i libucrt:output.obj
 0001:000486d4       ?get_parameter_type@?$positional_parameter_base@DV?$stream_output_adapter@D@__crt_stdio_output@@@__crt_stdio_output@@CA?AW4parameter_type@12@F@Z 00000001400496d4 f i libucrt:output.obj
 0001:000486dc       ?get_parameter_type@?$positional_parameter_base@DV?$stream_output_adapter@D@__crt_stdio_output@@@__crt_stdio_output@@CA?AW4parameter_type@12@G@Z 00000001400496dc f i libucrt:output.obj
 0001:000486e4       ?get_parameter_type@?$positional_parameter_base@DV?$stream_output_adapter@D@__crt_stdio_output@@@__crt_stdio_output@@CA?AW4parameter_type@12@H@Z 00000001400496e4 f i libucrt:output.obj
 0001:000486ec       ?get_parameter_type@?$positional_parameter_base@DV?$stream_output_adapter@D@__crt_stdio_output@@@__crt_stdio_output@@CA?AW4parameter_type@12@I@Z 00000001400496ec f i libucrt:output.obj
 0001:000486f4       ?get_parameter_type@?$positional_parameter_base@DV?$stream_output_adapter@D@__crt_stdio_output@@@__crt_stdio_output@@CA?AW4parameter_type@12@U_CRT_DOUBLE@@@Z 00000001400496f4 f i libucrt:output.obj
 0001:000486fc       ?get_parameter_type@?$positional_parameter_base@DV?$stream_output_adapter@D@__crt_stdio_output@@@__crt_stdio_output@@CA?AW4parameter_type@12@_J@Z 00000001400496fc f i libucrt:output.obj
 0001:00048704       ?get_parameter_type@?$positional_parameter_base@DV?$stream_output_adapter@D@__crt_stdio_output@@@__crt_stdio_output@@CA?AW4parameter_type@12@_K@Z 0000000140049704 f i libucrt:output.obj
 0001:0004870c       ?get_parameter_type@?$positional_parameter_base@DV?$stream_output_adapter@D@__crt_stdio_output@@@__crt_stdio_output@@CA?AW4parameter_type@12@_W@Z 000000014004970c f i libucrt:output.obj
 0001:00048714       ?get_parameter_type@?$positional_parameter_base@DV?$string_output_adapter@D@__crt_stdio_output@@@__crt_stdio_output@@CA?AW4parameter_type@12@F@Z 0000000140049714 f i libucrt:output.obj
 0001:0004871c       ?get_parameter_type@?$positional_parameter_base@DV?$string_output_adapter@D@__crt_stdio_output@@@__crt_stdio_output@@CA?AW4parameter_type@12@G@Z 000000014004971c f i libucrt:output.obj
 0001:00048724       ?get_parameter_type@?$positional_parameter_base@DV?$string_output_adapter@D@__crt_stdio_output@@@__crt_stdio_output@@CA?AW4parameter_type@12@H@Z 0000000140049724 f i libucrt:output.obj
 0001:0004872c       ?get_parameter_type@?$positional_parameter_base@DV?$string_output_adapter@D@__crt_stdio_output@@@__crt_stdio_output@@CA?AW4parameter_type@12@I@Z 000000014004972c f i libucrt:output.obj
 0001:00048734       ?get_parameter_type@?$positional_parameter_base@DV?$string_output_adapter@D@__crt_stdio_output@@@__crt_stdio_output@@CA?AW4parameter_type@12@U_CRT_DOUBLE@@@Z 0000000140049734 f i libucrt:output.obj
 0001:0004873c       ?get_parameter_type@?$positional_parameter_base@DV?$string_output_adapter@D@__crt_stdio_output@@@__crt_stdio_output@@CA?AW4parameter_type@12@_J@Z 000000014004973c f i libucrt:output.obj
 0001:00048744       ?get_parameter_type@?$positional_parameter_base@DV?$string_output_adapter@D@__crt_stdio_output@@@__crt_stdio_output@@CA?AW4parameter_type@12@_K@Z 0000000140049744 f i libucrt:output.obj
 0001:0004874c       ?get_parameter_type@?$positional_parameter_base@DV?$string_output_adapter@D@__crt_stdio_output@@@__crt_stdio_output@@CA?AW4parameter_type@12@_W@Z 000000014004974c f i libucrt:output.obj
 0001:00048754       ?get_parameter_type@?$positional_parameter_base@_WV?$stream_output_adapter@_W@__crt_stdio_output@@@__crt_stdio_output@@CA?AW4parameter_type@12@F@Z 0000000140049754 f i libucrt:output.obj
 0001:0004875c       ?get_parameter_type@?$positional_parameter_base@_WV?$stream_output_adapter@_W@__crt_stdio_output@@@__crt_stdio_output@@CA?AW4parameter_type@12@G@Z 000000014004975c f i libucrt:output.obj
 0001:00048764       ?get_parameter_type@?$positional_parameter_base@_WV?$stream_output_adapter@_W@__crt_stdio_output@@@__crt_stdio_output@@CA?AW4parameter_type@12@H@Z 0000000140049764 f i libucrt:output.obj
 0001:0004876c       ?get_parameter_type@?$positional_parameter_base@_WV?$stream_output_adapter@_W@__crt_stdio_output@@@__crt_stdio_output@@CA?AW4parameter_type@12@I@Z 000000014004976c f i libucrt:output.obj
 0001:00048774       ?get_parameter_type@?$positional_parameter_base@_WV?$stream_output_adapter@_W@__crt_stdio_output@@@__crt_stdio_output@@CA?AW4parameter_type@12@U_CRT_DOUBLE@@@Z 0000000140049774 f i libucrt:output.obj
 0001:0004877c       ?get_parameter_type@?$positional_parameter_base@_WV?$stream_output_adapter@_W@__crt_stdio_output@@@__crt_stdio_output@@CA?AW4parameter_type@12@_J@Z 000000014004977c f i libucrt:output.obj
 0001:00048784       ?get_parameter_type@?$positional_parameter_base@_WV?$stream_output_adapter@_W@__crt_stdio_output@@@__crt_stdio_output@@CA?AW4parameter_type@12@_K@Z 0000000140049784 f i libucrt:output.obj
 0001:0004878c       ?get_parameter_type@?$positional_parameter_base@_WV?$stream_output_adapter@_W@__crt_stdio_output@@@__crt_stdio_output@@CA?AW4parameter_type@12@_W@Z 000000014004978c f i libucrt:output.obj
 0001:00048794       ?get_parameter_type@?$positional_parameter_base@_WV?$string_output_adapter@_W@__crt_stdio_output@@@__crt_stdio_output@@CA?AW4parameter_type@12@F@Z 0000000140049794 f i libucrt:output.obj
 0001:0004879c       ?get_parameter_type@?$positional_parameter_base@_WV?$string_output_adapter@_W@__crt_stdio_output@@@__crt_stdio_output@@CA?AW4parameter_type@12@G@Z 000000014004979c f i libucrt:output.obj
 0001:000487a4       ?get_parameter_type@?$positional_parameter_base@_WV?$string_output_adapter@_W@__crt_stdio_output@@@__crt_stdio_output@@CA?AW4parameter_type@12@H@Z 00000001400497a4 f i libucrt:output.obj
 0001:000487ac       ?get_parameter_type@?$positional_parameter_base@_WV?$string_output_adapter@_W@__crt_stdio_output@@@__crt_stdio_output@@CA?AW4parameter_type@12@I@Z 00000001400497ac f i libucrt:output.obj
 0001:000487b4       ?get_parameter_type@?$positional_parameter_base@_WV?$string_output_adapter@_W@__crt_stdio_output@@@__crt_stdio_output@@CA?AW4parameter_type@12@U_CRT_DOUBLE@@@Z 00000001400497b4 f i libucrt:output.obj
 0001:000487bc       ?get_parameter_type@?$positional_parameter_base@_WV?$string_output_adapter@_W@__crt_stdio_output@@@__crt_stdio_output@@CA?AW4parameter_type@12@_J@Z 00000001400497bc f i libucrt:output.obj
 0001:000487c4       ?get_parameter_type@?$positional_parameter_base@_WV?$string_output_adapter@_W@__crt_stdio_output@@@__crt_stdio_output@@CA?AW4parameter_type@12@_K@Z 00000001400497c4 f i libucrt:output.obj
 0001:000487cc       ?get_parameter_type@?$positional_parameter_base@_WV?$string_output_adapter@_W@__crt_stdio_output@@@__crt_stdio_output@@CA?AW4parameter_type@12@_W@Z 00000001400497cc f i libucrt:output.obj
 0001:000487d4       ?has_flag@?$output_processor@DV?$stream_output_adapter@D@__crt_stdio_output@@V?$format_validation_base@DV?$stream_output_adapter@D@__crt_stdio_output@@@2@@__crt_stdio_output@@AEBA_NI@Z 00000001400497d4 f i libucrt:output.obj
 0001:000487dc       ?has_flag@?$output_processor@DV?$stream_output_adapter@D@__crt_stdio_output@@V?$positional_parameter_base@DV?$stream_output_adapter@D@__crt_stdio_output@@@2@@__crt_stdio_output@@AEBA_NI@Z 00000001400497dc f i libucrt:output.obj
 0001:000487e4       ?has_flag@?$output_processor@DV?$stream_output_adapter@D@__crt_stdio_output@@V?$standard_base@DV?$stream_output_adapter@D@__crt_stdio_output@@@2@@__crt_stdio_output@@AEBA_NI@Z 00000001400497e4 f i libucrt:output.obj
 0001:000487ec       ?has_flag@?$output_processor@DV?$string_output_adapter@D@__crt_stdio_output@@V?$format_validation_base@DV?$string_output_adapter@D@__crt_stdio_output@@@2@@__crt_stdio_output@@AEBA_NI@Z 00000001400497ec f i libucrt:output.obj
 0001:000487f4       ?has_flag@?$output_processor@DV?$string_output_adapter@D@__crt_stdio_output@@V?$positional_parameter_base@DV?$string_output_adapter@D@__crt_stdio_output@@@2@@__crt_stdio_output@@AEBA_NI@Z 00000001400497f4 f i libucrt:output.obj
 0001:000487fc       ?has_flag@?$output_processor@DV?$string_output_adapter@D@__crt_stdio_output@@V?$standard_base@DV?$string_output_adapter@D@__crt_stdio_output@@@2@@__crt_stdio_output@@AEBA_NI@Z 00000001400497fc f i libucrt:output.obj
 0001:00048804       ?has_flag@?$output_processor@_WV?$stream_output_adapter@_W@__crt_stdio_output@@V?$format_validation_base@_WV?$stream_output_adapter@_W@__crt_stdio_output@@@2@@__crt_stdio_output@@AEBA_NI@Z 0000000140049804 f i libucrt:output.obj
 0001:0004880c       ?has_flag@?$output_processor@_WV?$stream_output_adapter@_W@__crt_stdio_output@@V?$positional_parameter_base@_WV?$stream_output_adapter@_W@__crt_stdio_output@@@2@@__crt_stdio_output@@AEBA_NI@Z 000000014004980c f i libucrt:output.obj
 0001:00048814       ?has_flag@?$output_processor@_WV?$stream_output_adapter@_W@__crt_stdio_output@@V?$standard_base@_WV?$stream_output_adapter@_W@__crt_stdio_output@@@2@@__crt_stdio_output@@AEBA_NI@Z 0000000140049814 f i libucrt:output.obj
 0001:0004881c       ?has_flag@?$output_processor@_WV?$string_output_adapter@_W@__crt_stdio_output@@V?$format_validation_base@_WV?$string_output_adapter@_W@__crt_stdio_output@@@2@@__crt_stdio_output@@AEBA_NI@Z 000000014004981c f i libucrt:output.obj
 0001:00048824       ?has_flag@?$output_processor@_WV?$string_output_adapter@_W@__crt_stdio_output@@V?$positional_parameter_base@_WV?$string_output_adapter@_W@__crt_stdio_output@@@2@@__crt_stdio_output@@AEBA_NI@Z 0000000140049824 f i libucrt:output.obj
 0001:0004882c       ?has_flag@?$output_processor@_WV?$string_output_adapter@_W@__crt_stdio_output@@V?$standard_base@_WV?$string_output_adapter@_W@__crt_stdio_output@@@2@@__crt_stdio_output@@AEBA_NI@Z 000000014004982c f i libucrt:output.obj
 0001:00048834       ?is_positional_parameter_reappearance_consistent@?$positional_parameter_base@DV?$stream_output_adapter@D@__crt_stdio_output@@@__crt_stdio_output@@AEAA_NAEBUparameter_data@12@W4parameter_type@12@DW4length_modifier@2@@Z 0000000140049834 f i libucrt:output.obj
 0001:00048af8       ?is_positional_parameter_reappearance_consistent@?$positional_parameter_base@DV?$string_output_adapter@D@__crt_stdio_output@@@__crt_stdio_output@@AEAA_NAEBUparameter_data@12@W4parameter_type@12@DW4length_modifier@2@@Z 0000000140049af8 f i libucrt:output.obj
 0001:00048dbc       ?is_positional_parameter_reappearance_consistent@?$positional_parameter_base@_WV?$stream_output_adapter@_W@__crt_stdio_output@@@__crt_stdio_output@@AEAA_NAEBUparameter_data@12@W4parameter_type@12@_WW4length_modifier@2@@Z 0000000140049dbc f i libucrt:output.obj
 0001:00049040       ?is_positional_parameter_reappearance_consistent@?$positional_parameter_base@_WV?$string_output_adapter@_W@__crt_stdio_output@@@__crt_stdio_output@@AEAA_NAEBUparameter_data@12@W4parameter_type@12@_WW4length_modifier@2@@Z 000000014004a040 f i libucrt:output.obj
 0001:000492c4       ?is_string_backed@__crt_stdio_stream@@QEBA_NXZ 000000014004a2c4 f i libucrt:output.obj
 0001:000492d4       ?maximum_signed_value@__crt_strtox@@YAJK@Z 000000014004a2d4 f i libucrt:output.obj
 0001:000492dc       ?minimum_signed_value@__crt_strtox@@YAJK@Z 000000014004a2dc f i libucrt:output.obj
 0001:000492e4       ?narrow_null_string@?$output_processor@DV?$stream_output_adapter@D@__crt_stdio_output@@V?$format_validation_base@DV?$stream_output_adapter@D@__crt_stdio_output@@@2@@__crt_stdio_output@@CAPEADXZ 000000014004a2e4 f i libucrt:output.obj
 0001:000492f0       ?narrow_null_string@?$output_processor@DV?$stream_output_adapter@D@__crt_stdio_output@@V?$positional_parameter_base@DV?$stream_output_adapter@D@__crt_stdio_output@@@2@@__crt_stdio_output@@CAPEADXZ 000000014004a2f0 f i libucrt:output.obj
 0001:000492fc       ?narrow_null_string@?$output_processor@DV?$stream_output_adapter@D@__crt_stdio_output@@V?$standard_base@DV?$stream_output_adapter@D@__crt_stdio_output@@@2@@__crt_stdio_output@@CAPEADXZ 000000014004a2fc f i libucrt:output.obj
 0001:00049308       ?narrow_null_string@?$output_processor@DV?$string_output_adapter@D@__crt_stdio_output@@V?$format_validation_base@DV?$string_output_adapter@D@__crt_stdio_output@@@2@@__crt_stdio_output@@CAPEADXZ 000000014004a308 f i libucrt:output.obj
 0001:00049314       ?narrow_null_string@?$output_processor@DV?$string_output_adapter@D@__crt_stdio_output@@V?$positional_parameter_base@DV?$string_output_adapter@D@__crt_stdio_output@@@2@@__crt_stdio_output@@CAPEADXZ 000000014004a314 f i libucrt:output.obj
 0001:00049320       ?narrow_null_string@?$output_processor@DV?$string_output_adapter@D@__crt_stdio_output@@V?$standard_base@DV?$string_output_adapter@D@__crt_stdio_output@@@2@@__crt_stdio_output@@CAPEADXZ 000000014004a320 f i libucrt:output.obj
 0001:0004932c       ?narrow_null_string@?$output_processor@_WV?$stream_output_adapter@_W@__crt_stdio_output@@V?$format_validation_base@_WV?$stream_output_adapter@_W@__crt_stdio_output@@@2@@__crt_stdio_output@@CAPEADXZ 000000014004a32c f i libucrt:output.obj
 0001:00049338       ?narrow_null_string@?$output_processor@_WV?$stream_output_adapter@_W@__crt_stdio_output@@V?$positional_parameter_base@_WV?$stream_output_adapter@_W@__crt_stdio_output@@@2@@__crt_stdio_output@@CAPEADXZ 000000014004a338 f i libucrt:output.obj
 0001:00049344       ?narrow_null_string@?$output_processor@_WV?$stream_output_adapter@_W@__crt_stdio_output@@V?$standard_base@_WV?$stream_output_adapter@_W@__crt_stdio_output@@@2@@__crt_stdio_output@@CAPEADXZ 000000014004a344 f i libucrt:output.obj
 0001:00049350       ?narrow_null_string@?$output_processor@_WV?$string_output_adapter@_W@__crt_stdio_output@@V?$format_validation_base@_WV?$string_output_adapter@_W@__crt_stdio_output@@@2@@__crt_stdio_output@@CAPEADXZ 000000014004a350 f i libucrt:output.obj
 0001:0004935c       ?narrow_null_string@?$output_processor@_WV?$string_output_adapter@_W@__crt_stdio_output@@V?$positional_parameter_base@_WV?$string_output_adapter@_W@__crt_stdio_output@@@2@@__crt_stdio_output@@CAPEADXZ 000000014004a35c f i libucrt:output.obj
 0001:00049368       ?narrow_null_string@?$output_processor@_WV?$string_output_adapter@_W@__crt_stdio_output@@V?$standard_base@_WV?$string_output_adapter@_W@__crt_stdio_output@@@2@@__crt_stdio_output@@CAPEADXZ 000000014004a368 f i libucrt:output.obj
 0001:00049374       ?parse_digit@__crt_strtox@@YAID@Z 000000014004a374 f i libucrt:output.obj
 0001:000493b0       ?parse_digit@__crt_strtox@@YAI_W@Z 000000014004a3b0 f i libucrt:output.obj
 0001:000495d8       ?parse_int_from_format_string@?$output_processor@DV?$stream_output_adapter@D@__crt_stdio_output@@V?$format_validation_base@DV?$stream_output_adapter@D@__crt_stdio_output@@@2@@__crt_stdio_output@@AEAA_NQEAH@Z 000000014004a5d8 f i libucrt:output.obj
 0001:00049688       ?parse_int_from_format_string@?$output_processor@DV?$stream_output_adapter@D@__crt_stdio_output@@V?$positional_parameter_base@DV?$stream_output_adapter@D@__crt_stdio_output@@@2@@__crt_stdio_output@@AEAA_NQEAH@Z 000000014004a688 f i libucrt:output.obj
 0001:00049738       ?parse_int_from_format_string@?$output_processor@DV?$stream_output_adapter@D@__crt_stdio_output@@V?$standard_base@DV?$stream_output_adapter@D@__crt_stdio_output@@@2@@__crt_stdio_output@@AEAA_NQEAH@Z 000000014004a738 f i libucrt:output.obj
 0001:000497e8       ?parse_int_from_format_string@?$output_processor@DV?$string_output_adapter@D@__crt_stdio_output@@V?$format_validation_base@DV?$string_output_adapter@D@__crt_stdio_output@@@2@@__crt_stdio_output@@AEAA_NQEAH@Z 000000014004a7e8 f i libucrt:output.obj
 0001:00049898       ?parse_int_from_format_string@?$output_processor@DV?$string_output_adapter@D@__crt_stdio_output@@V?$positional_parameter_base@DV?$string_output_adapter@D@__crt_stdio_output@@@2@@__crt_stdio_output@@AEAA_NQEAH@Z 000000014004a898 f i libucrt:output.obj
 0001:00049948       ?parse_int_from_format_string@?$output_processor@DV?$string_output_adapter@D@__crt_stdio_output@@V?$standard_base@DV?$string_output_adapter@D@__crt_stdio_output@@@2@@__crt_stdio_output@@AEAA_NQEAH@Z 000000014004a948 f i libucrt:output.obj
 0001:000499f8       ?parse_int_from_format_string@?$output_processor@_WV?$stream_output_adapter@_W@__crt_stdio_output@@V?$format_validation_base@_WV?$stream_output_adapter@_W@__crt_stdio_output@@@2@@__crt_stdio_output@@AEAA_NQEAH@Z 000000014004a9f8 f i libucrt:output.obj
 0001:00049aac       ?parse_int_from_format_string@?$output_processor@_WV?$stream_output_adapter@_W@__crt_stdio_output@@V?$positional_parameter_base@_WV?$stream_output_adapter@_W@__crt_stdio_output@@@2@@__crt_stdio_output@@AEAA_NQEAH@Z 000000014004aaac f i libucrt:output.obj
 0001:00049b60       ?parse_int_from_format_string@?$output_processor@_WV?$stream_output_adapter@_W@__crt_stdio_output@@V?$standard_base@_WV?$stream_output_adapter@_W@__crt_stdio_output@@@2@@__crt_stdio_output@@AEAA_NQEAH@Z 000000014004ab60 f i libucrt:output.obj
 0001:00049c14       ?parse_int_from_format_string@?$output_processor@_WV?$string_output_adapter@_W@__crt_stdio_output@@V?$format_validation_base@_WV?$string_output_adapter@_W@__crt_stdio_output@@@2@@__crt_stdio_output@@AEAA_NQEAH@Z 000000014004ac14 f i libucrt:output.obj
 0001:00049cc8       ?parse_int_from_format_string@?$output_processor@_WV?$string_output_adapter@_W@__crt_stdio_output@@V?$positional_parameter_base@_WV?$string_output_adapter@_W@__crt_stdio_output@@@2@@__crt_stdio_output@@AEAA_NQEAH@Z 000000014004acc8 f i libucrt:output.obj
 0001:00049d7c       ?parse_int_from_format_string@?$output_processor@_WV?$string_output_adapter@_W@__crt_stdio_output@@V?$standard_base@_WV?$string_output_adapter@_W@__crt_stdio_output@@@2@@__crt_stdio_output@@AEAA_NQEAH@Z 000000014004ad7c f i libucrt:output.obj
 0001:00049e30       ?process@?$output_processor@DV?$stream_output_adapter@D@__crt_stdio_output@@V?$format_validation_base@DV?$stream_output_adapter@D@__crt_stdio_output@@@2@@__crt_stdio_output@@QEAAHXZ 000000014004ae30 f i libucrt:output.obj
 0001:0004a2b4       ?process@?$output_processor@DV?$stream_output_adapter@D@__crt_stdio_output@@V?$positional_parameter_base@DV?$stream_output_adapter@D@__crt_stdio_output@@@2@@__crt_stdio_output@@QEAAHXZ 000000014004b2b4 f i libucrt:output.obj
 0001:0004a7f4       ?process@?$output_processor@DV?$stream_output_adapter@D@__crt_stdio_output@@V?$standard_base@DV?$stream_output_adapter@D@__crt_stdio_output@@@2@@__crt_stdio_output@@QEAAHXZ 000000014004b7f4 f i libucrt:output.obj
 0001:0004ac70       ?process@?$output_processor@DV?$string_output_adapter@D@__crt_stdio_output@@V?$format_validation_base@DV?$string_output_adapter@D@__crt_stdio_output@@@2@@__crt_stdio_output@@QEAAHXZ 000000014004bc70 f i libucrt:output.obj
 0001:0004b0d4       ?process@?$output_processor@DV?$string_output_adapter@D@__crt_stdio_output@@V?$positional_parameter_base@DV?$string_output_adapter@D@__crt_stdio_output@@@2@@__crt_stdio_output@@QEAAHXZ 000000014004c0d4 f i libucrt:output.obj
 0001:0004b5f0       ?process@?$output_processor@DV?$string_output_adapter@D@__crt_stdio_output@@V?$standard_base@DV?$string_output_adapter@D@__crt_stdio_output@@@2@@__crt_stdio_output@@QEAAHXZ 000000014004c5f0 f i libucrt:output.obj
 0001:0004ba50       ?process@?$output_processor@_WV?$stream_output_adapter@_W@__crt_stdio_output@@V?$format_validation_base@_WV?$stream_output_adapter@_W@__crt_stdio_output@@@2@@__crt_stdio_output@@QEAAHXZ 000000014004ca50 f i libucrt:output.obj
 0001:0004bde4       ?process@?$output_processor@_WV?$stream_output_adapter@_W@__crt_stdio_output@@V?$positional_parameter_base@_WV?$stream_output_adapter@_W@__crt_stdio_output@@@2@@__crt_stdio_output@@QEAAHXZ 000000014004cde4 f i libucrt:output.obj
 0001:0004c230       ?process@?$output_processor@_WV?$stream_output_adapter@_W@__crt_stdio_output@@V?$standard_base@_WV?$stream_output_adapter@_W@__crt_stdio_output@@@2@@__crt_stdio_output@@QEAAHXZ 000000014004d230 f i libucrt:output.obj
 0001:0004c5b4       ?process@?$output_processor@_WV?$string_output_adapter@_W@__crt_stdio_output@@V?$format_validation_base@_WV?$string_output_adapter@_W@__crt_stdio_output@@@2@@__crt_stdio_output@@QEAAHXZ 000000014004d5b4 f i libucrt:output.obj
 0001:0004c940       ?process@?$output_processor@_WV?$string_output_adapter@_W@__crt_stdio_output@@V?$positional_parameter_base@_WV?$string_output_adapter@_W@__crt_stdio_output@@@2@@__crt_stdio_output@@QEAAHXZ 000000014004d940 f i libucrt:output.obj
 0001:0004cd84       ?process@?$output_processor@_WV?$string_output_adapter@_W@__crt_stdio_output@@V?$standard_base@_WV?$string_output_adapter@_W@__crt_stdio_output@@@2@@__crt_stdio_output@@QEAAHXZ 000000014004dd84 f i libucrt:output.obj
 0001:0004d110       ?public_stream@__crt_stdio_stream@@QEBAPEAU_iobuf@@XZ 000000014004e110 f i libucrt:output.obj
 0001:0004d114       ?restore_state@?$c_string_character_source@D@__crt_strtox@@QEAA_NQEBD@Z 000000014004e114 f i libucrt:output.obj
 0001:0004d11c       ?restore_state@?$c_string_character_source@_W@__crt_strtox@@QEAA_NQEB_W@Z 000000014004e11c f i libucrt:output.obj
 0001:0004d124       ?save_state@?$c_string_character_source@D@__crt_strtox@@QEBAPEBDXZ 000000014004e124 f i libucrt:output.obj
 0001:0004d128       ?save_state@?$c_string_character_source@_W@__crt_strtox@@QEBAPEB_WXZ 000000014004e128 f i libucrt:output.obj
 0001:0004d12c       ?set@?$cached@H@__crt_cached_ptd_host@@QEAAHH@Z 000000014004e12c f i libucrt:output.obj
 0001:0004d138       ?set_flag@?$output_processor@DV?$stream_output_adapter@D@__crt_stdio_output@@V?$format_validation_base@DV?$stream_output_adapter@D@__crt_stdio_output@@@2@@__crt_stdio_output@@AEAAXI@Z 000000014004e138 f i libucrt:output.obj
 0001:0004d13c       ?set_flag@?$output_processor@DV?$stream_output_adapter@D@__crt_stdio_output@@V?$positional_parameter_base@DV?$stream_output_adapter@D@__crt_stdio_output@@@2@@__crt_stdio_output@@AEAAXI@Z 000000014004e13c f i libucrt:output.obj
 0001:0004d140       ?set_flag@?$output_processor@DV?$stream_output_adapter@D@__crt_stdio_output@@V?$standard_base@DV?$stream_output_adapter@D@__crt_stdio_output@@@2@@__crt_stdio_output@@AEAAXI@Z 000000014004e140 f i libucrt:output.obj
 0001:0004d144       ?set_flag@?$output_processor@DV?$string_output_adapter@D@__crt_stdio_output@@V?$format_validation_base@DV?$string_output_adapter@D@__crt_stdio_output@@@2@@__crt_stdio_output@@AEAAXI@Z 000000014004e144 f i libucrt:output.obj
 0001:0004d148       ?set_flag@?$output_processor@DV?$string_output_adapter@D@__crt_stdio_output@@V?$positional_parameter_base@DV?$string_output_adapter@D@__crt_stdio_output@@@2@@__crt_stdio_output@@AEAAXI@Z 000000014004e148 f i libucrt:output.obj
 0001:0004d14c       ?set_flag@?$output_processor@DV?$string_output_adapter@D@__crt_stdio_output@@V?$standard_base@DV?$string_output_adapter@D@__crt_stdio_output@@@2@@__crt_stdio_output@@AEAAXI@Z 000000014004e14c f i libucrt:output.obj
 0001:0004d150       ?set_flag@?$output_processor@_WV?$stream_output_adapter@_W@__crt_stdio_output@@V?$format_validation_base@_WV?$stream_output_adapter@_W@__crt_stdio_output@@@2@@__crt_stdio_output@@AEAAXI@Z 000000014004e150 f i libucrt:output.obj
 0001:0004d154       ?set_flag@?$output_processor@_WV?$stream_output_adapter@_W@__crt_stdio_output@@V?$positional_parameter_base@_WV?$stream_output_adapter@_W@__crt_stdio_output@@@2@@__crt_stdio_output@@AEAAXI@Z 000000014004e154 f i libucrt:output.obj
 0001:0004d158       ?set_flag@?$output_processor@_WV?$stream_output_adapter@_W@__crt_stdio_output@@V?$standard_base@_WV?$stream_output_adapter@_W@__crt_stdio_output@@@2@@__crt_stdio_output@@AEAAXI@Z 000000014004e158 f i libucrt:output.obj
 0001:0004d15c       ?set_flag@?$output_processor@_WV?$string_output_adapter@_W@__crt_stdio_output@@V?$format_validation_base@_WV?$string_output_adapter@_W@__crt_stdio_output@@@2@@__crt_stdio_output@@AEAAXI@Z 000000014004e15c f i libucrt:output.obj
 0001:0004d160       ?set_flag@?$output_processor@_WV?$string_output_adapter@_W@__crt_stdio_output@@V?$positional_parameter_base@_WV?$string_output_adapter@_W@__crt_stdio_output@@@2@@__crt_stdio_output@@AEAAXI@Z 000000014004e160 f i libucrt:output.obj
 0001:0004d164       ?set_flag@?$output_processor@_WV?$string_output_adapter@_W@__crt_stdio_output@@V?$standard_base@_WV?$string_output_adapter@_W@__crt_stdio_output@@@2@@__crt_stdio_output@@AEAAXI@Z 000000014004e164 f i libucrt:output.obj
 0001:0004d168       ?should_format@?$positional_parameter_base@DV?$stream_output_adapter@D@__crt_stdio_output@@@__crt_stdio_output@@IEAA_NXZ 000000014004e168 f i libucrt:output.obj
 0001:0004d188       ?should_format@?$positional_parameter_base@DV?$string_output_adapter@D@__crt_stdio_output@@@__crt_stdio_output@@IEAA_NXZ 000000014004e188 f i libucrt:output.obj
 0001:0004d1a8       ?should_format@?$positional_parameter_base@_WV?$stream_output_adapter@_W@__crt_stdio_output@@@__crt_stdio_output@@IEAA_NXZ 000000014004e1a8 f i libucrt:output.obj
 0001:0004d1c8       ?should_format@?$positional_parameter_base@_WV?$string_output_adapter@_W@__crt_stdio_output@@@__crt_stdio_output@@IEAA_NXZ 000000014004e1c8 f i libucrt:output.obj
 0001:0004d1e8       ?should_format@?$standard_base@DV?$stream_output_adapter@D@__crt_stdio_output@@@__crt_stdio_output@@IEAA_NXZ 000000014004e1e8 f i libucrt:output.obj
 0001:0004d1ec       ?should_format@?$standard_base@DV?$string_output_adapter@D@__crt_stdio_output@@@__crt_stdio_output@@IEAA_NXZ 000000014004e1ec f i libucrt:output.obj
 0001:0004d1f0       ?should_format@?$standard_base@_WV?$stream_output_adapter@_W@__crt_stdio_output@@@__crt_stdio_output@@IEAA_NXZ 000000014004e1f0 f i libucrt:output.obj
 0001:0004d1f4       ?should_format@?$standard_base@_WV?$string_output_adapter@_W@__crt_stdio_output@@@__crt_stdio_output@@IEAA_NXZ 000000014004e1f4 f i libucrt:output.obj
 0001:0004d1f8       ?should_skip_normal_state_processing@?$positional_parameter_base@DV?$stream_output_adapter@D@__crt_stdio_output@@@__crt_stdio_output@@IEAA_NXZ 000000014004e1f8 f i libucrt:output.obj
 0001:0004d22c       ?should_skip_normal_state_processing@?$positional_parameter_base@DV?$string_output_adapter@D@__crt_stdio_output@@@__crt_stdio_output@@IEAA_NXZ 000000014004e22c f i libucrt:output.obj
 0001:0004d260       ?should_skip_normal_state_processing@?$positional_parameter_base@_WV?$stream_output_adapter@_W@__crt_stdio_output@@@__crt_stdio_output@@IEAA_NXZ 000000014004e260 f i libucrt:output.obj
 0001:0004d294       ?should_skip_normal_state_processing@?$positional_parameter_base@_WV?$string_output_adapter@_W@__crt_stdio_output@@@__crt_stdio_output@@IEAA_NXZ 000000014004e294 f i libucrt:output.obj
 0001:0004d2c8       ?should_skip_normal_state_processing@?$standard_base@DV?$stream_output_adapter@D@__crt_stdio_output@@@__crt_stdio_output@@IEAA_NXZ 000000014004e2c8 f i libucrt:output.obj
 0001:0004d2cc       ?should_skip_normal_state_processing@?$standard_base@DV?$string_output_adapter@D@__crt_stdio_output@@@__crt_stdio_output@@IEAA_NXZ 000000014004e2cc f i libucrt:output.obj
 0001:0004d2d0       ?should_skip_normal_state_processing@?$standard_base@_WV?$stream_output_adapter@_W@__crt_stdio_output@@@__crt_stdio_output@@IEAA_NXZ 000000014004e2d0 f i libucrt:output.obj
 0001:0004d2d4       ?should_skip_normal_state_processing@?$standard_base@_WV?$string_output_adapter@_W@__crt_stdio_output@@@__crt_stdio_output@@IEAA_NXZ 000000014004e2d4 f i libucrt:output.obj
 0001:0004d2d8       ?should_skip_type_state_output@?$positional_parameter_base@DV?$stream_output_adapter@D@__crt_stdio_output@@@__crt_stdio_output@@IEBA_NXZ 000000014004e2d8 f i libucrt:output.obj
 0001:0004d2f8       ?should_skip_type_state_output@?$positional_parameter_base@DV?$string_output_adapter@D@__crt_stdio_output@@@__crt_stdio_output@@IEBA_NXZ 000000014004e2f8 f i libucrt:output.obj
 0001:0004d318       ?should_skip_type_state_output@?$positional_parameter_base@_WV?$stream_output_adapter@_W@__crt_stdio_output@@@__crt_stdio_output@@IEBA_NXZ 000000014004e318 f i libucrt:output.obj
 0001:0004d338       ?should_skip_type_state_output@?$positional_parameter_base@_WV?$string_output_adapter@_W@__crt_stdio_output@@@__crt_stdio_output@@IEBA_NXZ 000000014004e338 f i libucrt:output.obj
 0001:0004d358       ?should_skip_type_state_output@?$standard_base@DV?$stream_output_adapter@D@__crt_stdio_output@@@__crt_stdio_output@@IEBA_NXZ 000000014004e358 f i libucrt:output.obj
 0001:0004d35c       ?should_skip_type_state_output@?$standard_base@DV?$string_output_adapter@D@__crt_stdio_output@@@__crt_stdio_output@@IEBA_NXZ 000000014004e35c f i libucrt:output.obj
 0001:0004d360       ?should_skip_type_state_output@?$standard_base@_WV?$stream_output_adapter@_W@__crt_stdio_output@@@__crt_stdio_output@@IEBA_NXZ 000000014004e360 f i libucrt:output.obj
 0001:0004d364       ?should_skip_type_state_output@?$standard_base@_WV?$string_output_adapter@_W@__crt_stdio_output@@@__crt_stdio_output@@IEBA_NXZ 000000014004e364 f i libucrt:output.obj
 0001:0004d368       ?state_case_dot@?$output_processor@DV?$stream_output_adapter@D@__crt_stdio_output@@V?$format_validation_base@DV?$stream_output_adapter@D@__crt_stdio_output@@@2@@__crt_stdio_output@@AEAA_NXZ 000000014004e368 f i libucrt:output.obj
 0001:0004d370       ?state_case_dot@?$output_processor@DV?$stream_output_adapter@D@__crt_stdio_output@@V?$positional_parameter_base@DV?$stream_output_adapter@D@__crt_stdio_output@@@2@@__crt_stdio_output@@AEAA_NXZ 000000014004e370 f i libucrt:output.obj
 0001:0004d378       ?state_case_dot@?$output_processor@DV?$stream_output_adapter@D@__crt_stdio_output@@V?$standard_base@DV?$stream_output_adapter@D@__crt_stdio_output@@@2@@__crt_stdio_output@@AEAA_NXZ 000000014004e378 f i libucrt:output.obj
 0001:0004d380       ?state_case_dot@?$output_processor@DV?$string_output_adapter@D@__crt_stdio_output@@V?$format_validation_base@DV?$string_output_adapter@D@__crt_stdio_output@@@2@@__crt_stdio_output@@AEAA_NXZ 000000014004e380 f i libucrt:output.obj
 0001:0004d388       ?state_case_dot@?$output_processor@DV?$string_output_adapter@D@__crt_stdio_output@@V?$positional_parameter_base@DV?$string_output_adapter@D@__crt_stdio_output@@@2@@__crt_stdio_output@@AEAA_NXZ 000000014004e388 f i libucrt:output.obj
 0001:0004d390       ?state_case_dot@?$output_processor@DV?$string_output_adapter@D@__crt_stdio_output@@V?$standard_base@DV?$string_output_adapter@D@__crt_stdio_output@@@2@@__crt_stdio_output@@AEAA_NXZ 000000014004e390 f i libucrt:output.obj
 0001:0004d398       ?state_case_dot@?$output_processor@_WV?$stream_output_adapter@_W@__crt_stdio_output@@V?$format_validation_base@_WV?$stream_output_adapter@_W@__crt_stdio_output@@@2@@__crt_stdio_output@@AEAA_NXZ 000000014004e398 f i libucrt:output.obj
 0001:0004d3a0       ?state_case_dot@?$output_processor@_WV?$stream_output_adapter@_W@__crt_stdio_output@@V?$positional_parameter_base@_WV?$stream_output_adapter@_W@__crt_stdio_output@@@2@@__crt_stdio_output@@AEAA_NXZ 000000014004e3a0 f i libucrt:output.obj
 0001:0004d3a8       ?state_case_dot@?$output_processor@_WV?$stream_output_adapter@_W@__crt_stdio_output@@V?$standard_base@_WV?$stream_output_adapter@_W@__crt_stdio_output@@@2@@__crt_stdio_output@@AEAA_NXZ 000000014004e3a8 f i libucrt:output.obj
 0001:0004d3b0       ?state_case_dot@?$output_processor@_WV?$string_output_adapter@_W@__crt_stdio_output@@V?$format_validation_base@_WV?$string_output_adapter@_W@__crt_stdio_output@@@2@@__crt_stdio_output@@AEAA_NXZ 000000014004e3b0 f i libucrt:output.obj
 0001:0004d3b8       ?state_case_dot@?$output_processor@_WV?$string_output_adapter@_W@__crt_stdio_output@@V?$positional_parameter_base@_WV?$string_output_adapter@_W@__crt_stdio_output@@@2@@__crt_stdio_output@@AEAA_NXZ 000000014004e3b8 f i libucrt:output.obj
 0001:0004d3c0       ?state_case_dot@?$output_processor@_WV?$string_output_adapter@_W@__crt_stdio_output@@V?$standard_base@_WV?$string_output_adapter@_W@__crt_stdio_output@@@2@@__crt_stdio_output@@AEAA_NXZ 000000014004e3c0 f i libucrt:output.obj
 0001:0004d3c8       ?state_case_flag@?$output_processor@DV?$stream_output_adapter@D@__crt_stdio_output@@V?$format_validation_base@DV?$stream_output_adapter@D@__crt_stdio_output@@@2@@__crt_stdio_output@@AEAA_NXZ 000000014004e3c8 f i libucrt:output.obj
 0001:0004d40c       ?state_case_flag@?$output_processor@DV?$stream_output_adapter@D@__crt_stdio_output@@V?$positional_parameter_base@DV?$stream_output_adapter@D@__crt_stdio_output@@@2@@__crt_stdio_output@@AEAA_NXZ 000000014004e40c f i libucrt:output.obj
 0001:0004d450       ?state_case_flag@?$output_processor@DV?$stream_output_adapter@D@__crt_stdio_output@@V?$standard_base@DV?$stream_output_adapter@D@__crt_stdio_output@@@2@@__crt_stdio_output@@AEAA_NXZ 000000014004e450 f i libucrt:output.obj
 0001:0004d494       ?state_case_flag@?$output_processor@DV?$string_output_adapter@D@__crt_stdio_output@@V?$format_validation_base@DV?$string_output_adapter@D@__crt_stdio_output@@@2@@__crt_stdio_output@@AEAA_NXZ 000000014004e494 f i libucrt:output.obj
 0001:0004d4d8       ?state_case_flag@?$output_processor@DV?$string_output_adapter@D@__crt_stdio_output@@V?$positional_parameter_base@DV?$string_output_adapter@D@__crt_stdio_output@@@2@@__crt_stdio_output@@AEAA_NXZ 000000014004e4d8 f i libucrt:output.obj
 0001:0004d51c       ?state_case_flag@?$output_processor@DV?$string_output_adapter@D@__crt_stdio_output@@V?$standard_base@DV?$string_output_adapter@D@__crt_stdio_output@@@2@@__crt_stdio_output@@AEAA_NXZ 000000014004e51c f i libucrt:output.obj
 0001:0004d560       ?state_case_flag@?$output_processor@_WV?$stream_output_adapter@_W@__crt_stdio_output@@V?$format_validation_base@_WV?$stream_output_adapter@_W@__crt_stdio_output@@@2@@__crt_stdio_output@@AEAA_NXZ 000000014004e560 f i libucrt:output.obj
 0001:0004d5b8       ?state_case_flag@?$output_processor@_WV?$stream_output_adapter@_W@__crt_stdio_output@@V?$positional_parameter_base@_WV?$stream_output_adapter@_W@__crt_stdio_output@@@2@@__crt_stdio_output@@AEAA_NXZ 000000014004e5b8 f i libucrt:output.obj
 0001:0004d610       ?state_case_flag@?$output_processor@_WV?$stream_output_adapter@_W@__crt_stdio_output@@V?$standard_base@_WV?$stream_output_adapter@_W@__crt_stdio_output@@@2@@__crt_stdio_output@@AEAA_NXZ 000000014004e610 f i libucrt:output.obj
 0001:0004d668       ?state_case_flag@?$output_processor@_WV?$string_output_adapter@_W@__crt_stdio_output@@V?$format_validation_base@_WV?$string_output_adapter@_W@__crt_stdio_output@@@2@@__crt_stdio_output@@AEAA_NXZ 000000014004e668 f i libucrt:output.obj
 0001:0004d6c0       ?state_case_flag@?$output_processor@_WV?$string_output_adapter@_W@__crt_stdio_output@@V?$positional_parameter_base@_WV?$string_output_adapter@_W@__crt_stdio_output@@@2@@__crt_stdio_output@@AEAA_NXZ 000000014004e6c0 f i libucrt:output.obj
 0001:0004d718       ?state_case_flag@?$output_processor@_WV?$string_output_adapter@_W@__crt_stdio_output@@V?$standard_base@_WV?$string_output_adapter@_W@__crt_stdio_output@@@2@@__crt_stdio_output@@AEAA_NXZ 000000014004e718 f i libucrt:output.obj
 0001:0004d770       ?state_case_normal@?$output_processor@DV?$stream_output_adapter@D@__crt_stdio_output@@V?$format_validation_base@DV?$stream_output_adapter@D@__crt_stdio_output@@@2@@__crt_stdio_output@@AEAA_NXZ 000000014004e770 f i libucrt:output.obj
 0001:0004d918       ?state_case_normal@?$output_processor@DV?$stream_output_adapter@D@__crt_stdio_output@@V?$positional_parameter_base@DV?$stream_output_adapter@D@__crt_stdio_output@@@2@@__crt_stdio_output@@AEAA_NXZ 000000014004e918 f i libucrt:output.obj
 0001:0004daf8       ?state_case_normal@?$output_processor@DV?$stream_output_adapter@D@__crt_stdio_output@@V?$standard_base@DV?$stream_output_adapter@D@__crt_stdio_output@@@2@@__crt_stdio_output@@AEAA_NXZ 000000014004eaf8 f i libucrt:output.obj
 0001:0004dca0       ?state_case_normal@?$output_processor@DV?$string_output_adapter@D@__crt_stdio_output@@V?$format_validation_base@DV?$string_output_adapter@D@__crt_stdio_output@@@2@@__crt_stdio_output@@AEAA_NXZ 000000014004eca0 f i libucrt:output.obj
 0001:0004de40       ?state_case_normal@?$output_processor@DV?$string_output_adapter@D@__crt_stdio_output@@V?$positional_parameter_base@DV?$string_output_adapter@D@__crt_stdio_output@@@2@@__crt_stdio_output@@AEAA_NXZ 000000014004ee40 f i libucrt:output.obj
 0001:0004e014       ?state_case_normal@?$output_processor@DV?$string_output_adapter@D@__crt_stdio_output@@V?$standard_base@DV?$string_output_adapter@D@__crt_stdio_output@@@2@@__crt_stdio_output@@AEAA_NXZ 000000014004f014 f i libucrt:output.obj
 0001:0004e1b4       ?state_case_normal@?$output_processor@_WV?$stream_output_adapter@_W@__crt_stdio_output@@V?$format_validation_base@_WV?$stream_output_adapter@_W@__crt_stdio_output@@@2@@__crt_stdio_output@@AEAA_NXZ 000000014004f1b4 f i libucrt:output.obj
 0001:0004e228       ?state_case_normal@?$output_processor@_WV?$stream_output_adapter@_W@__crt_stdio_output@@V?$positional_parameter_base@_WV?$stream_output_adapter@_W@__crt_stdio_output@@@2@@__crt_stdio_output@@AEAA_NXZ 000000014004f228 f i libucrt:output.obj
 0001:0004e2cc       ?state_case_normal@?$output_processor@_WV?$stream_output_adapter@_W@__crt_stdio_output@@V?$standard_base@_WV?$stream_output_adapter@_W@__crt_stdio_output@@@2@@__crt_stdio_output@@AEAA_NXZ 000000014004f2cc f i libucrt:output.obj
 0001:0004e340       ?state_case_normal@?$output_processor@_WV?$string_output_adapter@_W@__crt_stdio_output@@V?$format_validation_base@_WV?$string_output_adapter@_W@__crt_stdio_output@@@2@@__crt_stdio_output@@AEAA_NXZ 000000014004f340 f i libucrt:output.obj
 0001:0004e3ac       ?state_case_normal@?$output_processor@_WV?$string_output_adapter@_W@__crt_stdio_output@@V?$positional_parameter_base@_WV?$string_output_adapter@_W@__crt_stdio_output@@@2@@__crt_stdio_output@@AEAA_NXZ 000000014004f3ac f i libucrt:output.obj
 0001:0004e444       ?state_case_normal@?$output_processor@_WV?$string_output_adapter@_W@__crt_stdio_output@@V?$standard_base@_WV?$string_output_adapter@_W@__crt_stdio_output@@@2@@__crt_stdio_output@@AEAA_NXZ 000000014004f444 f i libucrt:output.obj
 0001:0004e4b0       ?state_case_normal_common@?$output_processor@DV?$stream_output_adapter@D@__crt_stdio_output@@V?$format_validation_base@DV?$stream_output_adapter@D@__crt_stdio_output@@@2@@__crt_stdio_output@@AEAA_NXZ 000000014004f4b0 f i libucrt:output.obj
 0001:0004e624       ?state_case_normal_common@?$output_processor@DV?$stream_output_adapter@D@__crt_stdio_output@@V?$positional_parameter_base@DV?$stream_output_adapter@D@__crt_stdio_output@@@2@@__crt_stdio_output@@AEAA_NXZ 000000014004f624 f i libucrt:output.obj
 0001:0004e798       ?state_case_normal_common@?$output_processor@DV?$stream_output_adapter@D@__crt_stdio_output@@V?$standard_base@DV?$stream_output_adapter@D@__crt_stdio_output@@@2@@__crt_stdio_output@@AEAA_NXZ 000000014004f798 f i libucrt:output.obj
 0001:0004e90c       ?state_case_normal_common@?$output_processor@DV?$string_output_adapter@D@__crt_stdio_output@@V?$format_validation_base@DV?$string_output_adapter@D@__crt_stdio_output@@@2@@__crt_stdio_output@@AEAA_NXZ 000000014004f90c f i libucrt:output.obj
 0001:0004ea78       ?state_case_normal_common@?$output_processor@DV?$string_output_adapter@D@__crt_stdio_output@@V?$positional_parameter_base@DV?$string_output_adapter@D@__crt_stdio_output@@@2@@__crt_stdio_output@@AEAA_NXZ 000000014004fa78 f i libucrt:output.obj
 0001:0004ebe4       ?state_case_normal_common@?$output_processor@DV?$string_output_adapter@D@__crt_stdio_output@@V?$standard_base@DV?$string_output_adapter@D@__crt_stdio_output@@@2@@__crt_stdio_output@@AEAA_NXZ 000000014004fbe4 f i libucrt:output.obj
 0001:0004ed50       ?state_case_normal_common@?$output_processor@_WV?$stream_output_adapter@_W@__crt_stdio_output@@V?$format_validation_base@_WV?$stream_output_adapter@_W@__crt_stdio_output@@@2@@__crt_stdio_output@@AEAA_NXZ 000000014004fd50 f i libucrt:output.obj
 0001:0004edc4       ?state_case_normal_common@?$output_processor@_WV?$stream_output_adapter@_W@__crt_stdio_output@@V?$positional_parameter_base@_WV?$stream_output_adapter@_W@__crt_stdio_output@@@2@@__crt_stdio_output@@AEAA_NXZ 000000014004fdc4 f i libucrt:output.obj
 0001:0004ee38       ?state_case_normal_common@?$output_processor@_WV?$stream_output_adapter@_W@__crt_stdio_output@@V?$standard_base@_WV?$stream_output_adapter@_W@__crt_stdio_output@@@2@@__crt_stdio_output@@AEAA_NXZ 000000014004fe38 f i libucrt:output.obj
 0001:0004eeac       ?state_case_normal_common@?$output_processor@_WV?$string_output_adapter@_W@__crt_stdio_output@@V?$format_validation_base@_WV?$string_output_adapter@_W@__crt_stdio_output@@@2@@__crt_stdio_output@@AEAA_NXZ 000000014004feac f i libucrt:output.obj
 0001:0004ef18       ?state_case_normal_common@?$output_processor@_WV?$string_output_adapter@_W@__crt_stdio_output@@V?$positional_parameter_base@_WV?$string_output_adapter@_W@__crt_stdio_output@@@2@@__crt_stdio_output@@AEAA_NXZ 000000014004ff18 f i libucrt:output.obj
 0001:0004ef84       ?state_case_normal_common@?$output_processor@_WV?$string_output_adapter@_W@__crt_stdio_output@@V?$standard_base@_WV?$string_output_adapter@_W@__crt_stdio_output@@@2@@__crt_stdio_output@@AEAA_NXZ 000000014004ff84 f i libucrt:output.obj
 0001:0004eff0       ?state_case_normal_tchar@?$output_processor@DV?$stream_output_adapter@D@__crt_stdio_output@@V?$format_validation_base@DV?$stream_output_adapter@D@__crt_stdio_output@@@2@@__crt_stdio_output@@AEAA_ND@Z 000000014004fff0 f i libucrt:output.obj
 0001:0004f104       ?state_case_normal_tchar@?$output_processor@DV?$stream_output_adapter@D@__crt_stdio_output@@V?$positional_parameter_base@DV?$stream_output_adapter@D@__crt_stdio_output@@@2@@__crt_stdio_output@@AEAA_ND@Z 0000000140050104 f i libucrt:output.obj
 0001:0004f218       ?state_case_normal_tchar@?$output_processor@DV?$stream_output_adapter@D@__crt_stdio_output@@V?$standard_base@DV?$stream_output_adapter@D@__crt_stdio_output@@@2@@__crt_stdio_output@@AEAA_ND@Z 0000000140050218 f i libucrt:output.obj
 0001:0004f32c       ?state_case_normal_tchar@?$output_processor@DV?$string_output_adapter@D@__crt_stdio_output@@V?$format_validation_base@DV?$string_output_adapter@D@__crt_stdio_output@@@2@@__crt_stdio_output@@AEAA_ND@Z 000000014005032c f i libucrt:output.obj
 0001:0004f440       ?state_case_normal_tchar@?$output_processor@DV?$string_output_adapter@D@__crt_stdio_output@@V?$positional_parameter_base@DV?$string_output_adapter@D@__crt_stdio_output@@@2@@__crt_stdio_output@@AEAA_ND@Z 0000000140050440 f i libucrt:output.obj
 0001:0004f554       ?state_case_normal_tchar@?$output_processor@DV?$string_output_adapter@D@__crt_stdio_output@@V?$standard_base@DV?$string_output_adapter@D@__crt_stdio_output@@@2@@__crt_stdio_output@@AEAA_ND@Z 0000000140050554 f i libucrt:output.obj
 0001:0004f668       ?state_case_normal_tchar@?$output_processor@_WV?$stream_output_adapter@_W@__crt_stdio_output@@V?$format_validation_base@_WV?$stream_output_adapter@_W@__crt_stdio_output@@@2@@__crt_stdio_output@@AEAA_N_W@Z 0000000140050668 f i libucrt:output.obj
 0001:0004f670       ?state_case_normal_tchar@?$output_processor@_WV?$stream_output_adapter@_W@__crt_stdio_output@@V?$positional_parameter_base@_WV?$stream_output_adapter@_W@__crt_stdio_output@@@2@@__crt_stdio_output@@AEAA_N_W@Z 0000000140050670 f i libucrt:output.obj
 0001:0004f678       ?state_case_normal_tchar@?$output_processor@_WV?$stream_output_adapter@_W@__crt_stdio_output@@V?$standard_base@_WV?$stream_output_adapter@_W@__crt_stdio_output@@@2@@__crt_stdio_output@@AEAA_N_W@Z 0000000140050678 f i libucrt:output.obj
 0001:0004f680       ?state_case_normal_tchar@?$output_processor@_WV?$string_output_adapter@_W@__crt_stdio_output@@V?$format_validation_base@_WV?$string_output_adapter@_W@__crt_stdio_output@@@2@@__crt_stdio_output@@AEAA_N_W@Z 0000000140050680 f i libucrt:output.obj
 0001:0004f688       ?state_case_normal_tchar@?$output_processor@_WV?$string_output_adapter@_W@__crt_stdio_output@@V?$positional_parameter_base@_WV?$string_output_adapter@_W@__crt_stdio_output@@@2@@__crt_stdio_output@@AEAA_N_W@Z 0000000140050688 f i libucrt:output.obj
 0001:0004f690       ?state_case_normal_tchar@?$output_processor@_WV?$string_output_adapter@_W@__crt_stdio_output@@V?$standard_base@_WV?$string_output_adapter@_W@__crt_stdio_output@@@2@@__crt_stdio_output@@AEAA_N_W@Z 0000000140050690 f i libucrt:output.obj
 0001:0004f698       ?state_case_percent@?$output_processor@DV?$stream_output_adapter@D@__crt_stdio_output@@V?$format_validation_base@DV?$stream_output_adapter@D@__crt_stdio_output@@@2@@__crt_stdio_output@@AEAA_NXZ 0000000140050698 f i libucrt:output.obj
 0001:0004f6b4       ?state_case_percent@?$output_processor@DV?$stream_output_adapter@D@__crt_stdio_output@@V?$positional_parameter_base@DV?$stream_output_adapter@D@__crt_stdio_output@@@2@@__crt_stdio_output@@AEAA_NXZ 00000001400506b4 f i libucrt:output.obj
 0001:0004f6d0       ?state_case_percent@?$output_processor@DV?$stream_output_adapter@D@__crt_stdio_output@@V?$standard_base@DV?$stream_output_adapter@D@__crt_stdio_output@@@2@@__crt_stdio_output@@AEAA_NXZ 00000001400506d0 f i libucrt:output.obj
 0001:0004f6ec       ?state_case_percent@?$output_processor@DV?$string_output_adapter@D@__crt_stdio_output@@V?$format_validation_base@DV?$string_output_adapter@D@__crt_stdio_output@@@2@@__crt_stdio_output@@AEAA_NXZ 00000001400506ec f i libucrt:output.obj
 0001:0004f708       ?state_case_percent@?$output_processor@DV?$string_output_adapter@D@__crt_stdio_output@@V?$positional_parameter_base@DV?$string_output_adapter@D@__crt_stdio_output@@@2@@__crt_stdio_output@@AEAA_NXZ 0000000140050708 f i libucrt:output.obj
 0001:0004f724       ?state_case_percent@?$output_processor@DV?$string_output_adapter@D@__crt_stdio_output@@V?$standard_base@DV?$string_output_adapter@D@__crt_stdio_output@@@2@@__crt_stdio_output@@AEAA_NXZ 0000000140050724 f i libucrt:output.obj
 0001:0004f740       ?state_case_percent@?$output_processor@_WV?$stream_output_adapter@_W@__crt_stdio_output@@V?$format_validation_base@_WV?$stream_output_adapter@_W@__crt_stdio_output@@@2@@__crt_stdio_output@@AEAA_NXZ 0000000140050740 f i libucrt:output.obj
 0001:0004f75c       ?state_case_percent@?$output_processor@_WV?$stream_output_adapter@_W@__crt_stdio_output@@V?$positional_parameter_base@_WV?$stream_output_adapter@_W@__crt_stdio_output@@@2@@__crt_stdio_output@@AEAA_NXZ 000000014005075c f i libucrt:output.obj
 0001:0004f778       ?state_case_percent@?$output_processor@_WV?$stream_output_adapter@_W@__crt_stdio_output@@V?$standard_base@_WV?$stream_output_adapter@_W@__crt_stdio_output@@@2@@__crt_stdio_output@@AEAA_NXZ 0000000140050778 f i libucrt:output.obj
 0001:0004f794       ?state_case_percent@?$output_processor@_WV?$string_output_adapter@_W@__crt_stdio_output@@V?$format_validation_base@_WV?$string_output_adapter@_W@__crt_stdio_output@@@2@@__crt_stdio_output@@AEAA_NXZ 0000000140050794 f i libucrt:output.obj
 0001:0004f7b0       ?state_case_percent@?$output_processor@_WV?$string_output_adapter@_W@__crt_stdio_output@@V?$positional_parameter_base@_WV?$string_output_adapter@_W@__crt_stdio_output@@@2@@__crt_stdio_output@@AEAA_NXZ 00000001400507b0 f i libucrt:output.obj
 0001:0004f7cc       ?state_case_percent@?$output_processor@_WV?$string_output_adapter@_W@__crt_stdio_output@@V?$standard_base@_WV?$string_output_adapter@_W@__crt_stdio_output@@@2@@__crt_stdio_output@@AEAA_NXZ 00000001400507cc f i libucrt:output.obj
 0001:0004f7e8       ?state_case_precision@?$output_processor@DV?$stream_output_adapter@D@__crt_stdio_output@@V?$format_validation_base@DV?$stream_output_adapter@D@__crt_stdio_output@@@2@@__crt_stdio_output@@AEAA_NXZ 00000001400507e8 f i libucrt:output.obj
 0001:0004f824       ?state_case_precision@?$output_processor@DV?$stream_output_adapter@D@__crt_stdio_output@@V?$positional_parameter_base@DV?$stream_output_adapter@D@__crt_stdio_output@@@2@@__crt_stdio_output@@AEAA_NXZ 0000000140050824 f i libucrt:output.obj
 0001:0004f880       ?state_case_precision@?$output_processor@DV?$stream_output_adapter@D@__crt_stdio_output@@V?$standard_base@DV?$stream_output_adapter@D@__crt_stdio_output@@@2@@__crt_stdio_output@@AEAA_NXZ 0000000140050880 f i libucrt:output.obj
 0001:0004f8bc       ?state_case_precision@?$output_processor@DV?$string_output_adapter@D@__crt_stdio_output@@V?$format_validation_base@DV?$string_output_adapter@D@__crt_stdio_output@@@2@@__crt_stdio_output@@AEAA_NXZ 00000001400508bc f i libucrt:output.obj
 0001:0004f8f8       ?state_case_precision@?$output_processor@DV?$string_output_adapter@D@__crt_stdio_output@@V?$positional_parameter_base@DV?$string_output_adapter@D@__crt_stdio_output@@@2@@__crt_stdio_output@@AEAA_NXZ 00000001400508f8 f i libucrt:output.obj
 0001:0004f954       ?state_case_precision@?$output_processor@DV?$string_output_adapter@D@__crt_stdio_output@@V?$standard_base@DV?$string_output_adapter@D@__crt_stdio_output@@@2@@__crt_stdio_output@@AEAA_NXZ 0000000140050954 f i libucrt:output.obj
 0001:0004f990       ?state_case_precision@?$output_processor@_WV?$stream_output_adapter@_W@__crt_stdio_output@@V?$format_validation_base@_WV?$stream_output_adapter@_W@__crt_stdio_output@@@2@@__crt_stdio_output@@AEAA_NXZ 0000000140050990 f i libucrt:output.obj
 0001:0004f9d0       ?state_case_precision@?$output_processor@_WV?$stream_output_adapter@_W@__crt_stdio_output@@V?$positional_parameter_base@_WV?$stream_output_adapter@_W@__crt_stdio_output@@@2@@__crt_stdio_output@@AEAA_NXZ 00000001400509d0 f i libucrt:output.obj
 0001:0004fa30       ?state_case_precision@?$output_processor@_WV?$stream_output_adapter@_W@__crt_stdio_output@@V?$standard_base@_WV?$stream_output_adapter@_W@__crt_stdio_output@@@2@@__crt_stdio_output@@AEAA_NXZ 0000000140050a30 f i libucrt:output.obj
 0001:0004fa70       ?state_case_precision@?$output_processor@_WV?$string_output_adapter@_W@__crt_stdio_output@@V?$format_validation_base@_WV?$string_output_adapter@_W@__crt_stdio_output@@@2@@__crt_stdio_output@@AEAA_NXZ 0000000140050a70 f i libucrt:output.obj
 0001:0004fab0       ?state_case_precision@?$output_processor@_WV?$string_output_adapter@_W@__crt_stdio_output@@V?$positional_parameter_base@_WV?$string_output_adapter@_W@__crt_stdio_output@@@2@@__crt_stdio_output@@AEAA_NXZ 0000000140050ab0 f i libucrt:output.obj
 0001:0004fb10       ?state_case_precision@?$output_processor@_WV?$string_output_adapter@_W@__crt_stdio_output@@V?$standard_base@_WV?$string_output_adapter@_W@__crt_stdio_output@@@2@@__crt_stdio_output@@AEAA_NXZ 0000000140050b10 f i libucrt:output.obj
 0001:0004fb50       ?state_case_size@?$output_processor@DV?$stream_output_adapter@D@__crt_stdio_output@@V?$format_validation_base@DV?$stream_output_adapter@D@__crt_stdio_output@@@2@@__crt_stdio_output@@AEAA_NXZ 0000000140050b50 f i libucrt:output.obj
 0001:0004fd38       ?state_case_size@?$output_processor@DV?$stream_output_adapter@D@__crt_stdio_output@@V?$positional_parameter_base@DV?$stream_output_adapter@D@__crt_stdio_output@@@2@@__crt_stdio_output@@AEAA_NXZ 0000000140050d38 f i libucrt:output.obj
 0001:0004ff20       ?state_case_size@?$output_processor@DV?$stream_output_adapter@D@__crt_stdio_output@@V?$standard_base@DV?$stream_output_adapter@D@__crt_stdio_output@@@2@@__crt_stdio_output@@AEAA_NXZ 0000000140050f20 f i libucrt:output.obj
 0001:00050108       ?state_case_size@?$output_processor@DV?$string_output_adapter@D@__crt_stdio_output@@V?$format_validation_base@DV?$string_output_adapter@D@__crt_stdio_output@@@2@@__crt_stdio_output@@AEAA_NXZ 0000000140051108 f i libucrt:output.obj
 0001:000502f0       ?state_case_size@?$output_processor@DV?$string_output_adapter@D@__crt_stdio_output@@V?$positional_parameter_base@DV?$string_output_adapter@D@__crt_stdio_output@@@2@@__crt_stdio_output@@AEAA_NXZ 00000001400512f0 f i libucrt:output.obj
 0001:000504d8       ?state_case_size@?$output_processor@DV?$string_output_adapter@D@__crt_stdio_output@@V?$standard_base@DV?$string_output_adapter@D@__crt_stdio_output@@@2@@__crt_stdio_output@@AEAA_NXZ 00000001400514d8 f i libucrt:output.obj
 0001:000506c0       ?state_case_size@?$output_processor@_WV?$stream_output_adapter@_W@__crt_stdio_output@@V?$format_validation_base@_WV?$stream_output_adapter@_W@__crt_stdio_output@@@2@@__crt_stdio_output@@AEAA_NXZ 00000001400516c0 f i libucrt:output.obj
 0001:000508d8       ?state_case_size@?$output_processor@_WV?$stream_output_adapter@_W@__crt_stdio_output@@V?$positional_parameter_base@_WV?$stream_output_adapter@_W@__crt_stdio_output@@@2@@__crt_stdio_output@@AEAA_NXZ 00000001400518d8 f i libucrt:output.obj
 0001:00050af0       ?state_case_size@?$output_processor@_WV?$stream_output_adapter@_W@__crt_stdio_output@@V?$standard_base@_WV?$stream_output_adapter@_W@__crt_stdio_output@@@2@@__crt_stdio_output@@AEAA_NXZ 0000000140051af0 f i libucrt:output.obj
 0001:00050d08       ?state_case_size@?$output_processor@_WV?$string_output_adapter@_W@__crt_stdio_output@@V?$format_validation_base@_WV?$string_output_adapter@_W@__crt_stdio_output@@@2@@__crt_stdio_output@@AEAA_NXZ 0000000140051d08 f i libucrt:output.obj
 0001:00050f20       ?state_case_size@?$output_processor@_WV?$string_output_adapter@_W@__crt_stdio_output@@V?$positional_parameter_base@_WV?$string_output_adapter@_W@__crt_stdio_output@@@2@@__crt_stdio_output@@AEAA_NXZ 0000000140051f20 f i libucrt:output.obj
 0001:00051138       ?state_case_size@?$output_processor@_WV?$string_output_adapter@_W@__crt_stdio_output@@V?$standard_base@_WV?$string_output_adapter@_W@__crt_stdio_output@@@2@@__crt_stdio_output@@AEAA_NXZ 0000000140052138 f i libucrt:output.obj
 0001:00051350       ?state_case_type@?$output_processor@DV?$stream_output_adapter@D@__crt_stdio_output@@V?$format_validation_base@DV?$stream_output_adapter@D@__crt_stdio_output@@@2@@__crt_stdio_output@@AEAA_NXZ 0000000140052350 f i libucrt:output.obj
 0001:00051894       ?state_case_type@?$output_processor@DV?$stream_output_adapter@D@__crt_stdio_output@@V?$positional_parameter_base@DV?$stream_output_adapter@D@__crt_stdio_output@@@2@@__crt_stdio_output@@AEAA_NXZ 0000000140052894 f i libucrt:output.obj
 0001:00051e14       ?state_case_type@?$output_processor@DV?$stream_output_adapter@D@__crt_stdio_output@@V?$standard_base@DV?$stream_output_adapter@D@__crt_stdio_output@@@2@@__crt_stdio_output@@AEAA_NXZ 0000000140052e14 f i libucrt:output.obj
 0001:00052358       ?state_case_type@?$output_processor@DV?$string_output_adapter@D@__crt_stdio_output@@V?$format_validation_base@DV?$string_output_adapter@D@__crt_stdio_output@@@2@@__crt_stdio_output@@AEAA_NXZ 0000000140053358 f i libucrt:output.obj
 0001:0005285c       ?state_case_type@?$output_processor@DV?$string_output_adapter@D@__crt_stdio_output@@V?$positional_parameter_base@DV?$string_output_adapter@D@__crt_stdio_output@@@2@@__crt_stdio_output@@AEAA_NXZ 000000014005385c f i libucrt:output.obj
 0001:00052d78       ?state_case_type@?$output_processor@DV?$string_output_adapter@D@__crt_stdio_output@@V?$standard_base@DV?$string_output_adapter@D@__crt_stdio_output@@@2@@__crt_stdio_output@@AEAA_NXZ 0000000140053d78 f i libucrt:output.obj
 0001:0005327c       ?state_case_type@?$output_processor@_WV?$stream_output_adapter@_W@__crt_stdio_output@@V?$format_validation_base@_WV?$stream_output_adapter@_W@__crt_stdio_output@@@2@@__crt_stdio_output@@AEAA_NXZ 000000014005427c f i libucrt:output.obj
 0001:00053870       ?state_case_type@?$output_processor@_WV?$stream_output_adapter@_W@__crt_stdio_output@@V?$positional_parameter_base@_WV?$stream_output_adapter@_W@__crt_stdio_output@@@2@@__crt_stdio_output@@AEAA_NXZ 0000000140054870 f i libucrt:output.obj
 0001:00053e80       ?state_case_type@?$output_processor@_WV?$stream_output_adapter@_W@__crt_stdio_output@@V?$standard_base@_WV?$stream_output_adapter@_W@__crt_stdio_output@@@2@@__crt_stdio_output@@AEAA_NXZ 0000000140054e80 f i libucrt:output.obj
 0001:00054474       ?state_case_type@?$output_processor@_WV?$string_output_adapter@_W@__crt_stdio_output@@V?$format_validation_base@_WV?$string_output_adapter@_W@__crt_stdio_output@@@2@@__crt_stdio_output@@AEAA_NXZ 0000000140055474 f i libucrt:output.obj
 0001:000549f4       ?state_case_type@?$output_processor@_WV?$string_output_adapter@_W@__crt_stdio_output@@V?$positional_parameter_base@_WV?$string_output_adapter@_W@__crt_stdio_output@@@2@@__crt_stdio_output@@AEAA_NXZ 00000001400559f4 f i libucrt:output.obj
 0001:00054fa8       ?state_case_type@?$output_processor@_WV?$string_output_adapter@_W@__crt_stdio_output@@V?$standard_base@_WV?$string_output_adapter@_W@__crt_stdio_output@@@2@@__crt_stdio_output@@AEAA_NXZ 0000000140055fa8 f i libucrt:output.obj
 0001:00055528       ?state_case_width@?$output_processor@DV?$stream_output_adapter@D@__crt_stdio_output@@V?$format_validation_base@DV?$stream_output_adapter@D@__crt_stdio_output@@@2@@__crt_stdio_output@@AEAA_NXZ 0000000140056528 f i libucrt:output.obj
 0001:00055568       ?state_case_width@?$output_processor@DV?$stream_output_adapter@D@__crt_stdio_output@@V?$positional_parameter_base@DV?$stream_output_adapter@D@__crt_stdio_output@@@2@@__crt_stdio_output@@AEAA_NXZ 0000000140056568 f i libucrt:output.obj
 0001:000555cc       ?state_case_width@?$output_processor@DV?$stream_output_adapter@D@__crt_stdio_output@@V?$standard_base@DV?$stream_output_adapter@D@__crt_stdio_output@@@2@@__crt_stdio_output@@AEAA_NXZ 00000001400565cc f i libucrt:output.obj
 0001:0005560c       ?state_case_width@?$output_processor@DV?$string_output_adapter@D@__crt_stdio_output@@V?$format_validation_base@DV?$string_output_adapter@D@__crt_stdio_output@@@2@@__crt_stdio_output@@AEAA_NXZ 000000014005660c f i libucrt:output.obj
 0001:0005564c       ?state_case_width@?$output_processor@DV?$string_output_adapter@D@__crt_stdio_output@@V?$positional_parameter_base@DV?$string_output_adapter@D@__crt_stdio_output@@@2@@__crt_stdio_output@@AEAA_NXZ 000000014005664c f i libucrt:output.obj
 0001:000556b0       ?state_case_width@?$output_processor@DV?$string_output_adapter@D@__crt_stdio_output@@V?$standard_base@DV?$string_output_adapter@D@__crt_stdio_output@@@2@@__crt_stdio_output@@AEAA_NXZ 00000001400566b0 f i libucrt:output.obj
 0001:000556f0       ?state_case_width@?$output_processor@_WV?$stream_output_adapter@_W@__crt_stdio_output@@V?$format_validation_base@_WV?$stream_output_adapter@_W@__crt_stdio_output@@@2@@__crt_stdio_output@@AEAA_NXZ 00000001400566f0 f i libucrt:output.obj
 0001:00055730       ?state_case_width@?$output_processor@_WV?$stream_output_adapter@_W@__crt_stdio_output@@V?$positional_parameter_base@_WV?$stream_output_adapter@_W@__crt_stdio_output@@@2@@__crt_stdio_output@@AEAA_NXZ 0000000140056730 f i libucrt:output.obj
 0001:00055798       ?state_case_width@?$output_processor@_WV?$stream_output_adapter@_W@__crt_stdio_output@@V?$standard_base@_WV?$stream_output_adapter@_W@__crt_stdio_output@@@2@@__crt_stdio_output@@AEAA_NXZ 0000000140056798 f i libucrt:output.obj
 0001:000557d8       ?state_case_width@?$output_processor@_WV?$string_output_adapter@_W@__crt_stdio_output@@V?$format_validation_base@_WV?$string_output_adapter@_W@__crt_stdio_output@@@2@@__crt_stdio_output@@AEAA_NXZ 00000001400567d8 f i libucrt:output.obj
 0001:00055818       ?state_case_width@?$output_processor@_WV?$string_output_adapter@_W@__crt_stdio_output@@V?$positional_parameter_base@_WV?$string_output_adapter@_W@__crt_stdio_output@@@2@@__crt_stdio_output@@AEAA_NXZ 0000000140056818 f i libucrt:output.obj
 0001:00055880       ?state_case_width@?$output_processor@_WV?$string_output_adapter@_W@__crt_stdio_output@@V?$standard_base@_WV?$string_output_adapter@_W@__crt_stdio_output@@@2@@__crt_stdio_output@@AEAA_NXZ 0000000140056880 f i libucrt:output.obj
 0001:000558c0       ?state_count@?$format_validation_base@DV?$stream_output_adapter@D@__crt_stdio_output@@@__crt_stdio_output@@KAIXZ 00000001400568c0 f i libucrt:output.obj
 0001:000558c8       ?state_count@?$format_validation_base@DV?$string_output_adapter@D@__crt_stdio_output@@@__crt_stdio_output@@KAIXZ 00000001400568c8 f i libucrt:output.obj
 0001:000558d0       ?state_count@?$format_validation_base@_WV?$stream_output_adapter@_W@__crt_stdio_output@@@__crt_stdio_output@@KAIXZ 00000001400568d0 f i libucrt:output.obj
 0001:000558d8       ?state_count@?$format_validation_base@_WV?$string_output_adapter@_W@__crt_stdio_output@@@__crt_stdio_output@@KAIXZ 00000001400568d8 f i libucrt:output.obj
 0001:000558e0       ?state_count@?$standard_base@DV?$stream_output_adapter@D@__crt_stdio_output@@@__crt_stdio_output@@KAIXZ 00000001400568e0 f i libucrt:output.obj
 0001:000558e8       ?state_count@?$standard_base@DV?$string_output_adapter@D@__crt_stdio_output@@@__crt_stdio_output@@KAIXZ 00000001400568e8 f i libucrt:output.obj
 0001:000558f0       ?state_count@?$standard_base@_WV?$stream_output_adapter@_W@__crt_stdio_output@@@__crt_stdio_output@@KAIXZ 00000001400568f0 f i libucrt:output.obj
 0001:000558f8       ?state_count@?$standard_base@_WV?$string_output_adapter@_W@__crt_stdio_output@@@__crt_stdio_output@@KAIXZ 00000001400568f8 f i libucrt:output.obj
 0001:00055900       ?state_transition_table@?$format_validation_base@DV?$stream_output_adapter@D@__crt_stdio_output@@@__crt_stdio_output@@KAAEBV?$spectre_mitigated_lookup_table@Ustate_transition_pair@__crt_stdio_output@@$0IA@@2@XZ 0000000140056900 f i libucrt:output.obj
 0001:0005590c       ?state_transition_table@?$format_validation_base@DV?$string_output_adapter@D@__crt_stdio_output@@@__crt_stdio_output@@KAAEBV?$spectre_mitigated_lookup_table@Ustate_transition_pair@__crt_stdio_output@@$0IA@@2@XZ 000000014005690c f i libucrt:output.obj
 0001:00055918       ?state_transition_table@?$format_validation_base@_WV?$stream_output_adapter@_W@__crt_stdio_output@@@__crt_stdio_output@@KAAEBV?$spectre_mitigated_lookup_table@Ustate_transition_pair@__crt_stdio_output@@$0IA@@2@XZ 0000000140056918 f i libucrt:output.obj
 0001:00055924       ?state_transition_table@?$format_validation_base@_WV?$string_output_adapter@_W@__crt_stdio_output@@@__crt_stdio_output@@KAAEBV?$spectre_mitigated_lookup_table@Ustate_transition_pair@__crt_stdio_output@@$0IA@@2@XZ 0000000140056924 f i libucrt:output.obj
 0001:00055930       ?state_transition_table@?$standard_base@DV?$stream_output_adapter@D@__crt_stdio_output@@@__crt_stdio_output@@KAAEBV?$spectre_mitigated_lookup_table@Ustate_transition_pair@__crt_stdio_output@@$0IA@@2@XZ 0000000140056930 f i libucrt:output.obj
 0001:0005593c       ?state_transition_table@?$standard_base@DV?$string_output_adapter@D@__crt_stdio_output@@@__crt_stdio_output@@KAAEBV?$spectre_mitigated_lookup_table@Ustate_transition_pair@__crt_stdio_output@@$0IA@@2@XZ 000000014005693c f i libucrt:output.obj
 0001:00055948       ?state_transition_table@?$standard_base@_WV?$stream_output_adapter@_W@__crt_stdio_output@@@__crt_stdio_output@@KAAEBV?$spectre_mitigated_lookup_table@Ustate_transition_pair@__crt_stdio_output@@$0IA@@2@XZ 0000000140056948 f i libucrt:output.obj
 0001:00055954       ?state_transition_table@?$standard_base@_WV?$string_output_adapter@_W@__crt_stdio_output@@@__crt_stdio_output@@KAAEBV?$spectre_mitigated_lookup_table@Ustate_transition_pair@__crt_stdio_output@@$0IA@@2@XZ 0000000140056954 f i libucrt:output.obj
 0001:00055960       ?tchar_string@?$common_data@D@__crt_stdio_output@@IEAAAEAPEADD@Z 0000000140056960 f i libucrt:output.obj
 0001:00055968       ?tchar_string@?$common_data@D@__crt_stdio_output@@IEAAAEAPEADXZ 0000000140056968 f i libucrt:output.obj
 0001:00055970       ?tchar_string@?$common_data@_W@__crt_stdio_output@@IEAAAEAPEA_WXZ 0000000140056970 f i libucrt:output.obj
 0001:00055978       ?tchar_string@?$common_data@_W@__crt_stdio_output@@IEAAAEAPEA_W_W@Z 0000000140056978 f i libucrt:output.obj
 0001:00055980       ?to_integer_size@__crt_stdio_output@@YA_KW4length_modifier@1@@Z 0000000140056980 f i libucrt:output.obj
 0001:000559d8       ?type_case_X@?$output_processor@DV?$stream_output_adapter@D@__crt_stdio_output@@V?$format_validation_base@DV?$stream_output_adapter@D@__crt_stdio_output@@@2@@__crt_stdio_output@@AEAA_NXZ 00000001400569d8 f i libucrt:output.obj
 0001:000559e0       ?type_case_X@?$output_processor@DV?$stream_output_adapter@D@__crt_stdio_output@@V?$positional_parameter_base@DV?$stream_output_adapter@D@__crt_stdio_output@@@2@@__crt_stdio_output@@AEAA_NXZ 00000001400569e0 f i libucrt:output.obj
 0001:000559e8       ?type_case_X@?$output_processor@DV?$stream_output_adapter@D@__crt_stdio_output@@V?$standard_base@DV?$stream_output_adapter@D@__crt_stdio_output@@@2@@__crt_stdio_output@@AEAA_NXZ 00000001400569e8 f i libucrt:output.obj
 0001:000559f0       ?type_case_X@?$output_processor@DV?$string_output_adapter@D@__crt_stdio_output@@V?$format_validation_base@DV?$string_output_adapter@D@__crt_stdio_output@@@2@@__crt_stdio_output@@AEAA_NXZ 00000001400569f0 f i libucrt:output.obj
 0001:000559f8       ?type_case_X@?$output_processor@DV?$string_output_adapter@D@__crt_stdio_output@@V?$positional_parameter_base@DV?$string_output_adapter@D@__crt_stdio_output@@@2@@__crt_stdio_output@@AEAA_NXZ 00000001400569f8 f i libucrt:output.obj
 0001:00055a00       ?type_case_X@?$output_processor@DV?$string_output_adapter@D@__crt_stdio_output@@V?$standard_base@DV?$string_output_adapter@D@__crt_stdio_output@@@2@@__crt_stdio_output@@AEAA_NXZ 0000000140056a00 f i libucrt:output.obj
 0001:00055a08       ?type_case_X@?$output_processor@_WV?$stream_output_adapter@_W@__crt_stdio_output@@V?$format_validation_base@_WV?$stream_output_adapter@_W@__crt_stdio_output@@@2@@__crt_stdio_output@@AEAA_NXZ 0000000140056a08 f i libucrt:output.obj
 0001:00055a10       ?type_case_X@?$output_processor@_WV?$stream_output_adapter@_W@__crt_stdio_output@@V?$positional_parameter_base@_WV?$stream_output_adapter@_W@__crt_stdio_output@@@2@@__crt_stdio_output@@AEAA_NXZ 0000000140056a10 f i libucrt:output.obj
 0001:00055a18       ?type_case_X@?$output_processor@_WV?$stream_output_adapter@_W@__crt_stdio_output@@V?$standard_base@_WV?$stream_output_adapter@_W@__crt_stdio_output@@@2@@__crt_stdio_output@@AEAA_NXZ 0000000140056a18 f i libucrt:output.obj
 0001:00055a20       ?type_case_X@?$output_processor@_WV?$string_output_adapter@_W@__crt_stdio_output@@V?$format_validation_base@_WV?$string_output_adapter@_W@__crt_stdio_output@@@2@@__crt_stdio_output@@AEAA_NXZ 0000000140056a20 f i libucrt:output.obj
 0001:00055a28       ?type_case_X@?$output_processor@_WV?$string_output_adapter@_W@__crt_stdio_output@@V?$positional_parameter_base@_WV?$string_output_adapter@_W@__crt_stdio_output@@@2@@__crt_stdio_output@@AEAA_NXZ 0000000140056a28 f i libucrt:output.obj
 0001:00055a30       ?type_case_X@?$output_processor@_WV?$string_output_adapter@_W@__crt_stdio_output@@V?$standard_base@_WV?$string_output_adapter@_W@__crt_stdio_output@@@2@@__crt_stdio_output@@AEAA_NXZ 0000000140056a30 f i libucrt:output.obj
 0001:00055a38       ?type_case_Z@?$output_processor@DV?$stream_output_adapter@D@__crt_stdio_output@@V?$format_validation_base@DV?$stream_output_adapter@D@__crt_stdio_output@@@2@@__crt_stdio_output@@AEAA_NXZ 0000000140056a38 f i libucrt:output.obj
 0001:00055ad4       ?type_case_Z@?$output_processor@DV?$stream_output_adapter@D@__crt_stdio_output@@V?$positional_parameter_base@DV?$stream_output_adapter@D@__crt_stdio_output@@@2@@__crt_stdio_output@@AEAA_NXZ 0000000140056ad4 f i libucrt:output.obj
 0001:00055ba4       ?type_case_Z@?$output_processor@DV?$stream_output_adapter@D@__crt_stdio_output@@V?$standard_base@DV?$stream_output_adapter@D@__crt_stdio_output@@@2@@__crt_stdio_output@@AEAA_NXZ 0000000140056ba4 f i libucrt:output.obj
 0001:00055c40       ?type_case_Z@?$output_processor@DV?$string_output_adapter@D@__crt_stdio_output@@V?$format_validation_base@DV?$string_output_adapter@D@__crt_stdio_output@@@2@@__crt_stdio_output@@AEAA_NXZ 0000000140056c40 f i libucrt:output.obj
 0001:00055cdc       ?type_case_Z@?$output_processor@DV?$string_output_adapter@D@__crt_stdio_output@@V?$positional_parameter_base@DV?$string_output_adapter@D@__crt_stdio_output@@@2@@__crt_stdio_output@@AEAA_NXZ 0000000140056cdc f i libucrt:output.obj
 0001:00055dac       ?type_case_Z@?$output_processor@DV?$string_output_adapter@D@__crt_stdio_output@@V?$standard_base@DV?$string_output_adapter@D@__crt_stdio_output@@@2@@__crt_stdio_output@@AEAA_NXZ 0000000140056dac f i libucrt:output.obj
 0001:00055e48       ?type_case_Z@?$output_processor@_WV?$stream_output_adapter@_W@__crt_stdio_output@@V?$format_validation_base@_WV?$stream_output_adapter@_W@__crt_stdio_output@@@2@@__crt_stdio_output@@AEAA_NXZ 0000000140056e48 f i libucrt:output.obj
 0001:00055ee4       ?type_case_Z@?$output_processor@_WV?$stream_output_adapter@_W@__crt_stdio_output@@V?$positional_parameter_base@_WV?$stream_output_adapter@_W@__crt_stdio_output@@@2@@__crt_stdio_output@@AEAA_NXZ 0000000140056ee4 f i libucrt:output.obj
 0001:00055fa0       ?type_case_Z@?$output_processor@_WV?$stream_output_adapter@_W@__crt_stdio_output@@V?$standard_base@_WV?$stream_output_adapter@_W@__crt_stdio_output@@@2@@__crt_stdio_output@@AEAA_NXZ 0000000140056fa0 f i libucrt:output.obj
 0001:0005603c       ?type_case_Z@?$output_processor@_WV?$string_output_adapter@_W@__crt_stdio_output@@V?$format_validation_base@_WV?$string_output_adapter@_W@__crt_stdio_output@@@2@@__crt_stdio_output@@AEAA_NXZ 000000014005703c f i libucrt:output.obj
 0001:000560d8       ?type_case_Z@?$output_processor@_WV?$string_output_adapter@_W@__crt_stdio_output@@V?$positional_parameter_base@_WV?$string_output_adapter@_W@__crt_stdio_output@@@2@@__crt_stdio_output@@AEAA_NXZ 00000001400570d8 f i libucrt:output.obj
 0001:00056194       ?type_case_Z@?$output_processor@_WV?$string_output_adapter@_W@__crt_stdio_output@@V?$standard_base@_WV?$string_output_adapter@_W@__crt_stdio_output@@@2@@__crt_stdio_output@@AEAA_NXZ 0000000140057194 f i libucrt:output.obj
 0001:00056230       ?type_case_a@?$output_processor@DV?$stream_output_adapter@D@__crt_stdio_output@@V?$format_validation_base@DV?$stream_output_adapter@D@__crt_stdio_output@@@2@@__crt_stdio_output@@AEAA_NXZ 0000000140057230 f i libucrt:output.obj
 0001:00056518       ?type_case_a@?$output_processor@DV?$stream_output_adapter@D@__crt_stdio_output@@V?$positional_parameter_base@DV?$stream_output_adapter@D@__crt_stdio_output@@@2@@__crt_stdio_output@@AEAA_NXZ 0000000140057518 f i libucrt:output.obj
 0001:00056834       ?type_case_a@?$output_processor@DV?$stream_output_adapter@D@__crt_stdio_output@@V?$standard_base@DV?$stream_output_adapter@D@__crt_stdio_output@@@2@@__crt_stdio_output@@AEAA_NXZ 0000000140057834 f i libucrt:output.obj
 0001:00056b1c       ?type_case_a@?$output_processor@DV?$string_output_adapter@D@__crt_stdio_output@@V?$format_validation_base@DV?$string_output_adapter@D@__crt_stdio_output@@@2@@__crt_stdio_output@@AEAA_NXZ 0000000140057b1c f i libucrt:output.obj
 0001:00056e04       ?type_case_a@?$output_processor@DV?$string_output_adapter@D@__crt_stdio_output@@V?$positional_parameter_base@DV?$string_output_adapter@D@__crt_stdio_output@@@2@@__crt_stdio_output@@AEAA_NXZ 0000000140057e04 f i libucrt:output.obj
 0001:00057120       ?type_case_a@?$output_processor@DV?$string_output_adapter@D@__crt_stdio_output@@V?$standard_base@DV?$string_output_adapter@D@__crt_stdio_output@@@2@@__crt_stdio_output@@AEAA_NXZ 0000000140058120 f i libucrt:output.obj
 0001:00057408       ?type_case_a@?$output_processor@_WV?$stream_output_adapter@_W@__crt_stdio_output@@V?$format_validation_base@_WV?$stream_output_adapter@_W@__crt_stdio_output@@@2@@__crt_stdio_output@@AEAA_NXZ 0000000140058408 f i libucrt:output.obj
 0001:00057708       ?type_case_a@?$output_processor@_WV?$stream_output_adapter@_W@__crt_stdio_output@@V?$positional_parameter_base@_WV?$stream_output_adapter@_W@__crt_stdio_output@@@2@@__crt_stdio_output@@AEAA_NXZ 0000000140058708 f i libucrt:output.obj
 0001:00057a40       ?type_case_a@?$output_processor@_WV?$stream_output_adapter@_W@__crt_stdio_output@@V?$standard_base@_WV?$stream_output_adapter@_W@__crt_stdio_output@@@2@@__crt_stdio_output@@AEAA_NXZ 0000000140058a40 f i libucrt:output.obj
 0001:00057d40       ?type_case_a@?$output_processor@_WV?$string_output_adapter@_W@__crt_stdio_output@@V?$format_validation_base@_WV?$string_output_adapter@_W@__crt_stdio_output@@@2@@__crt_stdio_output@@AEAA_NXZ 0000000140058d40 f i libucrt:output.obj
 0001:00058040       ?type_case_a@?$output_processor@_WV?$string_output_adapter@_W@__crt_stdio_output@@V?$positional_parameter_base@_WV?$string_output_adapter@_W@__crt_stdio_output@@@2@@__crt_stdio_output@@AEAA_NXZ 0000000140059040 f i libucrt:output.obj
 0001:00058378       ?type_case_a@?$output_processor@_WV?$string_output_adapter@_W@__crt_stdio_output@@V?$standard_base@_WV?$string_output_adapter@_W@__crt_stdio_output@@@2@@__crt_stdio_output@@AEAA_NXZ 0000000140059378 f i libucrt:output.obj
 0001:00058678       ?type_case_c@?$output_processor@DV?$stream_output_adapter@D@__crt_stdio_output@@V?$format_validation_base@DV?$stream_output_adapter@D@__crt_stdio_output@@@2@@__crt_stdio_output@@AEAA_NXZ 0000000140059678 f i libucrt:output.obj
 0001:00058680       ?type_case_c@?$output_processor@DV?$stream_output_adapter@D@__crt_stdio_output@@V?$positional_parameter_base@DV?$stream_output_adapter@D@__crt_stdio_output@@@2@@__crt_stdio_output@@AEAA_NXZ 0000000140059680 f i libucrt:output.obj
 0001:00058688       ?type_case_c@?$output_processor@DV?$stream_output_adapter@D@__crt_stdio_output@@V?$standard_base@DV?$stream_output_adapter@D@__crt_stdio_output@@@2@@__crt_stdio_output@@AEAA_NXZ 0000000140059688 f i libucrt:output.obj
 0001:00058690       ?type_case_c@?$output_processor@DV?$string_output_adapter@D@__crt_stdio_output@@V?$format_validation_base@DV?$string_output_adapter@D@__crt_stdio_output@@@2@@__crt_stdio_output@@AEAA_NXZ 0000000140059690 f i libucrt:output.obj
 0001:00058698       ?type_case_c@?$output_processor@DV?$string_output_adapter@D@__crt_stdio_output@@V?$positional_parameter_base@DV?$string_output_adapter@D@__crt_stdio_output@@@2@@__crt_stdio_output@@AEAA_NXZ 0000000140059698 f i libucrt:output.obj
 0001:000586a0       ?type_case_c@?$output_processor@DV?$string_output_adapter@D@__crt_stdio_output@@V?$standard_base@DV?$string_output_adapter@D@__crt_stdio_output@@@2@@__crt_stdio_output@@AEAA_NXZ 00000001400596a0 f i libucrt:output.obj
 0001:000586a8       ?type_case_c@?$output_processor@_WV?$stream_output_adapter@_W@__crt_stdio_output@@V?$format_validation_base@_WV?$stream_output_adapter@_W@__crt_stdio_output@@@2@@__crt_stdio_output@@AEAA_NXZ 00000001400596a8 f i libucrt:output.obj
 0001:000586b0       ?type_case_c@?$output_processor@_WV?$stream_output_adapter@_W@__crt_stdio_output@@V?$positional_parameter_base@_WV?$stream_output_adapter@_W@__crt_stdio_output@@@2@@__crt_stdio_output@@AEAA_NXZ 00000001400596b0 f i libucrt:output.obj
 0001:000586b8       ?type_case_c@?$output_processor@_WV?$stream_output_adapter@_W@__crt_stdio_output@@V?$standard_base@_WV?$stream_output_adapter@_W@__crt_stdio_output@@@2@@__crt_stdio_output@@AEAA_NXZ 00000001400596b8 f i libucrt:output.obj
 0001:000586c0       ?type_case_c@?$output_processor@_WV?$string_output_adapter@_W@__crt_stdio_output@@V?$format_validation_base@_WV?$string_output_adapter@_W@__crt_stdio_output@@@2@@__crt_stdio_output@@AEAA_NXZ 00000001400596c0 f i libucrt:output.obj
 0001:000586c8       ?type_case_c@?$output_processor@_WV?$string_output_adapter@_W@__crt_stdio_output@@V?$positional_parameter_base@_WV?$string_output_adapter@_W@__crt_stdio_output@@@2@@__crt_stdio_output@@AEAA_NXZ 00000001400596c8 f i libucrt:output.obj
 0001:000586d0       ?type_case_c@?$output_processor@_WV?$string_output_adapter@_W@__crt_stdio_output@@V?$standard_base@_WV?$string_output_adapter@_W@__crt_stdio_output@@@2@@__crt_stdio_output@@AEAA_NXZ 00000001400596d0 f i libucrt:output.obj
 0001:000586d8       ?type_case_c_tchar@?$output_processor@DV?$stream_output_adapter@D@__crt_stdio_output@@V?$format_validation_base@DV?$stream_output_adapter@D@__crt_stdio_output@@@2@@__crt_stdio_output@@AEAA_ND@Z 00000001400596d8 f i libucrt:output.obj
 0001:000587e0       ?type_case_c_tchar@?$output_processor@DV?$stream_output_adapter@D@__crt_stdio_output@@V?$positional_parameter_base@DV?$stream_output_adapter@D@__crt_stdio_output@@@2@@__crt_stdio_output@@AEAA_ND@Z 00000001400597e0 f i libucrt:output.obj
 0001:00058940       ?type_case_c_tchar@?$output_processor@DV?$stream_output_adapter@D@__crt_stdio_output@@V?$standard_base@DV?$stream_output_adapter@D@__crt_stdio_output@@@2@@__crt_stdio_output@@AEAA_ND@Z 0000000140059940 f i libucrt:output.obj
 0001:00058a48       ?type_case_c_tchar@?$output_processor@DV?$string_output_adapter@D@__crt_stdio_output@@V?$format_validation_base@DV?$string_output_adapter@D@__crt_stdio_output@@@2@@__crt_stdio_output@@AEAA_ND@Z 0000000140059a48 f i libucrt:output.obj
 0001:00058b50       ?type_case_c_tchar@?$output_processor@DV?$string_output_adapter@D@__crt_stdio_output@@V?$positional_parameter_base@DV?$string_output_adapter@D@__crt_stdio_output@@@2@@__crt_stdio_output@@AEAA_ND@Z 0000000140059b50 f i libucrt:output.obj
 0001:00058cb0       ?type_case_c_tchar@?$output_processor@DV?$string_output_adapter@D@__crt_stdio_output@@V?$standard_base@DV?$string_output_adapter@D@__crt_stdio_output@@@2@@__crt_stdio_output@@AEAA_ND@Z 0000000140059cb0 f i libucrt:output.obj
 0001:00058db8       ?type_case_c_tchar@?$output_processor@_WV?$stream_output_adapter@_W@__crt_stdio_output@@V?$format_validation_base@_WV?$stream_output_adapter@_W@__crt_stdio_output@@@2@@__crt_stdio_output@@AEAA_N_W@Z 0000000140059db8 f i libucrt:output.obj
 0001:00058eb0       ?type_case_c_tchar@?$output_processor@_WV?$stream_output_adapter@_W@__crt_stdio_output@@V?$positional_parameter_base@_WV?$stream_output_adapter@_W@__crt_stdio_output@@@2@@__crt_stdio_output@@AEAA_N_W@Z 0000000140059eb0 f i libucrt:output.obj
 0001:00058fe4       ?type_case_c_tchar@?$output_processor@_WV?$stream_output_adapter@_W@__crt_stdio_output@@V?$standard_base@_WV?$stream_output_adapter@_W@__crt_stdio_output@@@2@@__crt_stdio_output@@AEAA_N_W@Z 0000000140059fe4 f i libucrt:output.obj
 0001:000590dc       ?type_case_c_tchar@?$output_processor@_WV?$string_output_adapter@_W@__crt_stdio_output@@V?$format_validation_base@_WV?$string_output_adapter@_W@__crt_stdio_output@@@2@@__crt_stdio_output@@AEAA_N_W@Z 000000014005a0dc f i libucrt:output.obj
 0001:000591d4       ?type_case_c_tchar@?$output_processor@_WV?$string_output_adapter@_W@__crt_stdio_output@@V?$positional_parameter_base@_WV?$string_output_adapter@_W@__crt_stdio_output@@@2@@__crt_stdio_output@@AEAA_N_W@Z 000000014005a1d4 f i libucrt:output.obj
 0001:00059308       ?type_case_c_tchar@?$output_processor@_WV?$string_output_adapter@_W@__crt_stdio_output@@V?$standard_base@_WV?$string_output_adapter@_W@__crt_stdio_output@@@2@@__crt_stdio_output@@AEAA_N_W@Z 000000014005a308 f i libucrt:output.obj
 0001:00059400       ?type_case_d@?$output_processor@DV?$stream_output_adapter@D@__crt_stdio_output@@V?$format_validation_base@DV?$stream_output_adapter@D@__crt_stdio_output@@@2@@__crt_stdio_output@@AEAA_NXZ 000000014005a400 f i libucrt:output.obj
 0001:00059410       ?type_case_d@?$output_processor@DV?$stream_output_adapter@D@__crt_stdio_output@@V?$positional_parameter_base@DV?$stream_output_adapter@D@__crt_stdio_output@@@2@@__crt_stdio_output@@AEAA_NXZ 000000014005a410 f i libucrt:output.obj
 0001:00059420       ?type_case_d@?$output_processor@DV?$stream_output_adapter@D@__crt_stdio_output@@V?$standard_base@DV?$stream_output_adapter@D@__crt_stdio_output@@@2@@__crt_stdio_output@@AEAA_NXZ 000000014005a420 f i libucrt:output.obj
 0001:00059430       ?type_case_d@?$output_processor@DV?$string_output_adapter@D@__crt_stdio_output@@V?$format_validation_base@DV?$string_output_adapter@D@__crt_stdio_output@@@2@@__crt_stdio_output@@AEAA_NXZ 000000014005a430 f i libucrt:output.obj
 0001:00059440       ?type_case_d@?$output_processor@DV?$string_output_adapter@D@__crt_stdio_output@@V?$positional_parameter_base@DV?$string_output_adapter@D@__crt_stdio_output@@@2@@__crt_stdio_output@@AEAA_NXZ 000000014005a440 f i libucrt:output.obj
 0001:00059450       ?type_case_d@?$output_processor@DV?$string_output_adapter@D@__crt_stdio_output@@V?$standard_base@DV?$string_output_adapter@D@__crt_stdio_output@@@2@@__crt_stdio_output@@AEAA_NXZ 000000014005a450 f i libucrt:output.obj
 0001:00059460       ?type_case_d@?$output_processor@_WV?$stream_output_adapter@_W@__crt_stdio_output@@V?$format_validation_base@_WV?$stream_output_adapter@_W@__crt_stdio_output@@@2@@__crt_stdio_output@@AEAA_NXZ 000000014005a460 f i libucrt:output.obj
 0001:00059470       ?type_case_d@?$output_processor@_WV?$stream_output_adapter@_W@__crt_stdio_output@@V?$positional_parameter_base@_WV?$stream_output_adapter@_W@__crt_stdio_output@@@2@@__crt_stdio_output@@AEAA_NXZ 000000014005a470 f i libucrt:output.obj
 0001:00059480       ?type_case_d@?$output_processor@_WV?$stream_output_adapter@_W@__crt_stdio_output@@V?$standard_base@_WV?$stream_output_adapter@_W@__crt_stdio_output@@@2@@__crt_stdio_output@@AEAA_NXZ 000000014005a480 f i libucrt:output.obj
 0001:00059490       ?type_case_d@?$output_processor@_WV?$string_output_adapter@_W@__crt_stdio_output@@V?$format_validation_base@_WV?$string_output_adapter@_W@__crt_stdio_output@@@2@@__crt_stdio_output@@AEAA_NXZ 000000014005a490 f i libucrt:output.obj
 0001:000594a0       ?type_case_d@?$output_processor@_WV?$string_output_adapter@_W@__crt_stdio_output@@V?$positional_parameter_base@_WV?$string_output_adapter@_W@__crt_stdio_output@@@2@@__crt_stdio_output@@AEAA_NXZ 000000014005a4a0 f i libucrt:output.obj
 0001:000594b0       ?type_case_d@?$output_processor@_WV?$string_output_adapter@_W@__crt_stdio_output@@V?$standard_base@_WV?$string_output_adapter@_W@__crt_stdio_output@@@2@@__crt_stdio_output@@AEAA_NXZ 000000014005a4b0 f i libucrt:output.obj
 0001:000594c0       ?type_case_n@?$output_processor@DV?$stream_output_adapter@D@__crt_stdio_output@@V?$format_validation_base@DV?$stream_output_adapter@D@__crt_stdio_output@@@2@@__crt_stdio_output@@AEAA_NXZ 000000014005a4c0 f i libucrt:output.obj
 0001:000595a4       ?type_case_n@?$output_processor@DV?$stream_output_adapter@D@__crt_stdio_output@@V?$positional_parameter_base@DV?$stream_output_adapter@D@__crt_stdio_output@@@2@@__crt_stdio_output@@AEAA_NXZ 000000014005a5a4 f i libucrt:output.obj
 0001:000596c0       ?type_case_n@?$output_processor@DV?$stream_output_adapter@D@__crt_stdio_output@@V?$standard_base@DV?$stream_output_adapter@D@__crt_stdio_output@@@2@@__crt_stdio_output@@AEAA_NXZ 000000014005a6c0 f i libucrt:output.obj
 0001:000597a4       ?type_case_n@?$output_processor@DV?$string_output_adapter@D@__crt_stdio_output@@V?$format_validation_base@DV?$string_output_adapter@D@__crt_stdio_output@@@2@@__crt_stdio_output@@AEAA_NXZ 000000014005a7a4 f i libucrt:output.obj
 0001:00059888       ?type_case_n@?$output_processor@DV?$string_output_adapter@D@__crt_stdio_output@@V?$positional_parameter_base@DV?$string_output_adapter@D@__crt_stdio_output@@@2@@__crt_stdio_output@@AEAA_NXZ 000000014005a888 f i libucrt:output.obj
 0001:000599a4       ?type_case_n@?$output_processor@DV?$string_output_adapter@D@__crt_stdio_output@@V?$standard_base@DV?$string_output_adapter@D@__crt_stdio_output@@@2@@__crt_stdio_output@@AEAA_NXZ 000000014005a9a4 f i libucrt:output.obj
 0001:00059a88       ?type_case_n@?$output_processor@_WV?$stream_output_adapter@_W@__crt_stdio_output@@V?$format_validation_base@_WV?$stream_output_adapter@_W@__crt_stdio_output@@@2@@__crt_stdio_output@@AEAA_NXZ 000000014005aa88 f i libucrt:output.obj
 0001:00059b6c       ?type_case_n@?$output_processor@_WV?$stream_output_adapter@_W@__crt_stdio_output@@V?$positional_parameter_base@_WV?$stream_output_adapter@_W@__crt_stdio_output@@@2@@__crt_stdio_output@@AEAA_NXZ 000000014005ab6c f i libucrt:output.obj
 0001:00059c88       ?type_case_n@?$output_processor@_WV?$stream_output_adapter@_W@__crt_stdio_output@@V?$standard_base@_WV?$stream_output_adapter@_W@__crt_stdio_output@@@2@@__crt_stdio_output@@AEAA_NXZ 000000014005ac88 f i libucrt:output.obj
 0001:00059d6c       ?type_case_n@?$output_processor@_WV?$string_output_adapter@_W@__crt_stdio_output@@V?$format_validation_base@_WV?$string_output_adapter@_W@__crt_stdio_output@@@2@@__crt_stdio_output@@AEAA_NXZ 000000014005ad6c f i libucrt:output.obj
 0001:00059e50       ?type_case_n@?$output_processor@_WV?$string_output_adapter@_W@__crt_stdio_output@@V?$positional_parameter_base@_WV?$string_output_adapter@_W@__crt_stdio_output@@@2@@__crt_stdio_output@@AEAA_NXZ 000000014005ae50 f i libucrt:output.obj
 0001:00059f6c       ?type_case_n@?$output_processor@_WV?$string_output_adapter@_W@__crt_stdio_output@@V?$standard_base@_WV?$string_output_adapter@_W@__crt_stdio_output@@@2@@__crt_stdio_output@@AEAA_NXZ 000000014005af6c f i libucrt:output.obj
 0001:0005a050       ?type_case_o@?$output_processor@DV?$stream_output_adapter@D@__crt_stdio_output@@V?$format_validation_base@DV?$stream_output_adapter@D@__crt_stdio_output@@@2@@__crt_stdio_output@@AEAA_NXZ 000000014005b050 f i libucrt:output.obj
 0001:0005a070       ?type_case_o@?$output_processor@DV?$stream_output_adapter@D@__crt_stdio_output@@V?$positional_parameter_base@DV?$stream_output_adapter@D@__crt_stdio_output@@@2@@__crt_stdio_output@@AEAA_NXZ 000000014005b070 f i libucrt:output.obj
 0001:0005a090       ?type_case_o@?$output_processor@DV?$stream_output_adapter@D@__crt_stdio_output@@V?$standard_base@DV?$stream_output_adapter@D@__crt_stdio_output@@@2@@__crt_stdio_output@@AEAA_NXZ 000000014005b090 f i libucrt:output.obj
 0001:0005a0b0       ?type_case_o@?$output_processor@DV?$string_output_adapter@D@__crt_stdio_output@@V?$format_validation_base@DV?$string_output_adapter@D@__crt_stdio_output@@@2@@__crt_stdio_output@@AEAA_NXZ 000000014005b0b0 f i libucrt:output.obj
 0001:0005a0d0       ?type_case_o@?$output_processor@DV?$string_output_adapter@D@__crt_stdio_output@@V?$positional_parameter_base@DV?$string_output_adapter@D@__crt_stdio_output@@@2@@__crt_stdio_output@@AEAA_NXZ 000000014005b0d0 f i libucrt:output.obj
 0001:0005a0f0       ?type_case_o@?$output_processor@DV?$string_output_adapter@D@__crt_stdio_output@@V?$standard_base@DV?$string_output_adapter@D@__crt_stdio_output@@@2@@__crt_stdio_output@@AEAA_NXZ 000000014005b0f0 f i libucrt:output.obj
 0001:0005a110       ?type_case_o@?$output_processor@_WV?$stream_output_adapter@_W@__crt_stdio_output@@V?$format_validation_base@_WV?$stream_output_adapter@_W@__crt_stdio_output@@@2@@__crt_stdio_output@@AEAA_NXZ 000000014005b110 f i libucrt:output.obj
 0001:0005a130       ?type_case_o@?$output_processor@_WV?$stream_output_adapter@_W@__crt_stdio_output@@V?$positional_parameter_base@_WV?$stream_output_adapter@_W@__crt_stdio_output@@@2@@__crt_stdio_output@@AEAA_NXZ 000000014005b130 f i libucrt:output.obj
 0001:0005a150       ?type_case_o@?$output_processor@_WV?$stream_output_adapter@_W@__crt_stdio_output@@V?$standard_base@_WV?$stream_output_adapter@_W@__crt_stdio_output@@@2@@__crt_stdio_output@@AEAA_NXZ 000000014005b150 f i libucrt:output.obj
 0001:0005a170       ?type_case_o@?$output_processor@_WV?$string_output_adapter@_W@__crt_stdio_output@@V?$format_validation_base@_WV?$string_output_adapter@_W@__crt_stdio_output@@@2@@__crt_stdio_output@@AEAA_NXZ 000000014005b170 f i libucrt:output.obj
 0001:0005a190       ?type_case_o@?$output_processor@_WV?$string_output_adapter@_W@__crt_stdio_output@@V?$positional_parameter_base@_WV?$string_output_adapter@_W@__crt_stdio_output@@@2@@__crt_stdio_output@@AEAA_NXZ 000000014005b190 f i libucrt:output.obj
 0001:0005a1b0       ?type_case_o@?$output_processor@_WV?$string_output_adapter@_W@__crt_stdio_output@@V?$standard_base@_WV?$string_output_adapter@_W@__crt_stdio_output@@@2@@__crt_stdio_output@@AEAA_NXZ 000000014005b1b0 f i libucrt:output.obj
 0001:0005a1d0       ?type_case_p@?$output_processor@DV?$stream_output_adapter@D@__crt_stdio_output@@V?$format_validation_base@DV?$stream_output_adapter@D@__crt_stdio_output@@@2@@__crt_stdio_output@@AEAA_NXZ 000000014005b1d0 f i libucrt:output.obj
 0001:0005a1ec       ?type_case_p@?$output_processor@DV?$stream_output_adapter@D@__crt_stdio_output@@V?$positional_parameter_base@DV?$stream_output_adapter@D@__crt_stdio_output@@@2@@__crt_stdio_output@@AEAA_NXZ 000000014005b1ec f i libucrt:output.obj
 0001:0005a208       ?type_case_p@?$output_processor@DV?$stream_output_adapter@D@__crt_stdio_output@@V?$standard_base@DV?$stream_output_adapter@D@__crt_stdio_output@@@2@@__crt_stdio_output@@AEAA_NXZ 000000014005b208 f i libucrt:output.obj
 0001:0005a224       ?type_case_p@?$output_processor@DV?$string_output_adapter@D@__crt_stdio_output@@V?$format_validation_base@DV?$string_output_adapter@D@__crt_stdio_output@@@2@@__crt_stdio_output@@AEAA_NXZ 000000014005b224 f i libucrt:output.obj
 0001:0005a240       ?type_case_p@?$output_processor@DV?$string_output_adapter@D@__crt_stdio_output@@V?$positional_parameter_base@DV?$string_output_adapter@D@__crt_stdio_output@@@2@@__crt_stdio_output@@AEAA_NXZ 000000014005b240 f i libucrt:output.obj
 0001:0005a25c       ?type_case_p@?$output_processor@DV?$string_output_adapter@D@__crt_stdio_output@@V?$standard_base@DV?$string_output_adapter@D@__crt_stdio_output@@@2@@__crt_stdio_output@@AEAA_NXZ 000000014005b25c f i libucrt:output.obj
 0001:0005a278       ?type_case_p@?$output_processor@_WV?$stream_output_adapter@_W@__crt_stdio_output@@V?$format_validation_base@_WV?$stream_output_adapter@_W@__crt_stdio_output@@@2@@__crt_stdio_output@@AEAA_NXZ 000000014005b278 f i libucrt:output.obj
 0001:0005a294       ?type_case_p@?$output_processor@_WV?$stream_output_adapter@_W@__crt_stdio_output@@V?$positional_parameter_base@_WV?$stream_output_adapter@_W@__crt_stdio_output@@@2@@__crt_stdio_output@@AEAA_NXZ 000000014005b294 f i libucrt:output.obj
 0001:0005a2b0       ?type_case_p@?$output_processor@_WV?$stream_output_adapter@_W@__crt_stdio_output@@V?$standard_base@_WV?$stream_output_adapter@_W@__crt_stdio_output@@@2@@__crt_stdio_output@@AEAA_NXZ 000000014005b2b0 f i libucrt:output.obj
 0001:0005a2cc       ?type_case_p@?$output_processor@_WV?$string_output_adapter@_W@__crt_stdio_output@@V?$format_validation_base@_WV?$string_output_adapter@_W@__crt_stdio_output@@@2@@__crt_stdio_output@@AEAA_NXZ 000000014005b2cc f i libucrt:output.obj
 0001:0005a2e8       ?type_case_p@?$output_processor@_WV?$string_output_adapter@_W@__crt_stdio_output@@V?$positional_parameter_base@_WV?$string_output_adapter@_W@__crt_stdio_output@@@2@@__crt_stdio_output@@AEAA_NXZ 000000014005b2e8 f i libucrt:output.obj
 0001:0005a304       ?type_case_p@?$output_processor@_WV?$string_output_adapter@_W@__crt_stdio_output@@V?$standard_base@_WV?$string_output_adapter@_W@__crt_stdio_output@@@2@@__crt_stdio_output@@AEAA_NXZ 000000014005b304 f i libucrt:output.obj
 0001:0005a320       ?type_case_s@?$output_processor@DV?$stream_output_adapter@D@__crt_stdio_output@@V?$format_validation_base@DV?$stream_output_adapter@D@__crt_stdio_output@@@2@@__crt_stdio_output@@AEAA_NXZ 000000014005b320 f i libucrt:output.obj
 0001:0005a3e0       ?type_case_s@?$output_processor@DV?$stream_output_adapter@D@__crt_stdio_output@@V?$positional_parameter_base@DV?$stream_output_adapter@D@__crt_stdio_output@@@2@@__crt_stdio_output@@AEAA_NXZ 000000014005b3e0 f i libucrt:output.obj
 0001:0005a4cc       ?type_case_s@?$output_processor@DV?$stream_output_adapter@D@__crt_stdio_output@@V?$standard_base@DV?$stream_output_adapter@D@__crt_stdio_output@@@2@@__crt_stdio_output@@AEAA_NXZ 000000014005b4cc f i libucrt:output.obj
 0001:0005a58c       ?type_case_s@?$output_processor@DV?$string_output_adapter@D@__crt_stdio_output@@V?$format_validation_base@DV?$string_output_adapter@D@__crt_stdio_output@@@2@@__crt_stdio_output@@AEAA_NXZ 000000014005b58c f i libucrt:output.obj
 0001:0005a64c       ?type_case_s@?$output_processor@DV?$string_output_adapter@D@__crt_stdio_output@@V?$positional_parameter_base@DV?$string_output_adapter@D@__crt_stdio_output@@@2@@__crt_stdio_output@@AEAA_NXZ 000000014005b64c f i libucrt:output.obj
 0001:0005a738       ?type_case_s@?$output_processor@DV?$string_output_adapter@D@__crt_stdio_output@@V?$standard_base@DV?$string_output_adapter@D@__crt_stdio_output@@@2@@__crt_stdio_output@@AEAA_NXZ 000000014005b738 f i libucrt:output.obj
 0001:0005a7f8       ?type_case_s@?$output_processor@_WV?$stream_output_adapter@_W@__crt_stdio_output@@V?$format_validation_base@_WV?$stream_output_adapter@_W@__crt_stdio_output@@@2@@__crt_stdio_output@@AEAA_NXZ 000000014005b7f8 f i libucrt:output.obj
 0001:0005a8bc       ?type_case_s@?$output_processor@_WV?$stream_output_adapter@_W@__crt_stdio_output@@V?$positional_parameter_base@_WV?$stream_output_adapter@_W@__crt_stdio_output@@@2@@__crt_stdio_output@@AEAA_NXZ 000000014005b8bc f i libucrt:output.obj
 0001:0005a9a0       ?type_case_s@?$output_processor@_WV?$stream_output_adapter@_W@__crt_stdio_output@@V?$standard_base@_WV?$stream_output_adapter@_W@__crt_stdio_output@@@2@@__crt_stdio_output@@AEAA_NXZ 000000014005b9a0 f i libucrt:output.obj
 0001:0005aa64       ?type_case_s@?$output_processor@_WV?$string_output_adapter@_W@__crt_stdio_output@@V?$format_validation_base@_WV?$string_output_adapter@_W@__crt_stdio_output@@@2@@__crt_stdio_output@@AEAA_NXZ 000000014005ba64 f i libucrt:output.obj
 0001:0005ab28       ?type_case_s@?$output_processor@_WV?$string_output_adapter@_W@__crt_stdio_output@@V?$positional_parameter_base@_WV?$string_output_adapter@_W@__crt_stdio_output@@@2@@__crt_stdio_output@@AEAA_NXZ 000000014005bb28 f i libucrt:output.obj
 0001:0005ac0c       ?type_case_s@?$output_processor@_WV?$string_output_adapter@_W@__crt_stdio_output@@V?$standard_base@_WV?$string_output_adapter@_W@__crt_stdio_output@@@2@@__crt_stdio_output@@AEAA_NXZ 000000014005bc0c f i libucrt:output.obj
 0001:0005acd0       ?type_case_s_compute_narrow_string_length@?$output_processor@DV?$stream_output_adapter@D@__crt_stdio_output@@V?$format_validation_base@DV?$stream_output_adapter@D@__crt_stdio_output@@@2@@__crt_stdio_output@@AEAAHHD@Z 000000014005bcd0 f i libucrt:output.obj
 0001:0005ace0       ?type_case_s_compute_narrow_string_length@?$output_processor@DV?$stream_output_adapter@D@__crt_stdio_output@@V?$positional_parameter_base@DV?$stream_output_adapter@D@__crt_stdio_output@@@2@@__crt_stdio_output@@AEAAHHD@Z 000000014005bce0 f i libucrt:output.obj
 0001:0005acf0       ?type_case_s_compute_narrow_string_length@?$output_processor@DV?$stream_output_adapter@D@__crt_stdio_output@@V?$standard_base@DV?$stream_output_adapter@D@__crt_stdio_output@@@2@@__crt_stdio_output@@AEAAHHD@Z 000000014005bcf0 f i libucrt:output.obj
 0001:0005ad00       ?type_case_s_compute_narrow_string_length@?$output_processor@DV?$string_output_adapter@D@__crt_stdio_output@@V?$format_validation_base@DV?$string_output_adapter@D@__crt_stdio_output@@@2@@__crt_stdio_output@@AEAAHHD@Z 000000014005bd00 f i libucrt:output.obj
 0001:0005ad10       ?type_case_s_compute_narrow_string_length@?$output_processor@DV?$string_output_adapter@D@__crt_stdio_output@@V?$positional_parameter_base@DV?$string_output_adapter@D@__crt_stdio_output@@@2@@__crt_stdio_output@@AEAAHHD@Z 000000014005bd10 f i libucrt:output.obj
 0001:0005ad20       ?type_case_s_compute_narrow_string_length@?$output_processor@DV?$string_output_adapter@D@__crt_stdio_output@@V?$standard_base@DV?$string_output_adapter@D@__crt_stdio_output@@@2@@__crt_stdio_output@@AEAAHHD@Z 000000014005bd20 f i libucrt:output.obj
 0001:0005ad30       ?type_case_s_compute_narrow_string_length@?$output_processor@_WV?$stream_output_adapter@_W@__crt_stdio_output@@V?$format_validation_base@_WV?$stream_output_adapter@_W@__crt_stdio_output@@@2@@__crt_stdio_output@@AEAAHH_W@Z 000000014005bd30 f i libucrt:output.obj
 0001:0005adc0       ?type_case_s_compute_narrow_string_length@?$output_processor@_WV?$stream_output_adapter@_W@__crt_stdio_output@@V?$positional_parameter_base@_WV?$stream_output_adapter@_W@__crt_stdio_output@@@2@@__crt_stdio_output@@AEAAHH_W@Z 000000014005bdc0 f i libucrt:output.obj
 0001:0005ae50       ?type_case_s_compute_narrow_string_length@?$output_processor@_WV?$stream_output_adapter@_W@__crt_stdio_output@@V?$standard_base@_WV?$stream_output_adapter@_W@__crt_stdio_output@@@2@@__crt_stdio_output@@AEAAHH_W@Z 000000014005be50 f i libucrt:output.obj
 0001:0005aee0       ?type_case_s_compute_narrow_string_length@?$output_processor@_WV?$string_output_adapter@_W@__crt_stdio_output@@V?$format_validation_base@_WV?$string_output_adapter@_W@__crt_stdio_output@@@2@@__crt_stdio_output@@AEAAHH_W@Z 000000014005bee0 f i libucrt:output.obj
 0001:0005af70       ?type_case_s_compute_narrow_string_length@?$output_processor@_WV?$string_output_adapter@_W@__crt_stdio_output@@V?$positional_parameter_base@_WV?$string_output_adapter@_W@__crt_stdio_output@@@2@@__crt_stdio_output@@AEAAHH_W@Z 000000014005bf70 f i libucrt:output.obj
 0001:0005b000       ?type_case_s_compute_narrow_string_length@?$output_processor@_WV?$string_output_adapter@_W@__crt_stdio_output@@V?$standard_base@_WV?$string_output_adapter@_W@__crt_stdio_output@@@2@@__crt_stdio_output@@AEAAHH_W@Z 000000014005c000 f i libucrt:output.obj
 0001:0005b090       ?type_case_u@?$output_processor@DV?$stream_output_adapter@D@__crt_stdio_output@@V?$format_validation_base@DV?$stream_output_adapter@D@__crt_stdio_output@@@2@@__crt_stdio_output@@AEAA_NXZ 000000014005c090 f i libucrt:output.obj
 0001:0005b098       ?type_case_u@?$output_processor@DV?$stream_output_adapter@D@__crt_stdio_output@@V?$positional_parameter_base@DV?$stream_output_adapter@D@__crt_stdio_output@@@2@@__crt_stdio_output@@AEAA_NXZ 000000014005c098 f i libucrt:output.obj
 0001:0005b0a0       ?type_case_u@?$output_processor@DV?$stream_output_adapter@D@__crt_stdio_output@@V?$standard_base@DV?$stream_output_adapter@D@__crt_stdio_output@@@2@@__crt_stdio_output@@AEAA_NXZ 000000014005c0a0 f i libucrt:output.obj
 0001:0005b0a8       ?type_case_u@?$output_processor@DV?$string_output_adapter@D@__crt_stdio_output@@V?$format_validation_base@DV?$string_output_adapter@D@__crt_stdio_output@@@2@@__crt_stdio_output@@AEAA_NXZ 000000014005c0a8 f i libucrt:output.obj
 0001:0005b0b0       ?type_case_u@?$output_processor@DV?$string_output_adapter@D@__crt_stdio_output@@V?$positional_parameter_base@DV?$string_output_adapter@D@__crt_stdio_output@@@2@@__crt_stdio_output@@AEAA_NXZ 000000014005c0b0 f i libucrt:output.obj
 0001:0005b0b8       ?type_case_u@?$output_processor@DV?$string_output_adapter@D@__crt_stdio_output@@V?$standard_base@DV?$string_output_adapter@D@__crt_stdio_output@@@2@@__crt_stdio_output@@AEAA_NXZ 000000014005c0b8 f i libucrt:output.obj
 0001:0005b0c0       ?type_case_u@?$output_processor@_WV?$stream_output_adapter@_W@__crt_stdio_output@@V?$format_validation_base@_WV?$stream_output_adapter@_W@__crt_stdio_output@@@2@@__crt_stdio_output@@AEAA_NXZ 000000014005c0c0 f i libucrt:output.obj
 0001:0005b0c8       ?type_case_u@?$output_processor@_WV?$stream_output_adapter@_W@__crt_stdio_output@@V?$positional_parameter_base@_WV?$stream_output_adapter@_W@__crt_stdio_output@@@2@@__crt_stdio_output@@AEAA_NXZ 000000014005c0c8 f i libucrt:output.obj
 0001:0005b0d0       ?type_case_u@?$output_processor@_WV?$stream_output_adapter@_W@__crt_stdio_output@@V?$standard_base@_WV?$stream_output_adapter@_W@__crt_stdio_output@@@2@@__crt_stdio_output@@AEAA_NXZ 000000014005c0d0 f i libucrt:output.obj
 0001:0005b0d8       ?type_case_u@?$output_processor@_WV?$string_output_adapter@_W@__crt_stdio_output@@V?$format_validation_base@_WV?$string_output_adapter@_W@__crt_stdio_output@@@2@@__crt_stdio_output@@AEAA_NXZ 000000014005c0d8 f i libucrt:output.obj
 0001:0005b0e0       ?type_case_u@?$output_processor@_WV?$string_output_adapter@_W@__crt_stdio_output@@V?$positional_parameter_base@_WV?$string_output_adapter@_W@__crt_stdio_output@@@2@@__crt_stdio_output@@AEAA_NXZ 000000014005c0e0 f i libucrt:output.obj
 0001:0005b0e8       ?type_case_u@?$output_processor@_WV?$string_output_adapter@_W@__crt_stdio_output@@V?$standard_base@_WV?$string_output_adapter@_W@__crt_stdio_output@@@2@@__crt_stdio_output@@AEAA_NXZ 000000014005c0e8 f i libucrt:output.obj
 0001:0005b0f0       ?type_case_x@?$output_processor@DV?$stream_output_adapter@D@__crt_stdio_output@@V?$format_validation_base@DV?$stream_output_adapter@D@__crt_stdio_output@@@2@@__crt_stdio_output@@AEAA_NXZ 000000014005c0f0 f i libucrt:output.obj
 0001:0005b0f8       ?type_case_x@?$output_processor@DV?$stream_output_adapter@D@__crt_stdio_output@@V?$positional_parameter_base@DV?$stream_output_adapter@D@__crt_stdio_output@@@2@@__crt_stdio_output@@AEAA_NXZ 000000014005c0f8 f i libucrt:output.obj
 0001:0005b100       ?type_case_x@?$output_processor@DV?$stream_output_adapter@D@__crt_stdio_output@@V?$standard_base@DV?$stream_output_adapter@D@__crt_stdio_output@@@2@@__crt_stdio_output@@AEAA_NXZ 000000014005c100 f i libucrt:output.obj
 0001:0005b108       ?type_case_x@?$output_processor@DV?$string_output_adapter@D@__crt_stdio_output@@V?$format_validation_base@DV?$string_output_adapter@D@__crt_stdio_output@@@2@@__crt_stdio_output@@AEAA_NXZ 000000014005c108 f i libucrt:output.obj
 0001:0005b110       ?type_case_x@?$output_processor@DV?$string_output_adapter@D@__crt_stdio_output@@V?$positional_parameter_base@DV?$string_output_adapter@D@__crt_stdio_output@@@2@@__crt_stdio_output@@AEAA_NXZ 000000014005c110 f i libucrt:output.obj
 0001:0005b118       ?type_case_x@?$output_processor@DV?$string_output_adapter@D@__crt_stdio_output@@V?$standard_base@DV?$string_output_adapter@D@__crt_stdio_output@@@2@@__crt_stdio_output@@AEAA_NXZ 000000014005c118 f i libucrt:output.obj
 0001:0005b120       ?type_case_x@?$output_processor@_WV?$stream_output_adapter@_W@__crt_stdio_output@@V?$format_validation_base@_WV?$stream_output_adapter@_W@__crt_stdio_output@@@2@@__crt_stdio_output@@AEAA_NXZ 000000014005c120 f i libucrt:output.obj
 0001:0005b128       ?type_case_x@?$output_processor@_WV?$stream_output_adapter@_W@__crt_stdio_output@@V?$positional_parameter_base@_WV?$stream_output_adapter@_W@__crt_stdio_output@@@2@@__crt_stdio_output@@AEAA_NXZ 000000014005c128 f i libucrt:output.obj
 0001:0005b130       ?type_case_x@?$output_processor@_WV?$stream_output_adapter@_W@__crt_stdio_output@@V?$standard_base@_WV?$stream_output_adapter@_W@__crt_stdio_output@@@2@@__crt_stdio_output@@AEAA_NXZ 000000014005c130 f i libucrt:output.obj
 0001:0005b138       ?type_case_x@?$output_processor@_WV?$string_output_adapter@_W@__crt_stdio_output@@V?$format_validation_base@_WV?$string_output_adapter@_W@__crt_stdio_output@@@2@@__crt_stdio_output@@AEAA_NXZ 000000014005c138 f i libucrt:output.obj
 0001:0005b140       ?type_case_x@?$output_processor@_WV?$string_output_adapter@_W@__crt_stdio_output@@V?$positional_parameter_base@_WV?$string_output_adapter@_W@__crt_stdio_output@@@2@@__crt_stdio_output@@AEAA_NXZ 000000014005c140 f i libucrt:output.obj
 0001:0005b148       ?type_case_x@?$output_processor@_WV?$string_output_adapter@_W@__crt_stdio_output@@V?$standard_base@_WV?$string_output_adapter@_W@__crt_stdio_output@@@2@@__crt_stdio_output@@AEAA_NXZ 000000014005c148 f i libucrt:output.obj
 0001:0005b150       ?unget@?$c_string_character_source@D@__crt_strtox@@QEAAXD@Z 000000014005c150 f i libucrt:output.obj
 0001:0005b184       ?unget@?$c_string_character_source@_W@__crt_strtox@@QEAAX_W@Z 000000014005c184 f i libucrt:output.obj
 0001:0005b1bc       ?unset_flag@?$output_processor@DV?$stream_output_adapter@D@__crt_stdio_output@@V?$format_validation_base@DV?$stream_output_adapter@D@__crt_stdio_output@@@2@@__crt_stdio_output@@AEAAXI@Z 000000014005c1bc f i libucrt:output.obj
 0001:0005b1c4       ?unset_flag@?$output_processor@DV?$stream_output_adapter@D@__crt_stdio_output@@V?$positional_parameter_base@DV?$stream_output_adapter@D@__crt_stdio_output@@@2@@__crt_stdio_output@@AEAAXI@Z 000000014005c1c4 f i libucrt:output.obj
 0001:0005b1cc       ?unset_flag@?$output_processor@DV?$stream_output_adapter@D@__crt_stdio_output@@V?$standard_base@DV?$stream_output_adapter@D@__crt_stdio_output@@@2@@__crt_stdio_output@@AEAAXI@Z 000000014005c1cc f i libucrt:output.obj
 0001:0005b1d4       ?unset_flag@?$output_processor@DV?$string_output_adapter@D@__crt_stdio_output@@V?$format_validation_base@DV?$string_output_adapter@D@__crt_stdio_output@@@2@@__crt_stdio_output@@AEAAXI@Z 000000014005c1d4 f i libucrt:output.obj
 0001:0005b1dc       ?unset_flag@?$output_processor@DV?$string_output_adapter@D@__crt_stdio_output@@V?$positional_parameter_base@DV?$string_output_adapter@D@__crt_stdio_output@@@2@@__crt_stdio_output@@AEAAXI@Z 000000014005c1dc f i libucrt:output.obj
 0001:0005b1e4       ?unset_flag@?$output_processor@DV?$string_output_adapter@D@__crt_stdio_output@@V?$standard_base@DV?$string_output_adapter@D@__crt_stdio_output@@@2@@__crt_stdio_output@@AEAAXI@Z 000000014005c1e4 f i libucrt:output.obj
 0001:0005b1ec       ?unset_flag@?$output_processor@_WV?$stream_output_adapter@_W@__crt_stdio_output@@V?$format_validation_base@_WV?$stream_output_adapter@_W@__crt_stdio_output@@@2@@__crt_stdio_output@@AEAAXI@Z 000000014005c1ec f i libucrt:output.obj
 0001:0005b1f4       ?unset_flag@?$output_processor@_WV?$stream_output_adapter@_W@__crt_stdio_output@@V?$positional_parameter_base@_WV?$stream_output_adapter@_W@__crt_stdio_output@@@2@@__crt_stdio_output@@AEAAXI@Z 000000014005c1f4 f i libucrt:output.obj
 0001:0005b1fc       ?unset_flag@?$output_processor@_WV?$stream_output_adapter@_W@__crt_stdio_output@@V?$standard_base@_WV?$stream_output_adapter@_W@__crt_stdio_output@@@2@@__crt_stdio_output@@AEAAXI@Z 000000014005c1fc f i libucrt:output.obj
 0001:0005b204       ?unset_flag@?$output_processor@_WV?$string_output_adapter@_W@__crt_stdio_output@@V?$format_validation_base@_WV?$string_output_adapter@_W@__crt_stdio_output@@@2@@__crt_stdio_output@@AEAAXI@Z 000000014005c204 f i libucrt:output.obj
 0001:0005b20c       ?unset_flag@?$output_processor@_WV?$string_output_adapter@_W@__crt_stdio_output@@V?$positional_parameter_base@_WV?$string_output_adapter@_W@__crt_stdio_output@@@2@@__crt_stdio_output@@AEAAXI@Z 000000014005c20c f i libucrt:output.obj
 0001:0005b214       ?unset_flag@?$output_processor@_WV?$string_output_adapter@_W@__crt_stdio_output@@V?$standard_base@_WV?$string_output_adapter@_W@__crt_stdio_output@@@2@@__crt_stdio_output@@AEAAXI@Z 000000014005c214 f i libucrt:output.obj
 0001:0005b21c       ?update_field_width@?$positional_parameter_base@DV?$stream_output_adapter@D@__crt_stdio_output@@@__crt_stdio_output@@IEAA_NXZ 000000014005c21c f i libucrt:output.obj
 0001:0005b3e8       ?update_field_width@?$positional_parameter_base@DV?$string_output_adapter@D@__crt_stdio_output@@@__crt_stdio_output@@IEAA_NXZ 000000014005c3e8 f i libucrt:output.obj
 0001:0005b5b4       ?update_field_width@?$positional_parameter_base@_WV?$stream_output_adapter@_W@__crt_stdio_output@@@__crt_stdio_output@@IEAA_NXZ 000000014005c5b4 f i libucrt:output.obj
 0001:0005b784       ?update_field_width@?$positional_parameter_base@_WV?$string_output_adapter@_W@__crt_stdio_output@@@__crt_stdio_output@@IEAA_NXZ 000000014005c784 f i libucrt:output.obj
 0001:0005b954       ?update_field_width@?$standard_base@DV?$stream_output_adapter@D@__crt_stdio_output@@@__crt_stdio_output@@IEAA_NXZ 000000014005c954 f i libucrt:output.obj
 0001:0005b970       ?update_field_width@?$standard_base@DV?$string_output_adapter@D@__crt_stdio_output@@@__crt_stdio_output@@IEAA_NXZ 000000014005c970 f i libucrt:output.obj
 0001:0005b98c       ?update_field_width@?$standard_base@_WV?$stream_output_adapter@_W@__crt_stdio_output@@@__crt_stdio_output@@IEAA_NXZ 000000014005c98c f i libucrt:output.obj
 0001:0005b9a8       ?update_field_width@?$standard_base@_WV?$string_output_adapter@_W@__crt_stdio_output@@@__crt_stdio_output@@IEAA_NXZ 000000014005c9a8 f i libucrt:output.obj
 0001:0005b9d0       ?update_locale@__crt_cached_ptd_host@@AEAAXXZ 000000014005c9d0 f i libucrt:output.obj
 0001:0005b9e0       ?update_locale_slow@__crt_cached_ptd_host@@AEAAXXZ 000000014005c9e0 f i libucrt:output.obj
 0001:0005ba74       ?update_precision@?$positional_parameter_base@DV?$stream_output_adapter@D@__crt_stdio_output@@@__crt_stdio_output@@IEAA_NXZ 000000014005ca74 f i libucrt:output.obj
 0001:0005bc40       ?update_precision@?$positional_parameter_base@DV?$string_output_adapter@D@__crt_stdio_output@@@__crt_stdio_output@@IEAA_NXZ 000000014005cc40 f i libucrt:output.obj
 0001:0005be0c       ?update_precision@?$positional_parameter_base@_WV?$stream_output_adapter@_W@__crt_stdio_output@@@__crt_stdio_output@@IEAA_NXZ 000000014005ce0c f i libucrt:output.obj
 0001:0005bfdc       ?update_precision@?$positional_parameter_base@_WV?$string_output_adapter@_W@__crt_stdio_output@@@__crt_stdio_output@@IEAA_NXZ 000000014005cfdc f i libucrt:output.obj
 0001:0005c1ac       ?update_precision@?$standard_base@DV?$stream_output_adapter@D@__crt_stdio_output@@@__crt_stdio_output@@IEAA_NXZ 000000014005d1ac f i libucrt:output.obj
 0001:0005c1c8       ?update_precision@?$standard_base@DV?$string_output_adapter@D@__crt_stdio_output@@@__crt_stdio_output@@IEAA_NXZ 000000014005d1c8 f i libucrt:output.obj
 0001:0005c1e4       ?update_precision@?$standard_base@_WV?$stream_output_adapter@_W@__crt_stdio_output@@@__crt_stdio_output@@IEAA_NXZ 000000014005d1e4 f i libucrt:output.obj
 0001:0005c200       ?update_precision@?$standard_base@_WV?$string_output_adapter@_W@__crt_stdio_output@@@__crt_stdio_output@@IEAA_NXZ 000000014005d200 f i libucrt:output.obj
 0001:0005c21c       ?valid@__crt_stdio_stream@@QEBA_NXZ 000000014005d21c f i libucrt:output.obj
 0001:0005c228       ?validate@?$c_string_character_source@D@__crt_strtox@@QEBA_NXZ 000000014005d228 f i libucrt:output.obj
 0001:0005c258       ?validate@?$c_string_character_source@_W@__crt_strtox@@QEBA_NXZ 000000014005d258 f i libucrt:output.obj
 0001:0005c288       ?validate@?$stream_output_adapter@D@__crt_stdio_output@@QEBA_NAEAV__crt_cached_ptd_host@@@Z 000000014005d288 f i libucrt:output.obj
 0001:0005c2d8       ?validate@?$stream_output_adapter@_W@__crt_stdio_output@@QEBA_NAEAV__crt_cached_ptd_host@@@Z 000000014005d2d8 f i libucrt:output.obj
 0001:0005c320       ?validate@?$string_output_adapter@D@__crt_stdio_output@@QEBA_NAEAV__crt_cached_ptd_host@@@Z 000000014005d320 f i libucrt:output.obj
 0001:0005c368       ?validate@?$string_output_adapter@_W@__crt_stdio_output@@QEBA_NAEAV__crt_cached_ptd_host@@@Z 000000014005d368 f i libucrt:output.obj
 0001:0005c3b0       ?validate_and_store_parameter_data@?$positional_parameter_base@DV?$stream_output_adapter@D@__crt_stdio_output@@@__crt_stdio_output@@AEAA_NAEAUparameter_data@12@W4parameter_type@12@DW4length_modifier@2@@Z 000000014005d3b0 f i libucrt:output.obj
 0001:0005c42c       ?validate_and_store_parameter_data@?$positional_parameter_base@DV?$string_output_adapter@D@__crt_stdio_output@@@__crt_stdio_output@@AEAA_NAEAUparameter_data@12@W4parameter_type@12@DW4length_modifier@2@@Z 000000014005d42c f i libucrt:output.obj
 0001:0005c4a8       ?validate_and_store_parameter_data@?$positional_parameter_base@_WV?$stream_output_adapter@_W@__crt_stdio_output@@@__crt_stdio_output@@AEAA_NAEAUparameter_data@12@W4parameter_type@12@_WW4length_modifier@2@@Z 000000014005d4a8 f i libucrt:output.obj
 0001:0005c524       ?validate_and_store_parameter_data@?$positional_parameter_base@_WV?$string_output_adapter@_W@__crt_stdio_output@@@__crt_stdio_output@@AEAA_NAEAUparameter_data@12@W4parameter_type@12@_WW4length_modifier@2@@Z 000000014005d524 f i libucrt:output.obj
 0001:0005c5a0       ?validate_and_update_state_at_beginning_of_format_character@?$positional_parameter_base@DV?$stream_output_adapter@D@__crt_stdio_output@@@__crt_stdio_output@@IEAA_NXZ 000000014005d5a0 f i libucrt:output.obj
 0001:0005c734       ?validate_and_update_state_at_beginning_of_format_character@?$positional_parameter_base@DV?$string_output_adapter@D@__crt_stdio_output@@@__crt_stdio_output@@IEAA_NXZ 000000014005d734 f i libucrt:output.obj
 0001:0005c8c8       ?validate_and_update_state_at_beginning_of_format_character@?$positional_parameter_base@_WV?$stream_output_adapter@_W@__crt_stdio_output@@@__crt_stdio_output@@IEAA_NXZ 000000014005d8c8 f i libucrt:output.obj
 0001:0005ca6c       ?validate_and_update_state_at_beginning_of_format_character@?$positional_parameter_base@_WV?$string_output_adapter@_W@__crt_stdio_output@@@__crt_stdio_output@@IEAA_NXZ 000000014005da6c f i libucrt:output.obj
 0001:0005cc10       ?validate_and_update_state_at_beginning_of_format_character@?$standard_base@DV?$stream_output_adapter@D@__crt_stdio_output@@@__crt_stdio_output@@IEAA_NXZ 000000014005dc10 f i libucrt:output.obj
 0001:0005cc14       ?validate_and_update_state_at_beginning_of_format_character@?$standard_base@DV?$string_output_adapter@D@__crt_stdio_output@@@__crt_stdio_output@@IEAA_NXZ 000000014005dc14 f i libucrt:output.obj
 0001:0005cc18       ?validate_and_update_state_at_beginning_of_format_character@?$standard_base@_WV?$stream_output_adapter@_W@__crt_stdio_output@@@__crt_stdio_output@@IEAA_NXZ 000000014005dc18 f i libucrt:output.obj
 0001:0005cc1c       ?validate_and_update_state_at_beginning_of_format_character@?$standard_base@_WV?$string_output_adapter@_W@__crt_stdio_output@@@__crt_stdio_output@@IEAA_NXZ 000000014005dc1c f i libucrt:output.obj
 0001:0005cc20       ?validate_and_update_state_at_end_of_format_string@?$format_validation_base@DV?$stream_output_adapter@D@__crt_stdio_output@@@__crt_stdio_output@@IEAA_NXZ 000000014005dc20 f i libucrt:output.obj
 0001:0005cc78       ?validate_and_update_state_at_end_of_format_string@?$format_validation_base@DV?$string_output_adapter@D@__crt_stdio_output@@@__crt_stdio_output@@IEAA_NXZ 000000014005dc78 f i libucrt:output.obj
 0001:0005ccd0       ?validate_and_update_state_at_end_of_format_string@?$format_validation_base@_WV?$stream_output_adapter@_W@__crt_stdio_output@@@__crt_stdio_output@@IEAA_NXZ 000000014005dcd0 f i libucrt:output.obj
 0001:0005cd28       ?validate_and_update_state_at_end_of_format_string@?$format_validation_base@_WV?$string_output_adapter@_W@__crt_stdio_output@@@__crt_stdio_output@@IEAA_NXZ 000000014005dd28 f i libucrt:output.obj
 0001:0005cd80       ?validate_and_update_state_at_end_of_format_string@?$positional_parameter_base@DV?$stream_output_adapter@D@__crt_stdio_output@@@__crt_stdio_output@@IEAA_NXZ 000000014005dd80 f i libucrt:output.obj
 0001:0005ce64       ?validate_and_update_state_at_end_of_format_string@?$positional_parameter_base@DV?$string_output_adapter@D@__crt_stdio_output@@@__crt_stdio_output@@IEAA_NXZ 000000014005de64 f i libucrt:output.obj
 0001:0005cf48       ?validate_and_update_state_at_end_of_format_string@?$positional_parameter_base@_WV?$stream_output_adapter@_W@__crt_stdio_output@@@__crt_stdio_output@@IEAA_NXZ 000000014005df48 f i libucrt:output.obj
 0001:0005d02c       ?validate_and_update_state_at_end_of_format_string@?$positional_parameter_base@_WV?$string_output_adapter@_W@__crt_stdio_output@@@__crt_stdio_output@@IEAA_NXZ 000000014005e02c f i libucrt:output.obj
 0001:0005d110       ?validate_and_update_state_at_end_of_format_string@?$standard_base@DV?$stream_output_adapter@D@__crt_stdio_output@@@__crt_stdio_output@@IEBA_NXZ 000000014005e110 f i libucrt:output.obj
 0001:0005d114       ?validate_and_update_state_at_end_of_format_string@?$standard_base@DV?$string_output_adapter@D@__crt_stdio_output@@@__crt_stdio_output@@IEBA_NXZ 000000014005e114 f i libucrt:output.obj
 0001:0005d118       ?validate_and_update_state_at_end_of_format_string@?$standard_base@_WV?$stream_output_adapter@_W@__crt_stdio_output@@@__crt_stdio_output@@IEBA_NXZ 000000014005e118 f i libucrt:output.obj
 0001:0005d11c       ?validate_and_update_state_at_end_of_format_string@?$standard_base@_WV?$string_output_adapter@_W@__crt_stdio_output@@@__crt_stdio_output@@IEBA_NXZ 000000014005e11c f i libucrt:output.obj
 0001:0005d120       ?validate_state_for_type_case_a@?$positional_parameter_base@DV?$stream_output_adapter@D@__crt_stdio_output@@@__crt_stdio_output@@IEAA_NXZ 000000014005e120 f i libucrt:output.obj
 0001:0005d23c       ?validate_state_for_type_case_a@?$positional_parameter_base@DV?$string_output_adapter@D@__crt_stdio_output@@@__crt_stdio_output@@IEAA_NXZ 000000014005e23c f i libucrt:output.obj
 0001:0005d358       ?validate_state_for_type_case_a@?$positional_parameter_base@_WV?$stream_output_adapter@_W@__crt_stdio_output@@@__crt_stdio_output@@IEAA_NXZ 000000014005e358 f i libucrt:output.obj
 0001:0005d478       ?validate_state_for_type_case_a@?$positional_parameter_base@_WV?$string_output_adapter@_W@__crt_stdio_output@@@__crt_stdio_output@@IEAA_NXZ 000000014005e478 f i libucrt:output.obj
 0001:0005d598       ?validate_state_for_type_case_a@?$standard_base@DV?$stream_output_adapter@D@__crt_stdio_output@@@__crt_stdio_output@@IEBA_NXZ 000000014005e598 f i libucrt:output.obj
 0001:0005d59c       ?validate_state_for_type_case_a@?$standard_base@DV?$string_output_adapter@D@__crt_stdio_output@@@__crt_stdio_output@@IEBA_NXZ 000000014005e59c f i libucrt:output.obj
 0001:0005d5a0       ?validate_state_for_type_case_a@?$standard_base@_WV?$stream_output_adapter@_W@__crt_stdio_output@@@__crt_stdio_output@@IEBA_NXZ 000000014005e5a0 f i libucrt:output.obj
 0001:0005d5a4       ?validate_state_for_type_case_a@?$standard_base@_WV?$string_output_adapter@_W@__crt_stdio_output@@@__crt_stdio_output@@IEBA_NXZ 000000014005e5a4 f i libucrt:output.obj
 0001:0005d5a8       ?validate_stream_is_ansi_if_required@?$__acrt_stdio_char_traits@D@@SA_NQEAU_iobuf@@@Z 000000014005e5a8 f i libucrt:output.obj
 0001:0005d66c       ?validate_stream_is_ansi_if_required@?$__acrt_stdio_char_traits@_W@@SA_NQEAU_iobuf@@@Z 000000014005e66c f i libucrt:output.obj
 0001:0005d670       ?wide_character_to_digit@__crt_strtox@@YAH_W@Z 000000014005e670 f i libucrt:output.obj
 0001:0005d878       ?wide_null_string@?$output_processor@DV?$stream_output_adapter@D@__crt_stdio_output@@V?$format_validation_base@DV?$stream_output_adapter@D@__crt_stdio_output@@@2@@__crt_stdio_output@@CAPEA_WXZ 000000014005e878 f i libucrt:output.obj
 0001:0005d884       ?wide_null_string@?$output_processor@DV?$stream_output_adapter@D@__crt_stdio_output@@V?$positional_parameter_base@DV?$stream_output_adapter@D@__crt_stdio_output@@@2@@__crt_stdio_output@@CAPEA_WXZ 000000014005e884 f i libucrt:output.obj
 0001:0005d890       ?wide_null_string@?$output_processor@DV?$stream_output_adapter@D@__crt_stdio_output@@V?$standard_base@DV?$stream_output_adapter@D@__crt_stdio_output@@@2@@__crt_stdio_output@@CAPEA_WXZ 000000014005e890 f i libucrt:output.obj
 0001:0005d89c       ?wide_null_string@?$output_processor@DV?$string_output_adapter@D@__crt_stdio_output@@V?$format_validation_base@DV?$string_output_adapter@D@__crt_stdio_output@@@2@@__crt_stdio_output@@CAPEA_WXZ 000000014005e89c f i libucrt:output.obj
 0001:0005d8a8       ?wide_null_string@?$output_processor@DV?$string_output_adapter@D@__crt_stdio_output@@V?$positional_parameter_base@DV?$string_output_adapter@D@__crt_stdio_output@@@2@@__crt_stdio_output@@CAPEA_WXZ 000000014005e8a8 f i libucrt:output.obj
 0001:0005d8b4       ?wide_null_string@?$output_processor@DV?$string_output_adapter@D@__crt_stdio_output@@V?$standard_base@DV?$string_output_adapter@D@__crt_stdio_output@@@2@@__crt_stdio_output@@CAPEA_WXZ 000000014005e8b4 f i libucrt:output.obj
 0001:0005d8c0       ?wide_null_string@?$output_processor@_WV?$stream_output_adapter@_W@__crt_stdio_output@@V?$format_validation_base@_WV?$stream_output_adapter@_W@__crt_stdio_output@@@2@@__crt_stdio_output@@CAPEA_WXZ 000000014005e8c0 f i libucrt:output.obj
 0001:0005d8cc       ?wide_null_string@?$output_processor@_WV?$stream_output_adapter@_W@__crt_stdio_output@@V?$positional_parameter_base@_WV?$stream_output_adapter@_W@__crt_stdio_output@@@2@@__crt_stdio_output@@CAPEA_WXZ 000000014005e8cc f i libucrt:output.obj
 0001:0005d8d8       ?wide_null_string@?$output_processor@_WV?$stream_output_adapter@_W@__crt_stdio_output@@V?$standard_base@_WV?$stream_output_adapter@_W@__crt_stdio_output@@@2@@__crt_stdio_output@@CAPEA_WXZ 000000014005e8d8 f i libucrt:output.obj
 0001:0005d8e4       ?wide_null_string@?$output_processor@_WV?$string_output_adapter@_W@__crt_stdio_output@@V?$format_validation_base@_WV?$string_output_adapter@_W@__crt_stdio_output@@@2@@__crt_stdio_output@@CAPEA_WXZ 000000014005e8e4 f i libucrt:output.obj
 0001:0005d8f0       ?wide_null_string@?$output_processor@_WV?$string_output_adapter@_W@__crt_stdio_output@@V?$positional_parameter_base@_WV?$string_output_adapter@_W@__crt_stdio_output@@@2@@__crt_stdio_output@@CAPEA_WXZ 000000014005e8f0 f i libucrt:output.obj
 0001:0005d8fc       ?wide_null_string@?$output_processor@_WV?$string_output_adapter@_W@__crt_stdio_output@@V?$standard_base@_WV?$string_output_adapter@_W@__crt_stdio_output@@@2@@__crt_stdio_output@@CAPEA_WXZ 000000014005e8fc f i libucrt:output.obj
 0001:0005d908       ?write_character@?$output_adapter_common@DV?$stream_output_adapter@D@__crt_stdio_output@@@__crt_stdio_output@@QEBAXDQEAHAEAV__crt_cached_ptd_host@@@Z 000000014005e908 f i libucrt:output.obj
 0001:0005d968       ?write_character@?$output_adapter_common@_WV?$stream_output_adapter@_W@__crt_stdio_output@@@__crt_stdio_output@@QEBAX_WQEAHAEAV__crt_cached_ptd_host@@@Z 000000014005e968 f i libucrt:output.obj
 0001:0005d9cc       ?write_character@?$string_output_adapter@D@__crt_stdio_output@@QEBA_NDQEAHAEAV__crt_cached_ptd_host@@@Z 000000014005e9cc f i libucrt:output.obj
 0001:0005da24       ?write_character@?$string_output_adapter@_W@__crt_stdio_output@@QEBA_N_WQEAHAEAV__crt_cached_ptd_host@@@Z 000000014005ea24 f i libucrt:output.obj
 0001:0005da80       ?write_character_without_count_update@?$stream_output_adapter@D@__crt_stdio_output@@QEBA_NDAEAV__crt_cached_ptd_host@@@Z 000000014005ea80 f i libucrt:output.obj
 0001:0005dad0       ?write_character_without_count_update@?$stream_output_adapter@_W@__crt_stdio_output@@QEBA_N_WAEAV__crt_cached_ptd_host@@@Z 000000014005ead0 f i libucrt:output.obj
 0001:0005db24       ?write_stored_string_tchar@?$output_processor@DV?$stream_output_adapter@D@__crt_stdio_output@@V?$format_validation_base@DV?$stream_output_adapter@D@__crt_stdio_output@@@2@@__crt_stdio_output@@AEAA_ND@Z 000000014005eb24 f i libucrt:output.obj
 0001:0005dca4       ?write_stored_string_tchar@?$output_processor@DV?$stream_output_adapter@D@__crt_stdio_output@@V?$positional_parameter_base@DV?$stream_output_adapter@D@__crt_stdio_output@@@2@@__crt_stdio_output@@AEAA_ND@Z 000000014005eca4 f i libucrt:output.obj
 0001:0005de24       ?write_stored_string_tchar@?$output_processor@DV?$stream_output_adapter@D@__crt_stdio_output@@V?$standard_base@DV?$stream_output_adapter@D@__crt_stdio_output@@@2@@__crt_stdio_output@@AEAA_ND@Z 000000014005ee24 f i libucrt:output.obj
 0001:0005dfa4       ?write_stored_string_tchar@?$output_processor@DV?$string_output_adapter@D@__crt_stdio_output@@V?$format_validation_base@DV?$string_output_adapter@D@__crt_stdio_output@@@2@@__crt_stdio_output@@AEAA_ND@Z 000000014005efa4 f i libucrt:output.obj
 0001:0005e0c4       ?write_stored_string_tchar@?$output_processor@DV?$string_output_adapter@D@__crt_stdio_output@@V?$positional_parameter_base@DV?$string_output_adapter@D@__crt_stdio_output@@@2@@__crt_stdio_output@@AEAA_ND@Z 000000014005f0c4 f i libucrt:output.obj
 0001:0005e1e4       ?write_stored_string_tchar@?$output_processor@DV?$string_output_adapter@D@__crt_stdio_output@@V?$standard_base@DV?$string_output_adapter@D@__crt_stdio_output@@@2@@__crt_stdio_output@@AEAA_ND@Z 000000014005f1e4 f i libucrt:output.obj
 0001:0005e304       ?write_stored_string_tchar@?$output_processor@_WV?$stream_output_adapter@_W@__crt_stdio_output@@V?$format_validation_base@_WV?$stream_output_adapter@_W@__crt_stdio_output@@@2@@__crt_stdio_output@@AEAA_N_W@Z 000000014005f304 f i libucrt:output.obj
 0001:0005e488       ?write_stored_string_tchar@?$output_processor@_WV?$stream_output_adapter@_W@__crt_stdio_output@@V?$positional_parameter_base@_WV?$stream_output_adapter@_W@__crt_stdio_output@@@2@@__crt_stdio_output@@AEAA_N_W@Z 000000014005f488 f i libucrt:output.obj
 0001:0005e60c       ?write_stored_string_tchar@?$output_processor@_WV?$stream_output_adapter@_W@__crt_stdio_output@@V?$standard_base@_WV?$stream_output_adapter@_W@__crt_stdio_output@@@2@@__crt_stdio_output@@AEAA_N_W@Z 000000014005f60c f i libucrt:output.obj
 0001:0005e790       ?write_stored_string_tchar@?$output_processor@_WV?$string_output_adapter@_W@__crt_stdio_output@@V?$format_validation_base@_WV?$string_output_adapter@_W@__crt_stdio_output@@@2@@__crt_stdio_output@@AEAA_N_W@Z 000000014005f790 f i libucrt:output.obj
 0001:0005e8e8       ?write_stored_string_tchar@?$output_processor@_WV?$string_output_adapter@_W@__crt_stdio_output@@V?$positional_parameter_base@_WV?$string_output_adapter@_W@__crt_stdio_output@@@2@@__crt_stdio_output@@AEAA_N_W@Z 000000014005f8e8 f i libucrt:output.obj
 0001:0005ea40       ?write_stored_string_tchar@?$output_processor@_WV?$string_output_adapter@_W@__crt_stdio_output@@V?$standard_base@_WV?$string_output_adapter@_W@__crt_stdio_output@@@2@@__crt_stdio_output@@AEAA_N_W@Z 000000014005fa40 f i libucrt:output.obj
 0001:0005eb98       ?write_string@?$stream_output_adapter@D@__crt_stdio_output@@QEBAXQEBDHQEAHAEAV__crt_cached_ptd_host@@@Z 000000014005fb98 f i libucrt:output.obj
 0001:0005ebc8       ?write_string@?$stream_output_adapter@_W@__crt_stdio_output@@QEBAXQEB_WHQEAHAEAV__crt_cached_ptd_host@@@Z 000000014005fbc8 f i libucrt:output.obj
 0001:0005ebf8       ?write_string@?$string_output_adapter@D@__crt_stdio_output@@QEBAXQEBDHQEAHAEAV__crt_cached_ptd_host@@@Z 000000014005fbf8 f i libucrt:output.obj
 0001:0005ecc4       ?write_string@?$string_output_adapter@_W@__crt_stdio_output@@QEBAXQEB_WHQEAHAEAV__crt_cached_ptd_host@@@Z 000000014005fcc4 f i libucrt:output.obj
 0001:0005ed94       ?write_string_impl@?$output_adapter_common@DV?$stream_output_adapter@D@__crt_stdio_output@@@__crt_stdio_output@@IEBAXQEBDHQEAHAEAV__crt_cached_ptd_host@@@Z 000000014005fd94 f i libucrt:output.obj
 0001:0005ee94       ?write_string_impl@?$output_adapter_common@_WV?$stream_output_adapter@_W@__crt_stdio_output@@@__crt_stdio_output@@IEBAXQEB_WHQEAHAEAV__crt_cached_ptd_host@@@Z 000000014005fe94 f i libucrt:output.obj
 0001:0005efa8       __acrt_disable_global_locale_sync 000000014005ffa8 f i libucrt:output.obj
 0001:0005efb0       __acrt_isleadbyte_l_noupdate 000000014005ffb0 f i libucrt:output.obj
 0001:0005efdc       __acrt_locale_get_ctype_array_value 000000014005ffdc f i libucrt:output.obj
 0001:0005effc       __ascii_iswalpha           000000014005fffc f i libucrt:output.obj
 0001:0005f01c       __ascii_toupper            000000014006001c f i libucrt:output.obj
 0001:0005f030       __ascii_towupper           0000000140060030 f i libucrt:output.obj
 0001:0005f040       __stdio_common_vfprintf    0000000140060040 f   libucrt:output.obj
 0001:0005f1b0       __stdio_common_vfprintf_p  00000001400601b0 f   libucrt:output.obj
 0001:0005f320       __stdio_common_vfprintf_s  0000000140060320 f   libucrt:output.obj
 0001:0005f490       __stdio_common_vfwprintf   0000000140060490 f   libucrt:output.obj
 0001:0005f600       __stdio_common_vfwprintf_p 0000000140060600 f   libucrt:output.obj
 0001:0005f770       __stdio_common_vfwprintf_s 0000000140060770 f   libucrt:output.obj
 0001:0005f8e0       __stdio_common_vsnprintf_s 00000001400608e0 f   libucrt:output.obj
 0001:0005fb2c       __stdio_common_vsnwprintf_s 0000000140060b2c f   libucrt:output.obj
 0001:0005fd7c       __stdio_common_vsprintf    0000000140060d7c f   libucrt:output.obj
 0001:00060064       __stdio_common_vsprintf_p  0000000140061064 f   libucrt:output.obj
 0001:00060148       __stdio_common_vsprintf_s  0000000140061148 f   libucrt:output.obj
 0001:000602a0       __stdio_common_vswprintf   00000001400612a0 f   libucrt:output.obj
 0001:00060590       __stdio_common_vswprintf_p 0000000140061590 f   libucrt:output.obj
 0001:00060674       __stdio_common_vswprintf_s 0000000140061674 f   libucrt:output.obj
 0001:000607cc       _ctype_fast_check_internal 00000001400617cc f i libucrt:output.obj
 0001:000607e4       _isdigit_fast_internal     00000001400617e4 f i libucrt:output.obj
 0001:00060800       _tolower_fast_internal     0000000140061800 f i libucrt:output.obj
 0001:0006092c       strncpy_s                  000000014006192c f   libucrt:strncpy_s.obj
 0001:00060a70       strcat                     0000000140061a70 f   libucrt:strcat.obj
 0001:00060b10       strcpy                     0000000140061b10 f   libucrt:strcat.obj
 0001:00060b13       ___entry_from_strcat_in_strcpy 0000000140061b13     libucrt:strcat.obj
 0001:00060c20       ??$assemble_floating_point_ind@M@__crt_strtox@@YAXAEAM@Z 0000000140061c20 f i libucrt:atof.obj
 0001:00060c28       ??$assemble_floating_point_ind@N@__crt_strtox@@YAXAEAN@Z 0000000140061c28 f i libucrt:atof.obj
 0001:00060c3c       ??$assemble_floating_point_infinity@M@__crt_strtox@@YAX_NAEAM@Z 0000000140061c3c f i libucrt:atof.obj
 0001:00060c50       ??$assemble_floating_point_infinity@N@__crt_strtox@@YAX_NAEAN@Z 0000000140061c50 f i libucrt:atof.obj
 0001:00060c70       ??$assemble_floating_point_qnan@M@__crt_strtox@@YAX_NAEAM@Z 0000000140061c70 f i libucrt:atof.obj
 0001:00060c84       ??$assemble_floating_point_qnan@N@__crt_strtox@@YAX_NAEAN@Z 0000000140061c84 f i libucrt:atof.obj
 0001:00060ca4       ??$assemble_floating_point_snan@M@__crt_strtox@@YAX_NAEAM@Z 0000000140061ca4 f i libucrt:atof.obj
 0001:00060cb8       ??$assemble_floating_point_snan@N@__crt_strtox@@YAX_NAEAN@Z 0000000140061cb8 f i libucrt:atof.obj
 0001:00060cd8       ??$assemble_floating_point_value_t@M@__crt_strtox@@YA?AW4SLD_STATUS@@_NH_KAEAM@Z 0000000140061cd8 f i libucrt:atof.obj
 0001:00060d08       ??$assemble_floating_point_value_t@N@__crt_strtox@@YA?AW4SLD_STATUS@@_NH_KAEAN@Z 0000000140061d08 f i libucrt:atof.obj
 0001:00060d48       ??$assemble_floating_point_zero@M@__crt_strtox@@YAX_NAEAM@Z 0000000140061d48 f i libucrt:atof.obj
 0001:00060d54       ??$assemble_floating_point_zero@N@__crt_strtox@@YAX_NAEAN@Z 0000000140061d54 f i libucrt:atof.obj
 0001:0006104c       ??$convert_decimal_string_to_floating_type@M@__crt_strtox@@YA?AW4SLD_STATUS@@AEBUfloating_point_string@0@AEAM@Z 000000014006204c f i libucrt:atof.obj
 0001:00061070       ??$convert_decimal_string_to_floating_type@N@__crt_strtox@@YA?AW4SLD_STATUS@@AEBUfloating_point_string@0@AEAN@Z 0000000140062070 f i libucrt:atof.obj
 0001:00061094       ??$convert_hexadecimal_string_to_floating_type@M@__crt_strtox@@YA?AW4SLD_STATUS@@AEBUfloating_point_string@0@AEAM@Z 0000000140062094 f i libucrt:atof.obj
 0001:000610b8       ??$convert_hexadecimal_string_to_floating_type@N@__crt_strtox@@YA?AW4SLD_STATUS@@AEBUfloating_point_string@0@AEAN@Z 00000001400620b8 f i libucrt:atof.obj
 0001:000610dc       ??$make_c_string_character_source@D$$T@__crt_strtox@@YA?AV?$c_string_character_source@D@0@QEBD$$T@Z 00000001400620dc f i libucrt:atof.obj
 0001:000610f4       ??$make_c_string_character_source@_W$$T@__crt_strtox@@YA?AV?$c_string_character_source@_W@0@QEB_W$$T@Z 00000001400620f4 f i libucrt:atof.obj
 0001:0006110c       ??$parse_floating_point@V?$c_string_character_source@D@__crt_strtox@@M@__crt_strtox@@YA?AW4SLD_STATUS@@QEAU__crt_locale_pointers@@V?$c_string_character_source@D@0@QEAM@Z 000000014006210c f i libucrt:atof.obj
 0001:000611d4       ??$parse_floating_point@V?$c_string_character_source@D@__crt_strtox@@N@__crt_strtox@@YA?AW4SLD_STATUS@@QEAU__crt_locale_pointers@@V?$c_string_character_source@D@0@QEAN@Z 00000001400621d4 f i libucrt:atof.obj
 0001:0006129c       ??$parse_floating_point@V?$c_string_character_source@_W@__crt_strtox@@N@__crt_strtox@@YA?AW4SLD_STATUS@@QEAU__crt_locale_pointers@@V?$c_string_character_source@_W@0@QEAN@Z 000000014006229c f i libucrt:atof.obj
 0001:00061364       ??$parse_floating_point_from_source@V?$c_string_character_source@D@__crt_strtox@@@__crt_strtox@@YA?AW4floating_point_parse_result@0@QEAU__crt_locale_pointers@@AEAV?$c_string_character_source@D@0@AEAUfloating_point_string@0@@Z 0000000140062364 f i libucrt:atof.obj
 0001:00061938       ??$parse_floating_point_from_source@V?$c_string_character_source@_W@__crt_strtox@@@__crt_strtox@@YA?AW4floating_point_parse_result@0@QEAU__crt_locale_pointers@@AEAV?$c_string_character_source@_W@0@AEAUfloating_point_string@0@@Z 0000000140062938 f i libucrt:atof.obj
 0001:00062a74       ??$parse_floating_point_possible_infinity@DV?$c_string_character_source@D@__crt_strtox@@PEBD@__crt_strtox@@YA?AW4floating_point_parse_result@0@AEADAEAV?$c_string_character_source@D@0@PEBD@Z 0000000140063a74 f i libucrt:atof.obj
 0001:00062c08       ??$parse_floating_point_possible_infinity@_WV?$c_string_character_source@_W@__crt_strtox@@PEB_W@__crt_strtox@@YA?AW4floating_point_parse_result@0@AEA_WAEAV?$c_string_character_source@_W@0@PEB_W@Z 0000000140063c08 f i libucrt:atof.obj
 0001:00062dcc       ??$parse_floating_point_possible_nan@DV?$c_string_character_source@D@__crt_strtox@@PEBD@__crt_strtox@@YA?AW4floating_point_parse_result@0@AEADAEAV?$c_string_character_source@D@0@PEBD@Z 0000000140063dcc f i libucrt:atof.obj
 0001:00063034       ??$parse_floating_point_possible_nan@_WV?$c_string_character_source@_W@__crt_strtox@@PEB_W@__crt_strtox@@YA?AW4floating_point_parse_result@0@AEA_WAEAV?$c_string_character_source@_W@0@PEB_W@Z 0000000140064034 f i libucrt:atof.obj
 0001:000632e8       ??$parse_floating_point_possible_nan_is_ind@DV?$c_string_character_source@D@__crt_strtox@@@__crt_strtox@@YA_NAEADAEAV?$c_string_character_source@D@0@@Z 00000001400642e8 f i libucrt:atof.obj
 0001:00063340       ??$parse_floating_point_possible_nan_is_ind@_WV?$c_string_character_source@_W@__crt_strtox@@@__crt_strtox@@YA_NAEA_WAEAV?$c_string_character_source@_W@0@@Z 0000000140064340 f i libucrt:atof.obj
 0001:000633a0       ??$parse_floating_point_possible_nan_is_snan@DV?$c_string_character_source@D@__crt_strtox@@@__crt_strtox@@YA_NAEADAEAV?$c_string_character_source@D@0@@Z 00000001400643a0 f i libucrt:atof.obj
 0001:000633f8       ??$parse_floating_point_possible_nan_is_snan@_WV?$c_string_character_source@_W@__crt_strtox@@@__crt_strtox@@YA_NAEA_WAEAV?$c_string_character_source@_W@0@@Z 00000001400643f8 f i libucrt:atof.obj
 0001:00063458       ??$parse_floating_point_write_result@M@__crt_strtox@@YA?AW4SLD_STATUS@@W4floating_point_parse_result@0@AEBUfloating_point_string@0@QEAM@Z 0000000140064458 f i libucrt:atof.obj
 0001:00063624       ??$parse_floating_point_write_result@N@__crt_strtox@@YA?AW4SLD_STATUS@@W4floating_point_parse_result@0@AEBUfloating_point_string@0@QEAN@Z 0000000140064624 f i libucrt:atof.obj
 0001:0006387c       ??$parse_next_characters_from_source@DV?$c_string_character_source@D@__crt_strtox@@@__crt_strtox@@YA_NQEBD0_KAEADAEAV?$c_string_character_source@D@0@@Z 000000014006487c f i libucrt:atof.obj
 0001:000638e0       ??$parse_next_characters_from_source@_WV?$c_string_character_source@_W@__crt_strtox@@@__crt_strtox@@YA_NQEB_W0_KAEA_WAEAV?$c_string_character_source@_W@0@@Z 00000001400648e0 f i libucrt:atof.obj
 0001:00063948       ??0<lambda_74a2d8e426d717992967bf549d0b1d46>@@QEAA@AEAV?$c_string_character_source@_W@__crt_strtox@@AEA_WAEAPEB_W@Z 0000000140064948 f i libucrt:atof.obj
 0001:0006395c       ??0<lambda_85175643e3245fab8ee1d5c9ffbed652>@@QEAA@AEAV?$c_string_character_source@D@__crt_strtox@@AEADAEAPEBD@Z 000000014006495c f i libucrt:atof.obj
 0001:00063970       ??0<lambda_a4d13f8896d4166bcf1a62c02ca9256c>@@QEAA@AEAV?$c_string_character_source@D@__crt_strtox@@AEADAEAPEBD@Z 0000000140064970 f i libucrt:atof.obj
 0001:00063984       ??0<lambda_aaca0f6c2c612c0ee38e1ea27fdc2ad6>@@QEAA@AEAV?$c_string_character_source@D@__crt_strtox@@AEADAEAPEBD@Z 0000000140064984 f i libucrt:atof.obj
 0001:00063998       ??0<lambda_b2e4b863da30a29f1a9fc7ecc6d00735>@@QEAA@AEAV?$c_string_character_source@_W@__crt_strtox@@AEA_WAEAPEB_W@Z 0000000140064998 f i libucrt:atof.obj
 0001:000639ac       ??0<lambda_c728f12739a3597330a783bb0930d4cc>@@QEAA@AEAV?$c_string_character_source@_W@__crt_strtox@@AEA_WAEAPEB_W@Z 00000001400649ac f i libucrt:atof.obj
 0001:000639c0       ??0_LocaleUpdate@@QEAA@QEAU__crt_locale_pointers@@@Z 00000001400649c0 f i libucrt:atof.obj
 0001:00063a90       ??0big_integer@__crt_strtox@@QEAA@AEBU01@@Z 0000000140064a90 f i libucrt:atof.obj
 0001:00063ad0       ??0big_integer@__crt_strtox@@QEAA@XZ 0000000140064ad0 f i libucrt:atof.obj
 0001:00063adc       ??0floating_point_value@__crt_strtox@@QEAA@QEAM@Z 0000000140064adc f i libucrt:atof.obj
 0001:00063aec       ??0floating_point_value@__crt_strtox@@QEAA@QEAN@Z 0000000140064aec f i libucrt:atof.obj
 0001:00063afc       ??1_LocaleUpdate@@QEAA@XZ  0000000140064afc f i libucrt:atof.obj
 0001:00063b20       ??4big_integer@__crt_strtox@@QEAAAEAU01@AEBU01@@Z 0000000140064b20 f i libucrt:atof.obj
 0001:00063b60       ??M__crt_strtox@@YA_NAEBUbig_integer@0@0@Z 0000000140064b60 f i libucrt:atof.obj
 0001:00063b9c       ??R<lambda_74a2d8e426d717992967bf549d0b1d46>@@QEBA@XZ 0000000140064b9c f i libucrt:atof.obj
 0001:00063c14       ??R<lambda_85175643e3245fab8ee1d5c9ffbed652>@@QEBA@XZ 0000000140064c14 f i libucrt:atof.obj
 0001:00063c78       ??R<lambda_a4d13f8896d4166bcf1a62c02ca9256c>@@QEBA@XZ 0000000140064c78 f i libucrt:atof.obj
 0001:00063cdc       ??R<lambda_aaca0f6c2c612c0ee38e1ea27fdc2ad6>@@QEBA@XZ 0000000140064cdc f i libucrt:atof.obj
 0001:00063d40       ??R<lambda_b2e4b863da30a29f1a9fc7ecc6d00735>@@QEBA@XZ 0000000140064d40 f i libucrt:atof.obj
 0001:00063db8       ??R<lambda_c728f12739a3597330a783bb0930d4cc>@@QEBA@XZ 0000000140064db8 f i libucrt:atof.obj
 0001:00063e30       ?GetLocaleT@_LocaleUpdate@@QEAAPEAU__crt_locale_pointers@@XZ 0000000140064e30 f i libucrt:atof.obj
 0001:00063e38       ?accumulate_decimal_digits_into_big_integer@__crt_strtox@@YAXQEBE0AEAUbig_integer@1@@Z 0000000140064e38 f i libucrt:atof.obj
 0001:00064570       ?add@__crt_strtox@@YA_NAEAUbig_integer@1@I@Z 0000000140065570 f i libucrt:atof.obj
 0001:00064620       ?add_carry@__crt_strtox@@YAIAEAIII@Z 0000000140065620 f i libucrt:atof.obj
 0001:00064640       ?add_multiply_carry@__crt_strtox@@YAIAEAIIII@Z 0000000140065640 f i libucrt:atof.obj
 0001:00064668       ?as_double@floating_point_value@__crt_strtox@@QEBAAEANXZ 0000000140065668 f i libucrt:atof.obj
 0001:000646b0       ?as_float@floating_point_value@__crt_strtox@@QEBAAEAMXZ 00000001400656b0 f i libucrt:atof.obj
 0001:000646f8       ?assemble_floating_point_infinity@__crt_strtox@@YAX_NAEBVfloating_point_value@1@@Z 00000001400656f8 f i libucrt:atof.obj
 0001:00064734       ?assemble_floating_point_value@__crt_strtox@@YA?AW4SLD_STATUS@@_KH_N1AEBVfloating_point_value@1@@Z 0000000140065734 f i libucrt:atof.obj
 0001:00064bcc       ?assemble_floating_point_value_from_big_integer@__crt_strtox@@YA?AW4SLD_STATUS@@AEBUbig_integer@1@I_N1AEBVfloating_point_value@1@@Z 0000000140065bcc f i libucrt:atof.obj
 0001:00064d84       ?assemble_floating_point_zero@__crt_strtox@@YAX_NAEBVfloating_point_value@1@@Z 0000000140065d84 f i libucrt:atof.obj
 0001:00064db0       ?bit_scan_reverse@__crt_strtox@@YAIAEBUbig_integer@1@@Z 0000000140065db0 f i libucrt:atof.obj
 0001:00064de0       ?bit_scan_reverse@__crt_strtox@@YAII@Z 0000000140065de0 f i libucrt:atof.obj
 0001:00064e00       ?bit_scan_reverse@__crt_strtox@@YAI_K@Z 0000000140065e00 f i libucrt:atof.obj
 0001:00064e30       ?convert_decimal_string_to_floating_type_common@__crt_strtox@@YA?AW4SLD_STATUS@@AEBUfloating_point_string@1@AEBVfloating_point_value@1@@Z 0000000140065e30 f i libucrt:atof.obj
 0001:00067450       ?convert_hexadecimal_string_to_floating_type_common@__crt_strtox@@YA?AW4SLD_STATUS@@AEBUfloating_point_string@1@AEBVfloating_point_value@1@@Z 0000000140068450 f i libucrt:atof.obj
 0001:00067530       ?count_sequential_high_zeroes@__crt_strtox@@YAII@Z 0000000140068530 f i libucrt:atof.obj
 0001:00067548       ?denormal_mantissa_mask@floating_point_value@__crt_strtox@@QEBA_KXZ 0000000140068548 f i libucrt:atof.obj
 0001:00067570       ?divide@__crt_strtox@@YA_KAEAUbig_integer@1@AEBU21@@Z 0000000140068570 f i libucrt:atof.obj
 0001:00067b34       ?exponent_bias@floating_point_value@__crt_strtox@@QEBAHXZ 0000000140068b34 f i libucrt:atof.obj
 0001:00067b48       ?is_digit_or_nondigit@__crt_strtox@@YA_NH@Z 0000000140068b48 f i libucrt:atof.obj
 0001:00067b74       ?is_double@floating_point_value@__crt_strtox@@QEBA_NXZ 0000000140068b74 f i libucrt:atof.obj
 0001:00067b78       ?is_space@__crt_strtox@@YA_NDQEAU__crt_locale_pointers@@@Z 0000000140068b78 f i libucrt:atof.obj
 0001:00067ba0       ?is_space@__crt_strtox@@YA_N_WPEAU__crt_locale_pointers@@@Z 0000000140068ba0 f i libucrt:atof.obj
 0001:00067bc0       ?make_big_integer@__crt_strtox@@YA?AUbig_integer@1@_K@Z 0000000140068bc0 f i libucrt:atof.obj
 0001:00067be0       ?mantissa_bits@floating_point_value@__crt_strtox@@QEBAHXZ 0000000140068be0 f i libucrt:atof.obj
 0001:00067bf4       ?maximum_binary_exponent@floating_point_value@__crt_strtox@@QEBAHXZ 0000000140068bf4 f i libucrt:atof.obj
 0001:00067c08       ?minimum_binary_exponent@floating_point_value@__crt_strtox@@QEBAHXZ 0000000140068c08 f i libucrt:atof.obj
 0001:00067c20       ?multiply@__crt_strtox@@YA_NAEAUbig_integer@1@AEBU21@@Z 0000000140068c20 f i libucrt:atof.obj
 0001:000680a0       ?multiply@__crt_strtox@@YA_NAEAUbig_integer@1@I@Z 00000001400690a0 f i libucrt:atof.obj
 0001:000681d0       ?multiply_64_32@__crt_strtox@@YA_K_KI@Z 00000001400691d0 f i libucrt:atof.obj
 0001:000681e0       ?multiply_by_power_of_ten@__crt_strtox@@YA_NAEAUbig_integer@1@I@Z 00000001400691e0 f i libucrt:atof.obj
 0001:000688b0       ?multiply_core@__crt_strtox@@YAIQEAIII@Z 00000001400698b0 f i libucrt:atof.obj
 0001:0006890c       ?normal_mantissa_mask@floating_point_value@__crt_strtox@@QEBA_KXZ 000000014006990c f i libucrt:atof.obj
 0001:00068930       ?right_shift_with_rounding@__crt_strtox@@YA_K_N_KI0@Z 0000000140069930 f i libucrt:atof.obj
 0001:00068a30       ?shift_left@__crt_strtox@@YA_NAEAUbig_integer@1@I@Z 0000000140069a30 f i libucrt:atof.obj
 0001:00068c0c       ?should_round_up@__crt_strtox@@YA_N_N000@Z 0000000140069c0c f i libucrt:atof.obj
 0001:00068cb4       __acrt_get_locale_data_prefix 0000000140069cb4 f i libucrt:atof.obj
 0001:00068cb8       _atodbl                    0000000140069cb8 f   libucrt:atof.obj
 0001:00068cc4       _atodbl_l                  0000000140069cc4 f   libucrt:atof.obj
 0001:00068ccc       _atof_l                    0000000140069ccc f   libucrt:atof.obj
 0001:00068cd4       _atoflt                    0000000140069cd4 f   libucrt:atof.obj
 0001:00068ce0       _atoflt_l                  0000000140069ce0 f   libucrt:atof.obj
 0001:00068ce8       _chvalidchk_l              0000000140069ce8 f i libucrt:atof.obj
 0001:00068d64       _ischartype_l              0000000140069d64 f i libucrt:atof.obj
 0001:00068df8       _wtof                      0000000140069df8 f   libucrt:atof.obj
 0001:00068e00       _wtof_l                    0000000140069e00 f   libucrt:atof.obj
 0001:00068e08       atof                       0000000140069e08 f   libucrt:atof.obj
 0001:00068eb8       ??$is_overflow_condition@_K@__crt_strtox@@YA_NI_K@Z 0000000140069eb8 f i libucrt:atox.obj
 0001:00068efc       ??$parse_integer@KV?$c_string_character_source@D@__crt_strtox@@$00@__crt_strtox@@YAKAEAV__crt_cached_ptd_host@@V?$c_string_character_source@D@0@H_N@Z 0000000140069efc f i libucrt:atox.obj
 0001:000692a4       ??$parse_integer@KV?$c_string_character_source@_W@__crt_strtox@@$00@__crt_strtox@@YAKAEAV__crt_cached_ptd_host@@V?$c_string_character_source@_W@0@H_N@Z 000000014006a2a4 f i libucrt:atox.obj
 0001:00069c24       ??$parse_integer@_KV?$c_string_character_source@D@__crt_strtox@@$00@__crt_strtox@@YA_KAEAV__crt_cached_ptd_host@@V?$c_string_character_source@D@0@H_N@Z 000000014006ac24 f i libucrt:atox.obj
 0001:00069fb8       ??$parse_integer@_KV?$c_string_character_source@_W@__crt_strtox@@$00@__crt_strtox@@YA_KAEAV__crt_cached_ptd_host@@V?$c_string_character_source@_W@0@H_N@Z 000000014006afb8 f i libucrt:atox.obj
 0001:0006a91c       ??$parse_integer_from_string@JD$$T@__crt_strtox@@YAJQEBD$$THQEAU__crt_locale_pointers@@@Z 000000014006b91c f i libucrt:atox.obj
 0001:0006aa08       ??$parse_integer_from_string@J_W$$T@__crt_strtox@@YAJQEB_W$$THQEAU__crt_locale_pointers@@@Z 000000014006ba08 f i libucrt:atox.obj
 0001:0006aaf4       ??$parse_integer_from_string@_JD$$T@__crt_strtox@@YA_JQEBD$$THQEAU__crt_locale_pointers@@@Z 000000014006baf4 f i libucrt:atox.obj
 0001:0006abe4       ??$parse_integer_from_string@_J_W$$T@__crt_strtox@@YA_JQEB_W$$THQEAU__crt_locale_pointers@@@Z 000000014006bbe4 f i libucrt:atox.obj
 0001:0006acd4       ?maximum_signed_value@__crt_strtox@@YA_J_K@Z 000000014006bcd4 f i libucrt:atox.obj
 0001:0006ace4       ?minimum_signed_value@__crt_strtox@@YA_J_K@Z 000000014006bce4 f i libucrt:atox.obj
 0001:0006acf4       _atoi64                    000000014006bcf4 f   libucrt:atox.obj
 0001:0006add4       _atoi64_l                  000000014006bdd4 f   libucrt:atox.obj
 0001:0006aec0       _atoi_l                    000000014006bec0 f   libucrt:atox.obj
 0001:0006afa8       _atol_l                    000000014006bfa8 f   libucrt:atox.obj
 0001:0006b090       _atoll_l                   000000014006c090 f   libucrt:atox.obj
 0001:0006b17c       _wtoi                      000000014006c17c f   libucrt:atox.obj
 0001:0006b258       _wtoi64                    000000014006c258 f   libucrt:atox.obj
 0001:0006b338       _wtoi64_l                  000000014006c338 f   libucrt:atox.obj
 0001:0006b424       _wtoi_l                    000000014006c424 f   libucrt:atox.obj
 0001:0006b50c       _wtol                      000000014006c50c f   libucrt:atox.obj
 0001:0006b5e8       _wtol_l                    000000014006c5e8 f   libucrt:atox.obj
 0001:0006b6d0       _wtoll                     000000014006c6d0 f   libucrt:atox.obj
 0001:0006b7b0       _wtoll_l                   000000014006c7b0 f   libucrt:atox.obj
 0001:0006b89c       atoi                       000000014006c89c f   libucrt:atox.obj
 0001:0006b978       atol                       000000014006c978 f   libucrt:atox.obj
 0001:0006ba54       atoll                      000000014006ca54 f   libucrt:atox.obj
 0001:0006bb34       ??$?RPEAU__crt_stdio_stream_data@@@__crt_internal_free_policy@@QEBAXQEBQEAU__crt_stdio_stream_data@@@Z 000000014006cb34 f i libucrt:_file.obj
 0001:0006bb40       ??0?$__crt_unique_heap_ptr@PEAU__crt_stdio_stream_data@@U__crt_internal_free_policy@@@@QEAA@QEAPEAU__crt_stdio_stream_data@@@Z 000000014006cb40 f i libucrt:_file.obj
 0001:0006bb48       ??1?$__crt_unique_heap_ptr@PEAU__crt_stdio_stream_data@@U__crt_internal_free_policy@@@@QEAA@XZ 000000014006cb48 f i libucrt:_file.obj
 0001:0006bb6c       ?detach@?$__crt_unique_heap_ptr@PEAU__crt_stdio_stream_data@@U__crt_internal_free_policy@@@@QEAAPEAPEAU__crt_stdio_stream_data@@XZ 000000014006cb6c f i libucrt:_file.obj
 0001:0006bb78       ?release@?$__crt_unique_heap_ptr@PEAU__crt_stdio_stream_data@@U__crt_internal_free_policy@@@@QEAAXXZ 000000014006cb78 f i libucrt:_file.obj
 0001:0006bb9c       __acrt_initialize_stdio    000000014006cb9c f   libucrt:_file.obj
 0001:0006bd04       __acrt_iob_func            000000014006cd04 f   libucrt:_file.obj
 0001:0006bd1c       __acrt_uninitialize_stdio  000000014006cd1c f   libucrt:_file.obj
 0001:0006bd90       _get_stream_buffer_pointers 000000014006cd90 f   libucrt:_file.obj
 0001:0006bde8       _lock_file                 000000014006cde8 f   libucrt:_file.obj
 0001:0006bdf8       _unlock_file               000000014006cdf8 f   libucrt:_file.obj
 0001:0006c140       puts                       000000014006d140 f   libucrt:puts.obj
 0001:0006c390       __acrt_initialize_clock    000000014006d390 f   libucrt:clock.obj
 0001:0006c3f8       clock                      000000014006d3f8 f   libucrt:clock.obj
 0001:0006d510       ??$ftprintf@PEAU_iobuf@@PEBDAEBQEBDAEBQEBDAEBI@?$__crt_char_traits@D@@SAH$$QEAPEAU_iobuf@@$$QEAPEBDAEBQEBD2AEBI@Z 000000014006e510 f i libucrt:assert.obj
 0001:0006d538       ??$ftprintf@PEAU_iobuf@@PEB_WAEBQEB_WAEBQEB_WAEBI@?$__crt_char_traits@_W@@SAH$$QEAPEAU_iobuf@@$$QEAPEB_WAEBQEB_W2AEBI@Z 000000014006e538 f i libucrt:assert.obj
 0001:0006d560       ??$get_module_file_name@AEAPEAUHINSTANCE__@@AEAY0BAF@DK@?$__crt_char_traits@D@@SAKAEAPEAUHINSTANCE__@@AEAY0BAF@D$$QEAK@Z 000000014006e560 f i libucrt:assert.obj
 0001:0006d570       ??$get_module_file_name@AEAPEAUHINSTANCE__@@AEAY0BAF@_WK@?$__crt_char_traits@_W@@SAKAEAPEAUHINSTANCE__@@AEAY0BAF@_W$$QEAK@Z 000000014006e570 f i libucrt:assert.obj
 0001:0006d580       ??$itot_s@AEBIPEAD_KH@?$__crt_char_traits@D@@SAHAEBI$$QEAPEAD$$QEA_K$$QEAH@Z 000000014006e580 f i libucrt:assert.obj
 0001:0006d594       ??$itot_s@AEBIPEA_W_KH@?$__crt_char_traits@_W@@SAHAEBI$$QEAPEA_W$$QEA_K$$QEAH@Z 000000014006e594 f i libucrt:assert.obj
 0001:0006d5a8       ??$show_message_box@AEAY0CEA@DPEBDJ@?$__crt_char_traits@D@@SAHAEAY0CEA@D$$QEAPEBD$$QEAJ@Z 000000014006e5a8 f i libucrt:assert.obj
 0001:0006d5b8       ??$show_message_box@AEAY0CEA@_WPEB_WJ@?$__crt_char_traits@_W@@SAHAEAY0CEA@_W$$QEAPEB_W$$QEAJ@Z 000000014006e5b8 f i libucrt:assert.obj
 0001:0006d5c8       ??$tcscat_s@AEBQEADAEB_KAEAPEAD@?$__crt_char_traits@D@@SAHAEBQEADAEB_KAEAPEAD@Z 000000014006e5c8 f i libucrt:assert.obj
 0001:0006d5dc       ??$tcscat_s@AEBQEADAEB_KAEBQEBD@?$__crt_char_traits@D@@SAHAEBQEADAEB_KAEBQEBD@Z 000000014006e5dc f i libucrt:assert.obj
 0001:0006d5f0       ??$tcscat_s@AEBQEADAEB_KPEBD@?$__crt_char_traits@D@@SAHAEBQEADAEB_K$$QEAPEBD@Z 000000014006e5f0 f i libucrt:assert.obj
 0001:0006d604       ??$tcscat_s@AEBQEA_WAEB_KAEAPEA_W@?$__crt_char_traits@_W@@SAHAEBQEA_WAEB_KAEAPEA_W@Z 000000014006e604 f i libucrt:assert.obj
 0001:0006d618       ??$tcscat_s@AEBQEA_WAEB_KAEBQEB_W@?$__crt_char_traits@_W@@SAHAEBQEA_WAEB_KAEBQEB_W@Z 000000014006e618 f i libucrt:assert.obj
 0001:0006d62c       ??$tcscat_s@AEBQEA_WAEB_KPEB_W@?$__crt_char_traits@_W@@SAHAEBQEA_WAEB_K$$QEAPEB_W@Z 000000014006e62c f i libucrt:assert.obj
 0001:0006d640       ??$tcscpy_s@AEAY0BAF@D_KPEBD@?$__crt_char_traits@D@@SAHAEAY0BAF@D$$QEA_K$$QEAPEBD@Z 000000014006e640 f i libucrt:assert.obj
 0001:0006d650       ??$tcscpy_s@AEAY0BAF@_W_KPEB_W@?$__crt_char_traits@_W@@SAHAEAY0BAF@_W$$QEA_K$$QEAPEB_W@Z 000000014006e650 f i libucrt:assert.obj
 0001:0006d660       ??$tcscpy_s@AEBQEADAEB_KPEBD@?$__crt_char_traits@D@@SAHAEBQEADAEB_K$$QEAPEBD@Z 000000014006e660 f i libucrt:assert.obj
 0001:0006d674       ??$tcscpy_s@AEBQEA_WAEB_KPEB_W@?$__crt_char_traits@_W@@SAHAEBQEA_WAEB_K$$QEAPEB_W@Z 000000014006e674 f i libucrt:assert.obj
 0001:0006d688       ??$tcslen@AEAY0BAF@D@?$__crt_char_traits@D@@SA_KAEAY0BAF@D@Z 000000014006e688 f i libucrt:assert.obj
 0001:0006d69c       ??$tcslen@AEAY0BAF@_W@?$__crt_char_traits@_W@@SA_KAEAY0BAF@_W@Z 000000014006e69c f i libucrt:assert.obj
 0001:0006d6b0       ??$tcslen@AEBQEAD@?$__crt_char_traits@D@@SA_KAEBQEAD@Z 000000014006e6b0 f i libucrt:assert.obj
 0001:0006d6c8       ??$tcslen@AEBQEA_W@?$__crt_char_traits@_W@@SA_KAEBQEA_W@Z 000000014006e6c8 f i libucrt:assert.obj
 0001:0006d6e0       ??$tcslen@AEBQEBD@?$__crt_char_traits@D@@SA_KAEBQEBD@Z 000000014006e6e0 f i libucrt:assert.obj
 0001:0006d6f8       ??$tcslen@AEBQEB_W@?$__crt_char_traits@_W@@SA_KAEBQEB_W@Z 000000014006e6f8 f i libucrt:assert.obj
 0001:0006d710       ??$tcsncat_s@AEBQEADAEB_KAEAPEBD_K@?$__crt_char_traits@D@@SAHAEBQEADAEB_KAEAPEBD$$QEA_K@Z 000000014006e710 f i libucrt:assert.obj
 0001:0006d728       ??$tcsncat_s@AEBQEADAEB_KAEBQEBDAEB_K@?$__crt_char_traits@D@@SAHAEBQEADAEB_KAEBQEBD1@Z 000000014006e728 f i libucrt:assert.obj
 0001:0006d740       ??$tcsncat_s@AEBQEADAEB_KPEBD_K@?$__crt_char_traits@D@@SAHAEBQEADAEB_K$$QEAPEBD$$QEA_K@Z 000000014006e740 f i libucrt:assert.obj
 0001:0006d758       ??$tcsncat_s@AEBQEA_WAEB_KAEAPEB_W_K@?$__crt_char_traits@_W@@SAHAEBQEA_WAEB_KAEAPEB_W$$QEA_K@Z 000000014006e758 f i libucrt:assert.obj
 0001:0006d770       ??$tcsncat_s@AEBQEA_WAEB_KAEBQEB_WAEB_K@?$__crt_char_traits@_W@@SAHAEBQEA_WAEB_KAEBQEB_W1@Z 000000014006e770 f i libucrt:assert.obj
 0001:0006d788       ??$tcsncat_s@AEBQEA_WAEB_KPEB_W_K@?$__crt_char_traits@_W@@SAHAEBQEA_WAEB_K$$QEAPEB_W$$QEA_K@Z 000000014006e788 f i libucrt:assert.obj
 0001:0006d9e8       ?has_any_buffer@__crt_stdio_stream@@QEBA_NXZ 000000014006e9e8 f i libucrt:assert.obj
 0001:0006da00       ?has_any_of@__crt_stdio_stream@@QEBA_NJ@Z 000000014006ea00 f i libucrt:assert.obj
 0001:0006da10       _assert                    000000014006ea10 f   libucrt:assert.obj
 0001:0006daa0       _invoke_watson_if_error    000000014006eaa0 f i libucrt:assert.obj
 0001:0006dae0       _vfwprintf_l               000000014006eae0 f i libucrt:assert.obj
 0001:0006db44       _vswprintf_c_l             000000014006eb44 f i libucrt:assert.obj
 0001:0006dbc0       _wassert                   000000014006ebc0 f   libucrt:assert.obj
 0001:0006dc50       fwprintf                   000000014006ec50 f i libucrt:assert.obj
 0001:0006dd4c       swprintf                   000000014006ed4c f i libucrt:assert.obj
 0001:0006de80       strcspn                    000000014006ee80 f   libucrt:strcspn.obj
 0001:0006e360       strncmp                    000000014006f360 f   libucrt:strncmp.obj
 0001:0006e7e4       ?value_or@?$cached@H@__crt_cached_ptd_host@@QEBAHH@Z 000000014006f7e4 f i libucrt:mbstowcs.obj
 0001:0006e7f4       _isleadbyte_fast_internal  000000014006f7f4 f i libucrt:mbstowcs.obj
 0001:0006e814       _mbstowcs_l                000000014006f814 f   libucrt:mbstowcs.obj
 0001:0006e8e4       _mbstowcs_s_l              000000014006f8e4 f   libucrt:mbstowcs.obj
 0001:0006e9c8       mbstowcs                   000000014006f9c8 f   libucrt:mbstowcs.obj
 0001:0006ea88       mbstowcs_s                 000000014006fa88 f   libucrt:mbstowcs.obj
 0001:0006eb5c       __iswcsym                  000000014006fb5c f i libucrt:_wctype.obj
 0001:0006eb94       __iswcsymf                 000000014006fb94 f i libucrt:_wctype.obj
 0001:0006ebcc       _isleadbyte_l              000000014006fbcc f i libucrt:_wctype.obj
 0001:0006ec2c       _iswalnum_l                000000014006fc2c f i libucrt:_wctype.obj
 0001:0006ec38       _iswalpha_l                000000014006fc38 f i libucrt:_wctype.obj
 0001:0006ec44       _iswblank_l                000000014006fc44 f i libucrt:_wctype.obj
 0001:0006ec60       _iswcntrl_l                000000014006fc60 f i libucrt:_wctype.obj
 0001:0006ec6c       _iswcsym_l                 000000014006fc6c f i libucrt:_wctype.obj
 0001:0006eca4       _iswcsymf_l                000000014006fca4 f i libucrt:_wctype.obj
 0001:0006ecdc       _iswdigit_l                000000014006fcdc f i libucrt:_wctype.obj
 0001:0006ece8       _iswgraph_l                000000014006fce8 f i libucrt:_wctype.obj
 0001:0006ecf4       _iswlower_l                000000014006fcf4 f i libucrt:_wctype.obj
 0001:0006ed00       _iswprint_l                000000014006fd00 f i libucrt:_wctype.obj
 0001:0006ed0c       _iswpunct_l                000000014006fd0c f i libucrt:_wctype.obj
 0001:0006ed18       _iswspace_l                000000014006fd18 f i libucrt:_wctype.obj
 0001:0006ed24       _iswupper_l                000000014006fd24 f i libucrt:_wctype.obj
 0001:0006ed30       _iswxdigit_l               000000014006fd30 f i libucrt:_wctype.obj
 0001:0006ed3c       isleadbyte                 000000014006fd3c f i libucrt:_wctype.obj
 0001:0006ed9c       iswalnum                   000000014006fd9c f i libucrt:_wctype.obj
 0001:0006eda8       iswalpha                   000000014006fda8 f i libucrt:_wctype.obj
 0001:0006edb4       iswascii                   000000014006fdb4 f i libucrt:_wctype.obj
 0001:0006edc8       iswblank                   000000014006fdc8 f i libucrt:_wctype.obj
 0001:0006ede4       iswcntrl                   000000014006fde4 f i libucrt:_wctype.obj
 0001:0006edf0       iswdigit                   000000014006fdf0 f i libucrt:_wctype.obj
 0001:0006edfc       iswgraph                   000000014006fdfc f i libucrt:_wctype.obj
 0001:0006ee08       iswlower                   000000014006fe08 f i libucrt:_wctype.obj
 0001:0006ee14       iswprint                   000000014006fe14 f i libucrt:_wctype.obj
 0001:0006ee20       iswpunct                   000000014006fe20 f i libucrt:_wctype.obj
 0001:0006ee2c       iswspace                   000000014006fe2c f i libucrt:_wctype.obj
 0001:0006ee38       iswupper                   000000014006fe38 f i libucrt:_wctype.obj
 0001:0006ee44       iswxdigit                  000000014006fe44 f i libucrt:_wctype.obj
 0001:0006ee60       strlen                     000000014006fe60 f   libucrt:strlen.obj
 0001:0006ef38       ??$?B$$A6AH_K@Z@__crt_fast_encoded_nullptr_t@@QEBAP6AH_K@ZXZ 000000014006ff38 f i libucrt:new_handler.obj
 0001:0006ef44       ??$__crt_fast_decode_pointer@P6AH_K@Z@@YAP6AH_K@ZQ6AH0@Z@Z 000000014006ff44 f i libucrt:new_handler.obj
 0001:0006ef60       ??$__crt_fast_encode_pointer@P6AH_K@Z@@YAP6AH_K@ZQ6AH0@Z@Z 000000014006ff60 f i libucrt:new_handler.obj
 0001:0006ef88       ?__crt_fast_encode_pointer@@YA?AU__crt_fast_encoded_nullptr_t@@$$T@Z 000000014006ff88 f i libucrt:new_handler.obj
 0001:0006ef90       ?_set_new_handler@@YAP6AH_K@ZH@Z 000000014006ff90 f   libucrt:new_handler.obj
 0001:0006efa0       ?initialize@?$dual_state_global@P6AH_K@Z@__crt_state_management@@QEAAXQ6AH_K@Z@Z 000000014006ffa0 f i libucrt:new_handler.obj
 0001:0006efb0       ?value@?$dual_state_global@P6AH_K@Z@__crt_state_management@@QEAAAEAP6AH_K@ZXZ 000000014006ffb0 f i libucrt:new_handler.obj
 0001:0006efb4       __acrt_initialize_new_handler 000000014006ffb4 f   libucrt:new_handler.obj
 0001:0006efc0       _callnewh                  000000014006ffc0 f   libucrt:new_handler.obj
 0001:0006f010       _query_new_handler         0000000140070010 f   libucrt:new_handler.obj
 0001:0006f054       _set_new_handler           0000000140070054 f   libucrt:new_handler.obj
 0001:0006f0c4       malloc                     00000001400700c4 f   libucrt:malloc.obj
 0001:0006f0cc       free                       00000001400700cc f   libucrt:free.obj
 0001:0006f108       _seh_filter_dll            0000000140070108 f   libucrt:exception_filter.obj
 0001:0006f120       _seh_filter_exe            0000000140070120 f   libucrt:exception_filter.obj
 0001:0006f414       __acrt_report_runtime_error 0000000140070414 f   libucrt:report_runtime_error.obj
 0001:0006f5c8       _query_app_type            00000001400705c8 f   libucrt:report_runtime_error.obj
 0001:0006f5d0       _set_app_type              00000001400705d0 f   libucrt:report_runtime_error.obj
 0001:0006f5d8       ??$__crt_fast_decode_pointer@P6AHPEAU_exception@@@Z@@YAP6AHPEAU_exception@@@ZQ6AH0@Z@Z 00000001400705d8 f i libucrt:matherr.obj
 0001:0006f5f4       ??$__crt_fast_encode_pointer@P6AHPEAU_exception@@@Z@@YAP6AHPEAU_exception@@@ZQ6AH0@Z@Z 00000001400705f4 f i libucrt:matherr.obj
 0001:0006f61c       ?initialize@?$dual_state_global@P6AHPEAU_exception@@@Z@__crt_state_management@@QEAAXQ6AHPEAU_exception@@@Z@Z 000000014007061c f i libucrt:matherr.obj
 0001:0006f62c       ?value@?$dual_state_global@P6AHPEAU_exception@@@Z@__crt_state_management@@QEAAAEAP6AHPEAU_exception@@@ZXZ 000000014007062c f i libucrt:matherr.obj
 0001:0006f630       __acrt_has_user_matherr    0000000140070630 f   libucrt:matherr.obj
 0001:0006f658       __acrt_initialize_user_matherr 0000000140070658 f   libucrt:matherr.obj
 0001:0006f664       __acrt_invoke_user_matherr 0000000140070664 f   libucrt:matherr.obj
 0001:0006f6b0       __setusermatherr           00000001400706b0 f   libucrt:matherr.obj
 0001:0006f6e0       ??$?RE@__crt_internal_free_policy@@QEBAXQEBE@Z 00000001400706e0 f i libucrt:argv_parsing.obj
 0001:0006f6ec       ??$?RPEAD@__crt_internal_free_policy@@QEBAXQEBQEAD@Z 00000001400706ec f i libucrt:argv_parsing.obj
 0001:0006f6f8       ??$?RPEA_W@__crt_internal_free_policy@@QEBAXQEBQEA_W@Z 00000001400706f8 f i libucrt:argv_parsing.obj
 0001:0006fab0       ??$get_module_file_name@$$TAEAY0BAF@DH@?$__crt_char_traits@D@@SAK$$QEA$$TAEAY0BAF@D$$QEAH@Z 0000000140070ab0 f i libucrt:argv_parsing.obj
 0001:0006fac0       ??$get_module_file_name@$$TAEAY0BAF@_WH@?$__crt_char_traits@_W@@SAK$$QEA$$TAEAY0BAF@_W$$QEAH@Z 0000000140070ac0 f i libucrt:argv_parsing.obj
 0001:0006ff14       ??$set_program_name@PEAD@?$__crt_char_traits@D@@SAX$$QEAPEAD@Z 0000000140070f14 f i libucrt:argv_parsing.obj
 0001:0006ff24       ??$set_program_name@PEA_W@?$__crt_char_traits@_W@@SAX$$QEAPEA_W@Z 0000000140070f24 f i libucrt:argv_parsing.obj
 0001:0006ff44       ??0?$__crt_unique_heap_ptr@EU__crt_internal_free_policy@@@@QEAA@QEAE@Z 0000000140070f44 f i libucrt:argv_parsing.obj
 0001:0006ff4c       ??0?$__crt_unique_heap_ptr@PEADU__crt_internal_free_policy@@@@QEAA@QEAPEAD@Z 0000000140070f4c f i libucrt:argv_parsing.obj
 0001:0006ff54       ??0?$__crt_unique_heap_ptr@PEA_WU__crt_internal_free_policy@@@@QEAA@QEAPEA_W@Z 0000000140070f54 f i libucrt:argv_parsing.obj
 0001:0006ff5c       ??1?$__crt_unique_heap_ptr@EU__crt_internal_free_policy@@@@QEAA@XZ 0000000140070f5c f i libucrt:argv_parsing.obj
 0001:0006ff80       ??1?$__crt_unique_heap_ptr@PEADU__crt_internal_free_policy@@@@QEAA@XZ 0000000140070f80 f i libucrt:argv_parsing.obj
 0001:0006ffa4       ??1?$__crt_unique_heap_ptr@PEA_WU__crt_internal_free_policy@@@@QEAA@XZ 0000000140070fa4 f i libucrt:argv_parsing.obj
 0001:0006ffc8       ??B?$__crt_unique_heap_ptr@EU__crt_internal_free_policy@@@@QEBA_NXZ 0000000140070fc8 f i libucrt:argv_parsing.obj
 0001:0007001c       ?detach@?$__crt_unique_heap_ptr@EU__crt_internal_free_policy@@@@QEAAPEAEXZ 000000014007101c f i libucrt:argv_parsing.obj
 0001:00070028       ?detach@?$__crt_unique_heap_ptr@PEADU__crt_internal_free_policy@@@@QEAAPEAPEADXZ 0000000140071028 f i libucrt:argv_parsing.obj
 0001:00070034       ?detach@?$__crt_unique_heap_ptr@PEA_WU__crt_internal_free_policy@@@@QEAAPEAPEA_WXZ 0000000140071034 f i libucrt:argv_parsing.obj
 0001:0007005c       ?get@?$__crt_unique_heap_ptr@EU__crt_internal_free_policy@@@@QEBAPEAEXZ 000000014007105c f i libucrt:argv_parsing.obj
 0001:00070060       ?get@?$__crt_unique_heap_ptr@PEADU__crt_internal_free_policy@@@@QEBAPEAPEADXZ 0000000140071060 f i libucrt:argv_parsing.obj
 0001:00070064       ?get@?$__crt_unique_heap_ptr@PEA_WU__crt_internal_free_policy@@@@QEBAPEAPEA_WXZ 0000000140071064 f i libucrt:argv_parsing.obj
 0001:00070068       ?get_address_of@?$__crt_unique_heap_ptr@PEADU__crt_internal_free_policy@@@@QEAAPEAPEAPEADXZ 0000000140071068 f i libucrt:argv_parsing.obj
 0001:0007006c       ?get_address_of@?$__crt_unique_heap_ptr@PEA_WU__crt_internal_free_policy@@@@QEAAPEAPEAPEA_WXZ 000000014007106c f i libucrt:argv_parsing.obj
 0001:000700a0       ?is_valid@?$__crt_unique_heap_ptr@EU__crt_internal_free_policy@@@@QEBA_NXZ 00000001400710a0 f i libucrt:argv_parsing.obj
 0001:000700ac       ?release@?$__crt_unique_heap_ptr@EU__crt_internal_free_policy@@@@QEAAXXZ 00000001400710ac f i libucrt:argv_parsing.obj
 0001:000700d0       ?release@?$__crt_unique_heap_ptr@PEADU__crt_internal_free_policy@@@@QEAAXXZ 00000001400710d0 f i libucrt:argv_parsing.obj
 0001:000700f4       ?release@?$__crt_unique_heap_ptr@PEA_WU__crt_internal_free_policy@@@@QEAAXXZ 00000001400710f4 f i libucrt:argv_parsing.obj
 0001:00070138       __acrt_allocate_buffer_for_argv 0000000140071138 f   libucrt:argv_parsing.obj
 0001:000701ac       _configure_narrow_argv     00000001400711ac f   libucrt:argv_parsing.obj
 0001:00070394       _configure_wide_argv       0000000140071394 f   libucrt:argv_parsing.obj
 0001:00070578       _set_pgmptr                0000000140071578 f i libucrt:argv_parsing.obj
 0001:00070584       _set_wpgmptr               0000000140071584 f i libucrt:argv_parsing.obj
 0001:00070590       ??$?R_W@__crt_internal_free_policy@@QEBAXQEB_W@Z 0000000140071590 f i libucrt:environment_initialization.obj
 0001:00070c04       ??$get_environment_from_os@$$V@?$__crt_char_traits@D@@SAPEADXZ 0000000140071c04 f i libucrt:environment_initialization.obj
 0001:00070c0c       ??$get_environment_from_os@$$V@?$__crt_char_traits@_W@@SAPEA_WXZ 0000000140071c0c f i libucrt:environment_initialization.obj
 0001:00070e14       ??$set_variable_in_environment_nolock@PEADH@?$__crt_char_traits@D@@SAH$$QEAPEAD$$QEAH@Z 0000000140071e14 f i libucrt:environment_initialization.obj
 0001:00070e20       ??$set_variable_in_environment_nolock@PEA_WH@?$__crt_char_traits@_W@@SAH$$QEAPEA_W$$QEAH@Z 0000000140071e20 f i libucrt:environment_initialization.obj
 0001:00070e2c       ??$tcscpy_s@PEADAEB_KAEAPEAD@?$__crt_char_traits@D@@SAH$$QEAPEADAEB_KAEAPEAD@Z 0000000140071e2c f i libucrt:environment_initialization.obj
 0001:00070e40       ??$tcscpy_s@PEA_WAEB_KAEAPEA_W@?$__crt_char_traits@_W@@SAH$$QEAPEA_WAEB_KAEAPEA_W@Z 0000000140071e40 f i libucrt:environment_initialization.obj
 0001:00070e54       ??$tcslen@AEAPEAD@?$__crt_char_traits@D@@SA_KAEAPEAD@Z 0000000140071e54 f i libucrt:environment_initialization.obj
 0001:00070e6c       ??$tcslen@AEAPEA_W@?$__crt_char_traits@_W@@SA_KAEAPEA_W@Z 0000000140071e6c f i libucrt:environment_initialization.obj
 0001:00070e84       ??$uninitialize@A6AXAEAPEAPEAD@_E@?$dual_state_global@PEAPEAD@__crt_state_management@@QEAAXA6AXAEAPEAPEAD@_E@Z 0000000140071e84 f i libucrt:environment_initialization.obj
 0001:00070ef0       ??$uninitialize@A6AXAEAPEAPEA_W@_E@?$dual_state_global@PEAPEA_W@__crt_state_management@@QEAAXA6AXAEAPEAPEA_W@_E@Z 0000000140071ef0 f i libucrt:environment_initialization.obj
 0001:00070f9c       ??0?$__crt_unique_heap_ptr@_WU__crt_internal_free_policy@@@@QEAA@QEA_W@Z 0000000140071f9c f i libucrt:environment_initialization.obj
 0001:00070fa4       ??1?$__crt_unique_heap_ptr@_WU__crt_internal_free_policy@@@@QEAA@XZ 0000000140071fa4 f i libucrt:environment_initialization.obj
 0001:00070fc8       ??B?$__crt_unique_heap_ptr@PEADU__crt_internal_free_policy@@@@QEBA_NXZ 0000000140071fc8 f i libucrt:environment_initialization.obj
 0001:00070fd4       ??B?$__crt_unique_heap_ptr@PEA_WU__crt_internal_free_policy@@@@QEBA_NXZ 0000000140071fd4 f i libucrt:environment_initialization.obj
 0001:00070fe0       ??B?$__crt_unique_heap_ptr@_WU__crt_internal_free_policy@@@@QEBA_NXZ 0000000140071fe0 f i libucrt:environment_initialization.obj
 0001:00070fec       ?__crt_compute_required_transform_buffer_count@@YA_KIQEBD@Z 0000000140071fec f i libucrt:environment_initialization.obj
 0001:0007101c       ?__crt_compute_required_transform_buffer_count@@YA_KIQEB_W@Z 000000014007201c f i libucrt:environment_initialization.obj
 0001:00071058       ?__crt_transform_string@@YA_KIQEBDQEA_W_K@Z 0000000140072058 f i libucrt:environment_initialization.obj
 0001:00071084       ?__crt_transform_string@@YA_KIQEB_WQEAD_K@Z 0000000140072084 f i libucrt:environment_initialization.obj
 0001:000710c0       ?detach@?$__crt_unique_heap_ptr@DU__crt_internal_free_policy@@@@QEAAPEADXZ 00000001400720c0 f i libucrt:environment_initialization.obj
 0001:000710cc       ?detach@?$__crt_unique_heap_ptr@_WU__crt_internal_free_policy@@@@QEAAPEA_WXZ 00000001400720cc f i libucrt:environment_initialization.obj
 0001:000710d8       ?get@?$__crt_unique_heap_ptr@_WU__crt_internal_free_policy@@@@QEBAPEA_WXZ 00000001400720d8 f i libucrt:environment_initialization.obj
 0001:00071124       ?initialize@?$dual_state_global@PEAPEAD@__crt_state_management@@QEAAXQEAPEAD@Z 0000000140072124 f i libucrt:environment_initialization.obj
 0001:00071134       ?initialize@?$dual_state_global@PEAPEA_W@__crt_state_management@@QEAAXQEAPEA_W@Z 0000000140072134 f i libucrt:environment_initialization.obj
 0001:00071144       ?is_valid@?$__crt_unique_heap_ptr@PEADU__crt_internal_free_policy@@@@QEBA_NXZ 0000000140072144 f i libucrt:environment_initialization.obj
 0001:00071150       ?is_valid@?$__crt_unique_heap_ptr@PEA_WU__crt_internal_free_policy@@@@QEBA_NXZ 0000000140072150 f i libucrt:environment_initialization.obj
 0001:0007115c       ?is_valid@?$__crt_unique_heap_ptr@_WU__crt_internal_free_policy@@@@QEBA_NXZ 000000014007215c f i libucrt:environment_initialization.obj
 0001:00071174       ?release@?$__crt_unique_heap_ptr@_WU__crt_internal_free_policy@@@@QEAAXXZ 0000000140072174 f i libucrt:environment_initialization.obj
 0001:00071198       ?value@?$dual_state_global@PEAPEAD@__crt_state_management@@QEAAAEAPEAPEADXZ 0000000140072198 f i libucrt:environment_initialization.obj
 0001:0007119c       ?value@?$dual_state_global@PEAPEA_W@__crt_state_management@@QEAAAEAPEAPEA_WXZ 000000014007219c f i libucrt:environment_initialization.obj
 0001:000711a0       __dcrt_get_or_create_narrow_environment_nolock 00000001400721a0 f   libucrt:environment_initialization.obj
 0001:000711ec       __dcrt_get_or_create_wide_environment_nolock 00000001400721ec f   libucrt:environment_initialization.obj
 0001:00071238       __dcrt_uninitialize_environments_nolock 0000000140072238 f   libucrt:environment_initialization.obj
 0001:0007128c       __p__environ               000000014007228c f   libucrt:environment_initialization.obj
 0001:00071298       __p__wenviron              0000000140072298 f   libucrt:environment_initialization.obj
 0001:000712a4       _get_initial_narrow_environment 00000001400722a4 f   libucrt:environment_initialization.obj
 0001:00071308       _get_initial_wide_environment 0000000140072308 f   libucrt:environment_initialization.obj
 0001:0007136c       _initialize_narrow_environment 000000014007236c f   libucrt:environment_initialization.obj
 0001:00071374       _initialize_wide_environment 0000000140072374 f   libucrt:environment_initialization.obj
 0001:0007137c       _initterm                  000000014007237c f   libucrt:initterm.obj
 0001:000713d0       _initterm_e                00000001400723d0 f   libucrt:initterm.obj
 0001:00071428       ??$?B$$A6AXPEAXK0@Z@__crt_fast_encoded_nullptr_t@@QEBAP6AXPEAXK0@ZXZ 0000000140072428 f i libucrt:exit.obj
 0001:000714b8       ??$__crt_fast_decode_pointer@P6AXPEAXK0@Z@@YAP6AXPEAXK0@ZQ6AX0K0@Z@Z 00000001400724b8 f i libucrt:exit.obj
 0001:000714d4       ??$__crt_fast_encode_pointer@P6AXPEAXK0@Z@@YAP6AXPEAXK0@ZQ6AX0K0@Z@Z 00000001400724d4 f i libucrt:exit.obj
 0001:000714fc       ??$__crt_get_proc_address@P6AXI@Z@@YAP6AXI@ZQEAUHINSTANCE__@@QEBD@Z 00000001400724fc f i libucrt:exit.obj
 0001:00071530       ??0?$__crt_unique_handle_t@U__crt_hmodule_traits@@@@QEAA@QEAUHINSTANCE__@@@Z 0000000140072530 f i libucrt:exit.obj
 0001:00071538       ??1?$__crt_unique_handle_t@U__crt_hmodule_traits@@@@QEAA@XZ 0000000140072538 f i libucrt:exit.obj
 0001:00071674       ?__acrt_select_exit_lock@@YA?AW4__acrt_lock_id@@XZ 0000000140072674 f i libucrt:exit.obj
 0001:0007168c       ?close@?$__crt_unique_handle_t@U__crt_hmodule_traits@@@@QEAAXXZ 000000014007268c f i libucrt:exit.obj
 0001:000716b8       ?close@__crt_hmodule_traits@@SA_NPEAUHINSTANCE__@@@Z 00000001400726b8 f i libucrt:exit.obj
 0001:0007180c       ?get@?$__crt_unique_handle_t@U__crt_hmodule_traits@@@@QEBAPEAUHINSTANCE__@@XZ 000000014007280c f i libucrt:exit.obj
 0001:00071810       ?get_address_of@?$__crt_unique_handle_t@U__crt_hmodule_traits@@@@QEAAPEAPEAUHINSTANCE__@@XZ 0000000140072810 f i libucrt:exit.obj
 0001:00071814       ?get_invalid_value@__crt_hmodule_traits@@SAPEAUHINSTANCE__@@XZ 0000000140072814 f i libucrt:exit.obj
 0001:00071938       _Exit                      0000000140072938 f   libucrt:exit.obj
 0001:00071948       __acrt_initialize_thread_local_exit_callback 0000000140072948 f   libucrt:exit.obj
 0001:00071954       _c_exit                    0000000140072954 f   libucrt:exit.obj
 0001:00071968       _cexit                     0000000140072968 f   libucrt:exit.obj
 0001:00071978       _exit                      0000000140072978 f   libucrt:exit.obj
 0001:00071988       _is_c_termination_complete 0000000140072988 f   libucrt:exit.obj
 0001:00071994       _register_thread_local_exe_atexit_callback 0000000140072994 f   libucrt:exit.obj
 0001:000719e4       exit                       00000001400729e4 f   libucrt:exit.obj
 0001:000719f0       quick_exit                 00000001400729f0 f   libucrt:exit.obj
 0001:00071a00       ??$__crt_interlocked_read@H@@YAHPEDH@Z 0000000140072a00 f i libucrt:setmode.obj
 0001:00071a04       ?value@?$dual_state_global@H@__crt_state_management@@QEAAAEAHXZ 0000000140072a04 f i libucrt:setmode.obj
 0001:00071a08       _get_fmode                 0000000140072a08 f   libucrt:setmode.obj
 0001:00071a44       _set_fmode                 0000000140072a44 f   libucrt:setmode.obj
 0001:00071a90       _setmode                   0000000140072a90 f   libucrt:setmode.obj
 0001:00071bf4       _setmode_nolock            0000000140072bf4 f   libucrt:setmode.obj
 0001:00071d14       __acrt_initialize_command_line 0000000140072d14 f   libucrt:argv_data.obj
 0001:00071d44       __acrt_uninitialize_command_line 0000000140072d44 f   libucrt:argv_data.obj
 0001:00071d48       __p___argc                 0000000140072d48 f   libucrt:argv_data.obj
 0001:00071d54       __p___argv                 0000000140072d54 f   libucrt:argv_data.obj
 0001:00071d60       __p___wargv                0000000140072d60 f   libucrt:argv_data.obj
 0001:00071d6c       __p__acmdln                0000000140072d6c f   libucrt:argv_data.obj
 0001:00071d78       __p__pgmptr                0000000140072d78 f   libucrt:argv_data.obj
 0001:00071d84       __p__wcmdln                0000000140072d84 f   libucrt:argv_data.obj
 0001:00071d90       __p__wpgmptr               0000000140072d90 f   libucrt:argv_data.obj
 0001:00071d9c       _get_pgmptr                0000000140072d9c f   libucrt:argv_data.obj
 0001:00071de0       _get_wpgmptr               0000000140072de0 f   libucrt:argv_data.obj
 0001:00071e28       ??$?RU__crt_locale_data@@@__crt_internal_free_policy@@QEBAXQEBU__crt_locale_data@@@Z 0000000140072e28 f i libucrt:wsetlocale.obj
 0001:00071e34       ??$?RU__crt_locale_pointers@@@__crt_internal_free_policy@@QEBAXQEBU__crt_locale_pointers@@@Z 0000000140072e34 f i libucrt:wsetlocale.obj
 0001:00071e40       ??$?RU__crt_multibyte_data@@@__crt_internal_free_policy@@QEBAXQEBU__crt_multibyte_data@@@Z 0000000140072e40 f i libucrt:wsetlocale.obj
 0001:00072340       ??0?$__crt_unique_heap_ptr@U__crt_locale_data@@U__crt_internal_free_policy@@@@QEAA@QEAU__crt_locale_data@@@Z 0000000140073340 f i libucrt:wsetlocale.obj
 0001:00072348       ??0?$__crt_unique_heap_ptr@U__crt_locale_pointers@@U__crt_internal_free_policy@@@@QEAA@QEAU__crt_locale_pointers@@@Z 0000000140073348 f i libucrt:wsetlocale.obj
 0001:00072350       ??0?$__crt_unique_heap_ptr@U__crt_multibyte_data@@U__crt_internal_free_policy@@@@QEAA@QEAU__crt_multibyte_data@@@Z 0000000140073350 f i libucrt:wsetlocale.obj
 0001:00072358       ??0_expandlocale_locale_name_cache@@QEAA@QEA_W_KQEAU__crt_qualified_locale_data@@@Z 0000000140073358 f i libucrt:wsetlocale.obj
 0001:000723c8       ??1?$__crt_unique_heap_ptr@U__crt_locale_data@@U__crt_internal_free_policy@@@@QEAA@XZ 00000001400733c8 f i libucrt:wsetlocale.obj
 0001:000723ec       ??1?$__crt_unique_heap_ptr@U__crt_locale_pointers@@U__crt_internal_free_policy@@@@QEAA@XZ 00000001400733ec f i libucrt:wsetlocale.obj
 0001:00072410       ??1?$__crt_unique_heap_ptr@U__crt_multibyte_data@@U__crt_internal_free_policy@@@@QEAA@XZ 0000000140073410 f i libucrt:wsetlocale.obj
 0001:00072434       ??1_expandlocale_locale_name_cache@@QEAA@XZ 0000000140073434 f i libucrt:wsetlocale.obj
 0001:00072490       ??B?$__crt_unique_heap_ptr@U__crt_locale_data@@U__crt_internal_free_policy@@@@QEBA_NXZ 0000000140073490 f i libucrt:wsetlocale.obj
 0001:0007249c       ??B?$__crt_unique_heap_ptr@U__crt_locale_pointers@@U__crt_internal_free_policy@@@@QEBA_NXZ 000000014007349c f i libucrt:wsetlocale.obj
 0001:000724a8       ??B?$__crt_unique_heap_ptr@U__crt_multibyte_data@@U__crt_internal_free_policy@@@@QEBA_NXZ 00000001400734a8 f i libucrt:wsetlocale.obj
 0001:000727b4       ?commit_locale_name@_expandlocale_locale_name_cache@@QEAAXQEB_W_K@Z 00000001400737b4 f i libucrt:wsetlocale.obj
 0001:00072848       ?commit_locale_name_cache_already_updated@_expandlocale_locale_name_cache@@QEAAXQEB_W_K@Z 0000000140073848 f i libucrt:wsetlocale.obj
 0001:00072898       ?detach@?$__crt_unique_heap_ptr@U__crt_locale_data@@U__crt_internal_free_policy@@@@QEAAPEAU__crt_locale_data@@XZ 0000000140073898 f i libucrt:wsetlocale.obj
 0001:000728a4       ?detach@?$__crt_unique_heap_ptr@U__crt_locale_pointers@@U__crt_internal_free_policy@@@@QEAAPEAU__crt_locale_pointers@@XZ 00000001400738a4 f i libucrt:wsetlocale.obj
 0001:000728b0       ?detach@?$__crt_unique_heap_ptr@U__crt_multibyte_data@@U__crt_internal_free_policy@@@@QEAAPEAU__crt_multibyte_data@@XZ 00000001400738b0 f i libucrt:wsetlocale.obj
 0001:000728bc       ?get@?$__crt_unique_heap_ptr@U__crt_locale_data@@U__crt_internal_free_policy@@@@QEBAPEAU__crt_locale_data@@XZ 00000001400738bc f i libucrt:wsetlocale.obj
 0001:000728c0       ?get@?$__crt_unique_heap_ptr@U__crt_locale_pointers@@U__crt_internal_free_policy@@@@QEBAPEAU__crt_locale_pointers@@XZ 00000001400738c0 f i libucrt:wsetlocale.obj
 0001:000728c4       ?get@?$__crt_unique_heap_ptr@U__crt_multibyte_data@@U__crt_internal_free_policy@@@@QEBAPEAU__crt_multibyte_data@@XZ 00000001400738c4 f i libucrt:wsetlocale.obj
 0001:000728c8       ?is_valid@?$__crt_unique_heap_ptr@U__crt_locale_data@@U__crt_internal_free_policy@@@@QEBA_NXZ 00000001400738c8 f i libucrt:wsetlocale.obj
 0001:000728d4       ?is_valid@?$__crt_unique_heap_ptr@U__crt_locale_pointers@@U__crt_internal_free_policy@@@@QEBA_NXZ 00000001400738d4 f i libucrt:wsetlocale.obj
 0001:000728e0       ?is_valid@?$__crt_unique_heap_ptr@U__crt_multibyte_data@@U__crt_internal_free_policy@@@@QEBA_NXZ 00000001400738e0 f i libucrt:wsetlocale.obj
 0001:000728ec       ?release@?$__crt_unique_heap_ptr@U__crt_locale_data@@U__crt_internal_free_policy@@@@QEAAXXZ 00000001400738ec f i libucrt:wsetlocale.obj
 0001:00072910       ?release@?$__crt_unique_heap_ptr@U__crt_locale_pointers@@U__crt_internal_free_policy@@@@QEAAXXZ 0000000140073910 f i libucrt:wsetlocale.obj
 0001:00072934       ?release@?$__crt_unique_heap_ptr@U__crt_multibyte_data@@U__crt_internal_free_policy@@@@QEAAXXZ 0000000140073934 f i libucrt:wsetlocale.obj
 0001:00072958       ?value@?$dual_state_global@PEAU__crt_locale_data@@@__crt_state_management@@QEAAAEAPEAU__crt_locale_data@@XZ 0000000140073958 f i libucrt:wsetlocale.obj
 0001:0007295c       __acrt_copy_locale_name    000000014007395c f   libucrt:wsetlocale.obj
 0001:00072a00       __acrt_set_locale_changed  0000000140073a00 f   libucrt:wsetlocale.obj
 0001:00072a10       __acrt_uninitialize_locale 0000000140073a10 f   libucrt:wsetlocale.obj
 0001:00072a4c       __ascii_tolower            0000000140073a4c f i libucrt:wsetlocale.obj
 0001:00072a60       __ascii_towlower           0000000140073a60 f i libucrt:wsetlocale.obj
 0001:00072a70       __lc_lctowcs               0000000140073a70 f   libucrt:wsetlocale.obj
 0001:00072b3c       __lc_wcstolc               0000000140073b3c f   libucrt:wsetlocale.obj
 0001:00072cfc       _configthreadlocale        0000000140073cfc f   libucrt:wsetlocale.obj
 0001:00072e70       _create_locale             0000000140073e70 f   libucrt:wsetlocale.obj
 0001:000734a0       _free_locale               00000001400744a0 f   libucrt:wsetlocale.obj
 0001:0007356c       _get_current_locale        000000014007456c f   libucrt:wsetlocale.obj
 0001:00073658       _wcreate_locale            0000000140074658 f   libucrt:wsetlocale.obj
 0001:000737f4       _wcscats                   00000001400747f4 f   libucrt:wsetlocale.obj
 0001:00073874       _wsetlocale                0000000140074874 f   libucrt:wsetlocale.obj
 0001:00074a0c       ?value@?$dual_state_global@J@__crt_state_management@@QEAAAEAJXZ 0000000140075a0c f i libucrt:new_mode.obj
 0001:00074a10       _query_new_mode            0000000140075a10 f   libucrt:new_mode.obj
 0001:00074a1c       _set_new_mode              0000000140075a1c f   libucrt:new_mode.obj
 0001:00074a54       __p__commode               0000000140075a54 f   libucrt:ncommode.obj
 0001:00074a60       ??$?B$$A6AXXZ@__crt_fast_encoded_nullptr_t@@QEBAP6AXXZXZ 0000000140075a60 f i libucrt:onexit.obj
 0001:00074a6c       ??$?BP6AXXZ@__crt_fast_encoded_nullptr_t@@QEBAPEAP6AXXZXZ 0000000140075a6c f i libucrt:onexit.obj
 0001:00074a78       ??$?RP6AXXZ@__crt_internal_free_policy@@QEBAXQEBQ6AXXZ@Z 0000000140075a78 f i libucrt:onexit.obj
 0001:00074b88       ??$__crt_fast_decode_pointer@P6AXXZ@@YAP6AXXZQ6AXXZ@Z 0000000140075b88 f i libucrt:onexit.obj
 0001:00074ba4       ??$__crt_fast_decode_pointer@PEAP6AXXZ@@YAPEAP6AXXZQEAP6AXXZ@Z 0000000140075ba4 f i libucrt:onexit.obj
 0001:00074bc0       ??$__crt_fast_encode_pointer@P6AHXZ@@YAP6AHXZQ6AHXZ@Z 0000000140075bc0 f i libucrt:onexit.obj
 0001:00074be8       ??$__crt_fast_encode_pointer@P6AXXZ@@YAP6AXXZQ6AXXZ@Z 0000000140075be8 f i libucrt:onexit.obj
 0001:00074c10       ??$__crt_fast_encode_pointer@PEAP6AXXZ@@YAPEAP6AXXZQEAP6AXXZ@Z 0000000140075c10 f i libucrt:onexit.obj
 0001:00074c80       ??0?$__crt_unique_heap_ptr@P6AXXZU__crt_internal_free_policy@@@@QEAA@QEAP6AXXZ@Z 0000000140075c80 f i libucrt:onexit.obj
 0001:00074c88       ??1?$__crt_unique_heap_ptr@P6AXXZU__crt_internal_free_policy@@@@QEAA@XZ 0000000140075c88 f i libucrt:onexit.obj
 0001:00074cac       ??1scoped_global_state_reset@__crt_state_management@@QEAA@XZ 0000000140075cac f i libucrt:onexit.obj
 0001:00075054       ?detach@?$__crt_unique_heap_ptr@P6AXXZU__crt_internal_free_policy@@@@QEAAPEAP6AXXZXZ 0000000140076054 f i libucrt:onexit.obj
 0001:00075060       ?release@?$__crt_unique_heap_ptr@P6AXXZU__crt_internal_free_policy@@@@QEAAXXZ 0000000140076060 f i libucrt:onexit.obj
 0001:00075084       _crt_at_quick_exit         0000000140076084 f   libucrt:onexit.obj
 0001:00075098       _crt_atexit                0000000140076098 f   libucrt:onexit.obj
 0001:000750ac       _execute_onexit_table      00000001400760ac f   libucrt:onexit.obj
 0001:00075100       _initialize_onexit_table   0000000140076100 f   libucrt:onexit.obj
 0001:00075130       _register_onexit_function  0000000140076130 f   libucrt:onexit.obj
 0001:00075310       ??$?BX@__crt_fast_encoded_nullptr_t@@QEBAPEAXXZ 0000000140076310 f i libucrt:initialization.obj
 0001:0007531c       ??$__crt_fast_encode_pointer@PEAX@@YAPEAXQEAX@Z 000000014007631c f i libucrt:initialization.obj
 0001:00075404       ?__acrt_stdio_is_initialized@@YA_NXZ 0000000140076404 f i libucrt:initialization.obj
 0001:00075414       ?initialize@?$dual_state_global@PEAU__crt_locale_data@@@__crt_state_management@@QEAAXQEAU__crt_locale_data@@@Z 0000000140076414 f i libucrt:initialization.obj
 0001:00075424       __acrt_initialize          0000000140076424 f   libucrt:initialization.obj
 0001:0007543c       __acrt_thread_attach       000000014007643c f   libucrt:initialization.obj
 0001:00075458       __acrt_thread_detach       0000000140076458 f   libucrt:initialization.obj
 0001:0007546c       __acrt_uninitialize        000000014007646c f   libucrt:initialization.obj
 0001:000754b0       __acrt_uninitialize_critical 00000001400764b0 f   libucrt:initialization.obj
 0001:000754dc       _get_terminate             00000001400764dc f   libucrt:terminate.obj
 0001:00075508       set_terminate              0000000140076508 f   libucrt:terminate.obj
 0001:00075540       terminate                  0000000140076540 f   libucrt:terminate.obj
 0001:000755f0       strcpy_s                   00000001400765f0 f   libucrt:strcpy_s.obj
 0001:00075668       calloc                     0000000140076668 f   libucrt:calloc.obj
 0001:00075670       wcsncmp                    0000000140076670 f   libucrt:wcsncmp.obj
 0001:000756a8       ??$?RU__acrt_ptd@@@__crt_internal_free_policy@@QEBAXQEBU__acrt_ptd@@@Z 00000001400766a8 f i libucrt:per_thread_data.obj
 0001:00075968       ??0?$__crt_unique_heap_ptr@U__acrt_ptd@@U__crt_internal_free_policy@@@@QEAA@QEAU__acrt_ptd@@@Z 0000000140076968 f i libucrt:per_thread_data.obj
 0001:00075970       ??1?$__crt_unique_heap_ptr@U__acrt_ptd@@U__crt_internal_free_policy@@@@QEAA@XZ 0000000140076970 f i libucrt:per_thread_data.obj
 0001:00075994       ??B?$__crt_unique_heap_ptr@U__acrt_ptd@@U__crt_internal_free_policy@@@@QEBA_NXZ 0000000140076994 f i libucrt:per_thread_data.obj
 0001:00075c64       ?dangerous_get_state_array@?$dual_state_global@PEAU__crt_locale_data@@@__crt_state_management@@QEAAPEAPEAU__crt_locale_data@@XZ 0000000140076c64 f i libucrt:per_thread_data.obj
 0001:00075ef8       ?detach@?$__crt_unique_heap_ptr@U__acrt_ptd@@U__crt_internal_free_policy@@@@QEAAPEAU__acrt_ptd@@XZ 0000000140076ef8 f i libucrt:per_thread_data.obj
 0001:00075f04       ?get@?$__crt_unique_heap_ptr@U__acrt_ptd@@U__crt_internal_free_policy@@@@QEBAPEAU__acrt_ptd@@XZ 0000000140076f04 f i libucrt:per_thread_data.obj
 0001:000761ac       ?is_valid@?$__crt_unique_heap_ptr@U__acrt_ptd@@U__crt_internal_free_policy@@@@QEBA_NXZ 00000001400771ac f i libucrt:per_thread_data.obj
 0001:000761b8       ?release@?$__crt_unique_heap_ptr@U__acrt_ptd@@U__crt_internal_free_policy@@@@QEAAXXZ 00000001400771b8 f i libucrt:per_thread_data.obj
 0001:00076274       __acrt_freeptd             0000000140077274 f   libucrt:per_thread_data.obj
 0001:000762c8       __acrt_getptd              00000001400772c8 f   libucrt:per_thread_data.obj
 0001:000763d0       __acrt_getptd_head         00000001400773d0 f   libucrt:per_thread_data.obj
 0001:0007649c       __acrt_getptd_noexit       000000014007749c f   libucrt:per_thread_data.obj
 0001:00076598       __acrt_getptd_noexit_explicit 0000000140077598 f   libucrt:per_thread_data.obj
 0001:00076688       __acrt_initialize_ptd      0000000140077688 f   libucrt:per_thread_data.obj
 0001:000766d0       __acrt_uninitialize_ptd    00000001400776d0 f   libucrt:per_thread_data.obj
 0001:000766fc       __threadhandle             00000001400776fc f   libucrt:per_thread_data.obj
 0001:00076704       __threadid                 0000000140077704 f   libucrt:per_thread_data.obj
 0001:0007670c       __p___mb_cur_max           000000014007770c f   libucrt:nlsdata.obj
 0001:00076748       ??$?B$$A6AXH@Z@__crt_fast_encoded_nullptr_t@@QEBAP6AXH@ZXZ 0000000140077748 f i libucrt:signal.obj
 0001:000767e0       ??$__crt_fast_decode_pointer@P6AXH@Z@@YAP6AXH@ZQ6AXH@Z@Z 00000001400777e0 f i libucrt:signal.obj
 0001:000767fc       ??$__crt_fast_encode_pointer@P6AXH@Z@@YAP6AXH@ZQ6AXH@Z@Z 00000001400777fc f i libucrt:signal.obj
 0001:0007697c       ?initialize@?$dual_state_global@P6AXH@Z@__crt_state_management@@QEAAXQ6AXH@Z@Z 000000014007797c f i libucrt:signal.obj
 0001:00076a28       ?value@?$dual_state_global@P6AXH@Z@__crt_state_management@@QEAAAEAP6AXH@ZXZ 0000000140077a28 f i libucrt:signal.obj
 0001:00076a2c       __acrt_get_sigabrt_handler 0000000140077a2c f   libucrt:signal.obj
 0001:00076a68       __acrt_initialize_signal_handlers 0000000140077a68 f   libucrt:signal.obj
 0001:00076a8c       __fpecode                  0000000140077a8c f   libucrt:signal.obj
 0001:00076aa4       __pxcptinfoptrs            0000000140077aa4 f   libucrt:signal.obj
 0001:00076abc       raise                      0000000140077abc f   libucrt:signal.obj
 0001:00076dd4       signal                     0000000140077dd4 f   libucrt:signal.obj
 0001:00077008       ?get_doserrno@__crt_cached_ptd_host@@QEAA@XZ 0000000140078008 f i libucrt:errno.obj
 0001:00077010       ?set@?$cached@K@__crt_cached_ptd_host@@QEAAKK@Z 0000000140078010 f i libucrt:errno.obj
 0001:0007701c       __acrt_errno_from_os_error 000000014007801c f   libucrt:errno.obj
 0001:00077074       __acrt_errno_map_os_error  0000000140078074 f   libucrt:errno.obj
 0001:000770cc       __acrt_errno_map_os_error_ptd 00000001400780cc f   libucrt:errno.obj
 0001:000770f8       __doserrno                 00000001400780f8 f   libucrt:errno.obj
 0001:00077120       _errno                     0000000140078120 f   libucrt:errno.obj
 0001:00077148       _get_doserrno              0000000140078148 f   libucrt:errno.obj
 0001:00077194       _get_errno                 0000000140078194 f   libucrt:errno.obj
 0001:000771e0       _set_doserrno              00000001400781e0 f   libucrt:errno.obj
 0001:00077228       _set_errno                 0000000140078228 f   libucrt:errno.obj
 0001:0007727c       _free_base                 000000014007827c f   libucrt:free_base.obj
 0001:000772c8       _malloc_base               00000001400782c8 f   libucrt:malloc_base.obj
 0001:00077e0c       ??1?$__crt_simd_cleanup_guard@$00@@QEAA@XZ 0000000140078e0c f i libucrt:strnlen.obj
 0001:00077e10       ??1?$__crt_simd_cleanup_guard@$0A@@@QEAA@XZ 0000000140078e10 f i libucrt:strnlen.obj
 0001:00077e14       ?compare_equals@?$__crt_simd_traits@$00E@@SA?AT__m256i@@T2@0@Z 0000000140078e14 f i libucrt:strnlen.obj
 0001:00077e20       ?compare_equals@?$__crt_simd_traits@$00G@@SA?AT__m256i@@T2@0@Z 0000000140078e20 f i libucrt:strnlen.obj
 0001:00077e2c       ?compare_equals@?$__crt_simd_traits@$0A@E@@SA?AT__m128i@@T2@0@Z 0000000140078e2c f i libucrt:strnlen.obj
 0001:00077e38       ?compare_equals@?$__crt_simd_traits@$0A@G@@SA?AT__m128i@@T2@0@Z 0000000140078e38 f i libucrt:strnlen.obj
 0001:00077e44       ?compute_byte_mask@?$__crt_simd_pack_traits@$00@@SAHT__m256i@@@Z 0000000140078e44 f i libucrt:strnlen.obj
 0001:00077e54       ?compute_byte_mask@?$__crt_simd_pack_traits@$0A@@@SAHT__m128i@@@Z 0000000140078e54 f i libucrt:strnlen.obj
 0001:00077e60       ?get_zero_pack@?$__crt_simd_pack_traits@$00@@SA?AT__m256i@@XZ 0000000140078e60 f i libucrt:strnlen.obj
 0001:00077e68       ?get_zero_pack@?$__crt_simd_pack_traits@$0A@@@SA?AT__m128i@@XZ 0000000140078e68 f i libucrt:strnlen.obj
 0001:00077e6c       strnlen                    0000000140078e6c f   libucrt:strnlen.obj
 0001:00078010       wcslen                     0000000140079010 f   libucrt:strnlen.obj
 0001:00078184       wcsnlen                    0000000140079184 f   libucrt:strnlen.obj
 0001:000783d0       ?value@?$dual_state_global@PEAU__crt_multibyte_data@@@__crt_state_management@@QEAAAEAPEAU__crt_multibyte_data@@XZ 00000001400793d0 f i libucrt:locale_update.obj
 0001:000783d4       ?value_explicit@?$dual_state_global@PEAU__crt_locale_data@@@__crt_state_management@@QEAAAEAPEAU__crt_locale_data@@_K@Z 00000001400793d4 f i libucrt:locale_update.obj
 0001:000783dc       ?value_explicit@?$dual_state_global@PEAU__crt_multibyte_data@@@__crt_state_management@@QEAAAEAPEAU__crt_multibyte_data@@_K@Z 00000001400793dc f i libucrt:locale_update.obj
 0001:000783e4       __acrt_should_sync_with_global_locale 00000001400793e4 f i libucrt:locale_update.obj
 0001:000783f8       __acrt_update_locale_info  00000001400793f8 f   libucrt:locale_update.obj
 0001:00078438       __acrt_update_locale_info_explicit 0000000140079438 f   libucrt:locale_update.obj
 0001:0007847c       __acrt_update_multibyte_info 000000014007947c f   libucrt:locale_update.obj
 0001:000784bc       __acrt_update_multibyte_info_explicit 00000001400794bc f   libucrt:locale_update.obj
 0001:00078500       ?__acrt_fp_classify@@YA?AW4__acrt_fp_class@@AEBN@Z 0000000140079500 f i libucrt:cvt.obj
 0001:00078574       ?__acrt_fp_is_negative@@YA_NAEBN@Z 0000000140079574 f i libucrt:cvt.obj
 0001:000794f0       ?strrchr@@YAPEADQEADH@Z    000000014007a4f0 f i libucrt:cvt.obj
 0001:000794f8       __acrt_fp_format           000000014007a4f8 f   libucrt:cvt.obj
 0001:00079898       _wctomb_internal           000000014007a898 f   libucrt:wctomb.obj
 0001:00079ab4       _wctomb_l                  000000014007aab4 f   libucrt:wctomb.obj
 0001:00079bdc       _wctomb_s_l                000000014007abdc f   libucrt:wctomb.obj
 0001:00079cb4       wctomb                     000000014007acb4 f   libucrt:wctomb.obj
 0001:00079dac       wctomb_s                   000000014007adac f   libucrt:wctomb.obj
 0001:00079e74       _mbtowc_internal           000000014007ae74 f   libucrt:mbtowc.obj
 0001:0007a04c       _mbtowc_l                  000000014007b04c f   libucrt:mbtowc.obj
 0001:0007a118       mbtowc                     000000014007b118 f   libucrt:mbtowc.obj
 0001:0007a1d8       ?lowio_handle@__crt_stdio_stream@@QEBAHXZ 000000014007b1d8 f i libucrt:fileno.obj
 0001:0007a1e4       _fileno                    000000014007b1e4 f   libucrt:fileno.obj
 0001:0007a214       _get_printf_count_output   000000014007b214 f   libucrt:printf_count_output.obj
 0001:0007a234       _set_printf_count_output   000000014007b234 f   libucrt:printf_count_output.obj
 0001:0007a328       _fputwc_nolock             000000014007b328 f   libucrt:fputwc.obj
 0001:0007a3e8       _fputwc_nolock_internal    000000014007b3e8 f   libucrt:fputwc.obj
 0001:0007a5d4       _fputwchar                 000000014007b5d4 f   libucrt:fputwc.obj
 0001:0007a600       _putwc_nolock              000000014007b600 f   libucrt:fputwc.obj
 0001:0007a608       fputwc                     000000014007b608 f   libucrt:fputwc.obj
 0001:0007a6c8       putwc                      000000014007b6c8 f   libucrt:fputwc.obj
 0001:0007a6d0       putwchar                   000000014007b6d0 f   libucrt:fputwc.obj
 0001:0007a898       _fputc_nolock              000000014007b898 f   libucrt:fputc.obj
 0001:0007a970       _fputc_nolock_internal     000000014007b970 f   libucrt:fputc.obj
 0001:0007a98c       _fputchar                  000000014007b98c f   libucrt:fputc.obj
 0001:0007a9b8       _putc_nolock               000000014007b9b8 f   libucrt:fputc.obj
 0001:0007a9c0       fputc                      000000014007b9c0 f   libucrt:fputc.obj
 0001:0007aa80       putc                       000000014007ba80 f   libucrt:fputc.obj
 0001:0007aa88       putchar                    000000014007ba88 f   libucrt:fputc.obj
 0001:0007aa90       ?has_temporary_buffer@__crt_stdio_stream@@QEBA_NXZ 000000014007ba90 f i libucrt:_sftbuf.obj
 0001:0007aaa0       ?set_flags@__crt_stdio_stream@@QEBA_NJ@Z 000000014007baa0 f i libucrt:_sftbuf.obj
 0001:0007aac8       ?unset_flags@__crt_stdio_stream@@QEBA_NJ@Z 000000014007bac8 f i libucrt:_sftbuf.obj
 0001:0007aaf8       __acrt_should_use_temporary_buffer 000000014007baf8 f   libucrt:_sftbuf.obj
 0001:0007ab54       __acrt_stdio_begin_temporary_buffering_nolock 000000014007bb54 f   libucrt:_sftbuf.obj
 0001:0007ac4c       __acrt_stdio_end_temporary_buffering_nolock 000000014007bc4c f   libucrt:_sftbuf.obj
 0001:0007af30       __acrt_initialize_lowio    000000014007bf30 f   libucrt:ioinit.obj
 0001:0007af7c       __acrt_uninitialize_lowio  000000014007bf7c f   libucrt:ioinit.obj
 0001:0007afcc       __pctype_func              000000014007bfcc f   libucrt:ctype.obj
 0001:0007b008       __pwctype_func             000000014007c008 f   libucrt:ctype.obj
 0001:0007b014       _iswctype_l                000000014007c014 f   libucrt:iswctype.obj
 0001:0007b01c       iswctype                   000000014007c01c f   libucrt:iswctype.obj
 0001:0007b0a4       _isctype                   000000014007c0a4 f   libucrt:isctype.obj
 0001:0007b0e0       _isctype_l                 000000014007c0e0 f   libucrt:isctype.obj
 0001:0007b22c       __fpe_flt_rounds           000000014007c22c f   libucrt:fegetround.obj
 0001:0007b284       fegetround                 000000014007c284 f   libucrt:fegetround.obj
 0001:0007b2a0       _calloc_base               000000014007c2a0 f   libucrt:calloc_base.obj
 0001:0007b378       ??$?B$$A6AHPEA_WK_J@Z@__crt_fast_encoded_nullptr_t@@QEBAP6AHPEA_WK_J@ZXZ 000000014007c378 f i libucrt:winapi_thunks.obj
 0001:0007b44c       ??$__crt_fast_decode_pointer@P6AHPEA_WK_J@Z@@YAP6AHPEA_WK_J@ZQ6AH0K1@Z@Z 000000014007c44c f i libucrt:winapi_thunks.obj
 0001:0007b468       ??$__crt_fast_decode_pointer@PEAX@@YAPEAXQEAX@Z 000000014007c468 f i libucrt:winapi_thunks.obj
 0001:0007b484       ??$__crt_fast_encode_pointer@P6AHPEA_WK_J@Z@@YAP6AHPEA_WK_J@ZQ6AH0K1@Z@Z 000000014007c484 f i libucrt:winapi_thunks.obj
 0001:0007c190       GetCurrentThreadEffectiveToken 000000014007d190 f i libucrt:winapi_thunks.obj
 0001:0007c19c       __acrt_AppPolicyGetProcessTerminationMethodInternal 000000014007d19c f   libucrt:winapi_thunks.obj
 0001:0007c20c       __acrt_AppPolicyGetShowDeveloperDiagnosticInternal 000000014007d20c f   libucrt:winapi_thunks.obj
 0001:0007c27c       __acrt_AppPolicyGetThreadInitializationTypeInternal 000000014007d27c f   libucrt:winapi_thunks.obj
 0001:0007c2ec       __acrt_AppPolicyGetWindowingModelInternal 000000014007d2ec f   libucrt:winapi_thunks.obj
 0001:0007c35c       __acrt_AreFileApisANSI     000000014007d35c f   libucrt:winapi_thunks.obj
 0001:0007c3b4       __acrt_CompareStringEx     000000014007d3b4 f   libucrt:winapi_thunks.obj
 0001:0007c4dc       __acrt_EnumSystemLocalesEx 000000014007d4dc f   libucrt:winapi_thunks.obj
 0001:0007c5a4       __acrt_FlsAlloc            000000014007d5a4 f   libucrt:winapi_thunks.obj
 0001:0007c5ac       __acrt_FlsFree             000000014007d5ac f   libucrt:winapi_thunks.obj
 0001:0007c5b4       __acrt_FlsGetValue         000000014007d5b4 f   libucrt:winapi_thunks.obj
 0001:0007c5bc       __acrt_FlsSetValue         000000014007d5bc f   libucrt:winapi_thunks.obj
 0001:0007c5c4       __acrt_GetDateFormatEx     000000014007d5c4 f   libucrt:winapi_thunks.obj
 0001:0007c6b4       __acrt_GetEnabledXStateFeatures 000000014007d6b4 f   libucrt:winapi_thunks.obj
 0001:0007c708       __acrt_GetLocaleInfoEx     000000014007d708 f   libucrt:winapi_thunks.obj
 0001:0007c7bc       __acrt_GetSystemTimePreciseAsFileTime 000000014007d7bc f   libucrt:winapi_thunks.obj
 0001:0007c828       __acrt_GetTempPath2W       000000014007d828 f   libucrt:winapi_thunks.obj
 0001:0007c8a0       __acrt_GetTimeFormatEx     000000014007d8a0 f   libucrt:winapi_thunks.obj
 0001:0007c980       __acrt_GetUserDefaultLocaleName 000000014007d980 f   libucrt:winapi_thunks.obj
 0001:0007ca08       __acrt_GetXStateFeaturesMask 000000014007da08 f   libucrt:winapi_thunks.obj
 0001:0007ca7c       __acrt_InitializeCriticalSectionEx 000000014007da7c f   libucrt:winapi_thunks.obj
 0001:0007cb08       __acrt_IsValidLocaleName   000000014007db08 f   libucrt:winapi_thunks.obj
 0001:0007cb84       __acrt_LCIDToLocaleName    000000014007db84 f   libucrt:winapi_thunks.obj
 0001:0007cc28       __acrt_LCMapStringEx       000000014007dc28 f   libucrt:winapi_thunks.obj
 0001:0007cd50       __acrt_LocaleNameToLCID    000000014007dd50 f   libucrt:winapi_thunks.obj
 0001:0007cdc4       __acrt_LocateXStateFeature 000000014007ddc4 f   libucrt:winapi_thunks.obj
 0001:0007ce48       __acrt_MessageBoxA         000000014007de48 f   libucrt:winapi_thunks.obj
 0001:0007cee4       __acrt_MessageBoxW         000000014007dee4 f   libucrt:winapi_thunks.obj
 0001:0007cf80       __acrt_RoInitialize        000000014007df80 f   libucrt:winapi_thunks.obj
 0001:0007cfdc       __acrt_RoUninitialize      000000014007dfdc f   libucrt:winapi_thunks.obj
 0001:0007d028       __acrt_RtlGenRandom        000000014007e028 f   libucrt:winapi_thunks.obj
 0001:0007d098       __acrt_SetThreadStackGuarantee 000000014007e098 f   libucrt:winapi_thunks.obj
 0001:0007d0f8       __acrt_can_show_message_box 000000014007e0f8 f   libucrt:winapi_thunks.obj
 0001:0007d180       __acrt_can_use_vista_locale_apis 000000014007e180 f   libucrt:winapi_thunks.obj
 0001:0007d1bc       __acrt_can_use_xstate_apis 000000014007e1bc f   libucrt:winapi_thunks.obj
 0001:0007d1f8       __acrt_eagerly_load_locale_apis 000000014007e1f8 f   libucrt:winapi_thunks.obj
 0001:0007d3a8       __acrt_get_parent_window   000000014007e3a8 f   libucrt:winapi_thunks.obj
 0001:0007d458       __acrt_initialize_winapi_thunks 000000014007e458 f   libucrt:winapi_thunks.obj
 0001:0007d484       __acrt_is_interactive      000000014007e484 f   libucrt:winapi_thunks.obj
 0001:0007d59c       __acrt_uninitialize_winapi_thunks 000000014007e59c f   libucrt:winapi_thunks.obj
 0001:0007d5f0       ??0__crt_stdio_stream@@QEAA@QEAU__crt_stdio_stream_data@@@Z 000000014007e5f0 f i libucrt:closeall.obj
 0001:0007d5f8       ?is_in_use@__crt_stdio_stream@@QEBA_NXZ 000000014007e5f8 f i libucrt:closeall.obj
 0001:0007d608       _fcloseall                 000000014007e608 f   libucrt:closeall.obj
 0001:0007dbf8       ?__acrt_stdio_reset_buffer@@YAXV__crt_stdio_stream@@@Z 000000014007ebf8 f i libucrt:fflush.obj
 0001:0007dd20       ?has_all_of@__crt_stdio_stream@@QEBA_NJ@Z 000000014007ed20 f i libucrt:fflush.obj
 0001:0007dd78       __acrt_stdio_flush_nolock  000000014007ed78 f   libucrt:fflush.obj
 0001:0007de28       _fflush_nolock             000000014007ee28 f   libucrt:fflush.obj
 0001:0007df30       _flushall                  000000014007ef30 f   libucrt:fflush.obj
 0001:0007df38       fflush                     000000014007ef38 f   libucrt:fflush.obj
 0001:0007dfb8       ?has_crt_buffer@__crt_stdio_stream@@QEBA_NXZ 000000014007efb8 f i libucrt:_freebuf.obj
 0001:0007dfc8       __acrt_stdio_free_buffer_nolock 000000014007efc8 f   libucrt:_freebuf.obj
 0001:0007e19c       ?has_big_buffer@__crt_stdio_stream@@QEBA_NXZ 000000014007f19c f i libucrt:fwrite.obj
 0001:0007e1b0       _fwrite_internal           000000014007f1b0 f   libucrt:fwrite.obj
 0001:0007e274       _fwrite_nolock             000000014007f274 f   libucrt:fwrite.obj
 0001:0007e340       _fwrite_nolock_internal    000000014007f340 f   libucrt:fwrite.obj
 0001:0007e5d8       fwrite                     000000014007f5d8 f   libucrt:fwrite.obj
 0001:0007ed08       _i64toa                    000000014007fd08 f   libucrt:xtoa.obj
 0001:0007ed48       _i64toa_s                  000000014007fd48 f   libucrt:xtoa.obj
 0001:0007ed74       _i64tow                    000000014007fd74 f   libucrt:xtoa.obj
 0001:0007edb4       _i64tow_s                  000000014007fdb4 f   libucrt:xtoa.obj
 0001:0007ede0       _itoa                      000000014007fde0 f   libucrt:xtoa.obj
 0001:0007ee1c       _itoa_s                    000000014007fe1c f   libucrt:xtoa.obj
 0001:0007ee44       _itow                      000000014007fe44 f   libucrt:xtoa.obj
 0001:0007ee80       _itow_s                    000000014007fe80 f   libucrt:xtoa.obj
 0001:0007eea8       _ltoa                      000000014007fea8 f   libucrt:xtoa.obj
 0001:0007eee4       _ltoa_s                    000000014007fee4 f   libucrt:xtoa.obj
 0001:0007ef0c       _ltow                      000000014007ff0c f   libucrt:xtoa.obj
 0001:0007ef48       _ltow_s                    000000014007ff48 f   libucrt:xtoa.obj
 0001:0007ef70       _ui64toa                   000000014007ff70 f   libucrt:xtoa.obj
 0001:0007ef9c       _ui64toa_s                 000000014007ff9c f   libucrt:xtoa.obj
 0001:0007efb4       _ui64tow                   000000014007ffb4 f   libucrt:xtoa.obj
 0001:0007efe0       _ui64tow_s                 000000014007ffe0 f   libucrt:xtoa.obj
