 test_util

 Timestamp is 674c1036 (Sun Dec  1 12:58:54 2024)

 Preferred load address is 0000000140000000

 Start         Length     Name                   Class
 0001:00000000 0000f6b0H .text$di                CODE
 0001:0000f6b0 0010b560H .text$mn                CODE
 0001:0011ac10 00001040H .text$mn$00             CODE
 0001:0011bc50 00001f30H .text$mn$21             CODE
 0001:0011db80 00002240H .text$x                 CODE
 0001:0011fdc0 0000105fH .text$yd                CODE
 0002:00000000 00000110H .CRT$XCA                DATA
 0002:00000110 00000110H .CRT$XCAA               DATA
 0002:00000220 00000148H .CRT$XCU                DATA
 0002:00000368 00000110H .CRT$XCZ                DATA
 0002:00000478 00000110H .CRT$XIA                DATA
 0002:00000588 00000110H .CRT$XIAA               DATA
 0002:00000698 00000110H .CRT$XIAC               DATA
 0002:000007a8 00000140H .CRT$XIC                DATA
 0002:000008e8 00000110H .CRT$XIZ                DATA
 0002:000009f8 00000008H .CRT$XLA                DATA
 0002:00000a00 00000008H .CRT$XLZ                DATA
 0002:00000a08 00000110H .CRT$XPA                DATA
 0002:00000b18 00000120H .CRT$XPX                DATA
 0002:00000c38 00000110H .CRT$XPXA               DATA
 0002:00000d48 00000110H .CRT$XPZ                DATA
 0002:00000e58 00000110H .CRT$XTA                DATA
 0002:00000f68 00000118H .CRT$XTZ                DATA
 0002:00001080 0003e960H .rdata                  DATA
 0002:0003f9e0 000002a0H .rdata$00               DATA
 0002:0003fc80 00000200H .rdata$CastGuardVftablesA DATA
 0002:0003fe80 000001a0H .rdata$CastGuardVftablesC DATA
 0002:00040020 00000130H .rdata$T                DATA
 0002:00040150 00000740H .rdata$r                DATA
 0002:00040890 00000188H .rdata$zzzdbg           DATA
 0002:00040a18 00000110H .rtc$IAA                DATA
 0002:00040b28 00000110H .rtc$IZZ                DATA
 0002:00040c38 00000110H .rtc$TAA                DATA
 0002:00040d48 00000110H .rtc$TZZ                DATA
 0002:00040e58 0000cc40H .xdata                  DATA
 0002:0004da98 00000275H .xdata$x                DATA
 0002:0004dd0d 00000000H .edata                  DATA
 0003:00000000 00001848H .data                   DATA
 0003:00001848 000001d0H .data$r                 DATA
 0003:00001a18 00000228H .data$rs                DATA
 0003:00001c40 00002e50H .bss                    DATA
 0004:00000000 0000b2f8H .pdata                  DATA
 0005:00000000 00000ef8H .idata$5                DATA
 0005:00000ef8 000000f0H .idata$2                DATA
 0005:00000fe8 00000018H .idata$3                DATA
 0005:00001000 00000ef8H .idata$4                DATA
 0005:00001ef8 00001878H .idata$6                DATA
 0006:00000000 00000108H .tls                    DATA
 0006:00000108 00000112H .tls$                   DATA
 0006:0000021a 00000101H .tls$ZZZ                DATA
 0007:00000000 00000175H .00cfg                  DATA
 0008:00000000 00000170H .rsrc$01                DATA
 0008:00000170 000002ccH .rsrc$02                DATA

  Address         Publics by Value              Rva+Base               Lib:Object

 0000:00000000       __AbsoluteZero             0000000000000000     <absolute>
 0000:00000000       ___safe_se_handler_count   0000000000000000     <absolute>
 0000:00000000       ___safe_se_handler_table   0000000000000000     <absolute>
 0000:00000000       __arm64x_extra_rfe_table   0000000000000000     <absolute>
 0000:00000000       __arm64x_extra_rfe_table_size 0000000000000000     <absolute>
 0000:00000000       __arm64x_native_entrypoint 0000000000000000     <absolute>
 0000:00000000       __arm64x_redirection_metadata 0000000000000000     <absolute>
 0000:00000000       __arm64x_redirection_metadata_count 0000000000000000     <absolute>
 0000:00000000       __dynamic_value_reloc_table 0000000000000000     <absolute>
 0000:00000000       __enclave_config           0000000000000000     <absolute>
 0000:00000000       __guard_check_icall_a64n_fptr 0000000000000000     <absolute>
 0000:00000000       __guard_eh_cont_count      0000000000000000     <absolute>
 0000:00000000       __guard_eh_cont_table      0000000000000000     <absolute>
 0000:00000000       __guard_fids_count         0000000000000000     <absolute>
 0000:00000000       __guard_fids_table         0000000000000000     <absolute>
 0000:00000000       __guard_iat_count          0000000000000000     <absolute>
 0000:00000000       __guard_iat_table          0000000000000000     <absolute>
 0000:00000000       __guard_longjmp_count      0000000000000000     <absolute>
 0000:00000000       __guard_longjmp_table      0000000000000000     <absolute>
 0000:00000000       __hybrid_auxiliary_delayload_iat 0000000000000000     <absolute>
 0000:00000000       __hybrid_auxiliary_delayload_iat_copy 0000000000000000     <absolute>
 0000:00000000       __hybrid_auxiliary_iat     0000000000000000     <absolute>
 0000:00000000       __hybrid_auxiliary_iat_copy 0000000000000000     <absolute>
 0000:00000000       __hybrid_code_map          0000000000000000     <absolute>
 0000:00000000       __hybrid_code_map_count    0000000000000000     <absolute>
 0000:00000000       __hybrid_image_info_bitfield 0000000000000000     <absolute>
 0000:00000000       __volatile_metadata        0000000000000000     <absolute>
 0000:00000000       __x64_code_ranges_to_entry_points 0000000000000000     <absolute>
 0000:00000000       __x64_code_ranges_to_entry_points_count 0000000000000000     <absolute>
 0000:00000100       __guard_flags              0000000000000100     <absolute>
 0000:00000000       __ImageBase                0000000140000000     <linker-defined>
 0001:0000f6b0       ??1CommandArg@@QEAA@XZ     00000001400106b0 f   Commands.obj
 0001:0000f6f0       ?FreeCommandArgs@@YAXPEAUCommandArg@@@Z 00000001400106f0 f   Commands.obj
 0001:0000f760       ??1CustomCommand@@QEAA@XZ  0000000140010760 f   Commands.obj
 0001:0000f7c0       ?GetCommandIdByName@@YAHPEBD@Z 00000001400107c0 f   Commands.obj
 0001:0000f850       ?GetCommandIdByDesc@@YAHPEBD@Z 0000000140010850 f   Commands.obj
 0001:0000f8e0       ?CreateCustomCommand@@YAPEAUCustomCommand@@PEBDHPEAUCommandArg@@@Z 00000001400108e0 f   Commands.obj
 0001:0000f9e0       ?FindCustomCommand@@YAPEAUCustomCommand@@H@Z 00000001400109e0 f   Commands.obj
 0001:0000fa30       ?FreeCustomCommands@@YAXXZ 0000000140010a30 f   Commands.obj
 0001:0000fab0       ?NewStringArg@@YAPEAUCommandArg@@PEBD0@Z 0000000140010ab0 f   Commands.obj
 0001:0000fb60       ?NewFloatArg@@YAPEAUCommandArg@@PEBDM@Z 0000000140010b60 f   Commands.obj
 0001:0000fc10       ?InsertArg@@YAXPEAPEAUCommandArg@@PEAU1@@Z 0000000140010c10 f   Commands.obj
 0001:0000fc50       ?CreateCommandFromDefinition@@YAPEAUCustomCommand@@PEBD@Z 0000000140010c50 f   Commands.obj
 0001:00010100       ?GetCommandArg@@YAPEAUCommandArg@@PEAUCustomCommand@@PEBD@Z 0000000140011100 f   Commands.obj
 0001:00010170       ?GetCommandIntArg@@YAHPEAUCustomCommand@@PEBDH@Z 0000000140011170 f   Commands.obj
 0001:000101c0       ?GetCommandBoolArg@@YA_NPEAUCustomCommand@@PEBD_N@Z 00000001400111c0 f   Commands.obj
 0001:00010210       ?GetCommandStringArg@@YAPEBDPEAUCustomCommand@@PEBD1@Z 0000000140011210 f   Commands.obj
 0001:00010260       ?GetCommandsWithOrigId@@YAXAEAV?$Vec@PEAUCustomCommand@@@@H@Z 0000000140011260 f   Commands.obj
 0001:000103e0       ?FindArg@@YAPEAUCommandArg@@PEAU1@PEBDW4Type@1@@Z 00000001400113e0 f   Commands.obj
 0001:00010660       ?TryParseDefaultArg@@YAPEAUCommandArg@@HPEAPEBD@Z 0000000140011660 f   Commands.obj
 0001:00010820       ?TryParseNamedArg@@YAPEAUCommandArg@@HPEAPEBD@Z 0000000140011820 f   Commands.obj
 0001:000110c0       ??$max@_K@std@@YAAEB_KAEB_K0@Z 00000001400120c0 f i Commands.obj
 0001:00011120       ??$swap@PEAUCustomCommand@@$0A@@std@@YAXAEAPEAUCustomCommand@@0@Z 0000000140012120 f i Commands.obj
 0001:00011170       ??0CommandArg@@QEAA@XZ     0000000140012170 f i Commands.obj
 0001:00011210       ??0CustomCommand@@QEAA@XZ  0000000140012210 f i Commands.obj
 0001:000112a0       ??0ParsedColor@@QEAA@XZ    00000001400122a0 f i Commands.obj
 0001:000112f0       ??0StrVec@@QEAA@XZ         00000001400122f0 f i Commands.obj
 0001:00011350       ??_GCommandArg@@QEAAPEAXI@Z 0000000140012350 f i Commands.obj
 0001:000113a0       ??_GCustomCommand@@QEAAPEAXI@Z 00000001400123a0 f i Commands.obj
 0001:000113f0       ??_H@YAXPEAX_K1P6APEAX0@Z@Z 00000001400123f0 f i Commands.obj
 0001:00011470       ?Append@?$Vec@PEAUCustomCommand@@@@QEAA_NAEBQEAUCustomCommand@@@Z 0000000140012470 f i Commands.obj
 0001:000114b0       ?EnsureCap@?$Vec@PEAUCustomCommand@@@@IEAA_N_K@Z 00000001400124b0 f i Commands.obj
 0001:00011500       ?EnsureCapSlow@?$Vec@PEAUCustomCommand@@@@IEAA_N_K@Z 0000000140012500 f i Commands.obj
 0001:00011710       ?InsertAt@?$Vec@PEAUCustomCommand@@@@QEAA_N_KAEBQEAUCustomCommand@@@Z 0000000140012710 f i Commands.obj
 0001:00011780       ?MakeSpaceAt@?$Vec@PEAUCustomCommand@@@@IEAAPEAPEAUCustomCommand@@_K0@Z 0000000140012780 f i Commands.obj
 0001:000118c0       ?Reverse@?$Vec@PEAUCustomCommand@@@@QEAAXXZ 00000001400128c0 f i Commands.obj
 0001:00011960       ?__empty_global_delete@@YAXPEAX@Z 0000000140012960 f i Commands.obj
 0001:00011970       ?__empty_global_delete@@YAXPEAXW4align_val_t@std@@@Z 0000000140012970 f i Commands.obj
 0001:00011980       ?__empty_global_delete@@YAXPEAX_K@Z 0000000140012980 f i Commands.obj
 0001:00011990       ?__empty_global_delete@@YAXPEAX_KW4align_val_t@std@@@Z 0000000140012990 f i Commands.obj
 0001:000119b0       ?_uploadDebugReport@@YAXPEBD_N1@Z 00000001400129b0 f   CrashHandlerNoOp.obj
 0001:000119f0       ?IsSingle@@YA_NW4DisplayMode@@@Z 00000001400129f0 f   DisplayMode.obj
 0001:00011a30       ?IsContinuous@@YA_NW4DisplayMode@@@Z 0000000140012a30 f   DisplayMode.obj
 0001:00011a70       ?IsFacing@@YA_NW4DisplayMode@@@Z 0000000140012a70 f   DisplayMode.obj
 0001:00011ab0       ?IsBookView@@YA_NW4DisplayMode@@@Z 0000000140012ab0 f   DisplayMode.obj
 0001:00011af0       ?IsValidZoom@@YA_NM@Z      0000000140012af0 f   DisplayMode.obj
 0001:00011b60       ?DisplayModeToString@@YAPEBDW4DisplayMode@@@Z 0000000140012b60 f   DisplayMode.obj
 0001:00011bd0       ?DisplayModeFromString@@YA?AW4DisplayMode@@PEBDW41@@Z 0000000140012bd0 f   DisplayMode.obj
 0001:00011c30       ?ZoomFromString@@YAMPEBDM@Z 0000000140012c30 f   DisplayMode.obj
 0001:00011cf0       ?ZoomToString@@YAXPEAPEADMPEAUFileState@@@Z 0000000140012cf0 f   DisplayMode.obj
 0001:00012020       ??1FileArgs@@QEAA@XZ       0000000140013020 f   Flags.obj
 0001:00012080       ?ParseFileArgs@@YAPEAUFileArgs@@PEBD@Z 0000000140013080 f   Flags.obj
 0001:00012180       ??1Flags@@QEAA@XZ          0000000140013180 f   Flags.obj
 0001:000122c0       ?ParseFlags@@YAXPEB_WAEAUFlags@@@Z 00000001400132c0 f   Flags.obj
 0001:00013140       ?IsValidPageRange@@YA_NPEBD@Z 0000000140014140 f   Flags.obj
 0001:000131c0       ?IsBenchPagesInfo@@YA_NPEBD@Z 00000001400141c0 f   Flags.obj
 0001:00013220       ?ParsePageRanges@@YA_NPEBDAEAV?$Vec@UPageRange@@@@@Z 0000000140014220 f   Flags.obj
 0001:00013b30       ?ParseAdobeFlags@@YAXAEAUFileArgs@@PEBD@Z 0000000140014b30 f   Flags.obj
 0001:000145f0       ??$AllocArray@G@@YAPEAG_K@Z 00000001400155f0 f i Flags.obj
 0001:00014620       ??$AllocArray@_W@@YAPEA_W_K@Z 0000000140015620 f i Flags.obj
 0001:00014650       ??0?$ScopedMem@G@@QEAA@PEAG@Z 0000000140015650 f i Flags.obj
 0001:00014680       ??0?$ScopedMem@_W@@QEAA@PEA_W@Z 0000000140015680 f i Flags.obj
 0001:000146b0       ??0?$Vec@UPageRange@@@@QEAA@_KPEAUAllocator@@@Z 00000001400156b0 f i Flags.obj
 0001:000147a0       ??0FileArgs@@QEAA@XZ       00000001400157a0 f i Flags.obj
 0001:00014820       ??0PageRange@@QEAA@XZ      0000000140015820 f i Flags.obj
 0001:00014850       ??1?$ScopedMem@G@@QEAA@XZ  0000000140015850 f i Flags.obj
 0001:00014880       ??1?$ScopedMem@_W@@QEAA@XZ 0000000140015880 f i Flags.obj
 0001:000148b0       ??1?$Vec@UPageRange@@@@QEAA@XZ 00000001400158b0 f i Flags.obj
 0001:000148d0       ??1CmdLineArgsIter@@QEAA@XZ 00000001400158d0 f i Flags.obj
 0001:00014900       ?Append@?$Vec@UPageRange@@@@QEAA_NAEBUPageRange@@@Z 0000000140015900 f i Flags.obj
 0001:00014940       ?EnsureCap@?$Vec@UPageRange@@@@IEAA_N_K@Z 0000000140015940 f i Flags.obj
 0001:00014990       ?EnsureCapSlow@?$Vec@UPageRange@@@@IEAA_N_K@Z 0000000140015990 f i Flags.obj
 0001:00014ba0       ?FreeEls@?$Vec@UPageRange@@@@IEAAXXZ 0000000140015ba0 f i Flags.obj
 0001:00014c00       ?Get@?$ScopedMem@G@@QEBAPEAGXZ 0000000140015c00 f i Flags.obj
 0001:00014c20       ?Get@?$ScopedMem@_W@@QEBAPEA_WXZ 0000000140015c20 f i Flags.obj
 0001:00014c40       ?InsertAt@?$Vec@UPageRange@@@@QEAA_N_KAEBUPageRange@@@Z 0000000140015c40 f i Flags.obj
 0001:00014cb0       ?MakeSpaceAt@?$Vec@UPageRange@@@@IEAAPEAUPageRange@@_K0@Z 0000000140015cb0 f i Flags.obj
 0001:00014df0       ?Reset@?$Vec@UPageRange@@@@QEAAXXZ 0000000140015df0 f i Flags.obj
 0001:00014e70       ?size@?$Vec@UPageRange@@@@QEBA_KXZ 0000000140015e70 f i Flags.obj
 0001:00014e90       ?GetAppIconID@@YAHXZ       0000000140015e90 f   SumatraConfig.obj
 0001:00016640       ?parseCommandsTest@@YAXXZ  0000000140017640 f   SumatraUnitTests.obj
 0001:00016ba0       ?SumatraPDF_UnitTests@@YAXXZ 0000000140017ba0 f   SumatraUnitTests.obj
 0001:00017320       ??0AutoFree@@QEAA@PEBD@Z   0000000140018320 f i SumatraUnitTests.obj
 0001:00017360       ??0Flags@@QEAA@XZ          0000000140018360 f i SumatraUnitTests.obj
 0001:00017770       ??1AutoFree@@QEAA@XZ       0000000140018770 f i SumatraUnitTests.obj
 0001:000177a0       ??BAutoFree@@QEBAPEADXZ    00000001400187a0 f i SumatraUnitTests.obj
 0001:000177c0       ?Set@AutoFree@@QEAAXPEBD@Z 00000001400187c0 f i SumatraUnitTests.obj
 0001:00017800       main                       0000000140018800 f   test_util.obj
 0001:000178c0       __local_stdio_printf_options 00000001400188c0 f i test_util.obj
 0001:000178d0       _vfprintf_l                00000001400188d0 f i test_util.obj
 0001:00017930       printf                     0000000140018930 f i test_util.obj
 0001:000179c0       ?BreakIfUnderDebugger@@YAXXZ 00000001400189c0 f   BaseUtil.obj
 0001:000179e0       ?AllocZero@@YAPEAX_K0@Z    00000001400189e0 f   BaseUtil.obj
 0001:00017a10       ?limitValue@@YAHHHH@Z      0000000140018a10 f   BaseUtil.obj
 0001:00017aa0       ?limitValue@@YAKKKK@Z      0000000140018aa0 f   BaseUtil.obj
 0001:00017b30       ?limitValue@@YAMMMM@Z      0000000140018b30 f   BaseUtil.obj
 0001:00017bd0       ?memdup@@YAPEAXPEBX_K1@Z   0000000140018bd0 f   BaseUtil.obj
 0001:00017c40       ?memeq@@YA_NPEBX0_K@Z      0000000140018c40 f   BaseUtil.obj
 0001:00017c90       ?RoundToPowerOf2@@YA_K_K@Z 0000000140018c90 f   BaseUtil.obj
 0001:00017ce0       ?MurmurHash2@@YAIPEBX_K@Z  0000000140018ce0 f   BaseUtil.obj
 0001:00017e50       ?MurmurHashWStrI@@YAIPEB_W@Z 0000000140018e50 f   BaseUtil.obj
 0001:00017f70       ?MurmurHashStrI@@YAIPEBD@Z 0000000140018f70 f   BaseUtil.obj
 0001:00018040       ?RoundUp@@YA_K_K0@Z        0000000140019040 f   BaseUtil.obj
 0001:00018070       ?RoundUp@@YAHHH@Z          0000000140019070 f   BaseUtil.obj
 0001:000180b0       ?RoundUp@@YAPEADPEADH@Z    00000001400190b0 f   BaseUtil.obj
 0001:00018110       ?Alloc@Allocator@@SAPEAXPEAU1@_K@Z 0000000140019110 f   BaseUtil.obj
 0001:00018160       ?AllocZero@Allocator@@SAPEAXPEAU1@_K@Z 0000000140019160 f   BaseUtil.obj
 0001:000181b0       ?Free@Allocator@@SAXPEAU1@PEAX@Z 00000001400191b0 f   BaseUtil.obj
 0001:00018210       ?Realloc@Allocator@@SAPEAXPEAU1@PEAX_K@Z 0000000140019210 f   BaseUtil.obj
 0001:00018270       ?MemDup@Allocator@@SAPEAXPEAU1@PEBX_K2@Z 0000000140019270 f   BaseUtil.obj
 0001:000182f0       ??0PoolAllocator@@QEAA@XZ  00000001400192f0 f   BaseUtil.obj
 0001:00018370       ??1PoolAllocator@@UEAA@XZ  0000000140019370 f   BaseUtil.obj
 0001:000183c0       ?Realloc@PoolAllocator@@UEAAPEAXPEAX_K@Z 00000001400193c0 f   BaseUtil.obj
 0001:000183f0       ?Free@PoolAllocator@@UEAAXPEBX@Z 00000001400193f0 f   BaseUtil.obj
 0001:00018410       ?Alloc@PoolAllocator@@UEAAPEAX_K@Z 0000000140019410 f   BaseUtil.obj
 0001:00018870       ?FreeAll@PoolAllocator@@QEAAXXZ 0000000140019870 f   BaseUtil.obj
 0001:00018910       ?Reset@PoolAllocator@@QEAAX_N@Z 0000000140019910 f   BaseUtil.obj
 0001:00018a00       ?At@PoolAllocator@@QEAAPEAXH@Z 0000000140019a00 f   BaseUtil.obj
 0001:00018bf0       ?Set@AtomicInt@@QEAAHH@Z   0000000140019bf0 f   BaseUtil.obj
 0001:00018c20       ?Inc@AtomicInt@@QEAAHXZ    0000000140019c20 f   BaseUtil.obj
 0001:00018c40       ?Dec@AtomicInt@@QEAAHXZ    0000000140019c40 f   BaseUtil.obj
 0001:00018c60       ?Add@AtomicInt@@QEAAHH@Z   0000000140019c60 f   BaseUtil.obj
 0001:00018c90       ?Sub@AtomicInt@@QEAAHH@Z   0000000140019c90 f   BaseUtil.obj
 0001:00018cc0       ?Get@AtomicInt@@QEBAHXZ    0000000140019cc0 f   BaseUtil.obj
 0001:00018cf0       ?MkFunc0Void@@YA?AUFunc0@@P6AXXZ@Z 0000000140019cf0 f   BaseUtil.obj
 0001:00018d50       ?Get@AtomicBool@@QEBA_NXZ  0000000140019d50 f   BaseUtil.obj
 0001:00018da0       ?Set@AtomicBool@@QEAA_N_N@Z 0000000140019da0 f   BaseUtil.obj
 0001:00018e00       ?Add@AtomicRefCount@@QEAAHXZ 0000000140019e00 f   BaseUtil.obj
 0001:00018e20       ?Dec@AtomicRefCount@@QEAAHXZ 0000000140019e20 f   BaseUtil.obj
 0001:000196f0       ??$swap@H$0A@@std@@YAXAEAH0@Z 000000014001a6f0 f i BaseUtil.obj
 0001:00019740       ??$swap@K$0A@@std@@YAXAEAK0@Z 000000014001a740 f i BaseUtil.obj
 0001:00019790       ??$swap@M$0A@@std@@YAXAEAM0@Z 000000014001a790 f i BaseUtil.obj
 0001:000197f0       ??0Allocator@@QEAA@XZ      000000014001a7f0 f i BaseUtil.obj
 0001:00019810       ??0Func0@@QEAA@XZ          000000014001a810 f i BaseUtil.obj
 0001:00019840       ??0ScopedCritSec@@QEAA@PEAU_RTL_CRITICAL_SECTION@@@Z 000000014001a840 f i BaseUtil.obj
 0001:00019880       ??1Allocator@@UEAA@XZ      000000014001a880 f i BaseUtil.obj
 0001:00019890       ??1ScopedCritSec@@QEAA@XZ  000000014001a890 f i BaseUtil.obj
 0001:000198c0       ??_EAllocator@@UEAAPEAXI@Z 000000014001a8c0 f i BaseUtil.obj
 0001:000198c0       ??_GAllocator@@UEAAPEAXI@Z 000000014001a8c0 f i BaseUtil.obj
 0001:00019910       ??_EPoolAllocator@@UEAAPEAXI@Z 000000014001a910 f i BaseUtil.obj
 0001:00019910       ??_GPoolAllocator@@UEAAPEAXI@Z 000000014001a910 f i BaseUtil.obj
 0001:00019960       ?CrashMe@@YAXXZ            000000014001a960 f i BaseUtil.obj
 0001:00019980       _InlineInterlockedAdd      000000014001a980 f i BaseUtil.obj
 0001:000199b0       ??0ByteOrderDecoder@@QEAA@PEBD_KW4ByteOrder@0@@Z 000000014001a9b0 f   ByteOrderDecoder.obj
 0001:00019a20       ??0ByteOrderDecoder@@QEAA@PEBE_KW4ByteOrder@0@@Z 000000014001aa20 f   ByteOrderDecoder.obj
 0001:00019a90       ?Bytes@ByteOrderDecoder@@QEAAXPEAD_K@Z 000000014001aa90 f   ByteOrderDecoder.obj
 0001:00019b20       ?UInt8@ByteOrderDecoder@@QEAAEXZ 000000014001ab20 f   ByteOrderDecoder.obj
 0001:00019ba0       ?UInt16@ByteOrderDecoder@@QEAAGXZ 000000014001aba0 f   ByteOrderDecoder.obj
 0001:00019c40       ?UInt32@ByteOrderDecoder@@QEAAIXZ 000000014001ac40 f   ByteOrderDecoder.obj
 0001:00019ce0       ?UInt64@ByteOrderDecoder@@QEAA_KXZ 000000014001ace0 f   ByteOrderDecoder.obj
 0001:00019d70       ?Skip@ByteOrderDecoder@@QEAAX_K@Z 000000014001ad70 f   ByteOrderDecoder.obj
 0001:00019de0       ?Unskip@ByteOrderDecoder@@QEAAX_K@Z 000000014001ade0 f   ByteOrderDecoder.obj
 0001:00019e60       ?UInt16BE@@YAGPEBE@Z       000000014001ae60 f   ByteOrderDecoder.obj
 0001:00019ea0       ?UInt16LE@@YAGPEBE@Z       000000014001aea0 f   ByteOrderDecoder.obj
 0001:00019ee0       ?UInt32BE@@YAIPEBE@Z       000000014001aee0 f   ByteOrderDecoder.obj
 0001:00019f50       ?UInt32LE@@YAIPEBE@Z       000000014001af50 f   ByteOrderDecoder.obj
 0001:0001a130       ?CouldBeArg@@YA_NPEBD@Z    000000014001b130 f   CmdLineArgsIter.obj
 0001:0001a180       ?ParseCmdLine@@YAXPEB_WAEAUStrVec@@@Z 000000014001b180 f   CmdLineArgsIter.obj
 0001:0001a230       ?ParseCmdLine@@YAXPEBDAEAUStrVec@@@Z 000000014001b230 f   CmdLineArgsIter.obj
 0001:0001a270       ?QuoteCmdLineArgTemp@@YAPEADPEAD@Z 000000014001b270 f   CmdLineArgsIter.obj
 0001:0001a460       ??0CmdLineArgsIter@@QEAA@PEB_W@Z 000000014001b460 f   CmdLineArgsIter.obj
 0001:0001a4f0       ?NextArg@CmdLineArgsIter@@QEAAPEBDXZ 000000014001b4f0 f   CmdLineArgsIter.obj
 0001:0001a570       ?EatParam@CmdLineArgsIter@@QEAAPEBDXZ 000000014001b570 f   CmdLineArgsIter.obj
 0001:0001a5d0       ?RewindParam@CmdLineArgsIter@@QEAAXXZ 000000014001b5d0 f   CmdLineArgsIter.obj
 0001:0001a620       ?AdditionalParam@CmdLineArgsIter@@QEBAPEBDH@Z 000000014001b620 f   CmdLineArgsIter.obj
 0001:0001a700       ?at@CmdLineArgsIter@@QEBAPEADH@Z 000000014001b700 f   CmdLineArgsIter.obj
 0001:0001a730       ?ParamsTemp@CmdLineArgsIter@@QEAAPEADXZ 000000014001b730 f   CmdLineArgsIter.obj
 0001:0001a9a0       ?MkGray@@YAKE@Z            000000014001b9a0 f   ColorUtil.obj
 0001:0001a9d0       ?MkColor@@YAKEEEE@Z        000000014001b9d0 f   ColorUtil.obj
 0001:0001aa30       ?UnpackColor@@YAXKAEAE00@Z 000000014001ba30 f   ColorUtil.obj
 0001:0001aa90       ?UnpackColor@@YAXKAEAE000@Z 000000014001ba90 f   ColorUtil.obj
 0001:0001ab10       ?IsSpecialColor@@YA_NK@Z   000000014001bb10 f   ColorUtil.obj
 0001:0001ab50       ?ParseColor@@YAXAEAUParsedColor@@PEBD@Z 000000014001bb50 f   ColorUtil.obj
 0001:0001ad90       ?ParseColor@@YA_NPEAKPEBD@Z 000000014001bd90 f   ColorUtil.obj
 0001:0001ae00       ?ParseColor@@YAKPEBDK@Z    000000014001be00 f   ColorUtil.obj
 0001:0001ae40       ?SerializeColorTemp@@YAPEADK@Z 000000014001be40 f   ColorUtil.obj
 0001:0001aef0       ?MkPdfColor@@YA_KEEEE@Z    000000014001bef0 f   ColorUtil.obj
 0001:0001af60       ?UnpackPdfColor@@YAX_KAEAE111@Z 000000014001bf60 f   ColorUtil.obj
 0001:0001aff0       ?SerializePdfColor@@YAX_KAEAUStr@str@@@Z 000000014001bff0 f   ColorUtil.obj
 0001:0001b060       ?AdjustLightness@@YAKKM@Z  000000014001c060 f   ColorUtil.obj
 0001:0001b420       ?AdjustLightness2@@YAKKM@Z 000000014001c420 f   ColorUtil.obj
 0001:0001b500       ?GetLightness@@YAMK@Z      000000014001c500 f   ColorUtil.obj
 0001:0001b590       ?IsLightColor@@YA_NK@Z     000000014001c590 f   ColorUtil.obj
 0001:0001b640       ?Unblend@@YA?AVColor@Gdiplus@@KE@Z 000000014001c640 f   ColorUtil.obj
 0001:0001b7f0       ?GdiRgbFromCOLORREF@@YA?AVColor@Gdiplus@@K@Z 000000014001c7f0 f   ColorUtil.obj
 0001:0001b840       ?GdiRgbaFromCOLORREF@@YA?AVColor@Gdiplus@@K@Z 000000014001c840 f   ColorUtil.obj
 0001:0001b870       ?GetRed@@YAEK@Z            000000014001c870 f   ColorUtil.obj
 0001:0001b890       ?GetGreen@@YAEK@Z          000000014001c890 f   ColorUtil.obj
 0001:0001b8b0       ?GetBlue@@YAEK@Z           000000014001c8b0 f   ColorUtil.obj
 0001:0001b8d0       ?GetAlpha@@YAEK@Z          000000014001c8d0 f   ColorUtil.obj
 0001:0001bcc0       ??$max@E@std@@YAAEBEAEBE0@Z 000000014001ccc0 f i ColorUtil.obj
 0001:0001bd20       ??$max@H@std@@YAAEBHAEBH0@Z 000000014001cd20 f i ColorUtil.obj
 0001:0001bd80       ??$min@E@std@@YAAEBEAEBE0@Z 000000014001cd80 f i ColorUtil.obj
 0001:0001bde0       ??0Color@Gdiplus@@QEAA@EEE@Z 000000014001cde0 f i ColorUtil.obj
 0001:0001be30       ??0Color@Gdiplus@@QEAA@EEEE@Z 000000014001ce30 f i ColorUtil.obj
 0001:0001be90       ??0Color@Gdiplus@@QEAA@K@Z 000000014001ce90 f i ColorUtil.obj
 0001:0001beb0       ?MakeARGB@Color@Gdiplus@@SAKEEEE@Z 000000014001ceb0 f i ColorUtil.obj
 0001:0001bf00       ?CalcMD5Digest@@YAXPEBXHQEAE@Z 000000014001cf00 f   CryptoUtil.obj
 0001:0001bf60       ?CalcSHA1Digest@@YAXPEBXHQEAE@Z 000000014001cf60 f   CryptoUtil.obj
 0001:0001bfc0       ?CalcSHA2Digest@@YAXPEBXHQEAE@Z 000000014001cfc0 f   CryptoUtil.obj
 0001:0001c020       ?VerifySHA1Signature@@YA_NPEBX_KPEBD01@Z 000000014001d020 f   CryptoUtil.obj
 0001:0001ca40       ??0?$ScopedMem@E@@QEAA@XZ  000000014001da40 f i CryptoUtil.obj
 0001:0001ca60       ??0?$Vec@E@@QEAA@_KPEAUAllocator@@@Z 000000014001da60 f i CryptoUtil.obj
 0001:0001cb20       ??1?$ScopedMem@E@@QEAA@XZ  000000014001db20 f i CryptoUtil.obj
 0001:0001cb50       ??1?$Vec@E@@QEAA@XZ        000000014001db50 f i CryptoUtil.obj
 0001:0001cb70       ??B?$ScopedMem@E@@QEBAPEAEXZ 000000014001db70 f i CryptoUtil.obj
 0001:0001cb90       ?Append@?$Vec@E@@QEAA_NAEBE@Z 000000014001db90 f i CryptoUtil.obj
 0001:0001cbd0       ?EnsureCap@?$Vec@E@@IEAA_N_K@Z 000000014001dbd0 f i CryptoUtil.obj
 0001:0001cc20       ?EnsureCapSlow@?$Vec@E@@IEAA_N_K@Z 000000014001dc20 f i CryptoUtil.obj
 0001:0001ce10       ?FreeEls@?$Vec@E@@IEAAXXZ  000000014001de10 f i CryptoUtil.obj
 0001:0001ce70       ?InsertAt@?$Vec@E@@QEAA_N_KAEBE@Z 000000014001de70 f i CryptoUtil.obj
 0001:0001cee0       ?MakeSpaceAt@?$Vec@E@@IEAAPEAE_K0@Z 000000014001dee0 f i CryptoUtil.obj
 0001:0001d000       ?Reset@?$Vec@E@@QEAAXXZ    000000014001e000 f i CryptoUtil.obj
 0001:0001d080       ?Set@?$ScopedMem@E@@QEAAXPEAE@Z 000000014001e080 f i CryptoUtil.obj
 0001:0001d0c0       ?StealData@?$Vec@E@@QEAAPEAEXZ 000000014001e0c0 f i CryptoUtil.obj
 0001:0001d170       ?size@?$Vec@E@@QEBA_KXZ    000000014001e170 f i CryptoUtil.obj
 0001:0001d190       __local_stdio_scanf_options 000000014001e190 f i CryptoUtil.obj
 0001:0001d1a0       _vsscanf_s_l               000000014001e1a0 f i CryptoUtil.obj
 0001:0001d210       sscanf_s                   000000014001e210 f i CryptoUtil.obj
 0001:0001d270       vsscanf_s                  000000014001e270 f i CryptoUtil.obj
 0001:0001d2b0       ?NextRule@CssPullParser@@QEAA_NXZ 000000014001e2b0 f   CssParser.obj
 0001:0001d560       ?NextSelector@CssPullParser@@QEAAPEBUCssSelector@@XZ 000000014001e560 f   CssParser.obj
 0001:0001d970       ?NextProperty@CssPullParser@@QEAAPEBUCssProperty@@XZ 000000014001e970 f   CssParser.obj
 0001:0001e560       ?Hash@StrKeyHasherComparator@dict@@EEAA_K_K@Z 000000014001f560 f i Dict.obj
 0001:0001e5a0       ?Equal@StrKeyHasherComparator@dict@@EEAA_N_K0@Z 000000014001f5a0 f i Dict.obj
 0001:0001e5f0       ??_EStrKeyHasherComparator@dict@@UEAAPEAXI@Z 000000014001f5f0 f i Dict.obj
 0001:0001e5f0       ??_GStrKeyHasherComparator@dict@@UEAAPEAXI@Z 000000014001f5f0 f i Dict.obj
 0001:0001e640       ?Hash@WStrKeyHasherComparator@dict@@EEAA_K_K@Z 000000014001f640 f i Dict.obj
 0001:0001e690       ?Equal@WStrKeyHasherComparator@dict@@EEAA_N_K0@Z 000000014001f690 f i Dict.obj
 0001:0001e6e0       ??_EWStrKeyHasherComparator@dict@@UEAAPEAXI@Z 000000014001f6e0 f i Dict.obj
 0001:0001e6e0       ??_GWStrKeyHasherComparator@dict@@UEAAPEAXI@Z 000000014001f6e0 f i Dict.obj
 0001:0001e730       ??0MapStrToInt@dict@@QEAA@_K@Z 000000014001f730 f   Dict.obj
 0001:0001e790       ??1MapStrToInt@dict@@QEAA@XZ 000000014001f790 f   Dict.obj
 0001:0001e7d0       ?Count@MapStrToInt@dict@@QEBA_KXZ 000000014001f7d0 f   Dict.obj
 0001:0001e7f0       ?Insert@MapStrToInt@dict@@QEAA_NPEBDHPEAHPEAPEBD@Z 000000014001f7f0 f   Dict.obj
 0001:0001e8e0       ?Remove@MapStrToInt@dict@@QEBA_NPEBDPEAH@Z 000000014001f8e0 f   Dict.obj
 0001:0001e950       ?Get@MapStrToInt@dict@@QEBA_NPEBDPEAH@Z 000000014001f950 f   Dict.obj
 0001:0001f270       ??$AllocArray@PEAUHashTableEntry@dict@@@@YAPEAPEAUHashTableEntry@dict@@_K@Z 0000000140020270 f i Dict.obj
 0001:0001f2a0       ??$AllocArray@UHashTable@dict@@@Allocator@@SAPEAUHashTable@dict@@PEAU0@_K@Z 00000001400202a0 f i Dict.obj
 0001:0001f2e0       ??$AllocArray@UHashTableEntry@dict@@@Allocator@@SAPEAUHashTableEntry@dict@@PEAU0@_K@Z 00000001400202e0 f i Dict.obj
 0001:0001f320       ??0HasherComparator@dict@@QEAA@XZ 0000000140020320 f i Dict.obj
 0001:0001f340       ??0StrKeyHasherComparator@dict@@QEAA@XZ 0000000140020340 f i Dict.obj
 0001:0001f380       ??1HasherComparator@dict@@UEAA@XZ 0000000140020380 f i Dict.obj
 0001:0001f390       ??1StrKeyHasherComparator@dict@@UEAA@XZ 0000000140020390 f i Dict.obj
 0001:0001f3b0       ??1WStrKeyHasherComparator@dict@@UEAA@XZ 00000001400203b0 f i Dict.obj
 0001:0001f3d0       ??_EHasherComparator@dict@@UEAAPEAXI@Z 00000001400203d0 f i Dict.obj
 0001:0001f3d0       ??_GHasherComparator@dict@@UEAAPEAXI@Z 00000001400203d0 f i Dict.obj
 0001:0001f420       ?DpiGetForHwnd@@YAHPEAUHWND__@@@Z 0000000140020420 f   Dpi.obj
 0001:0001f4f0       ?DpiGet@@YAHPEAUHWND__@@@Z 00000001400204f0 f   Dpi.obj
 0001:0001f530       ?DpiScale@@YAHPEAUHWND__@@H@Z 0000000140020530 f   Dpi.obj
 0001:0001f580       ?DpiScale@@YAXPEAUHWND__@@AEAH1@Z 0000000140020580 f   Dpi.obj
 0001:0001f600       ?DpiScale@@YAHPEAUHDC__@@H@Z 0000000140020600 f   Dpi.obj
 0001:0001f6d0       ??0ScopedGetDC@@QEAA@PEAUHWND__@@@Z 00000001400206d0 f i Dpi.obj
 0001:0001f740       ??1ScopedGetDC@@QEAA@XZ    0000000140020740 f i Dpi.obj
 0001:0001f770       ??BScopedGetDC@@QEBAPEAUHDC__@@XZ 0000000140020770 f i Dpi.obj
 0001:0001f790       ?IsSep@path@@YA_ND@Z       0000000140020790 f   FileUtil.obj
 0001:0001f7d0       ?GetExtTemp@path@@YAPEADPEBD@Z 00000001400207d0 f   FileUtil.obj
 0001:0001f820       ?GetBaseNameTemp@path@@YAPEADPEBD@Z 0000000140020820 f   FileUtil.obj
 0001:0001f890       ?GetPathNoExtTemp@path@@YAPEADPEBD@Z 0000000140020890 f   FileUtil.obj
 0001:0001f900       ?GetDirTemp@path@@YAPEADPEBD@Z 0000000140020900 f   FileUtil.obj
 0001:0001fa00       ?GetDirTemp@path@@YAPEA_WPEB_W@Z 0000000140020a00 f   FileUtil.obj
 0001:0001fb10       ?Join@path@@YAPEADPEAUAllocator@@PEBD1@Z 0000000140020b10 f   FileUtil.obj
 0001:0001fba0       ?Join@path@@YAPEADPEBD0@Z  0000000140020ba0 f   FileUtil.obj
 0001:0001fbd0       ?Join@path@@YAPEA_WPEB_W00@Z 0000000140020bd0 f   FileUtil.obj
 0001:0001fc20       ?JoinTemp@path@@YAPEADPEBD00@Z 0000000140020c20 f   FileUtil.obj
 0001:0001fcf0       ?JoinTemp@path@@YAPEA_WPEB_W00@Z 0000000140020cf0 f   FileUtil.obj
 0001:0001fdc0       ?IsDirectory@path@@YA_NPEBD@Z 0000000140020dc0 f   FileUtil.obj
 0001:0001fe30       ?NormalizeTemp@path@@YAPEADPEBD@Z 0000000140020e30 f   FileUtil.obj
 0001:0001fe90       ?ShortPathTemp@path@@YAPEADPEBD@Z 0000000140020e90 f   FileUtil.obj
 0001:0001ff40       ?IsSame@path@@YA_NPEBD0@Z  0000000140020f40 f   FileUtil.obj
 0001:000201b0       ?HasVariableDriveLetter@path@@YA_NPEBD@Z 00000001400211b0 f   FileUtil.obj
 0001:00020260       ?IsOnFixedDrive@path@@YA_NPEBD@Z 0000000140021260 f   FileUtil.obj
 0001:00020320       ?IsAbsolute@path@@YA_NPEBD@Z 0000000140021320 f   FileUtil.obj
 0001:00020370       ?Match@path@@YA_NPEBD0@Z   0000000140021370 f   FileUtil.obj
 0001:000203f0       ?GetType@path@@YA?AW4Type@1@PEBD@Z 00000001400213f0 f   FileUtil.obj
 0001:00020470       ?GetTempFilePathTemp@@YAPEADPEBD@Z 0000000140021470 f   FileUtil.obj
 0001:00020570       ?GetPathInExeDirTemp@@YAPEADPEBD@Z 0000000140021570 f   FileUtil.obj
 0001:000205c0       ?Exists@file@@YA_NPEBD@Z   00000001400215c0 f   FileUtil.obj
 0001:00020650       ?OpenFILE@file@@YAPEAU_iobuf@@PEBD@Z 0000000140021650 f   FileUtil.obj
 0001:000206c0       ?OpenReadOnly@file@@YAPEAXPEBD@Z 00000001400216c0 f   FileUtil.obj
 0001:00020720       ?ReadFileWithAllocator@file@@YA?AUByteSlice@@PEBDPEAUAllocator@@@Z 0000000140021720 f   FileUtil.obj
 0001:000209d0       ?ReadFile@file@@YA?AUByteSlice@@PEBD@Z 00000001400219d0 f   FileUtil.obj
 0001:00020a00       ?ReadN@file@@YAHPEBDPEAD_K@Z 0000000140021a00 f   FileUtil.obj
 0001:00020ae0       ?WriteFile@file@@YA_NPEBDAEBUByteSlice@@@Z 0000000140021ae0 f   FileUtil.obj
 0001:00020c50       ?GetSize@file@@YA_JPEBD@Z  0000000140021c50 f   FileUtil.obj
 0001:00020d50       ?Delete@file@@YA_NPEBD@Z   0000000140021d50 f   FileUtil.obj
 0001:00020de0       ?DeleteFileToTrash@file@@YA_NPEBD@Z 0000000140021de0 f   FileUtil.obj
 0001:00020ed0       ?GetModificationTime@file@@YA?AU_FILETIME@@PEBD@Z 0000000140021ed0 f   FileUtil.obj
 0001:00020f60       ?SetModificationTime@file@@YA_NPEBDU_FILETIME@@@Z 0000000140021f60 f   FileUtil.obj
 0001:00021050       ?GetAttributes@file@@YAKPEBD@Z 0000000140022050 f   FileUtil.obj
 0001:00021090       ?SetAttributes@file@@YA_NPEBDK@Z 0000000140022090 f   FileUtil.obj
 0001:000210f0       ?StartsWithN@file@@YA_NPEBD0_K@Z 00000001400220f0 f   FileUtil.obj
 0001:00021160       ?StartsWith@file@@YA_NPEBD0@Z 0000000140022160 f   FileUtil.obj
 0001:000211a0       ?GetZoneIdentifier@file@@YAHPEBD@Z 00000001400221a0 f   FileUtil.obj
 0001:00021210       ?SetZoneIdentifier@file@@YA_NPEBDH@Z 0000000140022210 f   FileUtil.obj
 0001:000212c0       ?DeleteZoneIdentifier@file@@YA_NPEBD@Z 00000001400222c0 f   FileUtil.obj
 0001:00021300       ?Copy@file@@YA_NPEBD0_N@Z  0000000140022300 f   FileUtil.obj
 0001:00021380       ?Exists@dir@@YA_NPEB_W@Z   0000000140022380 f   FileUtil.obj
 0001:00021400       ?Exists@dir@@YA_NPEBD@Z    0000000140022400 f   FileUtil.obj
 0001:000214a0       ?Create@dir@@YA_NPEBD@Z    00000001400224a0 f   FileUtil.obj
 0001:00021510       ?CreateForFile@dir@@YA_NPEBD@Z 0000000140022510 f   FileUtil.obj
 0001:00021540       ?CreateAll@dir@@YA_NPEBD@Z 0000000140022540 f   FileUtil.obj
 0001:000215a0       ?RemoveAll@dir@@YA_NPEBD@Z 00000001400225a0 f   FileUtil.obj
 0001:00021690       ?FileTimeEq@@YA_NAEBU_FILETIME@@0@Z 0000000140022690 f   FileUtil.obj
 0001:00022740       ??$AllocArray@D@Allocator@@SAPEADPEAU0@_K@Z 0000000140023740 f i FileUtil.obj
 0001:00022780       ??$AllocArrayTemp@D@@YAPEAD_K@Z 0000000140023780 f i FileUtil.obj
 0001:000227b0       ??$AllocArrayTemp@_W@@YAPEA_W_K@Z 00000001400237b0 f i FileUtil.obj
 0001:000227f0       ??$addOverflows@_K@@YA_N_K0@Z 00000001400237f0 f i FileUtil.obj
 0001:00022880       ??0AutoCloseHandle@@QEAA@PEAX@Z 0000000140023880 f i FileUtil.obj
 0001:000228b0       ??0ByteSlice@@QEAA@PEBE_K@Z 00000001400238b0 f i FileUtil.obj
 0001:00022910       ??0ByteSlice@@QEAA@XZ      0000000140023910 f i FileUtil.obj
 0001:00022940       ??1AutoCloseHandle@@QEAA@XZ 0000000140023940 f i FileUtil.obj
 0001:00022980       ??BAutoCloseHandle@@QEBAPEAXXZ 0000000140023980 f i FileUtil.obj
 0001:000229a0       ?IsValid@AutoCloseHandle@@QEBA_NXZ 00000001400239a0 f i FileUtil.obj
 0001:000229f0       ?data@ByteSlice@@QEBAPEAEXZ 00000001400239f0 f i FileUtil.obj
 0001:00022a10       ?size@ByteSlice@@QEBA_KXZ  0000000140023a10 f i FileUtil.obj
 0001:00022a30       ??0Point@@QEAA@HH@Z        0000000140023a30 f   GeomUtil.obj
 0001:00022a70       ?IsEmpty@Point@@QEBA_NXZ   0000000140023a70 f   GeomUtil.obj
 0001:00022ab0       ?Eq@Point@@QEBA_NHH@Z      0000000140023ab0 f   GeomUtil.obj
 0001:00022b00       ??8Point@@QEBA_NAEBU0@@Z   0000000140023b00 f   GeomUtil.obj
 0001:00022b50       ??9Point@@QEBA_NAEBU0@@Z   0000000140023b50 f   GeomUtil.obj
 0001:00022ba0       ??0PointF@@QEAA@MM@Z       0000000140023ba0 f   GeomUtil.obj
 0001:00022be0       ?IsEmpty@PointF@@QEBA_NXZ  0000000140023be0 f   GeomUtil.obj
 0001:00022c40       ??8PointF@@QEBA_NAEBU0@@Z  0000000140023c40 f   GeomUtil.obj
 0001:00022ca0       ??9PointF@@QEBA_NAEBU0@@Z  0000000140023ca0 f   GeomUtil.obj
 0001:00022cf0       ??0Size@@QEAA@HH@Z         0000000140023cf0 f   GeomUtil.obj
 0001:00022d30       ?IsEmpty@Size@@QEBA_NXZ    0000000140023d30 f   GeomUtil.obj
 0001:00022d70       ?Equals@Size@@QEBA_NAEBU1@@Z 0000000140023d70 f   GeomUtil.obj
 0001:00022dc0       ??8Size@@QEBA_NAEBU0@@Z    0000000140023dc0 f   GeomUtil.obj
 0001:00022e10       ??9Size@@QEBA_NAEBU0@@Z    0000000140023e10 f   GeomUtil.obj
 0001:00022e60       ??0SizeF@@QEAA@MM@Z        0000000140023e60 f   GeomUtil.obj
 0001:00022ea0       ?IsEmpty@SizeF@@QEBA_NXZ   0000000140023ea0 f   GeomUtil.obj
 0001:00022f00       ??8SizeF@@QEBA_NAEBU0@@Z   0000000140023f00 f   GeomUtil.obj
 0001:00022f60       ??9SizeF@@QEBA_NAEBU0@@Z   0000000140023f60 f   GeomUtil.obj
 0001:00022fb0       ??0Rect@@QEAA@UtagRECT@@@Z 0000000140023fb0 f   GeomUtil.obj
 0001:00023050       ??0Rect@@QEAA@VRectF@Gdiplus@@@Z 0000000140024050 f   GeomUtil.obj
 0001:000230e0       ??0Rect@@QEAA@HHHH@Z       00000001400240e0 f   GeomUtil.obj
 0001:00023130       ??0Rect@@QEAA@UPoint@@0@Z  0000000140024130 f   GeomUtil.obj
 0001:00023190       ?EqSize@Rect@@QEBA_NHH@Z   0000000140024190 f   GeomUtil.obj
 0001:000231e0       ?Right@Rect@@QEBAHXZ       00000001400241e0 f   GeomUtil.obj
 0001:00023200       ?Bottom@Rect@@QEBAHXZ      0000000140024200 f   GeomUtil.obj
 0001:00023220       ?FromXY@Rect@@SA?AU1@HHHH@Z 0000000140024220 f   GeomUtil.obj
 0001:000232b0       ?FromXY@Rect@@SA?AU1@UPoint@@0@Z 00000001400242b0 f   GeomUtil.obj
 0001:00023300       ?IsZero@Rect@@QEBA_NXZ     0000000140024300 f   GeomUtil.obj
 0001:00023360       ?IsEmpty@Rect@@QEBA_NXZ    0000000140024360 f   GeomUtil.obj
 0001:000233a0       ?Contains@Rect@@QEBA_NHH@Z 00000001400243a0 f   GeomUtil.obj
 0001:00023410       ?Contains@Rect@@QEBA_NUPoint@@@Z 0000000140024410 f   GeomUtil.obj
 0001:00023440       ?Intersect@Rect@@QEBA?AU1@U1@@Z 0000000140024440 f   GeomUtil.obj
 0001:00023570       ?Union@Rect@@QEBA?AU1@U1@@Z 0000000140024570 f   GeomUtil.obj
 0001:000236f0       ?Offset@Rect@@QEAAXHH@Z    00000001400246f0 f   GeomUtil.obj
 0001:00023730       ?Inflate@Rect@@QEAAXHH@Z   0000000140024730 f   GeomUtil.obj
 0001:000237a0       ?SubTB@Rect@@QEAAXHH@Z     00000001400247a0 f   GeomUtil.obj
 0001:00023800       ?SubLR@Rect@@QEAAXHH@Z     0000000140024800 f   GeomUtil.obj
 0001:00023860       ?TL@Rect@@QEBA?AUPoint@@XZ 0000000140024860 f   GeomUtil.obj
 0001:000238a0       ?BR@Rect@@QEBA?AUPoint@@XZ 00000001400248a0 f   GeomUtil.obj
 0001:000238f0       ?Size@Rect@@QEBA?AU0@XZ    00000001400248f0 f   GeomUtil.obj
 0001:00023930       ?SetSize@Rect@@QEAAXAEBUSize@@@Z 0000000140024930 f   GeomUtil.obj
 0001:00023960       ?SetPos@Rect@@QEAAXAEBUPoint@@@Z 0000000140024960 f   GeomUtil.obj
 0001:00023990       ?Equals@Rect@@QEBA_NAEBU1@@Z 0000000140024990 f   GeomUtil.obj
 0001:00023a10       ??8Rect@@QEBA_NAEBU0@@Z    0000000140024a10 f   GeomUtil.obj
 0001:00023a90       ??9Rect@@QEBA_NAEBU0@@Z    0000000140024a90 f   GeomUtil.obj
 0001:00023ae0       ??0RectF@@QEAA@UtagRECT@@@Z 0000000140024ae0 f   GeomUtil.obj
 0001:00023b90       ??0RectF@@QEAA@V0Gdiplus@@@Z 0000000140024b90 f   GeomUtil.obj
 0001:00023c30       ??0RectF@@QEAA@MMMM@Z      0000000140024c30 f   GeomUtil.obj
 0001:00023ca0       ??0RectF@@QEAA@UPointF@@USizeF@@@Z 0000000140024ca0 f   GeomUtil.obj
 0001:00023d00       ??0RectF@@QEAA@UPointF@@0@Z 0000000140024d00 f   GeomUtil.obj
 0001:00023d70       ?EqSize@RectF@@QEBA_NMM@Z  0000000140024d70 f   GeomUtil.obj
 0001:00023dd0       ?Right@RectF@@QEBAMXZ      0000000140024dd0 f   GeomUtil.obj
 0001:00023df0       ?Bottom@RectF@@QEBAMXZ     0000000140024df0 f   GeomUtil.obj
 0001:00023e10       ?FromXY@RectF@@SA?AU1@MMMM@Z 0000000140024e10 f   GeomUtil.obj
 0001:00023eb0       ?FromXY@RectF@@SA?AU1@UPointF@@0@Z 0000000140024eb0 f   GeomUtil.obj
 0001:00023f00       ?Round@RectF@@QEBA?AURect@@XZ 0000000140024f00 f   GeomUtil.obj
 0001:00023fe0       ?IsEmpty@RectF@@QEBA_NXZ   0000000140024fe0 f   GeomUtil.obj
 0001:00024040       ?Contains@RectF@@QEBA_NUPointF@@@Z 0000000140025040 f   GeomUtil.obj
 0001:000240d0       ?Intersect@RectF@@QEBA?AU1@U1@@Z 00000001400250d0 f   GeomUtil.obj
 0001:00024240       ?Union@RectF@@QEAA?AU1@U1@@Z 0000000140025240 f   GeomUtil.obj
 0001:00024400       ?Offset@RectF@@QEAAXMM@Z   0000000140025400 f   GeomUtil.obj
 0001:00024450       ?Inflate@RectF@@QEAAXMM@Z  0000000140025450 f   GeomUtil.obj
 0001:000244f0       ?TL@RectF@@QEBA?AUPointF@@XZ 00000001400254f0 f   GeomUtil.obj
 0001:00024530       ?BR@RectF@@QEBA?AUPointF@@XZ 0000000140025530 f   GeomUtil.obj
 0001:00024590       ?Size@RectF@@QEBA?AUSizeF@@XZ 0000000140025590 f   GeomUtil.obj
 0001:000245d0       ??8RectF@@QEBA_NAEBU0@@Z   00000001400255d0 f   GeomUtil.obj
 0001:00024660       ??9RectF@@QEBA_NAEBU0@@Z   0000000140025660 f   GeomUtil.obj
 0001:000246b0       ?RectDx@@YAHAEBUtagRECT@@@Z 00000001400256b0 f   GeomUtil.obj
 0001:000246d0       ?RectDy@@YAHAEBUtagRECT@@@Z 00000001400256d0 f   GeomUtil.obj
 0001:000246f0       ?ToPointFl@@YA?AUPointF@@UPoint@@@Z 00000001400256f0 f   GeomUtil.obj
 0001:00024730       ?ToGdipPoint@@YA?AVPoint@Gdiplus@@U1@@Z 0000000140025730 f   GeomUtil.obj
 0001:00024770       ?ToPoint@@YA?AUPoint@@UPointF@@@Z 0000000140025770 f   GeomUtil.obj
 0001:000247b0       ?ToGdipPointF@@YA?AVPointF@Gdiplus@@U1@@Z 00000001400257b0 f   GeomUtil.obj
 0001:000247f0       ?ToPOINT@@YA?AUtagPOINT@@AEBUPoint@@@Z 00000001400257f0 f   GeomUtil.obj
 0001:00024820       ?ToSIZE@@YA?AUtagSIZE@@USize@@@Z 0000000140025820 f   GeomUtil.obj
 0001:00024850       ?ToSizeFl@@YA?AUSizeF@@USize@@@Z 0000000140025850 f   GeomUtil.obj
 0001:00024890       ?ToSize@@YA?AUSize@@USizeF@@@Z 0000000140025890 f   GeomUtil.obj
 0001:00024900       ?ToRectF@@YA?AURectF@@AEBURect@@@Z 0000000140025900 f   GeomUtil.obj
 0001:00024960       ?ToRECT@@YA?AUtagRECT@@AEBURect@@@Z 0000000140025960 f   GeomUtil.obj
 0001:000249d0       ?ToRECT@@YA?AUtagRECT@@AEBURectF@@@Z 00000001400259d0 f   GeomUtil.obj
 0001:00024a50       ?ToRect@@YA?AURect@@AEBURectF@@@Z 0000000140025a50 f   GeomUtil.obj
 0001:00024b10       ?ToRect@@YA?AURect@@AEBUtagRECT@@@Z 0000000140025b10 f   GeomUtil.obj
 0001:00024b90       ?ToGdipRect@@YA?AVRect@Gdiplus@@AEBU1@@Z 0000000140025b90 f   GeomUtil.obj
 0001:00024be0       ?ToGdipRectF@@YA?AVRectF@Gdiplus@@AEBURect@@@Z 0000000140025be0 f   GeomUtil.obj
 0001:00024c50       ?ToGdipRect@@YA?AVRect@Gdiplus@@AEBURectF@@@Z 0000000140025c50 f   GeomUtil.obj
 0001:00024ca0       ?ToGdipRectF@@YA?AVRectF@Gdiplus@@AEBU1@@Z 0000000140025ca0 f   GeomUtil.obj
 0001:00024d00       ?NormalizeRotation@@YAHH@Z 0000000140025d00 f   GeomUtil.obj
 0001:00025650       ??$max@M@std@@YAAEBMAEBM0@Z 0000000140026650 f i GeomUtil.obj
 0001:000256b0       ??$min@H@std@@YAAEBHAEBH0@Z 00000001400266b0 f i GeomUtil.obj
 0001:00025710       ??$min@M@std@@YAAEBMAEBM0@Z 0000000140026710 f i GeomUtil.obj
 0001:00025770       ??0Point@Gdiplus@@QEAA@HH@Z 0000000140026770 f i GeomUtil.obj
 0001:000257b0       ??0PointF@Gdiplus@@QEAA@MM@Z 00000001400267b0 f i GeomUtil.obj
 0001:00025800       ??0Rect@@QEAA@XZ           0000000140026800 f i GeomUtil.obj
 0001:00025850       ??0Rect@Gdiplus@@QEAA@HHHH@Z 0000000140026850 f i GeomUtil.obj
 0001:000258b0       ??0RectF@@QEAA@XZ          00000001400268b0 f i GeomUtil.obj
 0001:00025900       ??0RectF@Gdiplus@@QEAA@MMMM@Z 0000000140026900 f i GeomUtil.obj
 0001:00025980       ?FindHtmlTag@@YA?AW4HtmlTag@@PEBD_K@Z 0000000140026980 f   HtmlParserLookup.obj
 0001:000279c0       ?IsTagSelfClosing@@YA_NW4HtmlTag@@@Z 00000001400289c0 f   HtmlParserLookup.obj
 0001:00027a80       ?IsInlineTag@@YA_NW4HtmlTag@@@Z 0000000140028a80 f   HtmlParserLookup.obj
 0001:00027b60       ?FindAlignAttr@@YA?AW4AlignAttr@@PEBD_K@Z 0000000140028b60 f   HtmlParserLookup.obj
 0001:00028320       ?FindHtmlEntityRune@@YAIPEBD_K@Z 0000000140029320 f   HtmlParserLookup.obj
 0001:0002e820       ?FindCssProp@@YA?AW4CssProp@@PEBD_K@Z 000000014002f820 f   HtmlParserLookup.obj
 0001:000321e0       ?PrettyPrintHtml@@YA?AUByteSlice@@AEBU1@@Z 00000001400331e0 f   HtmlPrettyPrint.obj
 0001:00032820       ??0?$Vec@W4HtmlTag@@@@QEAA@_KPEAUAllocator@@@Z 0000000140033820 f i HtmlPrettyPrint.obj
 0001:000328e0       ??0HtmlPullParser@@QEAA@AEBUByteSlice@@@Z 00000001400338e0 f i HtmlPrettyPrint.obj
 0001:000329b0       ??0HtmlToken@@QEAA@XZ      00000001400339b0 f i HtmlPrettyPrint.obj
 0001:00032a20       ??1?$Vec@W4HtmlTag@@@@QEAA@XZ 0000000140033a20 f i HtmlPrettyPrint.obj
 0001:00032a40       ?Append@?$Vec@W4HtmlTag@@@@QEAA_NAEBW4HtmlTag@@@Z 0000000140033a40 f i HtmlPrettyPrint.obj
 0001:00032a80       ?Contains@?$Vec@W4HtmlTag@@@@QEBA_NAEBW4HtmlTag@@@Z 0000000140033a80 f i HtmlPrettyPrint.obj
 0001:00032ae0       ?EnsureCap@?$Vec@W4HtmlTag@@@@IEAA_N_K@Z 0000000140033ae0 f i HtmlPrettyPrint.obj
 0001:00032b30       ?EnsureCapSlow@?$Vec@W4HtmlTag@@@@IEAA_N_K@Z 0000000140033b30 f i HtmlPrettyPrint.obj
 0001:00032d40       ?Find@?$Vec@W4HtmlTag@@@@QEBAHAEBW4HtmlTag@@_K@Z 0000000140033d40 f i HtmlPrettyPrint.obj
 0001:00032dc0       ?FreeEls@?$Vec@W4HtmlTag@@@@IEAAXXZ 0000000140033dc0 f i HtmlPrettyPrint.obj
 0001:00032e20       ?InsertAt@?$Vec@W4HtmlTag@@@@QEAA_N_KAEBW4HtmlTag@@@Z 0000000140033e20 f i HtmlPrettyPrint.obj
 0001:00032e90       ?IsEmptyElementEndTag@HtmlToken@@QEBA_NXZ 0000000140033e90 f i HtmlPrettyPrint.obj
 0001:00032ed0       ?IsEndTag@HtmlToken@@QEBA_NXZ 0000000140033ed0 f i HtmlPrettyPrint.obj
 0001:00032f10       ?IsError@HtmlToken@@QEBA_NXZ 0000000140033f10 f i HtmlPrettyPrint.obj
 0001:00032f50       ?IsStartTag@HtmlToken@@QEBA_NXZ 0000000140033f50 f i HtmlPrettyPrint.obj
 0001:00032f90       ?IsTag@HtmlToken@@QEBA_NXZ 0000000140033f90 f i HtmlPrettyPrint.obj
 0001:00033000       ?IsText@HtmlToken@@QEBA_NXZ 0000000140034000 f i HtmlPrettyPrint.obj
 0001:00033040       ?Last@?$Vec@W4HtmlTag@@@@QEBAAEAW4HtmlTag@@XZ 0000000140034040 f i HtmlPrettyPrint.obj
 0001:000330b0       ?MakeSpaceAt@?$Vec@W4HtmlTag@@@@IEAAPEAW4HtmlTag@@_K0@Z 00000001400340b0 f i HtmlPrettyPrint.obj
 0001:000331f0       ?Pop@?$Vec@W4HtmlTag@@@@QEAA?AW4HtmlTag@@XZ 00000001400341f0 f i HtmlPrettyPrint.obj
 0001:00033290       ?RemoveAtFast@?$Vec@W4HtmlTag@@@@QEAAX_K@Z 0000000140034290 f i HtmlPrettyPrint.obj
 0001:000333a0       ?Reset@?$Vec@W4HtmlTag@@@@QEAAXXZ 00000001400343a0 f i HtmlPrettyPrint.obj
 0001:00033420       ?at@?$Vec@W4HtmlTag@@@@QEBAAEAW4HtmlTag@@_K@Z 0000000140034420 f i HtmlPrettyPrint.obj
 0001:00033490       ?size@?$Vec@W4HtmlTag@@@@QEBA_KXZ 0000000140034490 f i HtmlPrettyPrint.obj
 0001:000334b0       ?NameIs@AttrInfo@@QEBA_NPEBD@Z 00000001400344b0 f   HtmlPullParser.obj
 0001:000334f0       ?NameIsNS@AttrInfo@@QEBA_NPEBD0@Z 00000001400344f0 f   HtmlPullParser.obj
 0001:00033530       ?ValIs@AttrInfo@@QEBA_NPEBD@Z 0000000140034530 f   HtmlPullParser.obj
 0001:00033570       ?GetReparsePoint@HtmlToken@@QEBAPEBDXZ 0000000140034570 f   HtmlPullParser.obj
 0001:00033620       ?SetTag@HtmlToken@@QEAAXW4TokenType@1@PEBD1@Z 0000000140034620 f   HtmlPullParser.obj
 0001:000336e0       ?SetError@HtmlToken@@QEAAXW4ParsingError@1@PEBD@Z 00000001400346e0 f   HtmlPullParser.obj
 0001:00033720       ?SetText@HtmlToken@@QEAAXPEBD0@Z 0000000140034720 f   HtmlPullParser.obj
 0001:00033770       ?NameIs@HtmlToken@@QEBA_NPEBD@Z 0000000140034770 f   HtmlPullParser.obj
 0001:000337d0       ?NameIsNS@HtmlToken@@QEBA_NPEBD0@Z 00000001400347d0 f   HtmlPullParser.obj
 0001:00033810       ?GetAttrByName@HtmlToken@@QEAAPEAUAttrInfo@@PEBD@Z 0000000140034810 f   HtmlPullParser.obj
 0001:00033880       ?GetAttrByNameNS@HtmlToken@@QEAAPEAUAttrInfo@@PEBD0@Z 0000000140034880 f   HtmlPullParser.obj
 0001:00033900       ?NextAttr@HtmlToken@@IEAAPEAUAttrInfo@@XZ 0000000140034900 f   HtmlPullParser.obj
 0001:00033b60       ?Next@HtmlPullParser@@QEAAPEAUHtmlToken@@XZ 0000000140034b60 f   HtmlPullParser.obj
 0001:00034050       ?SkipWs@@YA_NAEAPEBDPEBD@Z 0000000140035050 f   HtmlPullParser.obj
 0001:000340e0       ?SkipNonWs@@YA_NAEAPEBDPEBD@Z 00000001400350e0 f   HtmlPullParser.obj
 0001:00034170       ?SkipUntil@@YA_NAEAPEBDPEBDD@Z 0000000140035170 f   HtmlPullParser.obj
 0001:000341f0       ?SkipUntil@@YA_NAEAPEBDPEBD1@Z 00000001400351f0 f   HtmlPullParser.obj
 0001:00034280       ?IsSpaceOnly@@YA_NPEBD0@Z  0000000140035280 f   HtmlPullParser.obj
 0001:000342d0       ?HtmlEntityNameToRune@@YAHPEBD_K@Z 00000001400352d0 f   HtmlPullParser.obj
 0001:00034300       ?HtmlEntityNameToRune@@YAHPEB_W_K@Z 0000000140035300 f   HtmlPullParser.obj
 0001:000343c0       ?ResolveHtmlEntity@@YAPEBDPEBD_KAEAH@Z 00000001400353c0 f   HtmlPullParser.obj
 0001:00034510       ?ResolveHtmlEntities@@YAPEBDPEBD0PEAUAllocator@@@Z 0000000140035510 f   HtmlPullParser.obj
 0001:000346d0       ?ResolveHtmlEntities@@YAPEADPEBD_K@Z 00000001400356d0 f   HtmlPullParser.obj
 0001:00034730       ?ResolveHtmlEntitiesTemp@@YAPEADPEBD_K@Z 0000000140035730 f   HtmlPullParser.obj
 0001:000348d0       ?MemAppend@@YAXAEAPEADPEBD_K@Z 00000001400358d0 f   HtmlPullParser.obj
 0001:00035050       ?Parse@json@@YA_NPEBDPEAUValueVisitor@1@@Z 0000000140036050 f   JsonParser.obj
 0001:00035fe0       ??0ParseArgs@json@@QEAA@PEAUValueVisitor@1@@Z 0000000140036fe0 f i JsonParser.obj
 0001:00036040       ??1ParseArgs@json@@QEAA@XZ 0000000140037040 f i JsonParser.obj
 0001:00036250       ?log@@YAXPEBD_N@Z          0000000140037250 f   Log.obj
 0001:000365b0       ?loga@@YAXPEBD@Z           00000001400375b0 f   Log.obj
 0001:000365e0       ?logf@@YAXPEBDZZ           00000001400375e0 f   Log.obj
 0001:00036670       ?logfa@@YAXPEBDZZ          0000000140037670 f   Log.obj
 0001:000366e0       ?StartLogToFile@@YAXPEBD_N@Z 00000001400376e0 f   Log.obj
 0001:00036750       ?WriteCurrentLogToFile@@YA_NPEBD@Z 0000000140037750 f   Log.obj
 0001:000367f0       ?DestroyLogging@@YAXXZ     00000001400377f0 f   Log.obj
 0001:00036b10       ??0HeapAllocator@@QEAA@_K@Z 0000000140037b10 f i Log.obj
 0001:00036b70       ??0Mutex@@QEAA@XZ          0000000140037b70 f i Log.obj
 0001:00036ba0       ??1HeapAllocator@@UEAA@XZ  0000000140037ba0 f i Log.obj
 0001:00036bf0       ??1Mutex@@QEAA@XZ          0000000140037bf0 f i Log.obj
 0001:00036c20       ??_EHeapAllocator@@UEAAPEAXI@Z 0000000140037c20 f i Log.obj
 0001:00036c20       ??_GHeapAllocator@@UEAAPEAXI@Z 0000000140037c20 f i Log.obj
 0001:00036c70       ??_GStr@str@@QEAAPEAXI@Z   0000000140037c70 f i Log.obj
 0001:00036cc0       ?Alloc@HeapAllocator@@UEAAPEAX_K@Z 0000000140037cc0 f i Log.obj
 0001:00036d00       ?Free@HeapAllocator@@UEAAXPEBX@Z 0000000140037d00 f i Log.obj
 0001:00036d40       ?Get@AutoFree@@QEBAPEADXZ  0000000140037d40 f i Log.obj
 0001:00036d60       ?Lock@Mutex@@QEAAXXZ       0000000140037d60 f i Log.obj
 0001:00036d90       ?Realloc@HeapAllocator@@UEAAPEAXPEAX_K@Z 0000000140037d90 f i Log.obj
 0001:00036dd0       ?Unlock@Mutex@@QEAAXXZ     0000000140037dd0 f i Log.obj
 0001:00036e00       ?empty@ByteSlice@@QEBA_NXZ 0000000140037e00 f i Log.obj
 0001:00036e40       ?SerializeStruct@@YA?AUByteSlice@@PEBUStructInfo@@PEBXPEBD@Z 0000000140037e40 f   SettingsUtil.obj
 0001:00036f50       ?DeserializeStruct@@YAPEAXPEBUStructInfo@@PEBDPEAX@Z 0000000140037f50 f   SettingsUtil.obj
 0001:00036ff0       ?FreeStruct@@YAXPEBUStructInfo@@PEAX@Z 0000000140037ff0 f   SettingsUtil.obj
 0001:00037950       ?IsCompactable@@YA_NPEBUStructInfo@@@Z 0000000140038950 f   SettingsUtil.obj
 0001:00039dc0       ??$AllocArray@E@@YAPEAE_K@Z 000000014003adc0 f i SettingsUtil.obj
 0001:00039df0       ??0?$Vec@H@@QEAA@_KPEAUAllocator@@@Z 000000014003adf0 f i SettingsUtil.obj
 0001:00039eb0       ??0?$Vec@PEAD@@QEAA@_KPEAUAllocator@@@Z 000000014003aeb0 f i SettingsUtil.obj
 0001:00039f70       ??0?$Vec@PEAX@@QEAA@_KPEAUAllocator@@@Z 000000014003af70 f i SettingsUtil.obj
 0001:0003a030       ??0AutoFree@@QEAA@XZ       000000014003b030 f i SettingsUtil.obj
 0001:0003a050       ??1?$Vec@H@@QEAA@XZ        000000014003b050 f i SettingsUtil.obj
 0001:0003a070       ??1?$Vec@PEAD@@QEAA@XZ     000000014003b070 f i SettingsUtil.obj
 0001:0003a090       ??1?$Vec@PEAX@@QEAA@XZ     000000014003b090 f i SettingsUtil.obj
 0001:0003a0b0       ??_G?$Vec@H@@QEAAPEAXI@Z   000000014003b0b0 f i SettingsUtil.obj
 0001:0003a100       ??_G?$Vec@PEAD@@QEAAPEAXI@Z 000000014003b100 f i SettingsUtil.obj
 0001:0003a150       ??_G?$Vec@PEAX@@QEAAPEAXI@Z 000000014003b150 f i SettingsUtil.obj
 0001:0003a1a0       ??_GSquareTreeNode@@QEAAPEAXI@Z 000000014003b1a0 f i SettingsUtil.obj
 0001:0003a1f0       ?Append@?$Vec@PEAD@@QEAA_NAEBQEAD@Z 000000014003b1f0 f i SettingsUtil.obj
 0001:0003a230       ?Append@?$Vec@PEAX@@QEAA_NAEBQEAX@Z 000000014003b230 f i SettingsUtil.obj
 0001:0003a270       ?AppendBlanks@?$Vec@H@@QEAAPEAH_K@Z 000000014003b270 f i SettingsUtil.obj
 0001:0003a2b0       ?EnsureCap@?$Vec@H@@IEAA_N_K@Z 000000014003b2b0 f i SettingsUtil.obj
 0001:0003a300       ?EnsureCap@?$Vec@PEAD@@IEAA_N_K@Z 000000014003b300 f i SettingsUtil.obj
 0001:0003a350       ?EnsureCap@?$Vec@PEAX@@IEAA_N_K@Z 000000014003b350 f i SettingsUtil.obj
 0001:0003a3a0       ?EnsureCapSlow@?$Vec@H@@IEAA_N_K@Z 000000014003b3a0 f i SettingsUtil.obj
 0001:0003a5b0       ?EnsureCapSlow@?$Vec@PEAD@@IEAA_N_K@Z 000000014003b5b0 f i SettingsUtil.obj
 0001:0003a7c0       ?EnsureCapSlow@?$Vec@PEAX@@IEAA_N_K@Z 000000014003b7c0 f i SettingsUtil.obj
 0001:0003a9d0       ?FreeEls@?$Vec@H@@IEAAXXZ  000000014003b9d0 f i SettingsUtil.obj
 0001:0003aa30       ?FreeEls@?$Vec@PEAD@@IEAAXXZ 000000014003ba30 f i SettingsUtil.obj
 0001:0003aa90       ?FreeEls@?$Vec@PEAX@@IEAAXXZ 000000014003ba90 f i SettingsUtil.obj
 0001:0003aaf0       ?FreeMembers@?$Vec@PEAD@@QEAAXXZ 000000014003baf0 f i SettingsUtil.obj
 0001:0003ab70       ?InsertAt@?$Vec@PEAD@@QEAA_N_KAEBQEAD@Z 000000014003bb70 f i SettingsUtil.obj
 0001:0003abe0       ?InsertAt@?$Vec@PEAX@@QEAA_N_KAEBQEAX@Z 000000014003bbe0 f i SettingsUtil.obj
 0001:0003ac50       ?MakeSpaceAt@?$Vec@H@@IEAAPEAH_K0@Z 000000014003bc50 f i SettingsUtil.obj
 0001:0003ad90       ?MakeSpaceAt@?$Vec@PEAD@@IEAAPEAPEAD_K0@Z 000000014003bd90 f i SettingsUtil.obj
 0001:0003aed0       ?MakeSpaceAt@?$Vec@PEAX@@IEAAPEAPEAX_K0@Z 000000014003bed0 f i SettingsUtil.obj
 0001:0003b010       ?RemoveAt@?$Vec@UDataItem@SquareTreeNode@@@@QEAAX_K0@Z 000000014003c010 f i SettingsUtil.obj
 0001:0003b120       ?Reset@?$Vec@H@@QEAAXXZ    000000014003c120 f i SettingsUtil.obj
 0001:0003b1a0       ?Reset@?$Vec@PEAD@@QEAAXXZ 000000014003c1a0 f i SettingsUtil.obj
 0001:0003b220       ?Reset@?$Vec@PEAX@@QEAAXXZ 000000014003c220 f i SettingsUtil.obj
 0001:0003b2a0       ?at@?$Vec@H@@QEBAAEAH_K@Z  000000014003c2a0 f i SettingsUtil.obj
 0001:0003b310       ?at@?$Vec@PEAD@@QEBAAEAPEAD_K@Z 000000014003c310 f i SettingsUtil.obj
 0001:0003b380       ?at@?$Vec@PEAX@@QEBAAEAPEAX_K@Z 000000014003c380 f i SettingsUtil.obj
 0001:0003b3f0       ?at@?$Vec@UDataItem@SquareTreeNode@@@@QEBAAEAUDataItem@SquareTreeNode@@_K@Z 000000014003c3f0 f i SettingsUtil.obj
 0001:0003b460       ?size@?$Vec@H@@QEBA_KXZ    000000014003c460 f i SettingsUtil.obj
 0001:0003b480       ?size@?$Vec@PEAD@@QEBA_KXZ 000000014003c480 f i SettingsUtil.obj
 0001:0003b4a0       ?size@?$Vec@PEAX@@QEBA_KXZ 000000014003c4a0 f i SettingsUtil.obj
 0001:0003b4c0       ?size@?$Vec@UDataItem@SquareTreeNode@@@@QEBA_KXZ 000000014003c4c0 f i SettingsUtil.obj
 0001:0003b4e0       ??1SquareTreeNode@@QEAA@XZ 000000014003c4e0 f   SquareTreeParser.obj
 0001:0003b590       ?GetValue@SquareTreeNode@@QEBAPEBDPEBDPEA_K@Z 000000014003c590 f   SquareTreeParser.obj
 0001:0003b670       ?GetChild@SquareTreeNode@@QEBAPEAU1@PEBDPEA_K@Z 000000014003c670 f   SquareTreeParser.obj
 0001:0003b750       ?ParseSquareTree@@YAPEAUSquareTreeNode@@PEBD@Z 000000014003c750 f   SquareTreeParser.obj
 0001:0003c1b0       ??0?$Vec@UDataItem@SquareTreeNode@@@@QEAA@_KPEAUAllocator@@@Z 000000014003d1b0 f i SquareTreeParser.obj
 0001:0003c2a0       ??0DataItem@SquareTreeNode@@QEAA@PEBD0@Z 000000014003d2a0 f i SquareTreeParser.obj
 0001:0003c320       ??0DataItem@SquareTreeNode@@QEAA@PEBDPEAU1@@Z 000000014003d320 f i SquareTreeParser.obj
 0001:0003c3a0       ??0DataItem@SquareTreeNode@@QEAA@XZ 000000014003d3a0 f i SquareTreeParser.obj
 0001:0003c3e0       ??0SquareTreeNode@@QEAA@XZ 000000014003d3e0 f i SquareTreeParser.obj
 0001:0003c420       ??1?$Vec@UDataItem@SquareTreeNode@@@@QEAA@XZ 000000014003d420 f i SquareTreeParser.obj
 0001:0003c440       ?Append@?$Vec@UDataItem@SquareTreeNode@@@@QEAA_NAEBUDataItem@SquareTreeNode@@@Z 000000014003d440 f i SquareTreeParser.obj
 0001:0003c480       ?At@?$Vec@UDataItem@SquareTreeNode@@@@QEBAAEAUDataItem@SquareTreeNode@@H@Z 000000014003d480 f i SquareTreeParser.obj
 0001:0003c520       ?EnsureCap@?$Vec@UDataItem@SquareTreeNode@@@@IEAA_N_K@Z 000000014003d520 f i SquareTreeParser.obj
 0001:0003c570       ?EnsureCapSlow@?$Vec@UDataItem@SquareTreeNode@@@@IEAA_N_K@Z 000000014003d570 f i SquareTreeParser.obj
 0001:0003c770       ?FreeEls@?$Vec@UDataItem@SquareTreeNode@@@@IEAAXXZ 000000014003d770 f i SquareTreeParser.obj
 0001:0003c7d0       ?InsertAt@?$Vec@UDataItem@SquareTreeNode@@@@QEAA_N_KAEBUDataItem@SquareTreeNode@@@Z 000000014003d7d0 f i SquareTreeParser.obj
 0001:0003c850       ?MakeSpaceAt@?$Vec@UDataItem@SquareTreeNode@@@@IEAAPEAUDataItem@SquareTreeNode@@_K0@Z 000000014003d850 f i SquareTreeParser.obj
 0001:0003c990       ?Reset@?$Vec@UDataItem@SquareTreeNode@@@@QEAAXXZ 000000014003d990 f i SquareTreeParser.obj
 0001:0003ca10       ?Size@?$Vec@UDataItem@SquareTreeNode@@@@QEBAHXZ 000000014003da10 f i SquareTreeParser.obj
 0001:0003ca30       ?Format@fmt@@YAPEADPEBDAEBUArg@1@11111@Z 000000014003da30 f   StrFormat.obj
 0001:0003cc60       ?FormatTemp@fmt@@YAPEADPEBDUArg@1@@Z 000000014003dc60 f   StrFormat.obj
 0001:0003ccd0       ?FormatTemp@fmt@@YAPEADPEBDUArg@1@1@Z 000000014003dcd0 f   StrFormat.obj
 0001:0003cd50       ?FormatTemp@fmt@@YAPEADPEBDUArg@1@11@Z 000000014003dd50 f   StrFormat.obj
 0001:0003cdd0       ?Eval@Fmt@fmt@@QEAA_NPEAPEBUArg@2@H@Z 000000014003ddd0 f   StrFormat.obj
 0001:0003dc30       ?FormatTemp@fmt@@YAPEADPEBDPEAPEBUArg@1@H@Z 000000014003ec30 f   StrFormat.obj
 0001:0003dda0       ?FormatTemp@fmt@@YAPEADPEBDAEBUArg@1@11111@Z 000000014003eda0 f   StrFormat.obj
 0001:0003e3f0       ??$__builtin_array_init_helper@UInst@fmt@@@@YAXPEAUInst@fmt@@_K@Z 000000014003f3f0 f i StrFormat.obj
 0001:0003e4e0       ??0Fmt@fmt@@QEAA@XZ        000000014003f4e0 f i StrFormat.obj
 0001:0003e5d0       ??1Fmt@fmt@@QEAA@XZ        000000014003f5d0 f i StrFormat.obj
 0001:0003e600       ??0StrQueue@@QEAA@XZ       000000014003f600 f   StrQueue.obj
 0001:0003e680       ??1StrQueue@@QEAA@XZ       000000014003f680 f   StrQueue.obj
 0001:0003e6d0       ?Lock@StrQueue@@QEAAXXZ    000000014003f6d0 f   StrQueue.obj
 0001:0003e700       ?Unlock@StrQueue@@QEAAXXZ  000000014003f700 f   StrQueue.obj
 0001:0003e730       ?Size@StrQueue@@QEAAHXZ    000000014003f730 f   StrQueue.obj
 0001:0003e770       ?Append@StrQueue@@QEAAPEADPEBDH@Z 000000014003f770 f   StrQueue.obj
 0001:0003e7e0       ?PopFront@StrQueue@@QEAAPEADXZ 000000014003f7e0 f   StrQueue.obj
 0001:0003e880       ?IsSentinel@StrQueue@@QEAA_NPEAD@Z 000000014003f880 f   StrQueue.obj
 0001:0003e8c0       ?MarkFinished@StrQueue@@QEAAXXZ 000000014003f8c0 f   StrQueue.obj
 0001:0003e930       ?IsFinished@StrQueue@@QEAA_NXZ 000000014003f930 f   StrQueue.obj
 0001:0003e970       ?Access@StrQueue@@QEAA_NAEBU?$Func1@PEAUStrQueue@@@@@Z 000000014003f970 f   StrQueue.obj
 0001:0003eb00       ?Call@?$Func1@PEAUStrQueue@@@@QEBAXPEAUStrQueue@@@Z 000000014003fb00 f i StrQueue.obj
 0001:0003eb90       ?isLegalUTF8Sequence@@YA_NPEBE0@Z 000000014003fb90 f   StrUtil.obj
 0001:0003ebe0       ?isLegalUTF8String@@YA_NPEAPEBEPEBE@Z 000000014003fbe0 f   StrUtil.obj
 0001:0003ec80       ?utf8StrLen@@YAHPEBE@Z     000000014003fc80 f   StrUtil.obj
 0001:0003ed00       ?utf8RuneLen@@YAHPEBE@Z    000000014003fd00 f   StrUtil.obj
 0001:0003ed30       ??0StrSpan@@QEAA@PEBD@Z    000000014003fd30 f   StrUtil.obj
 0001:0003ed80       ??0StrSpan@@QEAA@PEBDH@Z   000000014003fd80 f   StrUtil.obj
 0001:0003edf0       ?IsEqual@@YA_NAEBUByteSlice@@0@Z 000000014003fdf0 f   StrUtil.obj
 0001:0003eeb0       ?Len@str@@YA_KPEB_W@Z      000000014003feb0 f   StrUtil.obj
 0001:0003eef0       ?Len@str@@YA_KPEBD@Z       000000014003fef0 f   StrUtil.obj
 0001:0003ef30       ?Leni@str@@YAHPEB_W@Z      000000014003ff30 f   StrUtil.obj
 0001:0003ef70       ?Leni@str@@YAHPEBD@Z       000000014003ff70 f   StrUtil.obj
 0001:0003efb0       ?Free@str@@YAXPEBD@Z       000000014003ffb0 f   StrUtil.obj
 0001:0003efd0       ?Free@str@@YAXPEBE@Z       000000014003ffd0 f   StrUtil.obj
 0001:0003eff0       ?Free@str@@YAXAEBUStrSpan@@@Z 000000014003fff0 f   StrUtil.obj
 0001:0003f020       ?Free@str@@YAXPEB_W@Z      0000000140040020 f   StrUtil.obj
 0001:0003f040       ?FreePtr@str@@YAXPEAPEBD@Z 0000000140040040 f   StrUtil.obj
 0001:0003f070       ?FreePtr@str@@YAXPEAPEAD@Z 0000000140040070 f   StrUtil.obj
 0001:0003f0a0       ?FreePtr@str@@YAXPEAPEB_W@Z 00000001400400a0 f   StrUtil.obj
 0001:0003f0d0       ?FreePtr@str@@YAXPEAPEA_W@Z 00000001400400d0 f   StrUtil.obj
 0001:0003f100       ?Dup@str@@YAPEADPEAUAllocator@@PEBD_K@Z 0000000140040100 f   StrUtil.obj
 0001:0003f160       ?Dup@str@@YAPEADPEBD_K@Z   0000000140040160 f   StrUtil.obj
 0001:0003f190       ?Dup@str@@YAPEADAEBUByteSlice@@@Z 0000000140040190 f   StrUtil.obj
 0001:0003f1e0       ?ReplacePtr@str@@YAXPEAPEBDPEBD@Z 00000001400401e0 f   StrUtil.obj
 0001:0003f230       ?ReplacePtr@str@@YAXPEAPEADPEBD@Z 0000000140040230 f   StrUtil.obj
 0001:0003f260       ?ReplaceWithCopy@str@@YAXPEAPEBDPEBD@Z 0000000140040260 f   StrUtil.obj
 0001:0003f2b0       ?ReplaceWithCopy@str@@YAXPEAPEBDAEBUByteSlice@@@Z 00000001400402b0 f   StrUtil.obj
 0001:0003f320       ?ReplaceWithCopy@str@@YAXPEAPEADPEBD@Z 0000000140040320 f   StrUtil.obj
 0001:0003f370       ?Join@str@@YAPEADPEAUAllocator@@PEBD11@Z 0000000140040370 f   StrUtil.obj
 0001:0003f490       ?Join@str@@YAPEADPEAUAllocator@@PEBD1111@Z 0000000140040490 f   StrUtil.obj
 0001:0003f640       ?Join@str@@YAPEADPEBD00@Z  0000000140040640 f   StrUtil.obj
 0001:0003f680       ?Eq@str@@YA_NPEBD0@Z       0000000140040680 f   StrUtil.obj
 0001:0003f6f0       ?Eq@str@@YA_NAEBUByteSlice@@0@Z 00000001400406f0 f   StrUtil.obj
 0001:0003f790       ?EqI@str@@YA_NPEBD0@Z      0000000140040790 f   StrUtil.obj
 0001:0003f800       ?EqIS@str@@YA_NPEBD0@Z     0000000140040800 f   StrUtil.obj
 0001:0003f940       ?EqN@str@@YA_NPEBD0_K@Z    0000000140040940 f   StrUtil.obj
 0001:0003f9c0       ?EqNI@str@@YA_NPEBD0_K@Z   00000001400409c0 f   StrUtil.obj
 0001:0003fa40       ?IsEmpty@str@@YA_NPEBD@Z   0000000140040a40 f   StrUtil.obj
 0001:0003fa80       ?StartsWith@str@@YA_NPEBD0@Z 0000000140040a80 f   StrUtil.obj
 0001:0003fac0       ?StartsWith@str@@YA_NPEBEPEBD@Z 0000000140040ac0 f   StrUtil.obj
 0001:0003faf0       ?StartsWithI@str@@YA_NPEBD0@Z 0000000140040af0 f   StrUtil.obj
 0001:0003fb70       ?EndsWith@str@@YA_NPEBD0@Z 0000000140040b70 f   StrUtil.obj
 0001:0003fbf0       ?EndsWithI@str@@YA_NPEBD0@Z 0000000140040bf0 f   StrUtil.obj
 0001:0003fc70       ?EqNIx@str@@YA_NPEBD_K0@Z  0000000140040c70 f   StrUtil.obj
 0001:0003fcd0       ?ToLowerInPlace@str@@YAPEADPEAD@Z 0000000140040cd0 f   StrUtil.obj
 0001:0003fd30       ?ToLower@str@@YAPEADPEBD@Z 0000000140040d30 f   StrUtil.obj
 0001:0003fd70       ?ToUpperInPlace@str@@YAPEADPEAD@Z 0000000140040d70 f   StrUtil.obj
 0001:0003fdd0       ?Utf8Encode@str@@YAXAEAPEADH@Z 0000000140040dd0 f   StrUtil.obj
 0001:0003ff80       ?IsDigit@str@@YA_ND@Z      0000000140040f80 f   StrUtil.obj
 0001:0003ffc0       ?IsWs@str@@YA_ND@Z         0000000140040fc0 f   StrUtil.obj
 0001:00040000       ?IsAlNum@str@@YA_ND@Z      0000000140041000 f   StrUtil.obj
 0001:00040060       ?FindChar@str@@YAPEBDPEBDD@Z 0000000140041060 f   StrUtil.obj
 0001:00040090       ?FindChar@str@@YAPEADPEADD@Z 0000000140041090 f   StrUtil.obj
 0001:000400c0       ?FindCharLast@str@@YAPEBDPEBDD@Z 00000001400410c0 f   StrUtil.obj
 0001:000400f0       ?FindCharLast@str@@YAPEADPEADD@Z 00000001400410f0 f   StrUtil.obj
 0001:00040120       ?Find@str@@YAPEBDPEBD0@Z   0000000140041120 f   StrUtil.obj
 0001:00040150       ?FindI@str@@YAPEBDPEBD0@Z  0000000140041150 f   StrUtil.obj
 0001:00040200       ?BufFind@str@@YAHPEBDH0@Z  0000000140041200 f   StrUtil.obj
 0001:000402c0       ?Contains@str@@YA_NPEBD0@Z 00000001400412c0 f   StrUtil.obj
 0001:00040320       ?ContainsI@str@@YA_NPEBD0@Z 0000000140041320 f   StrUtil.obj
 0001:00040380       ?BufFmtV@str@@YA_NPEAD_KPEBD0@Z 0000000140041380 f   StrUtil.obj
 0001:00040400       ?BufFmt@str@@YA_NPEAD_KPEBDZZ 0000000140041400 f   StrUtil.obj
 0001:00040460       ?FmtVWithAllocator@str@@YAPEADPEAUAllocator@@PEBDPEAD@Z 0000000140041460 f   StrUtil.obj
 0001:000405d0       ?FmtV@str@@YAPEADPEBDPEAD@Z 00000001400415d0 f   StrUtil.obj
 0001:00040600       ?Format@str@@YAPEADPEBDZZ  0000000140041600 f   StrUtil.obj
 0001:00040650       ?TrimWSInPlace@str@@YA_KPEADW4TrimOpt@1@@Z 0000000140041650 f   StrUtil.obj
 0001:00040790       ?TrimWsEnd@str@@YAXPEADAEAPEAD@Z 0000000140041790 f   StrUtil.obj
 0001:00040800       ?TransCharsInPlace@str@@YA_KPEADPEBD1@Z 0000000140041800 f   StrUtil.obj
 0001:000408a0       ?NormalizeWSInPlace@str@@YA_KPEAD@Z 00000001400418a0 f   StrUtil.obj
 0001:00040990       ?NormalizeNewlinesInPlace@str@@YA_KPEAD0@Z 0000000140041990 f   StrUtil.obj
 0001:00040af0       ?NormalizeNewlinesInPlace@str@@YA_KPEAD@Z 0000000140041af0 f   StrUtil.obj
 0001:00040b30       ?RemoveCharsInPlace@str@@YA_KPEADPEBD@Z 0000000140041b30 f   StrUtil.obj
 0001:00040be0       ?BufSet@str@@YAHPEADHPEBD@Z 0000000140041be0 f   StrUtil.obj
 0001:00040cd0       ?BufAppend@str@@YAHPEADHPEBD@Z 0000000140041cd0 f   StrUtil.obj
 0001:00040dd0       ?MemToHex@str@@YAPEADPEBE_K@Z 0000000140041dd0 f   StrUtil.obj
 0001:00040e80       ?HexToMem@str@@YA_NPEBDPEAE_K@Z 0000000140041e80 f   StrUtil.obj
 0001:00040f20       ?Parse@str@@YAPEBDPEBD0ZZ  0000000140041f20 f   StrUtil.obj
 0001:00040f90       ?Parse@str@@YAPEBDPEBD_K0ZZ 0000000140041f90 f   StrUtil.obj
 0001:000410e0       ?CmpNatural@str@@YAHPEBD0@Z 00000001400420e0 f   StrUtil.obj
 0001:00041420       ?FormatFloatWithThousandSepTemp@str@@YAPEADNK@Z 0000000140042420 f   StrUtil.obj
 0001:00041740       ?FormatNumWithThousandSepTemp@str@@YAPEAD_JK@Z 0000000140042740 f   StrUtil.obj
 0001:00041960       ?FormatSizeShortTemp@str@@YAPEAD_JQEAPEBD@Z 0000000140042960 f   StrUtil.obj
 0001:00041b40       ?FormatFileSizeTemp@str@@YAPEAD_J@Z 0000000140042b40 f   StrUtil.obj
 0001:00041d00       ?FormatRomanNumeralTemp@str@@YAPEADH@Z 0000000140042d00 f   StrUtil.obj
 0001:00041e10       ?IsEmptyOrWhiteSpace@str@@YA_NPEBD@Z 0000000140042e10 f   StrUtil.obj
 0001:00041e80       ?Skip@str@@YA_NAEAPEBDPEBD@Z 0000000140042e80 f   StrUtil.obj
 0001:00041ee0       ?SkipChar@str@@YAPEBDPEBDD@Z 0000000140042ee0 f   StrUtil.obj
 0001:00041f30       ?Dup@str@@YAPEA_WPEAUAllocator@@PEB_W_K@Z 0000000140042f30 f   StrUtil.obj
 0001:00041f90       ?Dup@str@@YAPEA_WPEB_W_K@Z 0000000140042f90 f   StrUtil.obj
 0001:00041fc0       ?Join@str@@YAPEA_WPEB_W00@Z 0000000140042fc0 f   StrUtil.obj
 0001:00042000       ?Join@str@@YAPEA_WPEAUAllocator@@PEB_W11@Z 0000000140043000 f   StrUtil.obj
 0001:00042120       ?Eq@str@@YA_NPEB_W0@Z      0000000140043120 f   StrUtil.obj
 0001:00042190       ?EqI@str@@YA_NPEB_W0@Z     0000000140043190 f   StrUtil.obj
 0001:00042200       ?EqN@str@@YA_NPEB_W0_K@Z   0000000140043200 f   StrUtil.obj
 0001:00042280       ?IsEmpty@str@@YA_NPEB_W@Z  0000000140043280 f   StrUtil.obj
 0001:000422c0       ?StartsWith@str@@YA_NPEB_W0@Z 00000001400432c0 f   StrUtil.obj
 0001:00042300       ?StartsWithI@str@@YA_NPEB_W0@Z 0000000140043300 f   StrUtil.obj
 0001:00042380       ?EndsWith@str@@YA_NPEB_W0@Z 0000000140043380 f   StrUtil.obj
 0001:00042410       ?EndsWithI@str@@YA_NPEB_W0@Z 0000000140043410 f   StrUtil.obj
 0001:000424a0       ?ToLower@str@@YAPEA_WPEB_W@Z 00000001400434a0 f   StrUtil.obj
 0001:000424e0       ?ToLowerInPlace@str@@YAPEA_WPEA_W@Z 00000001400434e0 f   StrUtil.obj
 0001:00042540       ?Parse@str@@YAPEB_WPEB_W0ZZ 0000000140043540 f   StrUtil.obj
 0001:00042bd0       ?BufSet@str@@YAHPEA_WHPEB_W@Z 0000000140043bd0 f   StrUtil.obj
 0001:00042ca0       ?BufSet@str@@YAHPEA_WHPEBD@Z 0000000140043ca0 f   StrUtil.obj
 0001:00042ce0       ?NormalizeWSInPlace@str@@YA_KPEA_W@Z 0000000140043ce0 f   StrUtil.obj
 0001:00042df0       ?RemoveCharsInPlace@str@@YA_KPEA_WPEB_W@Z 0000000140043df0 f   StrUtil.obj
 0001:00042ea0       ?FindChar@str@@YAPEB_WPEB_W_W@Z 0000000140043ea0 f   StrUtil.obj
 0001:00042ed0       ?FindChar@str@@YAPEA_WPEA_W_W@Z 0000000140043ed0 f   StrUtil.obj
 0001:00042f00       ?Find@str@@YAPEB_WPEB_W0@Z 0000000140043f00 f   StrUtil.obj
 0001:00042f30       ?IsWs@str@@YA_N_W@Z        0000000140043f30 f   StrUtil.obj
 0001:00042f70       ?IsDigit@str@@YA_N_W@Z     0000000140043f70 f   StrUtil.obj
 0001:00042fb0       ?IsNonCharacter@str@@YA_N_W@Z 0000000140043fb0 f   StrUtil.obj
 0001:00043010       ?TransCharsInPlace@str@@YA_KPEA_WPEB_W1@Z 0000000140044010 f   StrUtil.obj
 0001:000430c0       ?Replace@str@@YAPEA_WPEB_W00@Z 00000001400440c0 f   StrUtil.obj
 0001:00043230       ?ToWCHAR@str@@YAPEA_WPEBD@Z 0000000140044230 f   StrUtil.obj
 0001:00043260       ?DecodeInPlace@url@@YAXPEAD@Z 0000000140044260 f   StrUtil.obj
 0001:00043310       ?IsAbsolute@url@@YA_NPEBD@Z 0000000140044310 f   StrUtil.obj
 0001:00043380       ?GetFullPathTemp@url@@YAPEADPEBD@Z 0000000140044380 f   StrUtil.obj
 0001:000433e0       ?GetFileNameTemp@url@@YAPEADPEBD@Z 00000001400443e0 f   StrUtil.obj
 0001:000434c0       ?Next@seqstrings@@YAXAEAPEBD@Z 00000001400444c0 f   StrUtil.obj
 0001:000434f0       ?Next@seqstrings@@YAXAEAPEBDPEAH@Z 00000001400444f0 f   StrUtil.obj
 0001:000435c0       ?StrToIdx@seqstrings@@YAHPEBD0@Z 00000001400445c0 f   StrUtil.obj
 0001:00043640       ?StrToIdxIS@seqstrings@@YAHPEBD0@Z 0000000140044640 f   StrUtil.obj
 0001:000436d0       ?IdxToStr@seqstrings@@YAPEBDPEBDH@Z 00000001400446d0 f   StrUtil.obj
 0001:00043750       ??0Str@str@@QEAA@_KPEAUAllocator@@@Z 0000000140044750 f   StrUtil.obj
 0001:000437e0       ??0Str@str@@QEAA@AEBU01@@Z 00000001400447e0 f   StrUtil.obj
 0001:000438b0       ??4Str@str@@QEAAAEAU01@AEBU01@@Z 00000001400448b0 f   StrUtil.obj
 0001:00043950       ??0Str@str@@QEAA@PEBD@Z    0000000140044950 f   StrUtil.obj
 0001:000439d0       ??1Str@str@@QEAA@XZ        00000001400449d0 f   StrUtil.obj
 0001:000439f0       ?Reset@Str@str@@QEAAXXZ    00000001400449f0 f   StrUtil.obj
 0001:00043a80       ?at@Str@str@@QEBAAEAD_K@Z  0000000140044a80 f   StrUtil.obj
 0001:00043ae0       ?at@Str@str@@QEBAAEADH@Z   0000000140044ae0 f   StrUtil.obj
 0001:00043b30       ??AStr@str@@QEBAAEADJ@Z    0000000140044b30 f   StrUtil.obj
 0001:00043b80       ??AStr@str@@QEBAAEADH@Z    0000000140044b80 f   StrUtil.obj
 0001:00043bd0       ?at@Str@str@@QEBAAEADI@Z   0000000140044bd0 f   StrUtil.obj
 0001:00043c00       ??AStr@str@@QEBAAEADI@Z    0000000140044c00 f   StrUtil.obj
 0001:00043c30       ?size@Str@str@@QEBA_KXZ    0000000140044c30 f   StrUtil.obj
 0001:00043c50       ?Size@Str@str@@QEBAHXZ     0000000140044c50 f   StrUtil.obj
 0001:00043c70       ?InsertAt@Str@str@@QEAA_N_KD@Z 0000000140044c70 f   StrUtil.obj
 0001:00043cd0       ?AppendChar@Str@str@@QEAA_ND@Z 0000000140044cd0 f   StrUtil.obj
 0001:00043d10       ?Append@Str@str@@QEAA_NPEBD_K@Z 0000000140044d10 f   StrUtil.obj
 0001:00043da0       ?Append@Str@str@@QEAA_NAEBUStrSpan@@@Z 0000000140044da0 f   StrUtil.obj
 0001:00043df0       ?Append@Str@str@@QEAA_NAEBU12@@Z 0000000140044df0 f   StrUtil.obj
 0001:00043e40       ?RemoveAt@Str@str@@QEAAD_K0@Z 0000000140044e40 f   StrUtil.obj
 0001:00043f30       ?RemoveLast@Str@str@@QEAADXZ 0000000140044f30 f   StrUtil.obj
 0001:00043f80       ?Last@Str@str@@QEBAAEADXZ  0000000140044f80 f   StrUtil.obj
 0001:00043fe0       ?StealData@Str@str@@QEAAPEADPEAUAllocator@@@Z 0000000140044fe0 f   StrUtil.obj
 0001:00044080       ?LendData@Str@str@@QEBAPEADXZ 0000000140045080 f   StrUtil.obj
 0001:000440a0       ?Contains@Str@str@@QEAA_NPEBD_K@Z 00000001400450a0 f   StrUtil.obj
 0001:000441a0       ?IsEmpty@Str@str@@QEBA_NXZ 00000001400451a0 f   StrUtil.obj
 0001:000441e0       ?AsByteSlice@Str@str@@QEBA?AUByteSlice@@XZ 00000001400451e0 f   StrUtil.obj
 0001:00044230       ?StealAsByteSlice@Str@str@@QEAA?AUByteSlice@@XZ 0000000140045230 f   StrUtil.obj
 0001:00044290       ?Append@Str@str@@QEAA_NPEBE_K@Z 0000000140045290 f   StrUtil.obj
 0001:000442d0       ?AppendSlice@Str@str@@QEAA_NAEBUByteSlice@@@Z 00000001400452d0 f   StrUtil.obj
 0001:00044330       ?AppendFmt@Str@str@@QEAAXPEBDZZ 0000000140045330 f   StrUtil.obj
 0001:000443b0       ?Set@Str@str@@QEAAXPEBD@Z  00000001400453b0 f   StrUtil.obj
 0001:000443f0       ?Get@Str@str@@QEBAPEADXZ   00000001400453f0 f   StrUtil.obj
 0001:00044410       ?CStr@Str@str@@QEBAPEADXZ  0000000140045410 f   StrUtil.obj
 0001:00044430       ?LastChar@Str@str@@QEBADXZ 0000000140045430 f   StrUtil.obj
 0001:00044470       ??0WStr@str@@QEAA@_KPEAUAllocator@@@Z 0000000140045470 f   StrUtil.obj
 0001:000444f0       ??0WStr@str@@QEAA@AEBU01@@Z 00000001400454f0 f   StrUtil.obj
 0001:000445b0       ??0WStr@str@@QEAA@PEB_W@Z  00000001400455b0 f   StrUtil.obj
 0001:00044620       ??4WStr@str@@QEAAAEAU01@AEBU01@@Z 0000000140045620 f   StrUtil.obj
 0001:000446c0       ??1WStr@str@@QEAA@XZ       00000001400456c0 f   StrUtil.obj
 0001:000446e0       ?Reset@WStr@str@@QEAAXXZ   00000001400456e0 f   StrUtil.obj
 0001:00044770       ?at@WStr@str@@QEBAAEA_W_K@Z 0000000140045770 f   StrUtil.obj
 0001:000447d0       ?at@WStr@str@@QEBAAEA_WH@Z 00000001400457d0 f   StrUtil.obj
 0001:00044820       ??AWStr@str@@QEBAAEA_W_K@Z 0000000140045820 f   StrUtil.obj
 0001:00044850       ??AWStr@str@@QEBAAEA_WJ@Z  0000000140045850 f   StrUtil.obj
 0001:000448a0       ??AWStr@str@@QEBAAEA_WK@Z  00000001400458a0 f   StrUtil.obj
 0001:000448d0       ??AWStr@str@@QEBAAEA_WH@Z  00000001400458d0 f   StrUtil.obj
 0001:00044920       ?at@WStr@str@@QEBAAEA_WI@Z 0000000140045920 f   StrUtil.obj
 0001:00044950       ??AWStr@str@@QEBAAEA_WI@Z  0000000140045950 f   StrUtil.obj
 0001:00044980       ?size@WStr@str@@QEBA_KXZ   0000000140045980 f   StrUtil.obj
 0001:000449a0       ?isize@WStr@str@@QEBAHXZ   00000001400459a0 f   StrUtil.obj
 0001:000449c0       ?InsertAt@WStr@str@@QEAA_N_KAEB_W@Z 00000001400459c0 f   StrUtil.obj
 0001:00044a20       ?AppendChar@WStr@str@@QEAA_N_W@Z 0000000140045a20 f   StrUtil.obj
 0001:00044a60       ?Append@WStr@str@@QEAA_NPEB_W_K@Z 0000000140045a60 f   StrUtil.obj
 0001:00044af0       ?RemoveAt@WStr@str@@QEAA_W_K0@Z 0000000140045af0 f   StrUtil.obj
 0001:00044bf0       ?RemoveLast@WStr@str@@QEAA_WXZ 0000000140045bf0 f   StrUtil.obj
 0001:00044c40       ?Last@WStr@str@@QEBAAEA_WXZ 0000000140045c40 f   StrUtil.obj
 0001:00044ca0       ?StealData@WStr@str@@QEAAPEA_WXZ 0000000140045ca0 f   StrUtil.obj
 0001:00044d30       ?LendData@WStr@str@@QEBAPEA_WXZ 0000000140045d30 f   StrUtil.obj
 0001:00044d50       ?Find@WStr@str@@QEBAHAEB_W_K@Z 0000000140045d50 f   StrUtil.obj
 0001:00044dc0       ?Contains@WStr@str@@QEBA_NAEB_W@Z 0000000140045dc0 f   StrUtil.obj
 0001:00044e10       ?Remove@WStr@str@@QEAAHAEB_W@Z 0000000140045e10 f   StrUtil.obj
 0001:00044e70       ?IsEmpty@WStr@str@@QEBA_NXZ 0000000140045e70 f   StrUtil.obj
 0001:00044eb0       ?Set@WStr@str@@QEAAXPEB_W@Z 0000000140045eb0 f   StrUtil.obj
 0001:00044ef0       ?Get@WStr@str@@QEBAPEA_WXZ 0000000140045ef0 f   StrUtil.obj
 0001:00044f10       ?LastChar@WStr@str@@QEBA_WXZ 0000000140045f10 f   StrUtil.obj
 0001:00044f50       ?Replace@str@@YA_NAEAUWStr@1@PEB_W1@Z 0000000140045f50 f   StrUtil.obj
 0001:00044fe0       ?ParseInt@@YAHPEBD@Z       0000000140045fe0 f   StrUtil.obj
 0001:000450d0       ?IsValidProgramVersion@@YA_NPEBD@Z 00000001400460d0 f   StrUtil.obj
 0001:000451a0       ?CompareProgramVersion@@YAHPEBD0@Z 00000001400461a0 f   StrUtil.obj
 0001:00045430       ?IsEqual@@YA_NAEBUStrSpan@@0@Z 0000000140046430 f   StrUtil.obj
 0001:000487e0       ??$AllocArray@D@@YAPEAD_K@Z 00000001400497e0 f i StrUtil.obj
 0001:00048810       ??$max@I@std@@YAAEBIAEBI0@Z 0000000140049810 f i StrUtil.obj
 0001:00048870       ??0?$Span@D@@QEAA@XZ       0000000140049870 f i StrUtil.obj
 0001:000488a0       ??0Arg@fmt@@QEAA@PEBD@Z    00000001400498a0 f i StrUtil.obj
 0001:00048900       ??0Arg@fmt@@QEAA@_J@Z      0000000140049900 f i StrUtil.obj
 0001:00048960       ?CStr@StrSpan@@QEBAPEADXZ  0000000140049960 f i StrUtil.obj
 0001:00048980       ?Len@StrSpan@@QEBAHXZ      0000000140049980 f i StrUtil.obj
 0001:000489a0       ?Set@AutoFreeWStr@@QEAAXPEB_W@Z 00000001400499a0 f i StrUtil.obj
 0001:000489e0       ?strchr@@YAPEADQEADH@Z     00000001400499e0 f i StrUtil.obj
 0001:00048a10       ?strrchr@@YAPEADQEADH@Z    0000000140049a10 f i StrUtil.obj
 0001:00048a40       ?wcschr@@YAPEA_WPEA_W_W@Z  0000000140049a40 f i StrUtil.obj
 0001:00048a70       _vsprintf_s_l              0000000140049a70 f i StrUtil.obj
 0001:00048b00       sprintf_s                  0000000140049b00 f i StrUtil.obj
 0001:00048b70       vsnprintf                  0000000140049b70 f i StrUtil.obj
 0001:00048c10       ?StrLess@@YA_NPEBD0@Z      0000000140049c10 f   StrVec.obj
 0001:00048ca0       ?StrLessNoCase@@YA_NPEBD0@Z 0000000140049ca0 f   StrVec.obj
 0001:00048d30       ?StrLessNatural@@YA_NPEBD0@Z 0000000140049d30 f   StrVec.obj
 0001:00048d80       ?ToByteSlice@@YA?AUByteSlice@@PEBD@Z 0000000140049d80 f   StrVec.obj
 0001:00048dd0       ??0StrVec@@QEAA@H@Z        0000000140049dd0 f   StrVec.obj
 0001:00048e50       ??0StrVec@@QEAA@AEBU0@@Z   0000000140049e50 f   StrVec.obj
 0001:00048ed0       ??4StrVec@@QEAAAEAU0@AEBU0@@Z 0000000140049ed0 f   StrVec.obj
 0001:00048f30       ??1StrVec@@QEAA@XZ         0000000140049f30 f   StrVec.obj
 0001:00048f60       ?Reset@StrVec@@QEAAXPEAUStrVecPage@@@Z 0000000140049f60 f   StrVec.obj
 0001:00048ff0       ?Size@StrVec@@QEBAHXZ      0000000140049ff0 f   StrVec.obj
 0001:00049010       ?IsEmpty@StrVec@@QEBA_NXZ  000000014004a010 f   StrVec.obj
 0001:00049050       ?At@StrVec@@QEBAPEADH@Z    000000014004a050 f   StrVec.obj
 0001:000490f0       ?AtSpan@StrVec@@QEBA?AUStrSpan@@H@Z 000000014004a0f0 f   StrVec.obj
 0001:000491a0       ?AtDataRaw@StrVec@@QEBAPEAXH@Z 000000014004a1a0 f   StrVec.obj
 0001:00049270       ??AStrVec@@QEBAPEADH@Z     000000014004a270 f   StrVec.obj
 0001:000492c0       ?Append@StrVec@@QEAAPEADPEBDH@Z 000000014004a2c0 f   StrVec.obj
 0001:000493c0       ?SetAt@StrVec@@QEAAPEADHPEBDH@Z 000000014004a3c0 f   StrVec.obj
 0001:00049540       ?InsertAt@StrVec@@QEAAPEADHPEBDH@Z 000000014004a540 f   StrVec.obj
 0001:00049720       ?RemoveAt@StrVec@@QEAAPEADH@Z 000000014004a720 f   StrVec.obj
 0001:000497c0       ?RemoveAtFast@StrVec@@QEAAPEADH@Z 000000014004a7c0 f   StrVec.obj
 0001:00049860       ?Remove@StrVec@@QEAA_NPEBD@Z 000000014004a860 f   StrVec.obj
 0001:000498c0       ?Find@StrVec@@QEBAHAEBUStrSpan@@H@Z 000000014004a8c0 f   StrVec.obj
 0001:000499e0       ?FindI@StrVec@@QEBAHAEBUStrSpan@@H@Z 000000014004a9e0 f   StrVec.obj
 0001:00049b00       ?Contains@StrVec@@QEBA_NPEBDH@Z 000000014004ab00 f   StrVec.obj
 0001:00049b70       ??0iterator@StrVec@@QEAA@PEBU1@H@Z 000000014004ab70 f   StrVec.obj
 0001:00049c20       ??Diterator@StrVec@@QEBAPEADXZ 000000014004ac20 f   StrVec.obj
 0001:00049c90       ?Span@iterator@StrVec@@QEBA?AUStrSpan@@XZ 000000014004ac90 f   StrVec.obj
 0001:00049d10       ??Eiterator@StrVec@@QEAAAEAU01@XZ 000000014004ad10 f   StrVec.obj
 0001:00049d40       ??Eiterator@StrVec@@QEAA?AU01@H@Z 000000014004ad40 f   StrVec.obj
 0001:00049d90       ??Hiterator@StrVec@@QEAAAEAU01@H@Z 000000014004ad90 f   StrVec.obj
 0001:00049dc0       ??8@YA_NAEBUiterator@StrVec@@0@Z 000000014004adc0 f   StrVec.obj
 0001:00049e20       ??9@YA_NAEBUiterator@StrVec@@0@Z 000000014004ae20 f   StrVec.obj
 0001:00049e80       ?begin@StrVec@@QEBA?AUiterator@1@XZ 000000014004ae80 f   StrVec.obj
 0001:00049eb0       ?end@StrVec@@QEBA?AUiterator@1@XZ 000000014004aeb0 f   StrVec.obj
 0001:00049ef0       ?AppendIfNotExists@@YAHPEAUStrVec@@PEBDH@Z 000000014004aef0 f   StrVec.obj
 0001:00049f70       ?Sort@@YAXPEAUStrVec@@P6A_NPEBD1@Z@Z 000000014004af70 f   StrVec.obj
 0001:00049fd0       ?SortIndex@@YAXPEAUStrVec@@P6A_NPEBD1@Z@Z 000000014004afd0 f   StrVec.obj
 0001:0004a0a0       ?SortNoCase@@YAXPEAUStrVec@@@Z 000000014004b0a0 f   StrVec.obj
 0001:0004a0d0       ?SortNatural@@YAXPEAUStrVec@@@Z 000000014004b0d0 f   StrVec.obj
 0001:0004a100       ?Split@@YAHPEAUStrVec@@PEBD1_NH@Z 000000014004b100 f   StrVec.obj
 0001:0004a290       ?Join@@YAPEADPEAUStrVec@@PEBD@Z 000000014004b290 f   StrVec.obj
 0001:0004a330       ?JoinTemp@@YAPEADPEAUStrVec@@PEBD@Z 000000014004b330 f   StrVec.obj
 0001:0004a3d0       ?StrVecPageNext@@YAPEAUStrVecPage@@PEAU1@@Z 000000014004b3d0 f   StrVec.obj
 0001:0004a3f0       ?StrVecPageSize@@YAHPEAUStrVecPage@@@Z 000000014004b3f0 f   StrVec.obj
 0001:0004a410       ?At@StrVecPage@@QEBAPEADH@Z 000000014004b410 f   StrVec.obj
 0001:0004a450       ?AtSpan@StrVecPage@@QEBA?AUStrSpan@@H@Z 000000014004b450 f   StrVec.obj
 0001:0004a4b0       ?AtDataRaw@StrVecPage@@QEBAPEAXH@Z 000000014004b4b0 f   StrVec.obj
 0001:0004a4f0       ?RemoveAt@StrVecPage@@QEAAPEADH@Z 000000014004b4f0 f   StrVec.obj
 0001:0004a5f0       ?RemoveAtFast@StrVecPage@@QEAAPEADH@Z 000000014004b5f0 f   StrVec.obj
 0001:0004a6e0       ?AtHelper@StrVecPage@@QEBAPEADHPEAH@Z 000000014004b6e0 f   StrVec.obj
 0001:0004a7c0       ?BytesLeft@StrVecPage@@QEAAHXZ 000000014004b7c0 f   StrVec.obj
 0001:0004a860       ?Append@StrVecPage@@QEAAPEADPEBDH@Z 000000014004b860 f   StrVec.obj
 0001:0004a8a0       ?Append@StrVecPage@@QEAAPEADAEBUStrSpan@@@Z 000000014004b8a0 f   StrVec.obj
 0001:0004a900       ?SetAt@StrVecPage@@QEAAPEADHPEBDH@Z 000000014004b900 f   StrVec.obj
 0001:0004aa70       ?InsertAt@StrVecPage@@QEAAPEADHPEBDH@Z 000000014004ba70 f   StrVec.obj
 0001:0004c6a0       ??$<move>@AEAU?$pair@PEAUStrVecPage@@H@std@@@@YA$$QEAU?$pair@PEAUStrVecPage@@H@std@@AEAU01@@Z 000000014004d6a0 f i StrVec.obj
 0001:0004c6b0       ??$?0AEAPEAHAEAPEAH$0A@@?$pair@PEAHPEAH@std@@QEAA@AEAPEAH0@Z 000000014004d6b0 f i StrVec.obj
 0001:0004c700       ??$?0AEAPEAUStrVecPage@@AEAH$0A@@?$pair@PEAUStrVecPage@@H@std@@QEAA@AEAPEAUStrVecPage@@AEAH@Z 000000014004d700 f i StrVec.obj
 0001:0004c750       ??$?0AEAPEAUStrVecPage@@H$0A@@?$pair@PEAUStrVecPage@@H@std@@QEAA@AEAPEAUStrVecPage@@$$QEAH@Z 000000014004d750 f i StrVec.obj
 0001:0004c7a0       ??$?0AEAPEA_KAEAPEA_K$0A@@?$pair@PEA_KPEA_K@std@@QEAA@AEAPEA_K0@Z 000000014004d7a0 f i StrVec.obj
 0001:0004c890       ??$AllocArray@H@@YAPEAH_K@Z 000000014004d890 f i StrVec.obj
 0001:0004c8c0       ??$_Adl_verify_range@PEAHPEAH@std@@YAXAEBQEAH0@Z 000000014004d8c0 f i StrVec.obj
 0001:0004c8d0       ??$_Adl_verify_range@PEA_KPEA_K@std@@YAXAEBQEA_K0@Z 000000014004d8d0 f i StrVec.obj
 0001:0004c8e0       ??$_Copy_backward_memmove@PEAHPEAH@std@@YAPEAHPEAH00@Z 000000014004d8e0 f i StrVec.obj
 0001:0004c9b0       ??$_Copy_backward_memmove@PEA_KPEA_K@std@@YAPEA_KPEA_K00@Z 000000014004d9b0 f i StrVec.obj
 0001:0004ca80       ??$_Get_unwrapped@AEBQEAH@std@@YA?A_TAEBQEAH@Z 000000014004da80 f i StrVec.obj
 0001:0004caa0       ??$_Get_unwrapped@AEBQEA_K@std@@YA?A_TAEBQEA_K@Z 000000014004daa0 f i StrVec.obj
 0001:0004d3f0       ??$_Move_backward_unchecked@PEAHPEAH@std@@YAPEAHPEAH00@Z 000000014004e3f0 f i StrVec.obj
 0001:0004d490       ??$_Move_backward_unchecked@PEA_KPEA_K@std@@YAPEA_KPEA_K00@Z 000000014004e490 f i StrVec.obj
 0001:0004d530       ??$_Next_iter@PEAH@std@@YAPEAHPEAH@Z 000000014004e530 f i StrVec.obj
 0001:0004d550       ??$_Next_iter@PEA_K@std@@YAPEA_KPEA_K@Z 000000014004e550 f i StrVec.obj
 0001:0004e5d0       ??$_Prev_iter@PEAH@std@@YAPEAHPEAH@Z 000000014004f5d0 f i StrVec.obj
 0001:0004e5f0       ??$_Prev_iter@PEA_K@std@@YAPEA_KPEA_K@Z 000000014004f5f0 f i StrVec.obj
 0001:0004ebb0       ??$_To_address@PEAH@std@@YA?A_PAEBQEAH@Z 000000014004fbb0 f i StrVec.obj
 0001:0004ebe0       ??$_To_address@PEA_K@std@@YA?A_PAEBQEA_K@Z 000000014004fbe0 f i StrVec.obj
 0001:0004ec10       ??$get@$00PEAUStrVecPage@@H@std@@YA$$QEAH$$QEAU?$pair@PEAUStrVecPage@@H@0@@Z 000000014004fc10 f i StrVec.obj
 0001:0004ec30       ??$get@$0A@PEAUStrVecPage@@H@std@@YA$$QEAPEAUStrVecPage@@$$QEAU?$pair@PEAUStrVecPage@@H@0@@Z 000000014004fc30 f i StrVec.obj
 0001:0004ed80       ??$swap@_K$0A@@std@@YAXAEA_K0@Z 000000014004fd80 f i StrVec.obj
 0001:0004edd0       ??$to_address@H@std@@YAPEAHQEAH@Z 000000014004fdd0 f i StrVec.obj
 0001:0004ede0       ??$to_address@_K@std@@YAPEA_KQEA_K@Z 000000014004fde0 f i StrVec.obj
 0001:0004edf0       ??0StrSpan@@QEAA@XZ        000000014004fdf0 f i StrVec.obj
 0001:0004ee20       ?Size@?$Span@D@@QEBAHXZ    000000014004fe20 f i StrVec.obj
 0001:0004ee40       ?is_constant_evaluated@std@@YA_NXZ 000000014004fe40 f i StrVec.obj
 0001:0004ee50       ?Utf8ToWStr@strconv@@YAPEA_WPEBD_KPEAUAllocator@@@Z 000000014004fe50 f   StrconvUtil.obj
 0001:0004ef60       ?WStrToUtf8@strconv@@YAPEADPEB_W_KPEAUAllocator@@@Z 000000014004ff60 f   StrconvUtil.obj
 0001:0004efa0       ?WStrToCodePage@strconv@@YAPEADIPEB_W_KPEAUAllocator@@@Z 000000014004ffa0 f   StrconvUtil.obj
 0001:0004f140       ?ToMultiByteTemp@strconv@@YAPEADPEBDII@Z 0000000140050140 f   StrconvUtil.obj
 0001:0004f240       ?StrCPToWStr@strconv@@YAPEA_WPEBDIH@Z 0000000140050240 f   StrconvUtil.obj
 0001:0004f320       ?StrCPToWStrTemp@strconv@@YAPEA_WPEBDIH@Z 0000000140050320 f   StrconvUtil.obj
 0001:0004f400       ?StrToUtf8Temp@strconv@@YAPEADPEBDI@Z 0000000140050400 f   StrconvUtil.obj
 0001:0004f430       ?UnknownToUtf8Temp@strconv@@YAPEADPEBD@Z 0000000140050430 f   StrconvUtil.obj
 0001:0004f660       ?WStrToAnsi@strconv@@YAPEADPEB_W@Z 0000000140050660 f   StrconvUtil.obj
 0001:0004f690       ?Utf8ToAnsi@strconv@@YAPEADPEBD@Z 0000000140050690 f   StrconvUtil.obj
 0001:0004f6d0       ?AnsiToWStrTemp@strconv@@YAPEA_WPEBD_K@Z 00000001400506d0 f   StrconvUtil.obj
 0001:0004f700       ?AnsiToUtf8@strconv@@YAPEADPEBD_K@Z 0000000140050700 f   StrconvUtil.obj
 0001:0004f750       ?ToUtf8@@YAPEADPEB_W_K@Z   0000000140050750 f   StrconvUtil.obj
 0001:0004f780       ?ToWStr@@YAPEA_WPEBD_K@Z   0000000140050780 f   StrconvUtil.obj
 0001:0004fa00       ??$AllocArray@_W@Allocator@@SAPEA_WPEAU0@_K@Z 0000000140050a00 f i StrconvUtil.obj
 0001:0004fa40       ??$swap@D$0A@@std@@YAXAEAD0@Z 0000000140050a40 f i StrconvUtil.obj
 0001:0004fa90       ?GetTempAllocator@@YAPEAUAllocator@@XZ 0000000140050a90 f   TempAllocator.obj
 0001:0004fb80       ?DestroyTempAllocator@@YAXXZ 0000000140050b80 f   TempAllocator.obj
 0001:0004fc10       ?ResetTempAllocator@@YAXXZ 0000000140050c10 f   TempAllocator.obj
 0001:0004fc70       ?DupTemp@str@@YAPEADPEBD_K@Z 0000000140050c70 f   TempAllocator.obj
 0001:0004fca0       ?DupTemp@str@@YAPEA_WPEB_W_K@Z 0000000140050ca0 f   TempAllocator.obj
 0001:0004fcd0       ?JoinTemp@str@@YAPEADPEBD00@Z 0000000140050cd0 f   TempAllocator.obj
 0001:0004fd10       ?JoinTemp@str@@YAPEADPEBD000@Z 0000000140050d10 f   TempAllocator.obj
 0001:0004fd70       ?JoinTemp@str@@YAPEADPEBD0000@Z 0000000140050d70 f   TempAllocator.obj
 0001:0004fdd0       ?JoinTemp@str@@YAPEA_WPEB_W00@Z 0000000140050dd0 f   TempAllocator.obj
 0001:0004fe10       ?ReplaceTemp@str@@YAPEADPEBD00@Z 0000000140050e10 f   TempAllocator.obj
 0001:00050090       ?ReplaceNoCaseTemp@str@@YAPEADPEBD00@Z 0000000140051090 f   TempAllocator.obj
 0001:00050140       ?FormatTemp@str@@YAPEADPEBDZZ 0000000140051140 f   TempAllocator.obj
 0001:000501b0       ?ToUtf8Temp@@YAPEADPEB_W_K@Z 00000001400511b0 f   TempAllocator.obj
 0001:00050220       ?ToWStrTemp@@YAPEA_WPEBD_K@Z 0000000140051220 f   TempAllocator.obj
 0001:00050290       ?ToWStrTemp@@YAPEA_WAEBUStr@str@@@Z 0000000140051290 f   TempAllocator.obj
 0001:00050500       ?NameIs@HtmlElement@@QEBA_NPEBD@Z 0000000140051500 f   TrivialHtmlParser.obj
 0001:000505b0       ?NameIsNS@HtmlElement@@QEBA_NPEBD0@Z 00000001400515b0 f   TrivialHtmlParser.obj
 0001:00050630       ?GetAttribute@HtmlElement@@QEBAPEA_WPEBD@Z 0000000140051630 f   TrivialHtmlParser.obj
 0001:000506b0       ?GetAttributeTemp@HtmlElement@@QEBAPEADPEBD@Z 00000001400516b0 f   TrivialHtmlParser.obj
 0001:00050730       ?GetChildByTag@HtmlElement@@QEBAPEAU1@W4HtmlTag@@H@Z 0000000140051730 f   TrivialHtmlParser.obj
 0001:000507a0       ?AllocElement@HtmlParser@@AEAAPEAUHtmlElement@@W4HtmlTag@@PEADPEAU2@@Z 00000001400517a0 f   TrivialHtmlParser.obj
 0001:00050850       ?AllocAttr@HtmlParser@@AEAAPEAUHtmlAttr@@PEADPEAU2@@Z 0000000140051850 f   TrivialHtmlParser.obj
 0001:000508d0       ?CloseTag@HtmlParser@@AEAAXPEAUHtmlToken@@@Z 00000001400518d0 f   TrivialHtmlParser.obj
 0001:000509c0       ?StartTag@HtmlParser@@AEAAXPEAUHtmlToken@@@Z 00000001400519c0 f   TrivialHtmlParser.obj
 0001:00050ae0       ?AppendAttr@HtmlParser@@AEAAXPEAD0@Z 0000000140051ae0 f   TrivialHtmlParser.obj
 0001:00050b50       ?FindParent@HtmlParser@@AEAAPEAUHtmlElement@@PEAUHtmlToken@@@Z 0000000140051b50 f   TrivialHtmlParser.obj
 0001:00050bc0       ?Reset@HtmlParser@@AEAAXXZ 0000000140051bc0 f   TrivialHtmlParser.obj
 0001:00050c70       ??0HtmlParser@@QEAA@XZ     0000000140051c70 f   TrivialHtmlParser.obj
 0001:00050d10       ??1HtmlParser@@QEAA@XZ     0000000140051d10 f   TrivialHtmlParser.obj
 0001:00050d50       ?Parse@HtmlParser@@QEAAPEAUHtmlElement@@AEBUByteSlice@@I@Z 0000000140051d50 f   TrivialHtmlParser.obj
 0001:00050dc0       ?ParseInPlace@HtmlParser@@QEAAPEAUHtmlElement@@AEBUByteSlice@@I@Z 0000000140051dc0 f   TrivialHtmlParser.obj
 0001:00051070       ?ElementsCount@HtmlParser@@QEBA_KXZ 0000000140052070 f   TrivialHtmlParser.obj
 0001:00051090       ?TotalAttrCount@HtmlParser@@QEBA_KXZ 0000000140052090 f   TrivialHtmlParser.obj
 0001:000510b0       ?FindElementByName@HtmlParser@@QEAAPEAUHtmlElement@@PEBDPEAU2@@Z 00000001400520b0 f   TrivialHtmlParser.obj
 0001:000510f0       ?FindElementByNameNS@HtmlParser@@QEAAPEAUHtmlElement@@PEBD0PEAU2@@Z 00000001400520f0 f   TrivialHtmlParser.obj
 0001:00051220       ?DecodeHtmlEntitites@@YAPEA_WPEBDI@Z 0000000140052220 f   TrivialHtmlParser.obj
 0001:00051440       ?DecodeHtmlEntititesTemp@@YAPEADPEBDI@Z 0000000140052440 f   TrivialHtmlParser.obj
 0001:000518a0       ??$AllocStruct@UHtmlAttr@@@PoolAllocator@@QEAAPEAUHtmlAttr@@XZ 00000001400528a0 f i TrivialHtmlParser.obj
 0001:000518e0       ??$AllocStruct@UHtmlElement@@@PoolAllocator@@QEAAPEAUHtmlElement@@XZ 00000001400528e0 f i TrivialHtmlParser.obj
 0001:00051920       ??0HtmlPullParser@@QEAA@PEBD_K@Z 0000000140052920 f i TrivialHtmlParser.obj
 0001:000519d0       ?ParseError@HtmlParser@@AEAAPEAUHtmlElement@@W4HtmlParseError@@@Z 00000001400529d0 f i TrivialHtmlParser.obj
 0001:00051a00       ?utassert_func@@YAX_NPEBD1H@Z 0000000140052a00 f   UtAssert.obj
 0001:00051b00       ?utassert_print_results@@YAHXZ 0000000140052b00 f   UtAssert.obj
 0001:00051ca0       fprintf                    0000000140052ca0 f i UtAssert.obj
 0001:00051d10       ?InitDynCalls@@YAXXZ       0000000140052d10 f   WinDynCalls.obj
 0001:00052280       ?IsAppThemed@theme@@YA_NXZ 0000000140053280 f   WinDynCalls.obj
 0001:000522c0       ?OpenThemeData@theme@@YAPEAXPEAUHWND__@@PEB_W@Z 00000001400532c0 f   WinDynCalls.obj
 0001:00052310       ?CloseThemeData@theme@@YAJPEAX@Z 0000000140053310 f   WinDynCalls.obj
 0001:00052350       ?DrawThemeBackground@theme@@YAJPEAXPEAUHDC__@@HHPEBUtagRECT@@2@Z 0000000140053350 f   WinDynCalls.obj
 0001:000523c0       ?IsThemeActive@theme@@YAHXZ 00000001400533c0 f   WinDynCalls.obj
 0001:000523f0       ?IsThemeBackgroundPartiallyTransparent@theme@@YAHPEAXHH@Z 00000001400533f0 f   WinDynCalls.obj
 0001:00052440       ?GetThemeColor@theme@@YAJPEAXHHHPEAK@Z 0000000140053440 f   WinDynCalls.obj
 0001:000524a0       ?IsCompositionEnabled@dwm@@YAHXZ 00000001400534a0 f   WinDynCalls.obj
 0001:000524e0       ?ExtendFrameIntoClientArea@dwm@@YAJPEAUHWND__@@PEBU_MARGINS@@@Z 00000001400534e0 f   WinDynCalls.obj
 0001:00052530       ?DefaultWindowProc@dwm@@YAHPEAUHWND__@@I_K_JPEA_J@Z 0000000140053530 f   WinDynCalls.obj
 0001:00052590       ?GetWindowAttribute@dwm@@YAJPEAUHWND__@@KPEAXK@Z 0000000140053590 f   WinDynCalls.obj
 0001:000525f0       ?SetWindowAttribute@dwm@@YAJPEAUHWND__@@KPEAXK@Z 00000001400535f0 f   WinDynCalls.obj
 0001:00052650       ?SetCaptionColor@dwm@@YAJPEAUHWND__@@K@Z 0000000140053650 f   WinDynCalls.obj
 0001:00052690       ?SupportsGestures@touch@@YA_NXZ 0000000140053690 f   WinDynCalls.obj
 0001:000526d0       ?GetGestureInfo@touch@@YAHPEAUHGESTUREINFO__@@PEAUtagGESTUREINFO@@@Z 00000001400536d0 f   WinDynCalls.obj
 0001:00052720       ?CloseGestureInfoHandle@touch@@YAHPEAUHGESTUREINFO__@@@Z 0000000140053720 f   WinDynCalls.obj
 0001:00052760       ?SetGestureConfig@touch@@YAHPEAUHWND__@@KIPEAUtagGESTURECONFIG@@I@Z 0000000140053760 f   WinDynCalls.obj
 0001:000527c0       ?NoDllHijacking@@YAXXZ     00000001400537c0 f   WinDynCalls.obj
 0001:00052800       ?PrioritizeSystemDirectoriesForDllLoad@@YAXXZ 0000000140053800 f   WinDynCalls.obj
 0001:00052c20       ?ToBool@@YA_NH@Z           0000000140053c20 f   WinUtil.obj
 0001:00052c50       ?NextSubclassId@@YA_KXZ    0000000140053c50 f   WinUtil.obj
 0001:00052c80       ?ClientRECT@@YA?AUtagRECT@@PEAUHWND__@@@Z 0000000140053c80 f   WinUtil.obj
 0001:00052cb0       ?ClientRect@@YA?AURect@@PEAUHWND__@@@Z 0000000140053cb0 f   WinUtil.obj
 0001:00052d40       ?WindowRect@@YA?AURect@@PEAUHWND__@@@Z 0000000140053d40 f   WinUtil.obj
 0001:00052dd0       ?MapRectToWindow@@YA?AURect@@U1@PEAUHWND__@@1@Z 0000000140053dd0 f   WinUtil.obj
 0001:00052e70       ?EditSelectAll@@YAXPEAUHWND__@@@Z 0000000140053e70 f   WinUtil.obj
 0001:00052ea0       ?EditIdealDy@@YAHPEAUHWND__@@_NH@Z 0000000140053ea0 f   WinUtil.obj
 0001:00052fd0       ?EditImplementCtrlBack@@YAXPEAUHWND__@@@Z 0000000140053fd0 f   WinUtil.obj
 0001:00053170       ?ListBox_AppendString_NoSort@@YAXPEAUHWND__@@PEB_W@Z 0000000140054170 f   WinUtil.obj
 0001:000531b0       ?ListBoxGetTopIndex@@YAHPEAUHWND__@@@Z 00000001400541b0 f   WinUtil.obj
 0001:000531f0       ?ListBoxSetTopIndex@@YA_NPEAUHWND__@@H@Z 00000001400541f0 f   WinUtil.obj
 0001:00053250       ?IsValidHandle@@YA_NPEAX@Z 0000000140054250 f   WinUtil.obj
 0001:00053290       ?SafeCloseHandle@@YA_NPEAPEAX@Z 0000000140054290 f   WinUtil.obj
 0001:00053300       ?FillWndClassEx@@YAXAEAUtagWNDCLASSEXW@@PEB_WP6A_JPEAUHWND__@@I_K_J@Z@Z 0000000140054300 f   WinUtil.obj
 0001:00053390       ?MoveWindow@@YAXPEAUHWND__@@URect@@@Z 0000000140054390 f   WinUtil.obj
 0001:000533f0       ?MoveWindow@@YAXPEAUHWND__@@PEAUtagRECT@@@Z 00000001400543f0 f   WinUtil.obj
 0001:00053470       ?IsOs64@@YA_NXZ            0000000140054470 f   WinUtil.obj
 0001:000534b0       ?IsProcess64@@YA_NXZ       00000001400544b0 f   WinUtil.obj
 0001:000534c0       ?IsProcess32@@YA_NXZ       00000001400544c0 f   WinUtil.obj
 0001:000534d0       ?IsArmBuild@@YA_NXZ        00000001400544d0 f   WinUtil.obj
 0001:000534e0       ?IsRunningInWow64@@YA_NXZ  00000001400544e0 f   WinUtil.obj
 0001:00053560       ?IsProcessAndOsArchSame@@YA_NXZ 0000000140054560 f   WinUtil.obj
 0001:000535b0       ?GetOsVersion@@YA_NAEAU_OSVERSIONINFOEXW@@@Z 00000001400545b0 f   WinUtil.obj
 0001:00053610       ?OsNameFromVerTemp@@YAPEADAEBU_OSVERSIONINFOEXW@@@Z 0000000140054610 f   WinUtil.obj
 0001:000537d0       ?GetWindowsVerTemp@@YAPEADXZ 00000001400547d0 f   WinUtil.obj
 0001:00053860       ?GetEnvVariableTemp@@YAPEADPEBD@Z 0000000140054860 f   WinUtil.obj
 0001:00053980       ?GetLastErrorStrTemp@@YAPEADK@Z 0000000140054980 f   WinUtil.obj
 0001:00053b20       ?LogLastError@@YAXK@Z      0000000140054b20 f   WinUtil.obj
 0001:00053b80       ?DbgOutLastError@@YAXK@Z   0000000140054b80 f   WinUtil.obj
 0001:00053bb0       ?RegKeyNameTemp@@YAPEBDPEAUHKEY__@@@Z 0000000140054bb0 f   WinUtil.obj
 0001:00053c00       ?RegKeyNameWTemp@@YAPEBDPEAUHKEY__@@@Z 0000000140054c00 f   WinUtil.obj
 0001:00053c40       ?RegKeyExists@@YA_NPEAUHKEY__@@PEBD@Z 0000000140054c40 f   WinUtil.obj
 0001:00053cc0       ?ReadRegStrTemp@@YAPEADPEAUHKEY__@@PEBD1@Z 0000000140054cc0 f   WinUtil.obj
 0001:00053e60       ?LoggedReadRegStrTemp@@YAPEADPEAUHKEY__@@PEBD1@Z 0000000140054e60 f   WinUtil.obj
 0001:00053ed0       ?ReadRegStr2Temp@@YAPEADPEBD0@Z 0000000140054ed0 f   WinUtil.obj
 0001:00053f30       ?LoggedReadRegStr2Temp@@YAPEADPEBD0@Z 0000000140054f30 f   WinUtil.obj
 0001:00053f90       ?WriteRegStr@@YA_NPEAUHKEY__@@PEBD11@Z 0000000140054f90 f   WinUtil.obj
 0001:00054060       ?LoggedWriteRegStr@@YA_NPEAUHKEY__@@PEBD11@Z 0000000140055060 f   WinUtil.obj
 0001:00054190       ?ReadRegDWORD@@YA_NPEAUHKEY__@@PEBD1AEAK@Z 0000000140055190 f   WinUtil.obj
 0001:00054240       ?WriteRegDWORD@@YA_NPEAUHKEY__@@PEBD1K@Z 0000000140055240 f   WinUtil.obj
 0001:000542e0       ?LoggedWriteRegDWORD@@YA_NPEAUHKEY__@@PEBD1K@Z 00000001400552e0 f   WinUtil.obj
 0001:00054410       ?LoggedWriteRegNone@@YA_NPEAUHKEY__@@PEBD1@Z 0000000140055410 f   WinUtil.obj
 0001:000544d0       ?CreateRegKey@@YA_NPEAUHKEY__@@PEBD@Z 00000001400554d0 f   WinUtil.obj
 0001:00054570       ?DeleteRegKey@@YA_NPEAUHKEY__@@PEBD_N@Z 0000000140055570 f   WinUtil.obj
 0001:00054600       ?LoggedDeleteRegKey@@YA_NPEAUHKEY__@@PEBD_N@Z 0000000140055600 f   WinUtil.obj
 0001:000546e0       ?DeleteRegValue@@YA_NPEAUHKEY__@@PEBD1@Z 00000001400556e0 f   WinUtil.obj
 0001:00054770       ?LoggedDeleteRegValue@@YA_NPEAUHKEY__@@PEBD1@Z 0000000140055770 f   WinUtil.obj
 0001:00054840       ?CLSIDFromString@@YAJPEBDPEAU_GUID@@@Z 0000000140055840 f   WinUtil.obj
 0001:00054880       ?GetSpecialFolderTemp@@YAPEADH_N@Z 0000000140055880 f   WinUtil.obj
 0001:00054930       ?GetTempDirTemp@@YAPEADXZ  0000000140055930 f   WinUtil.obj
 0001:000549e0       ?GetSelfExePathTemp@@YAPEADXZ 00000001400559e0 f   WinUtil.obj
 0001:00054af0       ?GetSelfExeDirTemp@@YAPEADXZ 0000000140055af0 f   WinUtil.obj
 0001:00054b20       ?ChangeCurrDirToDocuments@@YAXXZ 0000000140055b20 f   WinUtil.obj
 0001:00054b70       ?FileTimeDiffInSecs@@YAHAEBU_FILETIME@@0@Z 0000000140055b70 f   WinUtil.obj
 0001:00054be0       ?ResolveLnkTemp@@YAPEADPEBD@Z 0000000140055be0 f   WinUtil.obj
 0001:00054f30       ?CreateShortcut@@YA_NPEBD000H@Z 0000000140055f30 f   WinUtil.obj
 0001:00055280       ?GetDataObjectForFile@@YAPEAUIDataObject@@PEBDPEAUHWND__@@@Z 0000000140056280 f   WinUtil.obj
 0001:000554f0       ?LaunchProcessWithCmdLine@@YAPEAXPEBD0@Z 00000001400564f0 f   WinUtil.obj
 0001:00055610       ?LaunchProcessInDir@@YAPEAXPEBD0K@Z 0000000140056610 f   WinUtil.obj
 0001:00055710       ?CreateProcessHelper@@YA_NPEBD0@Z 0000000140056710 f   WinUtil.obj
 0001:000557b0       ?LaunchFileShell@@YA_NPEBD00_N@Z 00000001400567b0 f   WinUtil.obj
 0001:000558e0       ?LaunchBrowser@@YA_NPEBD@Z 00000001400568e0 f   WinUtil.obj
 0001:00055910       ?OpenPathInExplorer@@YAXPEBD@Z 0000000140056910 f   WinUtil.obj
 0001:00055960       ?RunNonElevated@@YAXPEBD@Z 0000000140056960 f   WinUtil.obj
 0001:00055ad0       ?LaunchElevated@@YA_NPEBD0@Z 0000000140056ad0 f   WinUtil.obj
 0001:00055b10       ?IsProcessRunningElevated@@YA_NXZ 0000000140056b10 f   WinUtil.obj
 0001:00055c10       ?CanTalkToProcess@@YA_NK@Z 0000000140056c10 f   WinUtil.obj
 0001:00055c60       ?GetAccountType@@YAKXZ     0000000140056c60 f   WinUtil.obj
 0001:00055c80       ?GetOriginalAccountType@@YAKXZ 0000000140056c80 f   WinUtil.obj
 0001:00055ca0       ?DisableDataExecution@@YAXXZ 0000000140056ca0 f   WinUtil.obj
 0001:00055d20       ?RedirectIOToConsole@@YA_NXZ 0000000140056d20 f   WinUtil.obj
 0001:00055e10       ?RedirectIOToExistingConsole@@YA_NXZ 0000000140056e10 f   WinUtil.obj
 0001:00055e60       ?HandleRedirectedConsoleOnShutdown@@YAXXZ 0000000140056e60 f   WinUtil.obj
 0001:00055eb0       ?IsKeyPressed@@YA_NH@Z     0000000140056eb0 f   WinUtil.obj
 0001:00055f10       ?IsShiftPressed@@YA_NXZ    0000000140056f10 f   WinUtil.obj
 0001:00055f30       ?IsAltPressed@@YA_NXZ      0000000140056f30 f   WinUtil.obj
 0001:00055f50       ?IsCtrlPressed@@YA_NXZ     0000000140056f50 f   WinUtil.obj
 0001:00055f70       ?ShiftRectToWorkArea@@YA?AURect@@U1@PEAUHWND__@@_N@Z 0000000140056f70 f   WinUtil.obj
 0001:00056150       ?GetWorkAreaRect@@YA?AURect@@U1@PEAUHWND__@@@Z 0000000140057150 f   WinUtil.obj
 0001:00056260       ?LimitWindowSizeToScreen@@YAXPEAUHWND__@@AEAUtagSIZE@@@Z 0000000140057260 f   WinUtil.obj
 0001:00056360       ?GetFullscreenRect@@YA?AURect@@PEAUHWND__@@@Z 0000000140057360 f   WinUtil.obj
 0001:00056440       ?GetVirtualScreenRect@@YA?AURect@@XZ 0000000140057440 f   WinUtil.obj
 0001:000564b0       ?DrawRect@@YAXPEAUHDC__@@AEBURect@@@Z 00000001400574b0 f   WinUtil.obj
 0001:00056590       ?FillRect@@YAXPEAUHDC__@@AEBURect@@PEAUHBRUSH__@@@Z 0000000140057590 f   WinUtil.obj
 0001:00056610       ?FillRect@@YAXPEAUHDC__@@AEBURect@@K@Z 0000000140057610 f   WinUtil.obj
 0001:000566c0       ?DrawLine@@YAXPEAUHDC__@@AEBURect@@@Z 00000001400576c0 f   WinUtil.obj
 0001:00056730       ?DrawCenteredText@@YAXPEAUHDC__@@URect@@PEBD_N@Z 0000000140057730 f   WinUtil.obj
 0001:00056830       ?HwndMeasureText@@YA?AUSize@@PEAUHWND__@@PEBDPEAUHFONT__@@@Z 0000000140057830 f   WinUtil.obj
 0001:000568c0       ?FontDyPx@@YAHPEAUHWND__@@PEAUHFONT__@@@Z 00000001400578c0 f   WinUtil.obj
 0001:00056900       ?HdcDrawText@@YAHPEAUHDC__@@PEBDPEAUtagRECT@@IPEAUHFONT__@@@Z 0000000140057900 f   WinUtil.obj
 0001:000569b0       ?HdcDrawText@@YAHPEAUHDC__@@PEBDAEBURect@@IPEAUHFONT__@@@Z 00000001400579b0 f   WinUtil.obj
 0001:00056a50       ?HdcDrawText@@YAHPEAUHDC__@@PEBDAEBUPoint@@IPEAUHFONT__@@@Z 0000000140057a50 f   WinUtil.obj
 0001:00056b10       ?HdcMeasureText@@YA?AUSize@@PEAUHDC__@@PEBDIPEAUHFONT__@@@Z 0000000140057b10 f   WinUtil.obj
 0001:00056d10       ?HdcMeasureText@@YA?AUSize@@PEAUHDC__@@PEBDPEAUHFONT__@@@Z 0000000140057d10 f   WinUtil.obj
 0001:00056d70       ?HwndSetFocus@@YAPEAUHWND__@@PEAU1@@Z 0000000140057d70 f   WinUtil.obj
 0001:00056d90       ?HwndIsFocused@@YA_NPEAUHWND__@@@Z 0000000140057d90 f   WinUtil.obj
 0001:00056dd0       ?IsCursorOverWindow@@YA_NPEAUHWND__@@@Z 0000000140057dd0 f   WinUtil.obj
 0001:00056e30       ?HwndGetParent@@YAPEAUHWND__@@PEAU1@@Z 0000000140057e30 f   WinUtil.obj
 0001:00056e50       ?HwndGetClassName@@YAPEADPEAUHWND__@@@Z 0000000140057e50 f   WinUtil.obj
 0001:00056f00       ?HwndGetCursorPos@@YA?AUPoint@@PEAUHWND__@@@Z 0000000140057f00 f   WinUtil.obj
 0001:00056fa0       ?MapWindowPoints@@YAHPEAUHWND__@@0PEAUPoint@@H@Z 0000000140057fa0 f   WinUtil.obj
 0001:00057100       ?HwndScreenToClient@@YAXPEAUHWND__@@AEAUPoint@@@Z 0000000140058100 f   WinUtil.obj
 0001:00057160       ?HwndMakeVisible@@YAXPEAUHWND__@@@Z 0000000140058160 f   WinUtil.obj
 0001:000571a0       ?IsMouseOverRect@@YA_NPEAUHWND__@@AEBURect@@@Z 00000001400581a0 f   WinUtil.obj
 0001:000571e0       ?CenterDialog@@YAXPEAUHWND__@@0@Z 00000001400581e0 f   WinUtil.obj
 0001:000573a0       ?SetDlgItemFont@@YAXPEAUHWND__@@HPEAUHFONT__@@@Z 00000001400583a0 f   WinUtil.obj
 0001:000573f0       ?GetDefaultPrinterNameTemp@@YAPEADXZ 00000001400583f0 f   WinUtil.obj
 0001:00057470       ?CopyTextToClipboard@@YA_NPEBD@Z 0000000140058470 f   WinUtil.obj
 0001:00057490       ?AppendTextToClipboard@@YA_NPEBD@Z 0000000140058490 f   WinUtil.obj
 0001:000574b0       ?CopyImageToClipboard@@YA_NPEAUHBITMAP__@@_N@Z 00000001400584b0 f   WinUtil.obj
 0001:00057510       ?IsWindowStyleSet@@YA_NPEAUHWND__@@K@Z 0000000140058510 f   WinUtil.obj
 0001:00057550       ?IsWindowStyleExSet@@YA_NPEAUHWND__@@K@Z 0000000140058550 f   WinUtil.obj
 0001:000575c0       ?SetWindowStyle@@YAXPEAUHWND__@@K_N@Z 00000001400585c0 f   WinUtil.obj
 0001:00057600       ?SetWindowExStyle@@YAXPEAUHWND__@@K_N@Z 0000000140058600 f   WinUtil.obj
 0001:00057640       ?HwndIsRtl@@YA_NPEAUHWND__@@@Z 0000000140058640 f   WinUtil.obj
 0001:00057680       ?HwndSetRtl@@YAXPEAUHWND__@@_N@Z 0000000140058680 f   WinUtil.obj
 0001:000576b0       ?ChildPosWithinParent@@YA?AURect@@PEAUHWND__@@@Z 00000001400586b0 f   WinUtil.obj
 0001:00057730       ?GetMenuFont@@YAPEAUHFONT__@@XZ 0000000140058730 f   WinUtil.obj
 0001:000577d0       ?CreateSimpleFont@@YAPEAUHFONT__@@PEAUHDC__@@PEBDH@Z 00000001400587d0 f   WinUtil.obj
 0001:00057950       ?GetDefaultGuiFont@@YAPEAUHFONT__@@_N0@Z 0000000140058950 f   WinUtil.obj
 0001:00057aa0       ?GetDefaultGuiFontOfSize@@YAPEAUHFONT__@@H@Z 0000000140058aa0 f   WinUtil.obj
 0001:00057b80       ?GetUserGuiFont@@YAPEAUHFONT__@@PEBDH@Z 0000000140058b80 f   WinUtil.obj
 0001:00057d00       ?GetSizeOfDefaultGuiFont@@YAHXZ 0000000140058d00 f   WinUtil.obj
 0001:00057d80       ?DeleteCreatedFonts@@YAXXZ 0000000140058d80 f   WinUtil.obj
 0001:00057e20       ?CreateStreamFromData@@YAPEAUIStream@@AEBUByteSlice@@@Z 0000000140058e20 f   WinUtil.obj
 0001:00057fc0       ?GetDataFromStream@@YA?AUByteSlice@@PEAUIStream@@PEAJ@Z 0000000140058fc0 f   WinUtil.obj
 0001:00058070       ?GetStreamOrFileData@@YA?AUByteSlice@@PEAUIStream@@PEBD@Z 0000000140059070 f   WinUtil.obj
 0001:000580f0       ?ReadDataFromStream@@YA_NPEAUIStream@@PEAX_K2@Z 00000001400590f0 f   WinUtil.obj
 0001:00058240       ?GuessTextCodepage@@YAIPEBD_KI@Z 0000000140059240 f   WinUtil.obj
 0001:000583d0       ?NormalizeString@@YAPEADPEBDH@Z 00000001400593d0 f   WinUtil.obj
 0001:00058500       ?ResizeHwndToClientArea@@YAXPEAUHWND__@@HH_N@Z 0000000140059500 f   WinUtil.obj
 0001:00058660       ?ResizeWindow@@YAXPEAUHWND__@@HH@Z 0000000140059660 f   WinUtil.obj
 0001:00058710       ?MessageBoxWarningSimple@@YAXPEAUHWND__@@PEB_W1@Z 0000000140059710 f   WinUtil.obj
 0001:00058770       ?MessageBoxNYI@@YAXPEAUHWND__@@@Z 0000000140059770 f   WinUtil.obj
 0001:000587a0       ?RegisterServerDLL@@YA_NPEBD0@Z 00000001400597a0 f   WinUtil.obj
 0001:000587d0       ?UnRegisterServerDLL@@YA_NPEBD0@Z 00000001400597d0 f   WinUtil.obj
 0001:00058810       ?RegisterOrUnregisterServerDLL@@YA_NPEBD_N0@Z 0000000140059810 f   WinUtil.obj
 0001:00058a70       ?MenuSetChecked@@YAXPEAUHMENU__@@H_N@Z 0000000140059a70 f   WinUtil.obj
 0001:00058af0       ?MenuSetEnabled@@YA_NPEAUHMENU__@@H_N@Z 0000000140059af0 f   WinUtil.obj
 0001:00058b90       ?MenuRemove@@YAXPEAUHMENU__@@H@Z 0000000140059b90 f   WinUtil.obj
 0001:00058be0       ?MenuEmpty@@YAXPEAUHMENU__@@@Z 0000000140059be0 f   WinUtil.obj
 0001:00058c10       ?MenuSetText@@YAXPEAUHMENU__@@HPEB_W@Z 0000000140059c10 f   WinUtil.obj
 0001:00058d60       ?MenuSetText@@YAXPEAUHMENU__@@HPEBD@Z 0000000140059d60 f   WinUtil.obj
 0001:00058db0       ?MenuToSafeStringTemp@@YAPEADPEBD@Z 0000000140059db0 f   WinUtil.obj
 0001:00058df0       ??0DoubleBuffer@@QEAA@PEAUHWND__@@URect@@@Z 0000000140059df0 f   WinUtil.obj
 0001:00058fc0       ??1DoubleBuffer@@QEAA@XZ   0000000140059fc0 f   WinUtil.obj
 0001:00059010       ?GetDC@DoubleBuffer@@QEBAPEAUHDC__@@XZ 000000014005a010 f   WinUtil.obj
 0001:00059040       ?Flush@DoubleBuffer@@QEBAXPEAUHDC__@@@Z 000000014005a040 f   WinUtil.obj
 0001:000590f0       ??0DeferWinPosHelper@@QEAA@XZ 000000014005a0f0 f   WinUtil.obj
 0001:00059120       ??1DeferWinPosHelper@@QEAA@XZ 000000014005a120 f   WinUtil.obj
 0001:00059140       ?End@DeferWinPosHelper@@QEAAXXZ 000000014005a140 f   WinUtil.obj
 0001:00059180       ?SetWindowPos@DeferWinPosHelper@@QEAAXPEAUHWND__@@URect@@@Z 000000014005a180 f   WinUtil.obj
 0001:00059200       ?SetWindowPos@DeferWinPosHelper@@QEAAXPEAUHWND__@@0HHHHI@Z 000000014005a200 f   WinUtil.obj
 0001:00059270       ?MoveWindow@DeferWinPosHelper@@QEAAXPEAUHWND__@@HHHHH@Z 000000014005a270 f   WinUtil.obj
 0001:000592f0       ?MoveWindow@DeferWinPosHelper@@QEAAXPEAUHWND__@@URect@@@Z 000000014005a2f0 f   WinUtil.obj
 0001:00059350       ?GetSize@BlittableBitmap@@QEAA?AUSize@@XZ 000000014005a350 f   WinUtil.obj
 0001:00059380       ??0RenderedBitmap@@QEAA@PEAUHBITMAP__@@USize@@PEAX@Z 000000014005a380 f   WinUtil.obj
 0001:00059410       ??1RenderedBitmap@@UEAA@XZ 000000014005a410 f   WinUtil.obj
 0001:00059490       ?Clone@RenderedBitmap@@QEBAPEAU1@XZ 000000014005a490 f   WinUtil.obj
 0001:00059520       ?GetBitmap@RenderedBitmap@@QEBAPEAUHBITMAP__@@XZ 000000014005a520 f   WinUtil.obj
 0001:00059540       ?IsValid@RenderedBitmap@@UEAA_NXZ 000000014005a540 f   WinUtil.obj
 0001:00059580       ?Blit@RenderedBitmap@@UEAA_NPEAUHDC__@@URect@@@Z 000000014005a580 f   WinUtil.obj
 0001:000595d0       ?InitAllCommonControls@@YAXXZ 000000014005a5d0 f   WinUtil.obj
 0001:00059610       ?GetBitmapSize@@YA?AUSize@@PEAUHBITMAP__@@@Z 000000014005a610 f   WinUtil.obj
 0001:00059660       ?GetBitmapPixels@@YAPEAUBitmapPixels@@PEAUHBITMAP__@@@Z 000000014005a660 f   WinUtil.obj
 0001:000599a0       ?FinalizeBitmapPixels@@YAXPEAUBitmapPixels@@@Z 000000014005a9a0 f   WinUtil.obj
 0001:00059a30       ?GetPixel@@YAKPEAUBitmapPixels@@HH@Z 000000014005aa30 f   WinUtil.obj
 0001:00059bd0       ?UpdateBitmapColors@@YAXPEAUHBITMAP__@@KK@Z 000000014005abd0 f   WinUtil.obj
 0001:0005a3f0       ?SerializeBitmap@@YA?AUByteSlice@@PEAUHBITMAP__@@@Z 000000014005b3f0 f   WinUtil.obj
 0001:0005a5b0       ?CreateMemoryBitmap@@YAPEAUHBITMAP__@@USize@@PEAPEAX@Z 000000014005b5b0 f   WinUtil.obj
 0001:0005a700       ?BlitHBITMAP@@YA_NPEAUHBITMAP__@@PEAUHDC__@@URect@@@Z 000000014005b700 f   WinUtil.obj
 0001:0005a8c0       ?GetProcessRunningTime@@YANXZ 000000014005b8c0 f   WinUtil.obj
 0001:0005a9c0       ?VariantInitBstr@@YAXAEAUtagVARIANT@@PEB_W@Z 000000014005b9c0 f   WinUtil.obj
 0001:0005aa10       ?LoadDataResource@@YA?AUStrSpan@@H@Z 000000014005ba10 f   WinUtil.obj
 0001:0005aba0       ?DDEExecute@@YA_NPEB_W00@Z 000000014005bba0 f   WinUtil.obj
 0001:0005adc0       ?RectInflateTB@@YAXAEAUtagRECT@@HH@Z 000000014005bdc0 f   WinUtil.obj
 0001:0005ae00       ?DivideRectH@@YAXAEBUtagRECT@@HHAEAU1@11@Z 000000014005be00 f   WinUtil.obj
 0001:0005aea0       ?DivideRectV@@YAXAEBUtagRECT@@HHAEAU1@11@Z 000000014005bea0 f   WinUtil.obj
 0001:0005af30       ?GetCachedCursor@@YAPEAUHICON__@@PEA_W@Z 000000014005bf30 f   WinUtil.obj
 0001:0005b000       ?SetCursorCached@@YAXPEA_W@Z 000000014005c000 f   WinUtil.obj
 0001:0005b060       ?DeleteCachedCursors@@YAXXZ 000000014005c060 f   WinUtil.obj
 0001:0005b0d0       ?GetMeasurementSystem@@YAHXZ 000000014005c0d0 f   WinUtil.obj
 0001:0005b130       ?TrackMouseLeave@@YA_NPEAUHWND__@@@Z 000000014005c130 f   WinUtil.obj
 0001:0005b1b0       ?LockDataResource@@YA_NHPEAULoadedDataResource@@@Z 000000014005c1b0 f   WinUtil.obj
 0001:0005b2a0       ?GetInstance@@YAPEAUHINSTANCE__@@XZ 000000014005c2a0 f   WinUtil.obj
 0001:0005b2b0       ?ButtonGetIdealSize@@YA?AUSize@@PEAUHWND__@@@Z 000000014005c2b0 f   WinUtil.obj
 0001:0005b360       ?IsValidDelayType@@YA_NH@Z 000000014005c360 f   WinUtil.obj
 0001:0005b3a0       ?HwndResizeClientSize@@YAXPEAUHWND__@@HH@Z 000000014005c3a0 f   WinUtil.obj
 0001:0005b520       ?HwndGetTextLen@@YA_KPEAUHWND__@@@Z 000000014005c520 f   WinUtil.obj
 0001:0005b550       ?HwndGetTextWTemp@@YAPEA_WPEAUHWND__@@@Z 000000014005c550 f   WinUtil.obj
 0001:0005b5c0       ?HwndGetTextTemp@@YAPEADPEAUHWND__@@@Z 000000014005c5c0 f   WinUtil.obj
 0001:0005b640       ?HwndSetText@@YAXPEAUHWND__@@PEBD@Z 000000014005c640 f   WinUtil.obj
 0001:0005b6c0       ?HwndHasFrameThickness@@YA_NPEAUHWND__@@@Z 000000014005c6c0 f   WinUtil.obj
 0001:0005b6f0       ?HwndHasCaption@@YA_NPEAUHWND__@@@Z 000000014005c6f0 f   WinUtil.obj
 0001:0005b720       ?HwndSetDlgItemText@@YAXPEAUHWND__@@HPEBD@Z 000000014005c720 f   WinUtil.obj
 0001:0005b770       ?CbAddString@@YAXPEAUHWND__@@PEBD@Z 000000014005c770 f   WinUtil.obj
 0001:0005b7c0       ?CbSetCurrentSelection@@YAXPEAUHWND__@@H@Z 000000014005c7c0 f   WinUtil.obj
 0001:0005b800       ?HwndGetIcon@@YAPEAUHICON__@@PEAUHWND__@@@Z 000000014005c800 f   WinUtil.obj
 0001:0005b840       ?HwndSetIcon@@YAPEAUHICON__@@PEAUHWND__@@PEAU1@@Z 000000014005c840 f   WinUtil.obj
 0001:0005b8a0       ?HwndRepaintNow@@YAXPEAUHWND__@@@Z 000000014005c8a0 f   WinUtil.obj
 0001:0005b8f0       ?HwndScheduleRepaint@@YAXPEAUHWND__@@@Z 000000014005c8f0 f   WinUtil.obj
 0001:0005b930       ?HwndGetFont@@YAPEAUHFONT__@@PEAUHWND__@@@Z 000000014005c930 f   WinUtil.obj
 0001:0005b970       ?HwndSetFont@@YAXPEAUHWND__@@PEAUHFONT__@@@Z 000000014005c970 f   WinUtil.obj
 0001:0005b9c0       ?HwndPositionToTheRightOf@@YAXPEAUHWND__@@0@Z 000000014005c9c0 f   WinUtil.obj
 0001:0005bac0       ?HwndPositionInCenterOf@@YAXPEAUHWND__@@0@Z 000000014005cac0 f   WinUtil.obj
 0001:0005bc00       ?HwndSendCommand@@YAXPEAUHWND__@@H@Z 000000014005cc00 f   WinUtil.obj
 0001:0005bc40       ?HwndDestroyWindowSafe@@YAXPEAPEAUHWND__@@@Z 000000014005cc40 f   WinUtil.obj
 0001:0005bca0       ?HwndToForeground@@YAXPEAUHWND__@@@Z 000000014005cca0 f   WinUtil.obj
 0001:0005bce0       ?HwndSetVisibility@@YAXPEAUHWND__@@_N@Z 000000014005cce0 f   WinUtil.obj
 0001:0005bd30       ?DeleteObjectSafe@@YA_NPEAPEAX@Z 000000014005cd30 f   WinUtil.obj
 0001:0005bd90       ?DeleteBrushSafe@@YA_NPEAPEAUHBRUSH__@@@Z 000000014005cd90 f   WinUtil.obj
 0001:0005bdb0       ?DestroyIconSafe@@YA_NPEAPEAUHICON__@@@Z 000000014005cdb0 f   WinUtil.obj
 0001:0005be10       ?TbSetButtonInfo@@YAXPEAUHWND__@@HPEAUTBBUTTONINFOW@@@Z 000000014005ce10 f   WinUtil.obj
 0001:0005be80       ?TbGetPadding@@YAXPEAUHWND__@@PEAH1@Z 000000014005ce80 f   WinUtil.obj
 0001:0005bef0       ?TbSetPadding@@YAXPEAUHWND__@@HH@Z 000000014005cef0 f   WinUtil.obj
 0001:0005bf80       ?TbGetMetrics@@YAXPEAUHWND__@@PEAUTBMETRICS@@@Z 000000014005cf80 f   WinUtil.obj
 0001:0005bfc0       ?TbSetMetrics@@YAXPEAUHWND__@@PEAUTBMETRICS@@@Z 000000014005cfc0 f   WinUtil.obj
 0001:0005c000       ?TbGetRect@@YAXPEAUHWND__@@HPEAUtagRECT@@@Z 000000014005d000 f   WinUtil.obj
 0001:0005c070       ?TreeViewExpandRecursively@@YAXPEAUHWND__@@PEAU_TREEITEM@@I_N@Z 000000014005d070 f   WinUtil.obj
 0001:0005c130       ?AddPathToRecentDocs@@YAXPEBD@Z 000000014005d130 f   WinUtil.obj
 0001:0005c170       ?HGLOBALToStrTemp@@YAPEADPEAX_N@Z 000000014005d170 f   WinUtil.obj
 0001:0005c1f0       ?MemToHGLOBAL@@YAPEAXPEAXHI@Z 000000014005d1f0 f   WinUtil.obj
 0001:0005c270       ?StrToHGLOBAL@@YAPEAXPEBDI@Z 000000014005d270 f   WinUtil.obj
 0001:0005c2b0       ?AtomToStrTemp@@YAPEADG@Z  000000014005d2b0 f   WinUtil.obj
 0001:0005c330       ?MsgBox@@YAHPEAUHWND__@@PEBD1I@Z 000000014005d330 f   WinUtil.obj
 0001:0005c3a0       ?CpuID@@YAIXZ              000000014005d3a0 f   WinUtil.obj
 0001:0005c790       ?TimeNow@@YA?AT_LARGE_INTEGER@@XZ 000000014005d790 f   WinUtil.obj
 0001:0005c7b0       ?TimeDiffSecs@@YANAEBT_LARGE_INTEGER@@0@Z 000000014005d7b0 f   WinUtil.obj
 0001:0005c810       ?TimeDiffMs@@YANAEBT_LARGE_INTEGER@@0@Z 000000014005d810 f   WinUtil.obj
 0001:0005c880       ?IsPEFileSigned@@YA_NPEBD@Z 000000014005d880 f   WinUtil.obj
 0001:00060680       ??$AllocStruct@UBitmapPixels@@@@YAPEAUBitmapPixels@@XZ 0000000140061680 f i WinUtil.obj
 0001:000606a0       ??$IID_PPV_ARGS_Helper@UIMultiLanguage2@@@@YAPEAPEAXPEAPEAUIMultiLanguage2@@@Z 00000001400616a0 f i WinUtil.obj
 0001:000606b0       ??$IID_PPV_ARGS_Helper@UIShellLinkW@@@@YAPEAPEAXPEAPEAUIShellLinkW@@@Z 00000001400616b0 f i WinUtil.obj
 0001:000606c0       ??$IsMaskSet@J@bit@@YA_NJJ@Z 00000001400616c0 f i WinUtil.obj
 0001:00060710       ??$IsMaskSet@K@bit@@YA_NKK@Z 0000000140061710 f i WinUtil.obj
 0001:00060760       ??$ListInsertFront@UCreatedFontInfo@@@@YAXPEAPEAUCreatedFontInfo@@PEAU0@@Z 0000000140061760 f i WinUtil.obj
 0001:000607a0       ??$ListLen@UCreatedFontInfo@@@@YAHPEAUCreatedFontInfo@@@Z 00000001400617a0 f i WinUtil.obj
 0001:00060800       ??$QueryInterface@UIPersistFile@@@IUnknown@@QEAAJPEAPEAUIPersistFile@@@Z 0000000140061800 f i WinUtil.obj
 0001:00060850       ??0?$ScopedComPtr@UIMultiLanguage2@@@@QEAA@XZ 0000000140061850 f i WinUtil.obj
 0001:00060870       ??0?$ScopedComPtr@UIShellFolder@@@@QEAA@XZ 0000000140061870 f i WinUtil.obj
 0001:00060890       ??0?$ScopedComPtr@UIShellLinkW@@@@QEAA@XZ 0000000140061890 f i WinUtil.obj
 0001:000608b0       ??0?$ScopedComPtr@UIStream@@@@QEAA@XZ 00000001400618b0 f i WinUtil.obj
 0001:000608d0       ??0?$ScopedComQIPtr@UIPersistFile@@@@QEAA@PEAUIUnknown@@@Z 00000001400618d0 f i WinUtil.obj
 0001:00060930       ??0?$ScopedGdiObj@PEAUHBITMAP__@@@@QEAA@PEAUHBITMAP__@@@Z 0000000140061930 f i WinUtil.obj
 0001:00060960       ??0?$ScopedGdiObj@PEAUHBRUSH__@@@@QEAA@PEAUHBRUSH__@@@Z 0000000140061960 f i WinUtil.obj
 0001:00060990       ??0?$ScopedMem@E@@QEAA@PEAE@Z 0000000140061990 f i WinUtil.obj
 0001:000609c0       ??0?$bitset@$0CA@@std@@QEAA@XZ 00000001400619c0 f i WinUtil.obj
 0001:000609f0       ??0?$bitset@$0CA@@std@@QEAA@_K@Z 00000001400619f0 f i WinUtil.obj
 0001:00060a50       ??0AutoFreeWStr@@QEAA@PEA_W@Z 0000000140061a50 f i WinUtil.obj
 0001:00060aa0       ??0AutoReleaseDC@@QEAA@PEAUHWND__@@@Z 0000000140061aa0 f i WinUtil.obj
 0001:00060b00       ??0BlittableBitmap@@QEAA@XZ 0000000140061b00 f i WinUtil.obj
 0001:00060b60       ??0CreatedFontInfo@@QEAA@XZ 0000000140061b60 f i WinUtil.obj
 0001:00060bd0       ??0Point@@QEAA@XZ          0000000140061bd0 f i WinUtil.obj
 0001:00060c00       ??0ScopedCom@@QEAA@XZ      0000000140061c00 f i WinUtil.obj
 0001:00060c30       ??0ScopedSelectFont@@QEAA@PEAUHDC__@@PEAUHFONT__@@@Z 0000000140061c30 f i WinUtil.obj
 0001:00060cb0       ??0Size@@QEAA@XZ           0000000140061cb0 f i WinUtil.obj
 0001:00060ce0       ??0reference@?$bitset@$0CA@@std@@AEAA@AEAV12@_K@Z 0000000140061ce0 f i WinUtil.obj
 0001:00060d20       ??1?$ScopedComPtr@UIMultiLanguage2@@@@QEAA@XZ 0000000140061d20 f i WinUtil.obj
 0001:00060d60       ??1?$ScopedComPtr@UIShellFolder@@@@QEAA@XZ 0000000140061d60 f i WinUtil.obj
 0001:00060da0       ??1?$ScopedComPtr@UIShellLinkW@@@@QEAA@XZ 0000000140061da0 f i WinUtil.obj
 0001:00060de0       ??1?$ScopedComPtr@UIStream@@@@QEAA@XZ 0000000140061de0 f i WinUtil.obj
 0001:00060e20       ??1?$ScopedComQIPtr@UIPersistFile@@@@QEAA@XZ 0000000140061e20 f i WinUtil.obj
 0001:00060e60       ??1?$ScopedGdiObj@PEAUHBITMAP__@@@@QEAA@XZ 0000000140061e60 f i WinUtil.obj
 0001:00060e90       ??1?$ScopedGdiObj@PEAUHBRUSH__@@@@QEAA@XZ 0000000140061e90 f i WinUtil.obj
 0001:00060ec0       ??1AutoFreeWStr@@QEAA@XZ   0000000140061ec0 f i WinUtil.obj
 0001:00060ef0       ??1AutoReleaseDC@@QEAA@XZ  0000000140061ef0 f i WinUtil.obj
 0001:00060f20       ??1BlittableBitmap@@UEAA@XZ 0000000140061f20 f i WinUtil.obj
 0001:00060f40       ??1ScopedCom@@QEAA@XZ      0000000140061f40 f i WinUtil.obj
 0001:00060f60       ??1ScopedSelectFont@@QEAA@XZ 0000000140061f60 f i WinUtil.obj
 0001:00060fa0       ??1reference@?$bitset@$0CA@@std@@QEAA@XZ 0000000140061fa0 f i WinUtil.obj
 0001:00060fb0       ??A?$bitset@$0CA@@std@@QEAA?AVreference@01@_K@Z 0000000140061fb0 f i WinUtil.obj
 0001:00061000       ??B?$ScopedComPtr@UIShellLinkW@@@@QEBAPEAUIShellLinkW@@XZ 0000000140062000 f i WinUtil.obj
 0001:00061020       ??B?$ScopedComPtr@UIStream@@@@QEBAPEAUIStream@@XZ 0000000140062020 f i WinUtil.obj
 0001:00061040       ??B?$ScopedComQIPtr@UIPersistFile@@@@QEBAPEAUIPersistFile@@XZ 0000000140062040 f i WinUtil.obj
 0001:00061060       ??B?$ScopedGdiObj@PEAUHBITMAP__@@@@QEBAPEAUHBITMAP__@@XZ 0000000140062060 f i WinUtil.obj
 0001:00061080       ??B?$ScopedGdiObj@PEAUHBRUSH__@@@@QEBAPEAUHBRUSH__@@XZ 0000000140062080 f i WinUtil.obj
 0001:000610a0       ??B?$ScopedMem@_W@@QEBAPEA_WXZ 00000001400620a0 f i WinUtil.obj
 0001:000610c0       ??BAutoFreeWStr@@QEBAPEA_WXZ 00000001400620c0 f i WinUtil.obj
 0001:000610e0       ??BAutoReleaseDC@@QEBAPEAUHDC__@@XZ 00000001400620e0 f i WinUtil.obj
 0001:00061100       ??Breference@?$bitset@$0CA@@std@@QEBA_NXZ 0000000140062100 f i WinUtil.obj
 0001:00061140       ??C?$ScopedComPtr@UIMultiLanguage2@@@@QEBAPEAUIMultiLanguage2@@XZ 0000000140062140 f i WinUtil.obj
 0001:00061160       ??C?$ScopedComPtr@UIShellFolder@@@@QEBAPEAUIShellFolder@@XZ 0000000140062160 f i WinUtil.obj
 0001:00061180       ??C?$ScopedComPtr@UIShellLinkW@@@@QEBAPEAUIShellLinkW@@XZ 0000000140062180 f i WinUtil.obj
 0001:000611a0       ??C?$ScopedComPtr@UIStream@@@@QEBAPEAUIStream@@XZ 00000001400621a0 f i WinUtil.obj
 0001:000611c0       ??C?$ScopedComQIPtr@UIPersistFile@@@@QEBAPEAUIPersistFile@@XZ 00000001400621c0 f i WinUtil.obj
 0001:000611e0       ??I?$ScopedComPtr@UIShellFolder@@@@QEAAPEAPEAUIShellFolder@@XZ 00000001400621e0 f i WinUtil.obj
 0001:000611f0       ??I?$ScopedComPtr@UIStream@@@@QEAAPEAPEAUIStream@@XZ 00000001400621f0 f i WinUtil.obj
 0001:00061200       ??_EBlittableBitmap@@UEAAPEAXI@Z 0000000140062200 f i WinUtil.obj
 0001:00061200       ??_GBlittableBitmap@@UEAAPEAXI@Z 0000000140062200 f i WinUtil.obj
 0001:00061250       ??_ERenderedBitmap@@UEAAPEAXI@Z 0000000140062250 f i WinUtil.obj
 0001:00061250       ??_GRenderedBitmap@@UEAAPEAXI@Z 0000000140062250 f i WinUtil.obj
 0001:000612a0       ?Create@?$ScopedComPtr@UIMultiLanguage2@@@@QEAA_NU_GUID@@@Z 00000001400622a0 f i WinUtil.obj
 0001:00061380       ?Create@?$ScopedComPtr@UIShellLinkW@@@@QEAA_NU_GUID@@@Z 0000000140062380 f i WinUtil.obj
 0001:00061460       ?Get@AutoFreeWStr@@QEBAPEA_WXZ 0000000140062460 f i WinUtil.obj
 0001:00061480       ?_Subscript@?$bitset@$0CA@@std@@AEBA_N_K@Z 0000000140062480 f i WinUtil.obj
 0001:00061520       ?_Validate@?$bitset@$0CA@@std@@CAX_K@Z 0000000140062520 f i WinUtil.obj
 0001:00061530       ?abs@@YAJJ@Z               0000000140062530 f i WinUtil.obj
 0001:00061550       ?mul255@@YAHHH@Z           0000000140062550 f i WinUtil.obj
 0001:000615a0       ?tobool@@YA_NH@Z           00000001400625a0 f i WinUtil.obj
 0001:00062900       ?BaseUtilTest@@YAXXZ       0000000140063900 f   BaseUtil_ut.obj
 0001:00063450       ??$ListDelete@UListNode@@@@YAXPEAUListNode@@@Z 0000000140064450 f i BaseUtil_ut.obj
 0001:000634c0       ??$ListInsertEnd@UListNode@@@@YAXPEAPEAUListNode@@PEAU0@@Z 00000001400644c0 f i BaseUtil_ut.obj
 0001:00063580       ??$ListInsertFront@UListNode@@@@YAXPEAPEAUListNode@@PEAU0@@Z 0000000140064580 f i BaseUtil_ut.obj
 0001:000635c0       ??$ListReverse@UListNode@@@@YAXPEAPEAUListNode@@@Z 00000001400645c0 f i BaseUtil_ut.obj
 0001:00063640       ??$MkFunc0@UTestFn0Data@@@@YA?AUFunc0@@P6AXPEAUTestFn0Data@@@Z0@Z 0000000140064640 f i BaseUtil_ut.obj
 0001:000636b0       ??$MkFunc1@UTestFn0Data@@PEAUTestFn1Data@@@@YA?AU?$Func1@PEAUTestFn1Data@@@@P6AXPEAUTestFn0Data@@PEAUTestFn1Data@@@Z0@Z 00000001400646b0 f i BaseUtil_ut.obj
 0001:00063720       ??$addOverflows@E@@YA_NEE@Z 0000000140064720 f i BaseUtil_ut.obj
 0001:000637b0       ??$swap@URect@@$0A@@std@@YAXAEAURect@@0@Z 00000001400647b0 f i BaseUtil_ut.obj
 0001:00063820       ??0?$Func1@PEAUTestFn1Data@@@@QEAA@XZ 0000000140064820 f i BaseUtil_ut.obj
 0001:00063850       ??0ListNode@@QEAA@XZ       0000000140064850 f i BaseUtil_ut.obj
 0001:00063880       ??0SizeF@@QEAA@XZ          0000000140064880 f i BaseUtil_ut.obj
 0001:000638b0       ??0TestFn0Data@@QEAA@XZ    00000001400648b0 f i BaseUtil_ut.obj
 0001:000638d0       ??0TestFn1Data@@QEAA@XZ    00000001400648d0 f i BaseUtil_ut.obj
 0001:000638f0       ?Call@?$Func1@PEAUTestFn1Data@@@@QEBAXPEAUTestFn1Data@@@Z 00000001400648f0 f i BaseUtil_ut.obj
 0001:00063980       ?Call@Func0@@QEBAXXZ       0000000140064980 f i BaseUtil_ut.obj
 0001:00063a00       ?ByteOrderTests@@YAXXZ     0000000140064a00 f   ByteOrderDecoder_ut.obj
 0001:00064c40       ?Int16@ByteOrderDecoder@@QEAAFXZ 0000000140065c40 f i ByteOrderDecoder_ut.obj
 0001:00064c60       ?Int32@ByteOrderDecoder@@QEAAHXZ 0000000140065c60 f i ByteOrderDecoder_ut.obj
 0001:00064c80       ?Offset@ByteOrderDecoder@@QEBA_KXZ 0000000140065c80 f i ByteOrderDecoder_ut.obj
 0001:00064e90       ?CryptoUtilTest@@YAXXZ     0000000140065e90 f   CryptoUtil_ut.obj
 0001:000664d0       ?CssParser_UnitTests@@YAXXZ 00000001400674d0 f   CssParser_ut.obj
 0001:000669f0       ??0CssPullParser@@QEAA@PEBD_K@Z 00000001400679f0 f i CssParser_ut.obj
 0001:00066c40       ?DictTestMapStrToInt@@YAXXZ 0000000140067c40 f   Dict_ut.obj
 0001:00067250       ?DictTest@@YAXXZ           0000000140068250 f   Dict_ut.obj
 0001:00067430       ?begin@?$Vec@PEAD@@QEAAPEAPEADXZ 0000000140068430 f i Dict_ut.obj
 0001:00067450       ?end@?$Vec@PEAD@@QEAAPEAPEADXZ 0000000140068450 f i Dict_ut.obj
 0001:00067480       ?FileUtilTest@@YAXXZ       0000000140068480 f   FileUtil_ut.obj
 0001:00067e00       ?HtmlPrettyPrintTest@@YAXXZ 0000000140068e00 f   HtmlPrettyPrint_ut.obj
 0001:00068cd0       ?HtmlPullParser_UnitTests@@YAXXZ 0000000140069cd0 f   HtmlPullParser_ut.obj
 0001:00069060       ?JsonTest@@YAXXZ           000000014006a060 f   JsonParser_ut.obj
 0001:00069b70       ??0JsonValue@@QEAA@PEBD0W4Type@json@@@Z 000000014006ab70 f i JsonParser_ut.obj
 0001:00069bd0       ??0JsonValue@@QEAA@XZ      000000014006abd0 f i JsonParser_ut.obj
 0001:00069c10       ??0JsonVerifier@@QEAA@PEBUJsonValue@@_K@Z 000000014006ac10 f i JsonParser_ut.obj
 0001:00069c90       ??0ValueVisitor@json@@QEAA@XZ 000000014006ac90 f i JsonParser_ut.obj
 0001:00069cb0       ??1JsonVerifier@@UEAA@XZ   000000014006acb0 f i JsonParser_ut.obj
 0001:00069d30       ??1ValueVisitor@json@@UEAA@XZ 000000014006ad30 f i JsonParser_ut.obj
 0001:00069d40       ??_EJsonVerifier@@UEAAPEAXI@Z 000000014006ad40 f i JsonParser_ut.obj
 0001:00069d40       ??_GJsonVerifier@@UEAAPEAXI@Z 000000014006ad40 f i JsonParser_ut.obj
 0001:00069d90       ??_EValueVisitor@json@@UEAAPEAXI@Z 000000014006ad90 f i JsonParser_ut.obj
 0001:00069d90       ??_GValueVisitor@json@@UEAAPEAXI@Z 000000014006ad90 f i JsonParser_ut.obj
 0001:00069de0       ?Visit@JsonVerifier@@UEAA_NPEBD0W4Type@json@@@Z 000000014006ade0 f i JsonParser_ut.obj
 0001:00069f50       ?SettingsUtilTest@@YAXXZ   000000014006af50 f   SettingsUtil_ut.obj
 0001:0006b0d0       ??BByteSlice@@QEAAPEBDXZ   000000014006c0d0 f i SettingsUtil_ut.obj
 0001:0006b0f0       ?at@?$Vec@H@@QEBAAEAHH@Z   000000014006c0f0 f i SettingsUtil_ut.obj
 0001:0006b190       ?at@?$Vec@PEAD@@QEBAAEAPEADH@Z 000000014006c190 f i SettingsUtil_ut.obj
 0001:0006b230       ?at@?$Vec@PEAUSutStructItem@@@@QEBAAEAPEAUSutStructItem@@H@Z 000000014006c230 f i SettingsUtil_ut.obj
 0001:0006b2d0       ?size@?$Vec@M@@QEBA_KXZ    000000014006c2d0 f i SettingsUtil_ut.obj
 0001:0006b2f0       ?size@?$Vec@PEAUSutStructItem@@@@QEBA_KXZ 000000014006c2f0 f i SettingsUtil_ut.obj
 0001:0006b310       ?SimpleLogTest@@YAXXZ      000000014006c310 f   SimpleLog_ut.obj
 0001:0006b3c0       ?SquareTreeTest@@YAXXZ     000000014006c3c0 f   SquareTreeParser_ut.obj
 0001:0006cfa0       ?at@?$Vec@UDataItem@SquareTreeNode@@@@QEBAAEAUDataItem@SquareTreeNode@@H@Z 000000014006dfa0 f i SquareTreeParser_ut.obj
 0001:0006d040       ?check@@YAXPEBD0@Z         000000014006e040 f   StrFormat_ut.obj
 0001:0006d090       ?StrFormatTest@@YAXXZ      000000014006e090 f   StrFormat_ut.obj
 0001:0006e4f0       ??0Arg@fmt@@QEAA@D@Z       000000014006f4f0 f i StrFormat_ut.obj
 0001:0006e550       ??0Arg@fmt@@QEAA@H@Z       000000014006f550 f i StrFormat_ut.obj
 0001:0006e5b0       ??0Arg@fmt@@QEAA@M@Z       000000014006f5b0 f i StrFormat_ut.obj
 0001:0006e620       ??0Arg@fmt@@QEAA@PEB_W@Z   000000014006f620 f i StrFormat_ut.obj
 0001:0006e680       ??0Arg@fmt@@QEAA@XZ        000000014006f680 f i StrFormat_ut.obj
 0001:0006e6c0       ??4AutoFree@@QEAAAEAU0@PEBD@Z 000000014006f6c0 f i StrFormat_ut.obj
 0001:0006f4e0       ?strStrTest@@YAXXZ         00000001400704e0 f   StrUtil_ut.obj
 0001:0006f9d0       ?StrTest@@YAXXZ            00000001400709d0 f   StrUtil_ut.obj
 0001:00077cf0       ?StrVecTest@@YAXXZ         0000000140078cf0 f   StrVec_ut.obj
 0001:00078de0       ??0?$StrVecWithData@UData1@@@@QEAA@XZ 0000000140079de0 f i StrVec_ut.obj
 0001:00078e10       ??0?$StrVecWithData@UData2@@@@QEAA@XZ 0000000140079e10 f i StrVec_ut.obj
 0001:00078e40       ??1?$StrVecWithData@UData1@@@@QEAA@XZ 0000000140079e40 f i StrVec_ut.obj
 0001:00078e60       ??1?$StrVecWithData@UData2@@@@QEAA@XZ 0000000140079e60 f i StrVec_ut.obj
 0001:00078e80       ??_GStrVec@@QEAAPEAXI@Z    0000000140079e80 f i StrVec_ut.obj
 0001:00078ed0       ?Append@?$StrVecWithData@UData1@@@@QEAAHAEBUStrSpan@@AEBUData1@@@Z 0000000140079ed0 f i StrVec_ut.obj
 0001:00078f70       ?Append@?$StrVecWithData@UData1@@@@QEAAHPEBDAEBUData1@@@Z 0000000140079f70 f i StrVec_ut.obj
 0001:00078fd0       ?Append@?$StrVecWithData@UData2@@@@QEAAHAEBUStrSpan@@AEBUData2@@@Z 0000000140079fd0 f i StrVec_ut.obj
 0001:00079080       ?Append@?$StrVecWithData@UData2@@@@QEAAHPEBDAEBUData2@@@Z 000000014007a080 f i StrVec_ut.obj
 0001:000790e0       ?AtData@?$StrVecWithData@UData1@@@@QEBAPEAUData1@@H@Z 000000014007a0e0 f i StrVec_ut.obj
 0001:00079120       ?AtData@?$StrVecWithData@UData2@@@@QEBAPEAUData2@@H@Z 000000014007a120 f i StrVec_ut.obj
 0001:0007b3b0       ?TrivialHtmlParser_UnitTests@@YAXXZ 000000014007c3b0 f   TrivialHtmlParser_ut.obj
 0001:0007bcb0       ?Free@ByteSlice@@QEAAXXZ   000000014007ccb0 f i TrivialHtmlParser_ut.obj
 0001:0007bfa0       ?VecTest@@YAXXZ            000000014007cfa0 f   Vec_ut.obj
 0001:0007db10       ??$DeleteVecMembers@PEAUPoint@@@@YAXAEAV?$Vec@PEAUPoint@@@@@Z 000000014007eb10 f i Vec_ut.obj
 0001:0007dbc0       ??$begin@UNum@@@PoolAllocator@@QEAA?AU?$Iter@UNum@@@0@XZ 000000014007ebc0 f i Vec_ut.obj
 0001:0007dc00       ??$end@UNum@@@PoolAllocator@@QEAA?AU?$Iter@UNum@@@0@XZ 000000014007ec00 f i Vec_ut.obj
 0001:0007dc40       ??0?$Iter@UNum@@@PoolAllocator@@QEAA@PEAU1@H@Z 000000014007ec40 f i Vec_ut.obj
 0001:0007dc80       ??0?$Vec@H@@QEAA@AEBV0@@Z  000000014007ec80 f i Vec_ut.obj
 0001:0007dd80       ??0?$Vec@PEAUPoint@@@@QEAA@_KPEAUAllocator@@@Z 000000014007ed80 f i Vec_ut.obj
 0001:0007de40       ??0?$VecSegmented@UNum@@@@QEAA@XZ 000000014007ee40 f i Vec_ut.obj
 0001:0007de70       ??1?$Vec@PEAUPoint@@@@QEAA@XZ 000000014007ee70 f i Vec_ut.obj
 0001:0007de90       ??1?$VecSegmented@UNum@@@@QEAA@XZ 000000014007ee90 f i Vec_ut.obj
 0001:0007ded0       ??4?$Vec@H@@QEAAAEAV0@AEBV0@@Z 000000014007eed0 f i Vec_ut.obj
 0001:0007dff0       ??9?$Iter@UNum@@@PoolAllocator@@QEBA_NAEBU01@@Z 000000014007eff0 f i Vec_ut.obj
 0001:0007e040       ??D?$Iter@UNum@@@PoolAllocator@@QEBAPEAUNum@@XZ 000000014007f040 f i Vec_ut.obj
 0001:0007e080       ??E?$Iter@UNum@@@PoolAllocator@@QEAAAEAU01@XZ 000000014007f080 f i Vec_ut.obj
 0001:0007e0b0       ?AllocAtEnd@?$VecSegmented@UNum@@@@QEAAPEAUNum@@XZ 000000014007f0b0 f i Vec_ut.obj
 0001:0007e110       ?Append@?$Vec@H@@QEAA_NAEBH@Z 000000014007f110 f i Vec_ut.obj
 0001:0007e150       ?Append@?$Vec@PEAUPoint@@@@QEAA_NAEBQEAUPoint@@@Z 000000014007f150 f i Vec_ut.obj
 0001:0007e190       ?Append@?$VecSegmented@UNum@@@@QEAAPEAUNum@@AEBU2@@Z 000000014007f190 f i Vec_ut.obj
 0001:0007e1e0       ?Clear@?$Vec@PEAUPoint@@@@QEAAXXZ 000000014007f1e0 f i Vec_ut.obj
 0001:0007e230       ?EnsureCap@?$Vec@PEAUPoint@@@@IEAA_N_K@Z 000000014007f230 f i Vec_ut.obj
 0001:0007e280       ?EnsureCapSlow@?$Vec@PEAUPoint@@@@IEAA_N_K@Z 000000014007f280 f i Vec_ut.obj
 0001:0007e490       ?Find@?$Vec@H@@QEBAHAEBH_K@Z 000000014007f490 f i Vec_ut.obj
 0001:0007e510       ?Find@?$Vec@PEAUPoint@@@@QEBAHAEBQEAUPoint@@_K@Z 000000014007f510 f i Vec_ut.obj
 0001:0007e590       ?FreeEls@?$Vec@PEAUPoint@@@@IEAAXXZ 000000014007f590 f i Vec_ut.obj
 0001:0007e5f0       ?InsertAt@?$Vec@H@@QEAA_N_KAEBH@Z 000000014007f5f0 f i Vec_ut.obj
 0001:0007e660       ?InsertAt@?$Vec@PEAUPoint@@@@QEAA_N_KAEBQEAUPoint@@@Z 000000014007f660 f i Vec_ut.obj
 0001:0007e6d0       ?Last@?$Vec@H@@QEBAAEAHXZ  000000014007f6d0 f i Vec_ut.obj
 0001:0007e740       ?LendData@?$Vec@H@@QEBAPEAHXZ 000000014007f740 f i Vec_ut.obj
 0001:0007e760       ?MakeSpaceAt@?$Vec@PEAUPoint@@@@IEAAPEAPEAUPoint@@_K0@Z 000000014007f760 f i Vec_ut.obj
 0001:0007e8a0       ?Pop@?$Vec@H@@QEAAHXZ      000000014007f8a0 f i Vec_ut.obj
 0001:0007e940       ?Remove@?$Vec@H@@QEAAHAEBH@Z 000000014007f940 f i Vec_ut.obj
 0001:0007e9b0       ?Remove@?$Vec@PEAUPoint@@@@QEAAHAEBQEAUPoint@@@Z 000000014007f9b0 f i Vec_ut.obj
 0001:0007ea20       ?RemoveAt@?$Vec@H@@QEAAX_K0@Z 000000014007fa20 f i Vec_ut.obj
 0001:0007eb40       ?RemoveAt@?$Vec@PEAUPoint@@@@QEAAX_K0@Z 000000014007fb40 f i Vec_ut.obj
 0001:0007ec60       ?RemoveAtFast@?$Vec@H@@QEAAX_K@Z 000000014007fc60 f i Vec_ut.obj
 0001:0007ed70       ?Reset@?$Vec@PEAUPoint@@@@QEAAXXZ 000000014007fd70 f i Vec_ut.obj
 0001:0007edf0       ?Reverse@?$Vec@H@@QEAAXXZ  000000014007fdf0 f i Vec_ut.obj
 0001:0007ee90       ?Size@?$VecSegmented@UNum@@@@QEBA_KXZ 000000014007fe90 f i Vec_ut.obj
 0001:0007eeb0       ?at@?$Vec@PEAUPoint@@@@QEBAAEAPEAUPoint@@_K@Z 000000014007feb0 f i Vec_ut.obj
 0001:0007ef20       ?begin@?$Vec@H@@QEAAPEAHXZ 000000014007ff20 f i Vec_ut.obj
 0001:0007ef40       ?begin@?$Vec@PEAUPoint@@@@QEAAPEAPEAUPoint@@XZ 000000014007ff40 f i Vec_ut.obj
 0001:0007ef60       ?begin@?$VecSegmented@UNum@@@@QEAA?AU?$Iter@UNum@@@PoolAllocator@@XZ 000000014007ff60 f i Vec_ut.obj
 0001:0007efa0       ?end@?$Vec@H@@QEAAPEAHXZ   000000014007ffa0 f i Vec_ut.obj
 0001:0007efd0       ?end@?$Vec@PEAUPoint@@@@QEAAPEAPEAUPoint@@XZ 000000014007ffd0 f i Vec_ut.obj
 0001:0007f000       ?end@?$VecSegmented@UNum@@@@QEAA?AU?$Iter@UNum@@@PoolAllocator@@XZ 0000000140080000 f i Vec_ut.obj
 0001:0007f040       ?size@?$Vec@PEAUPoint@@@@QEBA_KXZ 0000000140080040 f i Vec_ut.obj
 0001:0007f060       ?WinUtilTest@@YAXXZ        0000000140080060 f   WinUtil_ut.obj
 0001:0007f4a0       ??0?$ScopedComPtr@UIStream@@@@QEAA@PEAUIStream@@@Z 00000001400804a0 f i WinUtil_ut.obj
 0001:0007f4d0       ?Get@ByteSlice@@QEBAPEAEXZ 00000001400804d0 f i WinUtil_ut.obj
 0001:0007f4e1       InitCommonControlsEx       00000001400804e1 f   comctl32:COMCTL32.dll
 0001:0007f4e7       PathIsRelativeW            00000001400804e7 f   shlwapi:SHLWAPI.dll
 0001:0007f4ed       PathIsNetworkPathW         00000001400804ed f   shlwapi:SHLWAPI.dll
 0001:0007f4f3       PathAppendW                00000001400804f3 f   shlwapi:SHLWAPI.dll
 0001:0007f4f9       SHDeleteKeyW               00000001400804f9 f   shlwapi:SHLWAPI.dll
 0001:0007f4ff       SHDeleteValueW             00000001400804ff f   shlwapi:SHLWAPI.dll
 0001:0007f505       SHGetValueW                0000000140080505 f   shlwapi:SHLWAPI.dll
 0001:0007f50b       SHSetValueW                000000014008050b f   shlwapi:SHLWAPI.dll
 0001:0007f511       InternetGetLastResponseInfoA 0000000140080511 f   wininet:WININET.dll
 0001:0007f517       WinVerifyTrust             0000000140080517 f   wintrust:WINTRUST.dll
 0001:0007f51d       IsDebuggerPresent          000000014008051d f   kernel32:KERNEL32.dll
 0001:0007f523       DebugBreak                 0000000140080523 f   kernel32:KERNEL32.dll
 0001:0007f529       GetLastError               0000000140080529 f   kernel32:KERNEL32.dll
 0001:0007f52f       GetSystemTimeAsFileTime    000000014008052f f   kernel32:KERNEL32.dll
 0001:0007f535       OutputDebugStringA         0000000140080535 f   kernel32:KERNEL32.dll
 0001:0007f53b       InitializeCriticalSection  000000014008053b f   kernel32:KERNEL32.dll
 0001:0007f541       EnterCriticalSection       0000000140080541 f   kernel32:KERNEL32.dll
 0001:0007f547       LeaveCriticalSection       0000000140080547 f   kernel32:KERNEL32.dll
 0001:0007f54d       DeleteCriticalSection      000000014008054d f   kernel32:KERNEL32.dll
 0001:0007f553       LocalFree                  0000000140080553 f   kernel32:KERNEL32.dll
 0001:0007f559       MulDiv                     0000000140080559 f   kernel32:KERNEL32.dll
 0001:0007f55f       CreateDirectoryW           000000014008055f f   kernel32:KERNEL32.dll
 0001:0007f565       CreateFileW                0000000140080565 f   kernel32:KERNEL32.dll
 0001:0007f56b       DeleteFileW                000000014008056b f   kernel32:KERNEL32.dll
 0001:0007f571       GetDriveTypeA              0000000140080571 f   kernel32:KERNEL32.dll
 0001:0007f577       GetDriveTypeW              0000000140080577 f   kernel32:KERNEL32.dll
 0001:0007f57d       GetFileAttributesW         000000014008057d f   kernel32:KERNEL32.dll
 0001:0007f583       GetFileAttributesExW       0000000140080583 f   kernel32:KERNEL32.dll
 0001:0007f589       GetFileInformationByHandle 0000000140080589 f   kernel32:KERNEL32.dll
 0001:0007f58f       GetFileSizeEx              000000014008058f f   kernel32:KERNEL32.dll
 0001:0007f595       GetFileTime                0000000140080595 f   kernel32:KERNEL32.dll
 0001:0007f59b       GetFullPathNameW           000000014008059b f   kernel32:KERNEL32.dll
 0001:0007f5a1       GetLongPathNameW           00000001400805a1 f   kernel32:KERNEL32.dll
 0001:0007f5a7       GetShortPathNameW          00000001400805a7 f   kernel32:KERNEL32.dll
 0001:0007f5ad       GetTempFileNameW           00000001400805ad f   kernel32:KERNEL32.dll
 0001:0007f5b3       GetVolumePathNameW         00000001400805b3 f   kernel32:KERNEL32.dll
 0001:0007f5b9       ReadFile                   00000001400805b9 f   kernel32:KERNEL32.dll
 0001:0007f5bf       SetFileAttributesW         00000001400805bf f   kernel32:KERNEL32.dll
 0001:0007f5c5       SetFileTime                00000001400805c5 f   kernel32:KERNEL32.dll
 0001:0007f5cb       WriteFile                  00000001400805cb f   kernel32:KERNEL32.dll
 0001:0007f5d1       GetTempPathW               00000001400805d1 f   kernel32:KERNEL32.dll
 0001:0007f5d7       CloseHandle                00000001400805d7 f   kernel32:KERNEL32.dll
 0001:0007f5dd       GetPrivateProfileIntW      00000001400805dd f   kernel32:KERNEL32.dll
 0001:0007f5e3       WritePrivateProfileStringW 00000001400805e3 f   kernel32:KERNEL32.dll
 0001:0007f5e9       CopyFileW                  00000001400805e9 f   kernel32:KERNEL32.dll
 0001:0007f5ef       WideCharToMultiByte        00000001400805ef f   kernel32:KERNEL32.dll
 0001:0007f5f5       SetNamedPipeHandleState    00000001400805f5 f   kernel32:KERNEL32.dll
 0001:0007f5fb       HeapCreate                 00000001400805fb f   kernel32:KERNEL32.dll
 0001:0007f601       HeapDestroy                0000000140080601 f   kernel32:KERNEL32.dll
 0001:0007f607       HeapAlloc                  0000000140080607 f   kernel32:KERNEL32.dll
 0001:0007f60d       HeapReAlloc                000000014008060d f   kernel32:KERNEL32.dll
 0001:0007f613       HeapFree                   0000000140080613 f   kernel32:KERNEL32.dll
 0001:0007f619       SetEvent                   0000000140080619 f   kernel32:KERNEL32.dll
 0001:0007f61f       WaitForSingleObject        000000014008061f f   kernel32:KERNEL32.dll
 0001:0007f625       CreateEventW               0000000140080625 f   kernel32:KERNEL32.dll
 0001:0007f62b       GetLocaleInfoW             000000014008062b f   kernel32:KERNEL32.dll
 0001:0007f631       MultiByteToWideChar        0000000140080631 f   kernel32:KERNEL32.dll
 0001:0007f637       GetSystemDirectoryW        0000000140080637 f   kernel32:KERNEL32.dll
 0001:0007f63d       GetProcAddress             000000014008063d f   kernel32:KERNEL32.dll
 0001:0007f643       LoadLibraryW               0000000140080643 f   kernel32:KERNEL32.dll
 0001:0007f649       GetStdHandle               0000000140080649 f   kernel32:KERNEL32.dll
 0001:0007f64f       GetEnvironmentVariableW    000000014008064f f   kernel32:KERNEL32.dll
 0001:0007f655       SetCurrentDirectoryW       0000000140080655 f   kernel32:KERNEL32.dll
 0001:0007f65b       QueryPerformanceCounter    000000014008065b f   kernel32:KERNEL32.dll
 0001:0007f661       QueryPerformanceFrequency  0000000140080661 f   kernel32:KERNEL32.dll
 0001:0007f667       GetProcessTimes            0000000140080667 f   kernel32:KERNEL32.dll
 0001:0007f66d       GetCurrentProcess          000000014008066d f   kernel32:KERNEL32.dll
 0001:0007f673       GetCurrentProcessId        0000000140080673 f   kernel32:KERNEL32.dll
 0001:0007f679       GetCurrentThread           0000000140080679 f   kernel32:KERNEL32.dll
 0001:0007f67f       CreateProcessW             000000014008067f f   kernel32:KERNEL32.dll
 0001:0007f685       OpenProcess                0000000140080685 f   kernel32:KERNEL32.dll
 0001:0007f68b       GetWindowsDirectoryW       000000014008068b f   kernel32:KERNEL32.dll
 0001:0007f691       GetVersionExW              0000000140080691 f   kernel32:KERNEL32.dll
 0001:0007f697       CreateFileMappingW         0000000140080697 f   kernel32:KERNEL32.dll
 0001:0007f69d       FreeLibrary                000000014008069d f   kernel32:KERNEL32.dll
 0001:0007f6a3       GetModuleFileNameW         00000001400806a3 f   kernel32:KERNEL32.dll
 0001:0007f6a9       GetModuleHandleW           00000001400806a9 f   kernel32:KERNEL32.dll
 0001:0007f6af       LoadResource               00000001400806af f   kernel32:KERNEL32.dll
 0001:0007f6b5       LockResource               00000001400806b5 f   kernel32:KERNEL32.dll
 0001:0007f6bb       SizeofResource             00000001400806bb f   kernel32:KERNEL32.dll
 0001:0007f6c1       FindResourceW              00000001400806c1 f   kernel32:KERNEL32.dll
 0001:0007f6c7       LoadLibraryA               00000001400806c7 f   kernel32:KERNEL32.dll
 0001:0007f6cd       GlobalAlloc                00000001400806cd f   kernel32:KERNEL32.dll
 0001:0007f6d3       GlobalUnlock               00000001400806d3 f   kernel32:KERNEL32.dll
 0001:0007f6d9       GlobalLock                 00000001400806d9 f   kernel32:KERNEL32.dll
 0001:0007f6df       GlobalFree                 00000001400806df f   kernel32:KERNEL32.dll
 0001:0007f6e5       FormatMessageA             00000001400806e5 f   kernel32:KERNEL32.dll
 0001:0007f6eb       GlobalGetAtomNameW         00000001400806eb f   kernel32:KERNEL32.dll
 0001:0007f6f1       AllocConsole               00000001400806f1 f   kernel32:KERNEL32.dll
 0001:0007f6f7       AttachConsole              00000001400806f7 f   kernel32:KERNEL32.dll
 0001:0007f6fd       GetConsoleScreenBufferInfo 00000001400806fd f   kernel32:KERNEL32.dll
 0001:0007f703       SetConsoleScreenBufferSize 0000000140080703 f   kernel32:KERNEL32.dll
 0001:0007f709       GetDC                      0000000140080709 f   user32:USER32.dll
 0001:0007f70f       ReleaseDC                  000000014008070f f   user32:USER32.dll
 0001:0007f715       GetDesktopWindow           0000000140080715 f   user32:USER32.dll
 0001:0007f71b       TrackMouseEvent            000000014008071b f   user32:USER32.dll
 0001:0007f721       SendMessageW               0000000140080721 f   user32:USER32.dll
 0001:0007f727       IsWindow                   0000000140080727 f   user32:USER32.dll
 0001:0007f72d       DestroyWindow              000000014008072d f   user32:USER32.dll
 0001:0007f733       ShowWindow                 0000000140080733 f   user32:USER32.dll
 0001:0007f739       MoveWindow                 0000000140080739 f   user32:USER32.dll
 0001:0007f73f       SetWindowPos               000000014008073f f   user32:USER32.dll
 0001:0007f745       BeginDeferWindowPos        0000000140080745 f   user32:USER32.dll
 0001:0007f74b       DeferWindowPos             000000014008074b f   user32:USER32.dll
 0001:0007f751       EndDeferWindowPos          0000000140080751 f   user32:USER32.dll
 0001:0007f757       IsIconic                   0000000140080757 f   user32:USER32.dll
 0001:0007f75d       GetDlgItem                 000000014008075d f   user32:USER32.dll
 0001:0007f763       SetDlgItemTextW            0000000140080763 f   user32:USER32.dll
 0001:0007f769       OpenClipboard              0000000140080769 f   user32:USER32.dll
 0001:0007f76f       CloseClipboard             000000014008076f f   user32:USER32.dll
 0001:0007f775       SetClipboardData           0000000140080775 f   user32:USER32.dll
 0001:0007f77b       EmptyClipboard             000000014008077b f   user32:USER32.dll
 0001:0007f781       SetFocus                   0000000140080781 f   user32:USER32.dll
 0001:0007f787       GetFocus                   0000000140080787 f   user32:USER32.dll
 0001:0007f78d       GetKeyState                000000014008078d f   user32:USER32.dll
 0001:0007f793       SendInput                  0000000140080793 f   user32:USER32.dll
 0001:0007f799       GetSystemMetrics           0000000140080799 f   user32:USER32.dll
 0001:0007f79f       CheckMenuItem              000000014008079f f   user32:USER32.dll
 0001:0007f7a5       EnableMenuItem             00000001400807a5 f   user32:USER32.dll
 0001:0007f7ab       RemoveMenu                 00000001400807ab f   user32:USER32.dll
 0001:0007f7b1       SetMenuItemInfoW           00000001400807b1 f   user32:USER32.dll
 0001:0007f7b7       DrawTextW                  00000001400807b7 f   user32:USER32.dll
 0001:0007f7bd       DrawTextExW                00000001400807bd f   user32:USER32.dll
 0001:0007f7c3       UpdateWindow               00000001400807c3 f   user32:USER32.dll
 0001:0007f7c9       SetForegroundWindow        00000001400807c9 f   user32:USER32.dll
 0001:0007f7cf       GetWindowDC                00000001400807cf f   user32:USER32.dll
 0001:0007f7d5       InvalidateRect             00000001400807d5 f   user32:USER32.dll
 0001:0007f7db       GetClientRect              00000001400807db f   user32:USER32.dll
 0001:0007f7e1       GetWindowRect              00000001400807e1 f   user32:USER32.dll
 0001:0007f7e7       AdjustWindowRectEx         00000001400807e7 f   user32:USER32.dll
 0001:0007f7ed       MessageBoxW                00000001400807ed f   user32:USER32.dll
 0001:0007f7f3       SetCursor                  00000001400807f3 f   user32:USER32.dll
 0001:0007f7f9       GetCursorPos               00000001400807f9 f   user32:USER32.dll
 0001:0007f7ff       GetCursor                  00000001400807ff f   user32:USER32.dll
 0001:0007f805       ClientToScreen             0000000140080805 f   user32:USER32.dll
 0001:0007f80b       ScreenToClient             000000014008080b f   user32:USER32.dll
 0001:0007f811       MapWindowPoints            0000000140080811 f   user32:USER32.dll
 0001:0007f817       FillRect                   0000000140080817 f   user32:USER32.dll
 0001:0007f81d       GetWindowLongW             000000014008081d f   user32:USER32.dll
 0001:0007f823       SetWindowLongW             0000000140080823 f   user32:USER32.dll
 0001:0007f829       GetParent                  0000000140080829 f   user32:USER32.dll
 0001:0007f82f       GetClassNameW              000000014008082f f   user32:USER32.dll
 0001:0007f835       LoadCursorW                0000000140080835 f   user32:USER32.dll
 0001:0007f83b       DestroyCursor              000000014008083b f   user32:USER32.dll
 0001:0007f841       DestroyIcon                0000000140080841 f   user32:USER32.dll
 0001:0007f847       CopyImage                  0000000140080847 f   user32:USER32.dll
 0001:0007f84d       SystemParametersInfoW      000000014008084d f   user32:USER32.dll
 0001:0007f853       MonitorFromRect            0000000140080853 f   user32:USER32.dll
 0001:0007f859       MonitorFromWindow          0000000140080859 f   user32:USER32.dll
 0001:0007f85f       GetMonitorInfoW            000000014008085f f   user32:USER32.dll
 0001:0007f865       EnumDisplayMonitors        0000000140080865 f   user32:USER32.dll
 0001:0007f86b       GetWindowInfo              000000014008086b f   user32:USER32.dll
 0001:0007f871       DdeInitializeW             0000000140080871 f   user32:USER32.dll
 0001:0007f877       DdeUninitialize            0000000140080877 f   user32:USER32.dll
 0001:0007f87d       DdeConnect                 000000014008087d f   user32:USER32.dll
 0001:0007f883       DdeDisconnect              0000000140080883 f   user32:USER32.dll
 0001:0007f889       DdeClientTransaction       0000000140080889 f   user32:USER32.dll
 0001:0007f88f       DdeFreeDataHandle          000000014008088f f   user32:USER32.dll
 0001:0007f895       DdeCreateStringHandleW     0000000140080895 f   user32:USER32.dll
 0001:0007f89b       DdeFreeStringHandle        000000014008089b f   user32:USER32.dll
 0001:0007f8a1       GetDeviceCaps              00000001400808a1 f   gdi32:GDI32.dll
 0001:0007f8a7       BitBlt                     00000001400808a7 f   gdi32:GDI32.dll
 0001:0007f8ad       CreateCompatibleBitmap     00000001400808ad f   gdi32:GDI32.dll
 0001:0007f8b3       CreateCompatibleDC         00000001400808b3 f   gdi32:GDI32.dll
 0001:0007f8b9       CreateFontIndirectW        00000001400808b9 f   gdi32:GDI32.dll
 0001:0007f8bf       CreateSolidBrush           00000001400808bf f   gdi32:GDI32.dll
 0001:0007f8c5       DeleteDC                   00000001400808c5 f   gdi32:GDI32.dll
 0001:0007f8cb       DeleteObject               00000001400808cb f   gdi32:GDI32.dll
 0001:0007f8d1       GetDIBits                  00000001400808d1 f   gdi32:GDI32.dll
 0001:0007f8d7       LineTo                     00000001400808d7 f   gdi32:GDI32.dll
 0001:0007f8dd       SelectObject               00000001400808dd f   gdi32:GDI32.dll
 0001:0007f8e3       SetBkMode                  00000001400808e3 f   gdi32:GDI32.dll
 0001:0007f8e9       SetDIBits                  00000001400808e9 f   gdi32:GDI32.dll
 0001:0007f8ef       SetGraphicsMode            00000001400808ef f   gdi32:GDI32.dll
 0001:0007f8f5       StretchBlt                 00000001400808f5 f   gdi32:GDI32.dll
 0001:0007f8fb       SetStretchBltMode          00000001400808fb f   gdi32:GDI32.dll
 0001:0007f901       SetWorldTransform          0000000140080901 f   gdi32:GDI32.dll
 0001:0007f907       CreateDIBSection           0000000140080907 f   gdi32:GDI32.dll
 0001:0007f90d       GetDIBColorTable           000000014008090d f   gdi32:GDI32.dll
 0001:0007f913       SetDIBColorTable           0000000140080913 f   gdi32:GDI32.dll
 0001:0007f919       GetObjectW                 0000000140080919 f   gdi32:GDI32.dll
 0001:0007f91f       MoveToEx                   000000014008091f f   gdi32:GDI32.dll
 0001:0007f925       DeviceCapabilitiesW        0000000140080925 f   winspool:WINSPOOL.DRV
 0001:0007f92b       EnumPrintersW              000000014008092b f   winspool:WINSPOOL.DRV
 0001:0007f931       GetDefaultPrinterW         0000000140080931 f   winspool:WINSPOOL.DRV
 0001:0007f937       CryptAcquireContextW       0000000140080937 f   advapi32:ADVAPI32.dll
 0001:0007f93d       CryptReleaseContext        000000014008093d f   advapi32:ADVAPI32.dll
 0001:0007f943       CryptGetHashParam          0000000140080943 f   advapi32:ADVAPI32.dll
 0001:0007f949       CryptImportKey             0000000140080949 f   advapi32:ADVAPI32.dll
 0001:0007f94f       CryptCreateHash            000000014008094f f   advapi32:ADVAPI32.dll
 0001:0007f955       CryptHashData              0000000140080955 f   advapi32:ADVAPI32.dll
 0001:0007f95b       CryptDestroyHash           000000014008095b f   advapi32:ADVAPI32.dll
 0001:0007f961       CryptVerifySignatureW      0000000140080961 f   advapi32:ADVAPI32.dll
 0001:0007f967       OpenProcessToken           0000000140080967 f   advapi32:ADVAPI32.dll
 0001:0007f96d       OpenThreadToken            000000014008096d f   advapi32:ADVAPI32.dll
 0001:0007f973       AllocateAndInitializeSid   0000000140080973 f   advapi32:ADVAPI32.dll
 0001:0007f979       CheckTokenMembership       0000000140080979 f   advapi32:ADVAPI32.dll
 0001:0007f97f       EqualSid                   000000014008097f f   advapi32:ADVAPI32.dll
 0001:0007f985       FreeSid                    0000000140080985 f   advapi32:ADVAPI32.dll
 0001:0007f98b       GetTokenInformation        000000014008098b f   advapi32:ADVAPI32.dll
 0001:0007f991       InitializeSecurityDescriptor 0000000140080991 f   advapi32:ADVAPI32.dll
 0001:0007f997       SetSecurityDescriptorDacl  0000000140080997 f   advapi32:ADVAPI32.dll
 0001:0007f99d       RegCloseKey                000000014008099d f   advapi32:ADVAPI32.dll
 0001:0007f9a3       RegCreateKeyExW            00000001400809a3 f   advapi32:ADVAPI32.dll
 0001:0007f9a9       RegOpenKeyW                00000001400809a9 f   advapi32:ADVAPI32.dll
 0001:0007f9af       RegOpenKeyExW              00000001400809af f   advapi32:ADVAPI32.dll
 0001:0007f9b5       RegQueryValueExW           00000001400809b5 f   advapi32:ADVAPI32.dll
 0001:0007f9bb       RegSetKeySecurity          00000001400809bb f   advapi32:ADVAPI32.dll
 0001:0007f9c1       CommandLineToArgvW         00000001400809c1 f   shell32:SHELL32.dll
 0001:0007f9c7       SHFileOperationW           00000001400809c7 f   shell32:SHELL32.dll
 0001:0007f9cd       ShellExecuteExW            00000001400809cd f   shell32:SHELL32.dll
 0001:0007f9d3       SHGetFolderPathW           00000001400809d3 f   shell32:SHELL32.dll
 0001:0007f9d9       SHGetDesktopFolder         00000001400809d9 f   shell32:SHELL32.dll
 0001:0007f9df       SHAddToRecentDocs          00000001400809df f   shell32:SHELL32.dll
 0001:0007f9e5       SHBindToParent             00000001400809e5 f   shell32:SHELL32.dll
 0001:0007f9eb       CreateStreamOnHGlobal      00000001400809eb f   ole32:ole32.dll
 0001:0007f9f1       CoUninitialize             00000001400809f1 f   ole32:ole32.dll
 0001:0007f9f7       CoCreateInstance           00000001400809f7 f   ole32:ole32.dll
 0001:0007f9fd       CLSIDFromString            00000001400809fd f   ole32:ole32.dll
 0001:0007fa03       CoTaskMemFree              0000000140080a03 f   ole32:ole32.dll
 0001:0007fa09       CoInitialize               0000000140080a09 f   ole32:ole32.dll
 0001:0007fa0f       OleInitialize              0000000140080a0f f   ole32:ole32.dll
 0001:0007fa15       OleUninitialize            0000000140080a15 f   ole32:ole32.dll
 0001:0007fa1b       SysAllocString             0000000140080a1b f   oleaut32:OLEAUT32.dll
 0001:0007fa21       VariantInit                0000000140080a21 f   oleaut32:OLEAUT32.dll
 0001:0007fa28       ??2@YAPEAX_K@Z             0000000140080a28 f   LIBCMT:new_scalar.obj
 0001:0007fa74       ??3@YAXPEAX_K@Z            0000000140080a74 f   LIBCMT:delete_scalar_size.obj
 0001:0007fa7c       __GSHandlerCheck           0000000140080a7c f   LIBCMT:gshandler.obj
 0001:0007faa0       __GSHandlerCheckCommon     0000000140080aa0 f   LIBCMT:gshandler.obj
 0001:0007fb30       __security_check_cookie    0000000140080b30 f   LIBCMT:amdsecgs.obj
 0001:0007fb70       __chkstk                   0000000140080b70 f   LIBCMT:chkstk.obj
 0001:0007fb70       _alloca_probe              0000000140080b70 f   LIBCMT:chkstk.obj
 0001:0007fbd8       ?configure_argv@__scrt_narrow_argv_policy@@SAHXZ 0000000140080bd8 f i LIBCMT:utility.obj
 0001:0007fc50       ?initialize_environment@__scrt_narrow_environment_policy@@SAHXZ 0000000140080c50 f i LIBCMT:utility.obj
 0001:0007fc94       NtCurrentTeb               0000000140080c94 f i LIBCMT:utility.obj
 0001:0007fca0       __scrt_acquire_startup_lock 0000000140080ca0 f   LIBCMT:utility.obj
 0001:0007fce8       __scrt_dllmain_after_initialize_c 0000000140080ce8 f   LIBCMT:utility.obj
 0001:0007fd2c       __scrt_dllmain_before_initialize_c 0000000140080d2c f   LIBCMT:utility.obj
 0001:0007fd48       __scrt_dllmain_crt_thread_attach 0000000140080d48 f   LIBCMT:utility.obj
 0001:0007fd7c       __scrt_dllmain_crt_thread_detach 0000000140080d7c f   LIBCMT:utility.obj
 0001:0007fd98       __scrt_dllmain_exception_filter 0000000140080d98 f   LIBCMT:utility.obj
 0001:0007fe10       __scrt_dllmain_uninitialize_c 0000000140080e10 f   LIBCMT:utility.obj
 0001:0007fe4c       __scrt_dllmain_uninitialize_critical 0000000140080e4c f   LIBCMT:utility.obj
 0001:0007fe68       __scrt_initialize_crt      0000000140080e68 f   LIBCMT:utility.obj
 0001:0007feb0       __scrt_initialize_onexit_tables 0000000140080eb0 f   LIBCMT:utility.obj
 0001:0007ff60       __scrt_is_nonwritable_in_current_image 0000000140080f60 f   LIBCMT:utility.obj
 0001:00080020       __scrt_release_startup_lock 0000000140081020 f   LIBCMT:utility.obj
 0001:00080050       __scrt_uninitialize_crt    0000000140081050 f   LIBCMT:utility.obj
 0001:00080084       _onexit                    0000000140081084 f   LIBCMT:utility.obj
 0001:000800cc       at_quick_exit              00000001400810cc f   LIBCMT:utility.obj
 0001:000800f0       atexit                     00000001400810f0 f   LIBCMT:utility.obj
 0001:0008010c       __raise_securityfailure    000000014008110c f   LIBCMT:gs_report.obj
 0001:00080150       __report_gsfailure         0000000140081150 f   LIBCMT:gs_report.obj
 0001:00080258       __report_rangecheckfailure 0000000140081258 f   LIBCMT:gs_report.obj
 0001:00080274       __report_securityfailure   0000000140081274 f   LIBCMT:gs_report.obj
 0001:00080338       __report_securityfailureEx 0000000140081338 f   LIBCMT:gs_report.obj
 0001:000805a4       _Init_thread_abort         00000001400815a4 f   LIBCMT:thread_safe_statics.obj
 0001:000805ec       _Init_thread_footer        00000001400815ec f   LIBCMT:thread_safe_statics.obj
 0001:00080670       _Init_thread_header        0000000140081670 f   LIBCMT:thread_safe_statics.obj
 0001:00080708       _Init_thread_lock          0000000140081708 f   LIBCMT:thread_safe_statics.obj
 0001:0008071c       _Init_thread_notify        000000014008171c f   LIBCMT:thread_safe_statics.obj
 0001:00080730       _Init_thread_unlock        0000000140081730 f   LIBCMT:thread_safe_statics.obj
 0001:00080744       _Init_thread_wait_v2       0000000140081744 f   LIBCMT:thread_safe_statics.obj
 0001:00080ab8       ?set_app_type@__scrt_main_policy@@SAXXZ 0000000140081ab8 f i LIBCMT:exe_main.obj
 0001:00080ac4       ?set_commode@__scrt_file_policy@@SAXXZ 0000000140081ac4 f i LIBCMT:exe_main.obj
 0001:00080ae4       ?set_fmode@__scrt_file_policy@@SAXXZ 0000000140081ae4 f i LIBCMT:exe_main.obj
 0001:00080b00       mainCRTStartup             0000000140081b00 f   LIBCMT:exe_main.obj
 0001:00080b18       ??0bad_alloc@std@@AEAA@QEBD@Z 0000000140081b18 f i LIBCMT:throw_bad_alloc.obj
 0001:00080b34       ??0bad_alloc@std@@QEAA@AEBV01@@Z 0000000140081b34 f i LIBCMT:throw_bad_alloc.obj
 0001:00080b80       ??0bad_alloc@std@@QEAA@XZ  0000000140081b80 f i LIBCMT:throw_bad_alloc.obj
 0001:00080ba8       ??0bad_array_new_length@std@@QEAA@AEBV01@@Z 0000000140081ba8 f i LIBCMT:throw_bad_alloc.obj
 0001:00080bf4       ??0bad_array_new_length@std@@QEAA@XZ 0000000140081bf4 f i LIBCMT:throw_bad_alloc.obj
 0001:00080c1c       ??0exception@std@@QEAA@AEBV01@@Z 0000000140081c1c f i LIBCMT:throw_bad_alloc.obj
 0001:00080c5c       ??0exception@std@@QEAA@QEBDH@Z 0000000140081c5c f i LIBCMT:throw_bad_alloc.obj
 0001:00080c78       ??1bad_alloc@std@@UEAA@XZ  0000000140081c78 f i LIBCMT:throw_bad_alloc.obj
 0001:00080c90       ??1bad_array_new_length@std@@UEAA@XZ 0000000140081c90 f i LIBCMT:throw_bad_alloc.obj
 0001:00080ca8       ??1exception@std@@UEAA@XZ  0000000140081ca8 f i LIBCMT:throw_bad_alloc.obj
 0001:00080cc0       ??_Ebad_alloc@std@@UEAAPEAXI@Z 0000000140081cc0 f i LIBCMT:throw_bad_alloc.obj
 0001:00080cc0       ??_Gbad_alloc@std@@UEAAPEAXI@Z 0000000140081cc0 f i LIBCMT:throw_bad_alloc.obj
 0001:00080d14       ??_Ebad_array_new_length@std@@UEAAPEAXI@Z 0000000140081d14 f i LIBCMT:throw_bad_alloc.obj
 0001:00080d14       ??_Gbad_array_new_length@std@@UEAAPEAXI@Z 0000000140081d14 f i LIBCMT:throw_bad_alloc.obj
 0001:00080d68       ??_Eexception@std@@UEAAPEAXI@Z 0000000140081d68 f i LIBCMT:throw_bad_alloc.obj
 0001:00080d68       ??_Gexception@std@@UEAAPEAXI@Z 0000000140081d68 f i LIBCMT:throw_bad_alloc.obj
 0001:00080dbc       ?__scrt_throw_std_bad_alloc@@YAXXZ 0000000140081dbc f   LIBCMT:throw_bad_alloc.obj
 0001:00080de4       ?__scrt_throw_std_bad_array_new_length@@YAXXZ 0000000140081de4 f   LIBCMT:throw_bad_alloc.obj
 0001:00080e0c       ?what@exception@std@@UEBAPEBDXZ 0000000140081e0c f i LIBCMT:throw_bad_alloc.obj
 0001:00080e24       ??3@YAXPEAX@Z              0000000140081e24 f   LIBCMT:delete_scalar.obj
 0001:00080e2c       __isa_available_init       0000000140081e2c f   LIBCMT:cpu_disp.obj
 0001:000811a8       _get_startup_argv_mode     00000001400821a8 f   LIBCMT:argv_mode.obj
 0001:000811b0       __scrt_is_ucrt_dll_in_use  00000001400821b0 f   LIBCMT:ucrt_detection.obj
 0001:000811c0       __crt_debugger_hook        00000001400821c0 f   LIBCMT:utility_desktop.obj
 0001:000811cc       __scrt_fastfail            00000001400821cc f   LIBCMT:utility_desktop.obj
 0001:00081368       __scrt_get_show_window_mode 0000000140082368 f   LIBCMT:utility_desktop.obj
 0001:000813b0       __scrt_initialize_mta      00000001400823b0 f   LIBCMT:utility_desktop.obj
 0001:000813b8       __scrt_initialize_winrt    00000001400823b8 f   LIBCMT:utility_desktop.obj
 0001:000813bc       __scrt_is_managed_app      00000001400823bc f   LIBCMT:utility_desktop.obj
 0001:00081424       __scrt_set_unhandled_exception_filter 0000000140082424 f   LIBCMT:utility_desktop.obj
 0001:00081438       __scrt_exe_initialize_mta  0000000140082438 f   LIBCMT:utility_desktop.obj
 0001:00081438       __scrt_stub_for_initialize_mta 0000000140082438 f   LIBCMT:utility_desktop.obj
 0001:0008143c       __scrt_unhandled_exception_filter 000000014008243c f   LIBCMT:utility_desktop.obj
 0001:000814b0       _guard_check_icall_nop     00000001400824b0 f i LIBCMT:guard_support.obj
 0001:000814b4       ReadNoFence64              00000001400824b4 f i LIBCMT:guard_support.obj
 0001:000814b8       ReadPointerNoFence         00000001400824b8 f i LIBCMT:guard_support.obj
 0001:000814bc       __castguard_check_failure_debugbreak 00000001400824bc f i LIBCMT:guard_support.obj
 0001:000814e0       __castguard_check_failure_fastfail 00000001400824e0 f i LIBCMT:guard_support.obj
 0001:0008150c       __castguard_check_failure_nop 000000014008250c f i LIBCMT:guard_support.obj
 0001:00081510       __castguard_check_failure_os_handled 0000000140082510 f i LIBCMT:guard_support.obj
 0001:0008156c       __castguard_check_failure_user_handled 000000014008256c f i LIBCMT:guard_support.obj
 0001:000815f8       __castguard_set_user_handler 00000001400825f8 f i LIBCMT:guard_support.obj
 0001:00081608       __castguard_slow_path_check_debugbreak 0000000140082608 f i LIBCMT:guard_support.obj
 0001:0008164c       __castguard_slow_path_check_fastfail 000000014008264c f i LIBCMT:guard_support.obj
 0001:00081694       __castguard_slow_path_check_nop 0000000140082694 f i LIBCMT:guard_support.obj
 0001:00081698       __castguard_slow_path_check_os_handled 0000000140082698 f i LIBCMT:guard_support.obj
 0001:000816f8       __castguard_slow_path_check_user_handled 00000001400826f8 f i LIBCMT:guard_support.obj
 0001:0008177c       _guard_icall_checks_enforced 000000014008277c f i LIBCMT:guard_support.obj
 0001:00081798       _guard_rf_checks_enforced  0000000140082798 f i LIBCMT:guard_support.obj
 0001:00081824       __security_init_cookie     0000000140082824 f   LIBCMT:gs_support.obj
 0001:000818fc       _matherr                   00000001400828fc f   LIBCMT:matherr.obj
 0001:00081900       _get_startup_commit_mode   0000000140082900 f   LIBCMT:commit_mode.obj
 0001:00081904       _get_startup_file_mode     0000000140082904 f   LIBCMT:file_mode.obj
 0001:0008190c       _get_startup_new_mode      000000014008290c f   LIBCMT:new_mode.obj
 0001:00081910       _get_startup_thread_locale_mode 0000000140082910 f   LIBCMT:thread_locale.obj
 0001:00081914       ?__scrt_initialize_type_info@@YAXXZ 0000000140082914 f   LIBCMT:tncleanup.obj
 0001:00081928       ?__scrt_uninitialize_type_info@@YAXXZ 0000000140082928 f   LIBCMT:tncleanup.obj
 0001:00081938       _should_initialize_environment 0000000140082938 f   LIBCMT:env_mode.obj
 0001:0008193c       _initialize_invalid_parameter_handler 000000014008293c f   LIBCMT:invalid_parameter_handler.obj
 0001:00081940       _initialize_denormal_control 0000000140082940 f   LIBCMT:denormal_control.obj
 0001:00081944       __scrt_initialize_default_local_stdio_options 0000000140082944 f   LIBCMT:default_local_stdio_options.obj
 0001:00081968       __scrt_is_user_matherr_present 0000000140082968 f   LIBCMT:matherr_detection.obj
 0001:00081978       __scrt_get_dyn_tls_init_callback 0000000140082978 f   LIBCMT:dyn_tls_init.obj
 0001:00081984       __scrt_get_dyn_tls_dtor_callback 0000000140082984 f   LIBCMT:dyn_tls_dtor.obj
 0001:00081990       _RTC_Initialize            0000000140082990 f   LIBCMT:initsect.obj
 0001:000819dc       _RTC_Terminate             00000001400829dc f   LIBCMT:initsect.obj
 0001:00081a28       ??1type_info@@UEAA@XZ      0000000140082a28 f   LIBCMT:std_type_info_static.obj
 0001:00081a38       ??_Etype_info@@UEAAPEAXI@Z 0000000140082a38 f i LIBCMT:std_type_info_static.obj
 0001:00081a38       ??_Gtype_info@@UEAAPEAXI@Z 0000000140082a38 f i LIBCMT:std_type_info_static.obj
 0001:00081a70       ??$__crt_interlocked_exchange_pointer@$$A6AXXZP6AXXZ@@YAP6AXXZPEDS6AXXZQ6AXXZ@Z 0000000140082a70 f i libvcruntime:purevirt.obj
 0001:00081a78       ??$__crt_interlocked_read_pointer@$$A6AXXZ@@YAP6AXXZPEDS6AXXZ@Z 0000000140082a78 f i libvcruntime:purevirt.obj
 0001:00081a80       ?__crt_interlocked_read_64@@YA_JPED_J@Z 0000000140082a80 f i libvcruntime:purevirt.obj
 0001:00081a88       _get_purecall_handler      0000000140082a88 f   libvcruntime:purevirt.obj
 0001:00081a94       _purecall                  0000000140082a94 f   libvcruntime:purevirt.obj
 0001:00081ab4       _set_purecall_handler      0000000140082ab4 f   libvcruntime:purevirt.obj
 0001:00081ad0       strchr                     0000000140082ad0 f   libvcruntime:strchr.obj
 0001:00081b6c       strrchr                    0000000140082b6c f   libvcruntime:strrchr.obj
 0001:00081cf4       strstr                     0000000140082cf4 f   libvcruntime:strstr.obj
 0001:00081f5c       wcschr                     0000000140082f5c f   libvcruntime:wcschr.obj
 0001:00081ff4       wcsstr                     0000000140082ff4 f   libvcruntime:wcsstr.obj
 0001:00082288       __vcrt_initialize          0000000140083288 f   libvcruntime:initialization.obj
 0001:000822bc       __vcrt_thread_attach       00000001400832bc f   libvcruntime:initialization.obj
 0001:000822d8       __vcrt_thread_detach       00000001400832d8 f   libvcruntime:initialization.obj
 0001:000822ec       __vcrt_uninitialize        00000001400832ec f   libvcruntime:initialization.obj
 0001:0008230c       __vcrt_uninitialize_critical 000000014008330c f   libvcruntime:initialization.obj
 0001:00082324       __C_specific_handler       0000000140083324 f   libvcruntime:riscchandler.obj
 0001:000825c0       ??$?RD@__crt_public_free_policy@@QEBAXQEBD@Z 00000001400835c0 f i libvcruntime:std_exception.obj
 0001:000825cc       ??0?$__crt_unique_heap_ptr@DU__crt_public_free_policy@@@@QEAA@QEAD@Z 00000001400835cc f i libvcruntime:std_exception.obj
 0001:000825d4       ??1?$__crt_unique_heap_ptr@DU__crt_public_free_policy@@@@QEAA@XZ 00000001400835d4 f i libvcruntime:std_exception.obj
 0001:000825f8       ??B?$__crt_unique_heap_ptr@DU__crt_public_free_policy@@@@QEBA_NXZ 00000001400835f8 f i libvcruntime:std_exception.obj
 0001:00082604       ?detach@?$__crt_unique_heap_ptr@DU__crt_public_free_policy@@@@QEAAPEADXZ 0000000140083604 f i libvcruntime:std_exception.obj
 0001:00082610       ?get@?$__crt_unique_heap_ptr@DU__crt_public_free_policy@@@@QEBAPEADXZ 0000000140083610 f i libvcruntime:std_exception.obj
 0001:00082614       ?is_valid@?$__crt_unique_heap_ptr@DU__crt_public_free_policy@@@@QEBA_NXZ 0000000140083614 f i libvcruntime:std_exception.obj
 0001:00082620       ?release@?$__crt_unique_heap_ptr@DU__crt_public_free_policy@@@@QEAAXXZ 0000000140083620 f i libvcruntime:std_exception.obj
 0001:00082644       __std_exception_copy       0000000140083644 f   libvcruntime:std_exception.obj
 0001:000826f4       __std_exception_destroy    00000001400836f4 f   libvcruntime:std_exception.obj
 0001:00082724       _CxxThrowException         0000000140083724 f   libvcruntime:throw.obj
 0001:000827f4       __DestructExceptionObject  00000001400837f4 f   libvcruntime:ehhelpers.obj
 0001:0008287c       ?_CallMemberFunction0@@YAXQEAX0@Z 000000014008387c f i libvcruntime:ehhelpers.obj
 0001:000828f0       ?raw_name@type_info@@QEBAPEBDXZ 00000001400838f0 f i libvcruntime:ehhelpers.obj
 0001:000828f8       _IsExceptionObjectToBeDestroyed 00000001400838f8 f   libvcruntime:ehhelpers.obj
 0001:00082934       _SetWinRTOutOfMemoryExceptionCallback 0000000140083934 f   libvcruntime:ehhelpers.obj
 0001:00082940       __AdjustPointer            0000000140083940 f   libvcruntime:ehhelpers.obj
 0001:0008296c       __FrameUnwindFilter        000000014008396c f   libvcruntime:ehhelpers.obj
 0001:000829ec       __GetPlatformExceptionInfo 00000001400839ec f   libvcruntime:ehhelpers.obj
 0001:00082a60       __current_exception        0000000140083a60 f   libvcruntime:ehhelpers.obj
 0001:00082a78       __current_exception_context 0000000140083a78 f   libvcruntime:ehhelpers.obj
 0001:00082a90       __processing_throw         0000000140083a90 f   libvcruntime:ehhelpers.obj
 0001:00082aa8       __std_terminate            0000000140083aa8 f   libvcruntime:ehhelpers.obj
 0001:00082ab4       _is_exception_typeof       0000000140083ab4 f   libvcruntime:ehhelpers.obj
 0001:00082b94       ??$?RD@__crt_internal_free_policy@@QEBAXQEBD@Z 0000000140083b94 f i libvcruntime:std_type_info.obj
 0001:00082ba0       ??$?RX@__crt_internal_free_policy@@QEBAXQEBX@Z 0000000140083ba0 f i libvcruntime:std_type_info.obj
 0001:00082bac       ??$__crt_interlocked_compare_exchange_pointer@$$CBDPEAD$$T@@YAPEBDPEDSEBDQEAD$$T@Z 0000000140083bac f i libvcruntime:std_type_info.obj
 0001:00082bb8       ??$__crt_interlocked_read_pointer@$$CBD@@YAPEBDPEDSEBD@Z 0000000140083bb8 f i libvcruntime:std_type_info.obj
 0001:00082bc0       ??0?$__crt_unique_heap_ptr@DU__crt_internal_free_policy@@@@QEAA@QEAD@Z 0000000140083bc0 f i libvcruntime:std_type_info.obj
 0001:00082bc8       ??0?$__crt_unique_heap_ptr@XU__crt_internal_free_policy@@@@QEAA@QEAX@Z 0000000140083bc8 f i libvcruntime:std_type_info.obj
 0001:00082bd0       ??1?$__crt_unique_heap_ptr@DU__crt_internal_free_policy@@@@QEAA@XZ 0000000140083bd0 f i libvcruntime:std_type_info.obj
 0001:00082bf4       ??1?$__crt_unique_heap_ptr@XU__crt_internal_free_policy@@@@QEAA@XZ 0000000140083bf4 f i libvcruntime:std_type_info.obj
 0001:00082c18       ??B?$__crt_unique_heap_ptr@DU__crt_internal_free_policy@@@@QEBA_NXZ 0000000140083c18 f i libvcruntime:std_type_info.obj
 0001:00082c24       ??B?$__crt_unique_heap_ptr@XU__crt_internal_free_policy@@@@QEBA_NXZ 0000000140083c24 f i libvcruntime:std_type_info.obj
 0001:00082c48       ?detach@?$__crt_unique_heap_ptr@XU__crt_internal_free_policy@@@@QEAAPEAXXZ 0000000140083c48 f i libvcruntime:std_type_info.obj
 0001:00082c54       ?get@?$__crt_unique_heap_ptr@DU__crt_internal_free_policy@@@@QEBAPEADXZ 0000000140083c54 f i libvcruntime:std_type_info.obj
 0001:00082c58       ?get@?$__crt_unique_heap_ptr@XU__crt_internal_free_policy@@@@QEBAPEAXXZ 0000000140083c58 f i libvcruntime:std_type_info.obj
 0001:00082c5c       ?is_valid@?$__crt_unique_heap_ptr@DU__crt_internal_free_policy@@@@QEBA_NXZ 0000000140083c5c f i libvcruntime:std_type_info.obj
 0001:00082c68       ?is_valid@?$__crt_unique_heap_ptr@XU__crt_internal_free_policy@@@@QEBA_NXZ 0000000140083c68 f i libvcruntime:std_type_info.obj
 0001:00082c74       ?release@?$__crt_unique_heap_ptr@DU__crt_internal_free_policy@@@@QEAAXXZ 0000000140083c74 f i libvcruntime:std_type_info.obj
 0001:00082c98       ?release@?$__crt_unique_heap_ptr@XU__crt_internal_free_policy@@@@QEAAXXZ 0000000140083c98 f i libvcruntime:std_type_info.obj
 0001:00082cbc       __std_type_info_compare    0000000140083cbc f   libvcruntime:std_type_info.obj
 0001:00082cec       __std_type_info_destroy_list 0000000140083cec f   libvcruntime:std_type_info.obj
 0001:00082d20       __std_type_info_hash       0000000140083d20 f   libvcruntime:std_type_info.obj
 0001:00082d68       __std_type_info_name       0000000140083d68 f   libvcruntime:std_type_info.obj
 0001:00082ec4       ??$?RU__vcrt_ptd@@@__crt_internal_free_policy@@QEBAXQEBU__vcrt_ptd@@@Z 0000000140083ec4 f i libvcruntime:per_thread_data.obj
 0001:00082ed0       ??0?$__crt_unique_heap_ptr@U__vcrt_ptd@@U__crt_internal_free_policy@@@@QEAA@QEAU__vcrt_ptd@@@Z 0000000140083ed0 f i libvcruntime:per_thread_data.obj
 0001:00082ef8       ??1?$__crt_unique_heap_ptr@U__vcrt_ptd@@U__crt_internal_free_policy@@@@QEAA@XZ 0000000140083ef8 f i libvcruntime:per_thread_data.obj
 0001:00082f28       ??B?$__crt_unique_heap_ptr@U__vcrt_ptd@@U__crt_internal_free_policy@@@@QEBA_NXZ 0000000140083f28 f i libvcruntime:per_thread_data.obj
 0001:00082f34       ?detach@?$__crt_unique_heap_ptr@U__vcrt_ptd@@U__crt_internal_free_policy@@@@QEAAPEAU__vcrt_ptd@@XZ 0000000140083f34 f i libvcruntime:per_thread_data.obj
 0001:00082f40       ?get@?$__crt_unique_heap_ptr@U__vcrt_ptd@@U__crt_internal_free_policy@@@@QEBAPEAU__vcrt_ptd@@XZ 0000000140083f40 f i libvcruntime:per_thread_data.obj
 0001:00082f44       ?is_valid@?$__crt_unique_heap_ptr@U__vcrt_ptd@@U__crt_internal_free_policy@@@@QEBA_NXZ 0000000140083f44 f i libvcruntime:per_thread_data.obj
 0001:00082f50       ?release@?$__crt_unique_heap_ptr@U__vcrt_ptd@@U__crt_internal_free_policy@@@@QEAAXXZ 0000000140083f50 f i libvcruntime:per_thread_data.obj
 0001:00082fa8       __vcrt_freefls             0000000140083fa8 f   libvcruntime:per_thread_data.obj
 0001:00082fd0       __vcrt_freeptd_for_this_thread 0000000140083fd0 f   libvcruntime:per_thread_data.obj
 0001:00083028       __vcrt_getptd              0000000140084028 f   libvcruntime:per_thread_data.obj
 0001:00083048       __vcrt_getptd_noexit       0000000140084048 f   libvcruntime:per_thread_data.obj
 0001:00083138       __vcrt_getptd_noinit       0000000140084138 f   libvcruntime:per_thread_data.obj
 0001:00083198       __vcrt_initialize_ptd      0000000140084198 f   libvcruntime:per_thread_data.obj
 0001:000831f0       __vcrt_uninitialize_ptd    00000001400841f0 f   libvcruntime:per_thread_data.obj
 0001:0008321c       __vcrt_initialize_locks    000000014008421c f   libvcruntime:locks.obj
 0001:00083274       __vcrt_lock                0000000140084274 f   libvcruntime:locks.obj
 0001:00083294       __vcrt_uninitialize_locks  0000000140084294 f   libvcruntime:locks.obj
 0001:000832d8       __vcrt_unlock              00000001400842d8 f   libvcruntime:locks.obj
 0001:00083340       _NLG_Notify                0000000140084340 f   libvcruntime:notify.obj
 0001:00083370       __NLG_Dispatch2            0000000140084370 f   libvcruntime:notify.obj
 0001:00083380       __NLG_Return2              0000000140084380 f   libvcruntime:notify.obj
 0001:0008338c       __except_validate_context_record 000000014008438c f   libvcruntime:jbcxrval.obj
 0001:000833d0       __except_validate_jump_buffer 00000001400843d0 f   libvcruntime:jbcxrval.obj
 0001:00083420       __except_validate_jump_buffer_common 0000000140084420 f i libvcruntime:jbcxrval.obj
 0001:00083494       ??$?0$00@DName@@QEAA@PEBDU?$StringLifeSelector@$00@@@Z 0000000140084494 f i libvcruntime:undname.obj
 0001:000834e4       ??$?0$00@pcharNode@@QEAA@PEBDHU?$StringLifeSelector@$00@@@Z 00000001400844e4 f i libvcruntime:undname.obj
 0001:00083500       ??$?0$01@DName@@QEAA@PEBDU?$StringLifeSelector@$01@@@Z 0000000140084500 f i libvcruntime:undname.obj
 0001:00083550       ??$?0$01@pcharNode@@QEAA@PEBDHU?$StringLifeSelector@$01@@@Z 0000000140084550 f i libvcruntime:undname.obj
 0001:000835e0       ??$?0$0A@@DName@@QEAA@PEBDU?$StringLifeSelector@$0A@@@@Z 00000001400845e0 f i libvcruntime:undname.obj
 0001:00083630       ??$?0$0A@@pcharNode@@QEAA@PEBDHU?$StringLifeSelector@$0A@@@@Z 0000000140084630 f i libvcruntime:undname.obj
 0001:000836c0       ??$?0_K$0A@@?$optional@_K@std@@QEAA@$$QEA_K@Z 00000001400846c0 f i libvcruntime:undname.obj
 0001:000836d4       ??$?0_K@?$_Optional_construct_base@_K@std@@QEAA@Uin_place_t@1@$$QEA_K@Z 00000001400846d4 f i libvcruntime:undname.obj
 0001:000836e8       ??$?0_K@?$_Optional_destruct_base@_K$00@std@@QEAA@Uin_place_t@1@$$QEA_K@Z 00000001400846e8 f i libvcruntime:undname.obj
 0001:000836fc       ??$append@VDNameNode@@@DName@@AEAAXPEBVDNameNode@@@Z 00000001400846fc f i libvcruntime:undname.obj
 0001:00083778       ??$append@VDNameStatusNode@@@DName@@AEAAXPEBVDNameStatusNode@@@Z 0000000140084778 f i libvcruntime:undname.obj
 0001:000837f4       ??$append@VcharNode@@@DName@@AEAAXPEBVcharNode@@@Z 00000001400847f4 f i libvcruntime:undname.obj
 0001:00083870       ??$append@VpDNameNode@@@DName@@AEAAXPEBVpDNameNode@@@Z 0000000140084870 f i libvcruntime:undname.obj
 0001:000838ec       ??$append@VpcharNode@@@DName@@AEAAXPEBVpcharNode@@@Z 00000001400848ec f i libvcruntime:undname.obj
 0001:00083968       ??$doPchar@$00@DName@@AEAAXPEBDH@Z 0000000140084968 f i libvcruntime:undname.obj
 0001:00083a24       ??$doPchar@$01@DName@@AEAAXPEBDH@Z 0000000140084a24 f i libvcruntime:undname.obj
 0001:00083ae0       ??$doPchar@$0A@@DName@@AEAAXPEBDH@Z 0000000140084ae0 f i libvcruntime:undname.obj
 0001:00083b9c       ??$forward@_K@std@@YA$$QEA_KAEA_K@Z 0000000140084b9c f i libvcruntime:undname.obj
 0001:00083d00       ??0?$_Optional_construct_base@_K@std@@QEAA@XZ 0000000140084d00 f i libvcruntime:undname.obj
 0001:00083d0c       ??0?$_Optional_destruct_base@_K$00@std@@QEAA@XZ 0000000140084d0c f i libvcruntime:undname.obj
 0001:00083d18       ??0?$optional@_K@std@@QEAA@XZ 0000000140084d18 f i libvcruntime:undname.obj
 0001:00083d24       ??0Block@_HeapManager@@QEAA@XZ 0000000140084d24 f i libvcruntime:undname.obj
 0001:00083d30       ??0DName@@QEAA@AEAPEBDD@Z  0000000140084d30 f   libvcruntime:undname.obj
 0001:00083e10       ??0DName@@QEAA@AEBUStringLiteral@@@Z 0000000140084e10 f   libvcruntime:undname.obj
 0001:00083e48       ??0DName@@QEAA@AEBV0@@Z    0000000140084e48 f i libvcruntime:undname.obj
 0001:00083e5c       ??0DName@@QEAA@D@Z         0000000140084e5c f   libvcruntime:undname.obj
 0001:00083e84       ??0DName@@QEAA@PEAV0@@Z    0000000140084e84 f   libvcruntime:undname.obj
 0001:00083f28       ??0DName@@QEAA@W4DNameStatus@@@Z 0000000140084f28 f   libvcruntime:undname.obj
 0001:00083f64       ??0DName@@QEAA@XZ          0000000140084f64 f i libvcruntime:undname.obj
 0001:00083f74       ??0DName@@QEAA@_J@Z        0000000140084f74 f   libvcruntime:undname.obj
 0001:00084040       ??0DName@@QEAA@_K@Z        0000000140085040 f   libvcruntime:undname.obj
 0001:000840ec       ??0DNameNode@@IEAA@XZ      00000001400850ec f i libvcruntime:undname.obj
 0001:00084100       ??0Replicator@@QEAA@XZ     0000000140085100 f i libvcruntime:undname.obj
 0001:0008413c       ??0UnDecorator@@QEAA@PEBDP6APEADJ@ZK@Z 000000014008513c f i libvcruntime:undname.obj
 0001:00084210       ??0_Nontrivial_dummy_type@std@@QEAA@XZ 0000000140085210 f i libvcruntime:undname.obj
 0001:00084214       ??0charNode@@QEAA@D@Z      0000000140085214 f i libvcruntime:undname.obj
 0001:0008422c       ??0pDNameNode@@QEAA@PEAVDName@@@Z 000000014008522c f   libvcruntime:undname.obj
 0001:0008425c       ??0pairNode@@QEAA@PEBVDNameNode@@0@Z 000000014008525c f i libvcruntime:undname.obj
 0001:00084284       ??2@YAPEAX_KAEAV_HeapManager@@H@Z 0000000140085284 f   libvcruntime:undname.obj
 0001:000842b8       ??4DName@@QEAAAEAV0@AEBUStringLiteral@@@Z 00000001400852b8 f   libvcruntime:undname.obj
 0001:000842e8       ??4DName@@QEAAAEAV0@AEBV0@@Z 00000001400852e8 f   libvcruntime:undname.obj
 0001:000842fc       ??4DName@@QEAAAEAV0@D@Z    00000001400852fc f i libvcruntime:undname.obj
 0001:00084324       ??4DName@@QEAAAEAV0@PEAV0@@Z 0000000140085324 f   libvcruntime:undname.obj
 0001:000843b8       ??4DName@@QEAAAEAV0@W4DNameStatus@@@Z 00000001400853b8 f   libvcruntime:undname.obj
 0001:000843e0       ??AReplicator@@QEBA?AVDName@@H@Z 00000001400853e0 f   libvcruntime:undname.obj
 0001:00084430       ??B?$optional@_K@std@@QEBA_NXZ 0000000140085430 f i libvcruntime:undname.obj
 0001:00084434       ??D?$_Optional_construct_base@_K@std@@QEGAAAEA_KXZ 0000000140085434 f i libvcruntime:undname.obj
 0001:00084438       ??H@YA?AVDName@@AEBUStringLiteral@@AEBV0@@Z 0000000140085438 f i libvcruntime:undname.obj
 0001:0008447c       ??H@YA?AVDName@@DAEBV0@@Z  000000014008547c f i libvcruntime:undname.obj
 0001:000844d0       ??H@YA?AVDName@@W4DNameStatus@@AEBV0@@Z 00000001400854d0 f i libvcruntime:undname.obj
 0001:00084514       ??HDName@@QEBA?AV0@AEBUStringLiteral@@@Z 0000000140085514 f   libvcruntime:undname.obj
 0001:00084548       ??HDName@@QEBA?AV0@AEBV0@@Z 0000000140085548 f   libvcruntime:undname.obj
 0001:0008457c       ??HDName@@QEBA?AV0@D@Z     000000014008557c f   libvcruntime:undname.obj
 0001:000845b0       ??HDName@@QEBA?AV0@PEAV0@@Z 00000001400855b0 f   libvcruntime:undname.obj
 0001:000845e4       ??HDName@@QEBA?AV0@W4DNameStatus@@@Z 00000001400855e4 f   libvcruntime:undname.obj
 0001:00084618       ??HStringLiteral@@QEBA?AU0@H@Z 0000000140085618 f i libvcruntime:undname.obj
 0001:00084634       ??YDName@@QEAAAEAV0@AEBUStringLiteral@@@Z 0000000140085634 f   libvcruntime:undname.obj
 0001:000846d4       ??YDName@@QEAAAEAV0@AEBV0@@Z 00000001400856d4 f   libvcruntime:undname.obj
 0001:000847b4       ??YDName@@QEAAAEAV0@D@Z    00000001400857b4 f   libvcruntime:undname.obj
 0001:0008483c       ??YDName@@QEAAAEAV0@PEAV0@@Z 000000014008583c f   libvcruntime:undname.obj
 0001:000848f4       ??YDName@@QEAAAEAV0@W4DNameStatus@@@Z 00000001400858f4 f   libvcruntime:undname.obj
 0001:0008497c       ??YReplicator@@QEAAAEAV0@AEBVDName@@@Z 000000014008597c f   libvcruntime:undname.obj
 0001:000849ec       ??_5DName@@QEAAAEAV0@AEBV0@@Z 00000001400859ec f   libvcruntime:undname.obj
 0001:00084a0c       ??__K_l@@YA?AUStringLiteral@@PEBD_K@Z 0000000140085a0c f i libvcruntime:undname.obj
 0001:00084a1c       ?Constructor@_HeapManager@@QEAAXP6APEAX_K@ZP6AXPEAX@Z@Z 0000000140085a1c f i libvcruntime:undname.obj
 0001:00084a38       ?Destructor@_HeapManager@@QEAAXXZ 0000000140085a38 f i libvcruntime:undname.obj
 0001:00084a94       ?UScore@UnDecorator@@SA?AUStringLiteral@@W4Tokens@@@Z 0000000140085a94 f   libvcruntime:undname.obj
 0001:00084af4       ?composeDeclaration@UnDecorator@@CA?AVDName@@AEBV2@@Z 0000000140085af4 f i libvcruntime:undname.obj
 0001:00085ea8       ?doAccessSpecifiers@UnDecorator@@SAHXZ 0000000140086ea8 f i libvcruntime:undname.obj
 0001:00085ebc       ?doAllocationLanguage@UnDecorator@@SAHXZ 0000000140086ebc f i libvcruntime:undname.obj
 0001:00085ed0       ?doAllocationModel@UnDecorator@@SAHXZ 0000000140086ed0 f i libvcruntime:undname.obj
 0001:00085ee4       ?doEcsu@UnDecorator@@SAHXZ 0000000140086ee4 f i libvcruntime:undname.obj
 0001:00085ef8       ?doEllipsis@UnDecorator@@SAHXZ 0000000140086ef8 f i libvcruntime:undname.obj
 0001:00085f0c       ?doFunctionReturns@UnDecorator@@SAHXZ 0000000140086f0c f i libvcruntime:undname.obj
 0001:00085f20       ?doMSKeywords@UnDecorator@@SAHXZ 0000000140086f20 f i libvcruntime:undname.obj
 0001:00085f34       ?doMemberTypes@UnDecorator@@SAHXZ 0000000140086f34 f i libvcruntime:undname.obj
 0001:00085f48       ?doNameOnly@UnDecorator@@SAHXZ 0000000140086f48 f i libvcruntime:undname.obj
 0001:00085f58       ?doNoIdentCharCheck@UnDecorator@@SAHXZ 0000000140086f58 f i libvcruntime:undname.obj
 0001:00085f68       ?doPchar@DName@@AEAAXD@Z   0000000140086f68 f   libvcruntime:undname.obj
 0001:00085fcc       ?doPtr64@UnDecorator@@SAHXZ 0000000140086fcc f i libvcruntime:undname.obj
 0001:00085fe0       ?doRestrictionSpec@UnDecorator@@SAHXZ 0000000140086fe0 f i libvcruntime:undname.obj
 0001:00085ff4       ?doThisTypes@UnDecorator@@SAHXZ 0000000140086ff4 f i libvcruntime:undname.obj
 0001:0008600c       ?doThrowTypes@UnDecorator@@SAHXZ 000000014008700c f i libvcruntime:undname.obj
 0001:00086020       ?doTypeOnly@UnDecorator@@SAHXZ 0000000140087020 f i libvcruntime:undname.obj
 0001:00086030       ?doUnderScore@UnDecorator@@SAHXZ 0000000140087030 f i libvcruntime:undname.obj
 0001:00086040       ?getAddressOf@UnDecorator@@CA?AVDName@@XZ 0000000140087040 f   libvcruntime:undname.obj
 0001:000860f4       ?getArgumentList@UnDecorator@@CA?AVDName@@XZ 00000001400870f4 f   libvcruntime:undname.obj
 0001:000862ec       ?getArgumentTypes@UnDecorator@@CA?AVDName@@XZ 00000001400872ec f   libvcruntime:undname.obj
 0001:0008648c       ?getArrayAccess@UnDecorator@@CA?AVDName@@XZ 000000014008748c f   libvcruntime:undname.obj
 0001:0008654c       ?getArrayObject@UnDecorator@@CA?AVDName@@XZ 000000014008754c f   libvcruntime:undname.obj
 0001:00086650       ?getArrayType@UnDecorator@@CA?AVDName@@AEBV2@@Z 0000000140087650 f i libvcruntime:undname.obj
 0001:00086944       ?getBasedType@UnDecorator@@CA?AVDName@@XZ 0000000140087944 f   libvcruntime:undname.obj
 0001:00086a78       ?getBasicDataType@UnDecorator@@CA?AVDName@@AEBV2@@Z 0000000140087a78 f   libvcruntime:undname.obj
 0001:000871fc       ?getCHPEName@UnDecorator@@QEAAPEADPEADH@Z 00000001400881fc f i libvcruntime:undname.obj
 0001:00087360       ?getCallIndex@UnDecorator@@CA?AVDName@@XZ 0000000140088360 f i libvcruntime:undname.obj
 0001:00087380       ?getCallingConvention@UnDecorator@@CA?AVDName@@XZ 0000000140088380 f   libvcruntime:undname.obj
 0001:000874e8       ?getDataIndirectType@UnDecorator@@CA?AVDName@@AEBV2@W4IndirectionKind@@0H@Z 00000001400884e8 f   libvcruntime:undname.obj
 0001:00088248       ?getDataIndirectType@UnDecorator@@CA?AVDName@@XZ 0000000140089248 f i libvcruntime:undname.obj
 0001:00088290       ?getDataType@UnDecorator@@CA?AVDName@@PEAV2@@Z 0000000140089290 f   libvcruntime:undname.obj
 0001:000883e8       ?getDecoratedName@UnDecorator@@CA?AVDName@@XZ 00000001400893e8 f   libvcruntime:undname.obj
 0001:00088788       ?getDimension@UnDecorator@@CA?AVDName@@_N@Z 0000000140089788 f   libvcruntime:undname.obj
 0001:00088924       ?getDispatchTarget@UnDecorator@@CA?AVDName@@XZ 0000000140089924 f   libvcruntime:undname.obj
 0001:00088998       ?getDisplacement@UnDecorator@@CA?AVDName@@XZ 0000000140089998 f i libvcruntime:undname.obj
 0001:000889b8       ?getECSUDataType@UnDecorator@@CA?AVDName@@XZ 00000001400899b8 f   libvcruntime:undname.obj
 0001:00088c30       ?getECSUName@UnDecorator@@CA?AVDName@@XZ 0000000140089c30 f i libvcruntime:undname.obj
 0001:00088c4c       ?getEnumType@UnDecorator@@CA?AVDName@@XZ 0000000140089c4c f i libvcruntime:undname.obj
 0001:00088dbc       ?getExtendedDataIndirectType@UnDecorator@@CA?AVDName@@AEAW4IndirectionKind@@AEA_NH@Z 0000000140089dbc f   libvcruntime:undname.obj
 0001:000890c8       ?getExternalDataType@UnDecorator@@CA?AVDName@@AEBV2@@Z 000000014008a0c8 f i libvcruntime:undname.obj
 0001:000891b8       ?getFloatingPoint@UnDecorator@@CA?AVDName@@H@Z 000000014008a1b8 f   libvcruntime:undname.obj
 0001:00089378       ?getFunctionIndirectType@UnDecorator@@CA?AVDName@@AEBV2@@Z 000000014008a378 f   libvcruntime:undname.obj
 0001:000899fc       ?getGuardNumber@UnDecorator@@CA?AVDName@@XZ 000000014008a9fc f i libvcruntime:undname.obj
 0001:00089a1c       ?getLastChar@DName@@QEBADXZ 000000014008aa1c f i libvcruntime:undname.obj
 0001:00089a3c       ?getLastChar@DNameStatusNode@@UEBADXZ 000000014008aa3c f i libvcruntime:undname.obj
 0001:00089a4c       ?getLastChar@charNode@@UEBADXZ 000000014008aa4c f i libvcruntime:undname.obj
 0001:00089a50       ?getLastChar@pDNameNode@@UEBADXZ 000000014008aa50 f i libvcruntime:undname.obj
 0001:00089a84       ?getLastChar@pairNode@@UEBADXZ 000000014008aa84 f i libvcruntime:undname.obj
 0001:00089ac8       ?getLastChar@pcharNode@@UEBADXZ 000000014008aac8 f i libvcruntime:undname.obj
 0001:00089ae4       ?getLexicalFrame@UnDecorator@@CA?AVDName@@XZ 000000014008aae4 f i libvcruntime:undname.obj
 0001:00089b60       ?getMemberAccess@UnDecorator@@CA?AVDName@@XZ 000000014008ab60 f   libvcruntime:undname.obj
 0001:00089c18       ?getMemoryWithBuffer@_HeapManager@@QEAAPEAX_K@Z 000000014008ac18 f   libvcruntime:undname.obj
 0001:00089ccc       ?getMemoryWithoutBuffer@_HeapManager@@QEAAPEAX_K@Z 000000014008accc f   libvcruntime:undname.obj
 0001:00089ce4       ?getNoexcept@UnDecorator@@CA?AVDName@@XZ 000000014008ace4 f   libvcruntime:undname.obj
 0001:00089d60       ?getNumberOfDimensions@UnDecorator@@CAHXZ 000000014008ad60 f   libvcruntime:undname.obj
 0001:00089dd0       ?getOperatorName@UnDecorator@@CA?AVDName@@_NPEA_N@Z 000000014008add0 f i libvcruntime:undname.obj
 0001:0008a9d4       ?getPointerToMember@UnDecorator@@CA?AVDName@@XZ 000000014008b9d4 f   libvcruntime:undname.obj
 0001:0008ab08       ?getPointerType@UnDecorator@@CA?AVDName@@AEBV2@0@Z 000000014008bb08 f i libvcruntime:undname.obj
 0001:0008ab2c       ?getPointerTypeArray@UnDecorator@@CA?AVDName@@AEBV2@0@Z 000000014008bb2c f i libvcruntime:undname.obj
 0001:0008ab4c       ?getPrimaryDataType@UnDecorator@@CA?AVDName@@AEBV2@@Z 000000014008bb4c f   libvcruntime:undname.obj
 0001:0008aeb4       ?getPtrRefDataType@UnDecorator@@CA?AVDName@@AEBV2@H@Z 000000014008beb4 f   libvcruntime:undname.obj
 0001:0008b0f4       ?getPtrRefType@UnDecorator@@CA?AVDName@@AEBV2@0W4IndirectionKind@@@Z 000000014008c0f4 f   libvcruntime:undname.obj
 0001:0008b354       ?getReferenceType@UnDecorator@@CA?AVDName@@AEBV2@0W4IndirectionKind@@@Z 000000014008c354 f i libvcruntime:undname.obj
 0001:0008b370       ?getRestrictionSpec@UnDecorator@@CA?AVDName@@XZ 000000014008c370 f   libvcruntime:undname.obj
 0001:0008b5c0       ?getReturnType@UnDecorator@@CA?AVDName@@PEAV2@@Z 000000014008c5c0 f   libvcruntime:undname.obj
 0001:0008b604       ?getScope@UnDecorator@@CA?AVDName@@XZ 000000014008c604 f   libvcruntime:undname.obj
 0001:0008bbe8       ?getScopedName@UnDecorator@@CA?AVDName@@XZ 000000014008cbe8 f   libvcruntime:undname.obj
 0001:0008bd78       ?getSignedDimension@UnDecorator@@CA?AVDName@@XZ 000000014008cd78 f   libvcruntime:undname.obj
 0001:0008be20       ?getStorageConvention@UnDecorator@@CA?AVDName@@XZ 000000014008ce20 f i libvcruntime:undname.obj
 0001:0008be68       ?getString@DName@@QEBAPEADPEAD0@Z 000000014008ce68 f i libvcruntime:undname.obj
 0001:0008be88       ?getString@DName@@QEBAPEADPEADH@Z 000000014008ce88 f i libvcruntime:undname.obj
 0001:0008bf40       ?getString@DNameStatusNode@@UEBAPEADPEAD0@Z 000000014008cf40 f i libvcruntime:undname.obj
 0001:0008bf98       ?getString@charNode@@UEBAPEADPEAD0@Z 000000014008cf98 f i libvcruntime:undname.obj
 0001:0008bfb0       ?getString@pDNameNode@@UEBAPEADPEAD0@Z 000000014008cfb0 f i libvcruntime:undname.obj
 0001:0008bfe8       ?getString@pairNode@@UEBAPEADPEAD0@Z 000000014008cfe8 f i libvcruntime:undname.obj
 0001:0008c048       ?getString@pcharNode@@UEBAPEADPEAD0@Z 000000014008d048 f i libvcruntime:undname.obj
 0001:0008c08c       ?getStringEncoding@UnDecorator@@CA?AVDName@@W4PrefixKind@@H@Z 000000014008d08c f   libvcruntime:undname.obj
 0001:0008c1dc       ?getStringHelper@@YAPEADPEADPEBD1H@Z 000000014008d1dc f i libvcruntime:undname.obj
 0001:0008c214       ?getStringObject@UnDecorator@@CA?AVDName@@XZ 000000014008d214 f   libvcruntime:undname.obj
 0001:0008c2c8       ?getSymbolName@UnDecorator@@CA?AVDName@@XZ 000000014008d2c8 f i libvcruntime:undname.obj
 0001:0008c328       ?getTemplateArgumentList@UnDecorator@@CA?AVDName@@XZ 000000014008d328 f   libvcruntime:undname.obj
 0001:0008c5cc       ?getTemplateName@UnDecorator@@CA?AVDName@@_N@Z 000000014008d5cc f   libvcruntime:undname.obj
 0001:0008c924       ?getTemplateNonTypeArgument@UnDecorator@@CA?AVDName@@XZ 000000014008d924 f   libvcruntime:undname.obj
 0001:0008cfc8       ?getTemplateTypeArgument@UnDecorator@@CA?AVDName@@XZ 000000014008dfc8 f   libvcruntime:undname.obj
 0001:0008d18c       ?getThisType@UnDecorator@@CA?AVDName@@XZ 000000014008e18c f i libvcruntime:undname.obj
 0001:0008d1dc       ?getThrowTypes@UnDecorator@@CA?AVDName@@XZ 000000014008e1dc f   libvcruntime:undname.obj
 0001:0008d208       ?getTypeEncoding@UnDecorator@@CAHXZ 000000014008e208 f i libvcruntime:undname.obj
 0001:0008d6ac       ?getUndecoratedName@UnDecorator@@QEAAPEADPEADH@Z 000000014008e6ac f i libvcruntime:undname.obj
 0001:0008d864       ?getUnionObject@UnDecorator@@CA?AVDName@@XZ 000000014008e864 f   libvcruntime:undname.obj
 0001:0008d970       ?getVCallThunkType@UnDecorator@@CA?AVDName@@XZ 000000014008e970 f i libvcruntime:undname.obj
 0001:0008da04       ?getValue@UnDecorator@@CA?AV?$optional@_K@std@@XZ 000000014008ea04 f   libvcruntime:undname.obj
 0001:0008da58       ?getValueObject@UnDecorator@@CA?AVDName@@XZ 000000014008ea58 f   libvcruntime:undname.obj
 0001:0008dc3c       ?getVbTableType@UnDecorator@@CA?AVDName@@AEBV2@@Z 000000014008ec3c f i libvcruntime:undname.obj
 0001:0008dc58       ?getVdispMapType@UnDecorator@@CA?AVDName@@AEBV2@@Z 000000014008ec58 f i libvcruntime:undname.obj
 0001:0008dcf4       ?getVfTableType@UnDecorator@@CA?AVDName@@AEBV2@@Z 000000014008ecf4 f i libvcruntime:undname.obj
 0001:0008df80       ?getZName@UnDecorator@@CA?AVDName@@_N0@Z 000000014008ef80 f   libvcruntime:undname.obj
 0001:0008e30c       ?get_current_character_and_increment_buffer@UnDecorator@@CADXZ 000000014008f30c f i libvcruntime:undname.obj
 0001:0008e32c       ?haveTemplateParameters@UnDecorator@@SAHXZ 000000014008f32c f i libvcruntime:undname.obj
 0001:0008e33c       ?increment_buffer@UnDecorator@@CA_N_K@Z 000000014008f33c f i libvcruntime:undname.obj
 0001:0008e374       ?increment_buffer_no_check@UnDecorator@@CAXXZ 000000014008f374 f i libvcruntime:undname.obj
 0001:0008e380       ?increment_buffer_no_check@UnDecorator@@CAX_K@Z 000000014008f380 f i libvcruntime:undname.obj
 0001:0008e38c       ?isArray@DName@@QEBAHXZ    000000014008f38c f i libvcruntime:undname.obj
 0001:0008e398       ?isComArray@DName@@QEBAHXZ 000000014008f398 f i libvcruntime:undname.obj
 0001:0008e3a4       ?isEmpty@DName@@QEBAHXZ    000000014008f3a4 f i libvcruntime:undname.obj
 0001:0008e3b0       ?isFull@Replicator@@QEBAHXZ 000000014008f3b0 f i libvcruntime:undname.obj
 0001:0008e3bc       ?isNoTE@DName@@QEBAHXZ     000000014008f3bc f i libvcruntime:undname.obj
 0001:0008e3c8       ?isPinPtr@DName@@QEBAHXZ   000000014008f3c8 f i libvcruntime:undname.obj
 0001:0008e3d4       ?isPtrRef@DName@@QEBAHXZ   000000014008f3d4 f i libvcruntime:undname.obj
 0001:0008e3e0       ?isUDC@DName@@QEBAHXZ      000000014008f3e0 f i libvcruntime:undname.obj
 0001:0008e3fc       ?isUDTThunk@DName@@QEBAHXZ 000000014008f3fc f i libvcruntime:undname.obj
 0001:0008e418       ?isVCallThunk@DName@@QEBAHXZ 000000014008f418 f i libvcruntime:undname.obj
 0001:0008e424       ?isValid@DName@@QEBAHXZ    000000014008f424 f i libvcruntime:undname.obj
 0001:0008e430       ?length@DName@@QEBAHXZ     000000014008f430 f i libvcruntime:undname.obj
 0001:0008e450       ?length@DNameStatusNode@@UEBAHXZ 000000014008f450 f i libvcruntime:undname.obj
 0001:0008e454       ?length@charNode@@UEBAHXZ  000000014008f454 f i libvcruntime:undname.obj
 0001:0008e45c       ?length@pDNameNode@@UEBAHXZ 000000014008f45c f i libvcruntime:undname.obj
 0001:0008e490       ?length@pairNode@@UEBAHXZ  000000014008f490 f i libvcruntime:undname.obj
 0001:0008e4e8       ?length@pcharNode@@UEBAHXZ 000000014008f4e8 f i libvcruntime:undname.obj
 0001:0008e4ec       ?make@DNameStatusNode@@SAPEBV1@W4DNameStatus@@@Z 000000014008f4ec f i libvcruntime:undname.obj
 0001:0008e514       ?parseDecoratedName@UnDecorator@@CA?AVDName@@XZ 000000014008f514 f   libvcruntime:undname.obj
 0001:0008e670       ?raw_length@DNameStatusNode@@UEBAHXZ 000000014008f670 f i libvcruntime:undname.obj
 0001:0008e674       ?raw_length@charNode@@UEBAHXZ 000000014008f674 f i libvcruntime:undname.obj
 0001:0008e67c       ?raw_length@pDNameNode@@UEBAHXZ 000000014008f67c f i libvcruntime:undname.obj
 0001:0008e680       ?raw_length@pairNode@@UEBAHXZ 000000014008f680 f i libvcruntime:undname.obj
 0001:0008e684       ?raw_length@pcharNode@@UEBAHXZ 000000014008f684 f i libvcruntime:undname.obj
 0001:0008e688       ?setIsArray@DName@@QEAAXXZ 000000014008f688 f i libvcruntime:undname.obj
 0001:0008e690       ?setIsComArray@DName@@QEAAXXZ 000000014008f690 f i libvcruntime:undname.obj
 0001:0008e698       ?setIsNoTE@DName@@QEAAXXZ  000000014008f698 f i libvcruntime:undname.obj
 0001:0008e6a0       ?setIsPinPtr@DName@@QEAAXXZ 000000014008f6a0 f i libvcruntime:undname.obj
 0001:0008e6a8       ?setIsUDC@DName@@QEAAXXZ   000000014008f6a8 f i libvcruntime:undname.obj
 0001:0008e6b8       ?setIsVCallThunk@DName@@QEAAXXZ 000000014008f6b8 f i libvcruntime:undname.obj
 0001:0008e6c0       ?setPtrRef@DName@@QEAAAEAV1@XZ 000000014008f6c0 f i libvcruntime:undname.obj
 0001:0008e6cc       ?status@DName@@QEBA?AW4DNameStatus@@XZ 000000014008f6cc f i libvcruntime:undname.obj
 0001:0008e744       __unDName                  000000014008f744 f   libvcruntime:undname.obj
 0001:0008e774       __unDNameEx                000000014008f774 f   libvcruntime:undname.obj
 0001:0008e89c       snprintf                   000000014008f89c f i libvcruntime:undname.obj
 0001:0008e908       unDNameGenerateCHPE        000000014008f908 f   libvcruntime:undname.obj
 0001:0008eaa4       ??$__crt_interlocked_exchange_pointer@UHINSTANCE__@@PEAU1@@@YAPEAUHINSTANCE__@@PEDSEAU0@QEAU0@@Z 000000014008faa4 f i libvcruntime:winapi_downlevel.obj
 0001:0008eaac       ??$__crt_interlocked_exchange_pointer@UHINSTANCE__@@PEAX@@YAPEAUHINSTANCE__@@PEDSEAU0@QEAX@Z 000000014008faac f i libvcruntime:winapi_downlevel.obj
 0001:0008eab4       ??$__crt_interlocked_exchange_pointer@XPEAX@@YAPEAXPEDSEAXQEAX@Z 000000014008fab4 f i libvcruntime:winapi_downlevel.obj
 0001:0008eabc       ??$__crt_interlocked_read_pointer@UHINSTANCE__@@@@YAPEAUHINSTANCE__@@PEDSEAU0@@Z 000000014008fabc f i libvcruntime:winapi_downlevel.obj
 0001:0008eac4       ??$__crt_interlocked_read_pointer@X@@YAPEAXPEDSEAX@Z 000000014008fac4 f i libvcruntime:winapi_downlevel.obj
 0001:0008f14c       __vcrt_FlsAlloc            000000014009014c f   libvcruntime:winapi_downlevel.obj
 0001:0008f1a4       __vcrt_FlsFree             00000001400901a4 f   libvcruntime:winapi_downlevel.obj
 0001:0008f1fc       __vcrt_FlsGetValue         00000001400901fc f   libvcruntime:winapi_downlevel.obj
 0001:0008f254       __vcrt_FlsSetValue         0000000140090254 f   libvcruntime:winapi_downlevel.obj
 0001:0008f2bc       __vcrt_InitializeCriticalSectionEx 00000001400902bc f   libvcruntime:winapi_downlevel.obj
 0001:0008f338       ??$?0AEAViterator@TryBlockMap4@FH4@@AEAV012@$0A@@?$pair@Viterator@TryBlockMap4@FH4@@V123@@std@@QEAA@AEAViterator@TryBlockMap4@FH4@@0@Z 0000000140090338 f i libvcruntime:risctrnsctrl.obj
 0001:0008f354       ??$?0AEAViterator@TryBlockMap@__FrameHandler3@@AEAV012@$0A@@?$pair@Viterator@TryBlockMap@__FrameHandler3@@V123@@std@@QEAA@AEAViterator@TryBlockMap@__FrameHandler3@@0@Z 0000000140090354 f i libvcruntime:risctrnsctrl.obj
 0001:0008f53c       ??$_CallSETranslator@V__FrameHandler3@@@@YAHPEAUEHExceptionRecord@@PEA_KPEAU_CONTEXT@@PEAU_xDISPATCHER_CONTEXT@@PEBU_s_FuncInfo@@K1H@Z 000000014009053c f i libvcruntime:risctrnsctrl.obj
 0001:0008f5a4       ??$_CallSETranslator@V__FrameHandler4@@@@YAHPEAUEHExceptionRecord@@PEA_KPEAU_CONTEXT@@PEAU_xDISPATCHER_CONTEXT@@PEAUFuncInfo4@FH4@@K1H@Z 00000001400905a4 f i libvcruntime:risctrnsctrl.obj
 0001:0008f60c       ??$forward@AEAViterator@TryBlockMap4@FH4@@@std@@YAAEAViterator@TryBlockMap4@FH4@@AEAV123@@Z 000000014009060c f i libvcruntime:risctrnsctrl.obj
 0001:0008f610       ??$forward@AEAViterator@TryBlockMap@__FrameHandler3@@@std@@YAAEAViterator@TryBlockMap@__FrameHandler3@@AEAV123@@Z 0000000140090610 f i libvcruntime:risctrnsctrl.obj
 0001:0008f614       ??0FuncInfo4@FH4@@QEAA@XZ  0000000140090614 f i libvcruntime:risctrnsctrl.obj
 0001:0008f62c       ??0FuncInfoHeader@FH4@@QEAA@XZ 000000014009062c f i libvcruntime:risctrnsctrl.obj
 0001:0008f634       ??0iterator@TryBlockMap4@FH4@@QEAA@AEAV12@I@Z 0000000140090634 f i libvcruntime:risctrnsctrl.obj
 0001:0008f644       ??0iterator@TryBlockMap@__FrameHandler3@@QEAA@AEAV12@I@Z 0000000140090644 f i libvcruntime:risctrnsctrl.obj
 0001:0008f654       ??4iterator@TryBlockMap4@FH4@@QEAAAEAV012@AEBV012@@Z 0000000140090654 f i libvcruntime:risctrnsctrl.obj
 0001:0008f660       ??9iterator@TryBlockMap4@FH4@@QEBA_NAEBV012@@Z 0000000140090660 f i libvcruntime:risctrnsctrl.obj
 0001:0008f66c       ??Diterator@TryBlockMap4@FH4@@QEAA?AUTryBlockMapEntry4@2@XZ 000000014009066c f i libvcruntime:risctrnsctrl.obj
 0001:0008f680       ??Eiterator@TryBlockMap4@FH4@@QEAAAEAV012@XZ 0000000140090680 f i libvcruntime:risctrnsctrl.obj
 0001:0008f744       ?CatchTryBlock@__FrameHandler3@@SAPEBU_s_TryBlockMapEntry@@PEBU_s_FuncInfo@@H@Z 0000000140090744 f   libvcruntime:risctrnsctrl.obj
 0001:0008f7c0       ?DecompFuncInfo@FH4@@YA_JPEAEAEAUFuncInfo4@1@_KH@Z 00000001400907c0 f i libvcruntime:risctrnsctrl.obj
 0001:0008f7d8       ?DecompFuncInfo@FH4@@YA_JPEAEAEAUFuncInfo4@1@_KH_N@Z 00000001400907d8 f i libvcruntime:risctrnsctrl.obj
 0001:0008f95c       ?DecompTryBlock@TryBlockMap4@FH4@@AEAAXXZ 000000014009095c f i libvcruntime:risctrnsctrl.obj
 0001:0008fa14       ?ExecutionInCatch@__FrameHandler3@@SA_NPEAU_xDISPATCHER_CONTEXT@@PEBU_s_FuncInfo@@@Z 0000000140090a14 f   libvcruntime:risctrnsctrl.obj
 0001:0008fa48       ?ExecutionInCatch@__FrameHandler4@@SA_NPEAU_xDISPATCHER_CONTEXT@@PEAUFuncInfo4@FH4@@@Z 0000000140090a48 f   libvcruntime:risctrnsctrl.obj
 0001:0008fa50       ?FrameUnwindToEmptyState@__FrameHandler3@@SAXPEA_KPEAU_xDISPATCHER_CONTEXT@@PEBU_s_FuncInfo@@@Z 0000000140090a50 f   libvcruntime:risctrnsctrl.obj
 0001:0008fad0       ?FrameUnwindToEmptyState@__FrameHandler4@@SAXPEA_KPEAU_xDISPATCHER_CONTEXT@@PEAUFuncInfo4@FH4@@@Z 0000000140090ad0 f   libvcruntime:risctrnsctrl.obj
 0001:0008fb10       ?GetEstablisherFrame@__FrameHandler3@@SAPEA_KPEA_KPEAU_xDISPATCHER_CONTEXT@@PEBU_s_FuncInfo@@0@Z 0000000140090b10 f   libvcruntime:risctrnsctrl.obj
 0001:0008fc14       ?GetEstablisherFrame@__FrameHandler4@@SAPEA_KPEA_KPEAU_xDISPATCHER_CONTEXT@@PEAUFuncInfo4@FH4@@0@Z 0000000140090c14 f   libvcruntime:risctrnsctrl.obj
 0001:0008fc40       ?GetRangeOfTrysToCheck@__FrameHandler3@@SA?AU?$pair@Viterator@TryBlockMap@__FrameHandler3@@V123@@std@@AEAVTryBlockMap@1@HPEAU_xDISPATCHER_CONTEXT@@PEBU_s_FuncInfo@@H@Z 0000000140090c40 f   libvcruntime:risctrnsctrl.obj
 0001:0008fdc0       ?GetRangeOfTrysToCheck@__FrameHandler4@@SA?AU?$pair@Viterator@TryBlockMap4@FH4@@V123@@std@@AEAVTryBlockMap4@FH4@@HPEAU_xDISPATCHER_CONTEXT@@PEAUFuncInfo4@5@H@Z 0000000140090dc0 f   libvcruntime:risctrnsctrl.obj
 0001:0008ff84       ?ReadInt@FH4@@YAHPEAPEAE@Z 0000000140090f84 f i libvcruntime:risctrnsctrl.obj
 0001:0008ff94       ?ReadUnsigned@FH4@@YAIPEAPEAE@Z 0000000140090f94 f i libvcruntime:risctrnsctrl.obj
 0001:0008ffd0       ?UnwindNestedFrames@__FrameHandler3@@SAXPEA_KPEAUEHExceptionRecord@@PEAU_CONTEXT@@0PEAXPEBU_s_FuncInfo@@HHPEBU_s_HandlerType@@PEAU_xDISPATCHER_CONTEXT@@E@Z 0000000140090fd0 f   libvcruntime:risctrnsctrl.obj
 0001:00090114       ?UnwindNestedFrames@__FrameHandler4@@SAXPEA_KPEAUEHExceptionRecord@@PEAU_CONTEXT@@0PEAXPEAUFuncInfo4@FH4@@HHPEAUHandlerType4@5@PEAU_xDISPATCHER_CONTEXT@@E@Z 0000000140091114 f   libvcruntime:risctrnsctrl.obj
 0001:0009027c       ?begin@TryBlockMap4@FH4@@QEAA?AViterator@12@XZ 000000014009127c f i libvcruntime:risctrnsctrl.obj
 0001:0009028c       ?end@TryBlockMap4@FH4@@QEAA?AViterator@12@XZ 000000014009128c f i libvcruntime:risctrnsctrl.obj
 0001:0009029c       ?imageRelToByteBuffer@FH4@@YAPEAE_KH@Z 000000014009129c f i libvcruntime:risctrnsctrl.obj
 0001:000902a4       ?incrementToSentinel@iterator@TryBlockMap4@FH4@@QEAAXXZ 00000001400912a4 f i libvcruntime:risctrnsctrl.obj
 0001:000902a8       ?setBuffer@TryBlockMap4@FH4@@QEAAXViterator@12@@Z 00000001400912a8 f i libvcruntime:risctrnsctrl.obj
 0001:000904dc       _CreateFrameInfo           00000001400914dc f   libvcruntime:risctrnsctrl.obj
 0001:00090524       _FindAndUnlinkFrame        0000000140091524 f   libvcruntime:risctrnsctrl.obj
 0001:0009058c       _GetImageBase              000000014009158c f   libvcruntime:risctrnsctrl.obj
 0001:000905a4       _GetThrowImageBase         00000001400915a4 f   libvcruntime:risctrnsctrl.obj
 0001:000905bc       _SetImageBase              00000001400915bc f   libvcruntime:risctrnsctrl.obj
 0001:000905dc       _SetThrowImageBase         00000001400915dc f   libvcruntime:risctrnsctrl.obj
 0001:000905fc       __CxxFrameHandler          00000001400915fc f   libvcruntime:risctrnsctrl.obj
 0001:00090604       __CxxFrameHandler2         0000000140091604 f   libvcruntime:risctrnsctrl.obj
 0001:0009060c       __CxxFrameHandler3         000000014009160c f   libvcruntime:risctrnsctrl.obj
 0001:000906b4       __CxxFrameHandler4         00000001400916b4 f   libvcruntime:risctrnsctrl.obj
 0001:000907a4       ?GetCurrentState@__FrameHandler3@@SAHPEA_KPEAU_xDISPATCHER_CONTEXT@@PEBU_s_FuncInfo@@@Z 00000001400917a4 f   libvcruntime:ehstate.obj
 0001:000907d4       ?GetUnwindTryBlock@__FrameHandler3@@SAHPEA_KPEAU_xDISPATCHER_CONTEXT@@PEBU_s_FuncInfo@@@Z 00000001400917d4 f   libvcruntime:ehstate.obj
 0001:00090808       ?SetState@__FrameHandler3@@SAXPEA_KPEBU_s_FuncInfo@@H@Z 0000000140091808 f   libvcruntime:ehstate.obj
 0001:00090818       ?SetUnwindTryBlock@__FrameHandler3@@SAXPEA_KPEAU_xDISPATCHER_CONTEXT@@PEBU_s_FuncInfo@@H@Z 0000000140091818 f   libvcruntime:ehstate.obj
 0001:00090864       ?StateFromControlPc@__FrameHandler3@@SAHPEBU_s_FuncInfo@@PEAU_xDISPATCHER_CONTEXT@@@Z 0000000140091864 f   libvcruntime:ehstate.obj
 0001:00090870       ?StateFromControlPc@__FrameHandler4@@SAHPEAUFuncInfo4@FH4@@PEAU_xDISPATCHER_CONTEXT@@@Z 0000000140091870 f   libvcruntime:ehstate.obj
 0001:0009087c       ?StateFromIp@__FrameHandler3@@SAHPEBU_s_FuncInfo@@PEAU_xDISPATCHER_CONTEXT@@_K@Z 000000014009187c f   libvcruntime:ehstate.obj
 0001:000908fc       ?StateFromIp@__FrameHandler4@@SAHPEAUFuncInfo4@FH4@@PEAU_xDISPATCHER_CONTEXT@@_K@Z 00000001400918fc f   libvcruntime:ehstate.obj
 0001:00090a24       ?__FuncRelToRealOffset@@YA_KPEAU_xDISPATCHER_CONTEXT@@I@Z 0000000140091a24 f i libvcruntime:ehstate.obj
 0001:00090a38       ?__RVAtoRealOffset@@YA_KPEAU_xDISPATCHER_CONTEXT@@H@Z 0000000140091a38 f i libvcruntime:ehstate.obj
 0001:00092644       ??$TypeMatchHelper@V__FrameHandler3@@@@YAHPEBU_s_HandlerType@@PEBU_s_CatchableType@@PEBU_s_ThrowInfo@@@Z 0000000140093644 f i libvcruntime:frame.obj
 0001:000927d0       ??$TypeMatchHelper@V__FrameHandler4@@@@YAHPEAUHandlerType4@FH4@@PEBU_s_CatchableType@@PEBU_s_ThrowInfo@@@Z 00000001400937d0 f i libvcruntime:frame.obj
 0001:00092970       ??$__InternalCxxFrameHandler@V__FrameHandler3@@@@YA?AW4_EXCEPTION_DISPOSITION@@PEAUEHExceptionRecord@@PEA_KPEAU_CONTEXT@@PEAU_xDISPATCHER_CONTEXT@@PEBU_s_FuncInfo@@H1E@Z 0000000140093970 f i libvcruntime:frame.obj
 0001:00092c34       ??$__InternalCxxFrameHandler@V__FrameHandler4@@@@YA?AW4_EXCEPTION_DISPOSITION@@PEAUEHExceptionRecord@@PEA_KPEAU_CONTEXT@@PEAU_xDISPATCHER_CONTEXT@@PEAUFuncInfo4@FH4@@H1E@Z 0000000140093c34 f i libvcruntime:frame.obj
 0001:00092f70       ??$__InternalCxxFrameHandlerWrapper@V__FrameHandler3@@@@YA?AW4_EXCEPTION_DISPOSITION@@PEAUEHExceptionRecord@@PEA_KPEAU_CONTEXT@@PEAU_xDISPATCHER_CONTEXT@@PEBU_s_FuncInfo@@H1E@Z 0000000140093f70 f i libvcruntime:frame.obj
 0001:00092f78       ??$__InternalCxxFrameHandlerWrapper@V__FrameHandler4@@@@YA?AW4_EXCEPTION_DISPOSITION@@PEAUEHExceptionRecord@@PEA_KPEAU_CONTEXT@@PEAU_xDISPATCHER_CONTEXT@@PEAUFuncInfo4@FH4@@H1E@Z 0000000140093f78 f i libvcruntime:frame.obj
 0001:00092fd8       ??0HandlerMap4@FH4@@QEAA@PEBUTryBlockMapEntry4@1@_KH@Z 0000000140093fd8 f i libvcruntime:frame.obj
 0001:0009307c       ??0HandlerMap@__FrameHandler3@@QEAA@PEBU_s_TryBlockMapEntry@@_KI@Z 000000014009407c f i libvcruntime:frame.obj
 0001:00093098       ??0HandlerType4@FH4@@QEAA@XZ 0000000140094098 f i libvcruntime:frame.obj
 0001:000930b4       ??0TryBlockMap4@FH4@@QEAA@PEBUFuncInfo4@1@_K@Z 00000001400940b4 f i libvcruntime:frame.obj
 0001:000931d4       ??0TryBlockMap@__FrameHandler3@@QEAA@PEBU_s_FuncInfo@@_K@Z 00000001400941d4 f i libvcruntime:frame.obj
 0001:000931e4       ??0UWMap4@FH4@@QEAA@PEBUFuncInfo4@1@_K@Z 00000001400941e4 f i libvcruntime:frame.obj
 0001:00093244       ??0bad_exception@std@@QEAA@AEBV01@@Z 0000000140094244 f i libvcruntime:frame.obj
 0001:00093290       ??0bad_exception@std@@QEAA@XZ 0000000140094290 f i libvcruntime:frame.obj
 0001:000932b8       ??0iterator@HandlerMap4@FH4@@QEAA@AEAV12@I@Z 00000001400942b8 f i libvcruntime:frame.obj
 0001:000932c8       ??0iterator@HandlerMap@__FrameHandler3@@QEAA@AEAV12@I@Z 00000001400942c8 f i libvcruntime:frame.obj
 0001:000932d8       ??0iterator@UWMap4@FH4@@QEAA@AEAV12@PEAE@Z 00000001400942d8 f i libvcruntime:frame.obj
 0001:000932e8       ??1bad_exception@std@@UEAA@XZ 00000001400942e8 f i libvcruntime:frame.obj
 0001:00093300       ??4iterator@UWMap4@FH4@@QEAAAEAV012@AEBV012@@Z 0000000140094300 f i libvcruntime:frame.obj
 0001:00093328       ??8iterator@HandlerMap4@FH4@@QEBA_NAEBV012@@Z 0000000140094328 f i libvcruntime:frame.obj
 0001:00093334       ??8iterator@HandlerMap@__FrameHandler3@@QEBA_NAEBV012@@Z 0000000140094334 f i libvcruntime:frame.obj
 0001:00093340       ??8type_info@@QEBA_NAEBV0@@Z 0000000140094340 f i libvcruntime:frame.obj
 0001:00093364       ??9iterator@HandlerMap4@FH4@@QEBA_NAEBV012@@Z 0000000140094364 f i libvcruntime:frame.obj
 0001:00093370       ??9iterator@HandlerMap@__FrameHandler3@@QEBA_NAEBV012@@Z 0000000140094370 f i libvcruntime:frame.obj
 0001:0009337c       ??Diterator@HandlerMap4@FH4@@QEAA?AUHandlerType4@2@XZ 000000014009437c f i libvcruntime:frame.obj
 0001:000933a4       ??Diterator@HandlerMap@__FrameHandler3@@QEAA?BU_s_HandlerType@@XZ 00000001400943a4 f i libvcruntime:frame.obj
 0001:000933d0       ??Diterator@TryBlockMap@__FrameHandler3@@QEAA?BU_s_TryBlockMapEntry@@XZ 00000001400943d0 f i libvcruntime:frame.obj
 0001:00093408       ??Diterator@UWMap4@FH4@@QEAA?AUUnwindMapEntry4@2@XZ 0000000140094408 f i libvcruntime:frame.obj
 0001:00093470       ??Eiterator@HandlerMap4@FH4@@QEAAAEAV012@XZ 0000000140094470 f i libvcruntime:frame.obj
 0001:00093494       ??Eiterator@HandlerMap@__FrameHandler3@@QEAAAEAV012@XZ 0000000140094494 f i libvcruntime:frame.obj
 0001:0009349c       ??Eiterator@TryBlockMap@__FrameHandler3@@QEAAAEAV012@XZ 000000014009449c f i libvcruntime:frame.obj
 0001:000934a4       ??Eiterator@UWMap4@FH4@@QEAAAEAV012@XZ 00000001400944a4 f i libvcruntime:frame.obj
 0001:000934cc       ??Giterator@UWMap4@FH4@@QEBA_JAEBV012@@Z 00000001400944cc f i libvcruntime:frame.obj
 0001:000934d8       ??Miterator@TryBlockMap4@FH4@@QEBA_NAEBV012@@Z 00000001400944d8 f i libvcruntime:frame.obj
 0001:000934e4       ??Miterator@TryBlockMap@__FrameHandler3@@QEBA_NAEBV012@@Z 00000001400944e4 f i libvcruntime:frame.obj
 0001:000934f0       ??Oiterator@UWMap4@FH4@@QEBA_NAEBV012@@Z 00000001400944f0 f i libvcruntime:frame.obj
 0001:00093500       ??Piterator@UWMap4@FH4@@QEBA_NAEBV012@@Z 0000000140094500 f i libvcruntime:frame.obj
 0001:00093510       ??_Ebad_exception@std@@UEAAPEAXI@Z 0000000140094510 f i libvcruntime:frame.obj
 0001:00093510       ??_Gbad_exception@std@@UEAAPEAXI@Z 0000000140094510 f i libvcruntime:frame.obj
 0001:00093564       ?BuildCatchObject@__FrameHandler3@@SAXPEAUEHExceptionRecord@@PEAXPEBU_s_HandlerType@@PEBU_s_CatchableType@@@Z 0000000140094564 f   libvcruntime:frame.obj
 0001:0009356c       ?BuildCatchObject@__FrameHandler4@@SAXPEAUEHExceptionRecord@@PEAXPEAUHandlerType4@FH4@@PEBU_s_CatchableType@@@Z 000000014009456c f   libvcruntime:frame.obj
 0001:00093574       ?BuildCatchObjectHelper@__FrameHandler3@@SAHPEAUEHExceptionRecord@@PEAXPEBU_s_HandlerType@@PEBU_s_CatchableType@@@Z 0000000140094574 f   libvcruntime:frame.obj
 0001:0009357c       ?BuildCatchObjectHelper@__FrameHandler4@@SAHPEAUEHExceptionRecord@@PEAXPEAUHandlerType4@FH4@@PEBU_s_CatchableType@@@Z 000000014009457c f   libvcruntime:frame.obj
 0001:00093584       ?CxxCallCatchBlock@__FrameHandler3@@SAPEAXPEAU_EXCEPTION_RECORD@@@Z 0000000140094584 f   libvcruntime:frame.obj
 0001:000937e8       ?CxxCallCatchBlock@__FrameHandler4@@SAPEAXPEAU_EXCEPTION_RECORD@@@Z 00000001400947e8 f   libvcruntime:frame.obj
 0001:00093ac8       ?DecompHandler@HandlerMap4@FH4@@AEAAXXZ 0000000140094ac8 f i libvcruntime:frame.obj
 0001:00093da4       ?FrameUnwindToState@__FrameHandler3@@SAXPEA_KPEAU_xDISPATCHER_CONTEXT@@PEBU_s_FuncInfo@@H@Z 0000000140094da4 f   libvcruntime:frame.obj
 0001:00093f90       ?FrameUnwindToState@__FrameHandler4@@SAXPEA_KPEAU_xDISPATCHER_CONTEXT@@PEAUFuncInfo4@FH4@@H@Z 0000000140094f90 f   libvcruntime:frame.obj
 0001:00094358       ?GetHandlerSearchState@__FrameHandler3@@SAHPEA_KPEAU_xDISPATCHER_CONTEXT@@PEBU_s_FuncInfo@@@Z 0000000140095358 f i libvcruntime:frame.obj
 0001:00094414       ?GetHandlerSearchState@__FrameHandler4@@SAHPEA_KPEAU_xDISPATCHER_CONTEXT@@PEAUFuncInfo4@FH4@@@Z 0000000140095414 f i libvcruntime:frame.obj
 0001:00094490       ?GetMaxState@__FrameHandler3@@SAHPEAU_xDISPATCHER_CONTEXT@@PEBU_s_FuncInfo@@@Z 0000000140095490 f i libvcruntime:frame.obj
 0001:00094494       ?GetMaxState@__FrameHandler4@@SAHPEAU_xDISPATCHER_CONTEXT@@PEAUFuncInfo4@FH4@@@Z 0000000140095494 f i libvcruntime:frame.obj
 0001:000946b0       ?ReadEntry@UWMap4@FH4@@AEAAXPEAPEAE@Z 00000001400956b0 f i libvcruntime:frame.obj
 0001:00094774       ?TypeMatch@__FrameHandler3@@SAHPEBU_s_HandlerType@@PEBU_s_CatchableType@@PEBU_s_ThrowInfo@@@Z 0000000140095774 f   libvcruntime:frame.obj
 0001:0009477c       ?TypeMatch@__FrameHandler4@@SAHPEAUHandlerType4@FH4@@PEBU_s_CatchableType@@PEBU_s_ThrowInfo@@@Z 000000014009577c f   libvcruntime:frame.obj
 0001:00094784       ?WalkBack@UWMap4@FH4@@AEAAXPEAPEAE@Z 0000000140095784 f i libvcruntime:frame.obj
 0001:000947c8       ?WalkBack@iterator@UWMap4@FH4@@QEAAXXZ 00000001400957c8 f i libvcruntime:frame.obj
 0001:00094814       ?WalkForward@UWMap4@FH4@@AEAAXPEAPEAE@Z 0000000140095814 f i libvcruntime:frame.obj
 0001:0009481c       ?_CallMemberFunction1@@YAXQEAX00@Z 000000014009581c f i libvcruntime:frame.obj
 0001:00094828       ?_CallMemberFunction2@@YAXQEAX00H@Z 0000000140095828 f i libvcruntime:frame.obj
 0001:00094858       ?begin@HandlerMap4@FH4@@QEAA?AViterator@12@XZ 0000000140095858 f i libvcruntime:frame.obj
 0001:00094868       ?begin@HandlerMap@__FrameHandler3@@QEAA?AViterator@12@XZ 0000000140095868 f i libvcruntime:frame.obj
 0001:00094878       ?begin@UWMap4@FH4@@QEAA?AViterator@12@XZ 0000000140095878 f i libvcruntime:frame.obj
 0001:0009488c       ?end@HandlerMap4@FH4@@QEAA?AViterator@12@XZ 000000014009588c f i libvcruntime:frame.obj
 0001:0009489c       ?end@HandlerMap@__FrameHandler3@@QEAA?AViterator@12@XZ 000000014009589c f i libvcruntime:frame.obj
 0001:000948ac       ?getESTypes@__FrameHandler3@@SAPEBU_s_ESTypeList@@PEBU_s_FuncInfo@@@Z 00000001400958ac f i libvcruntime:frame.obj
 0001:000948e0       ?getESTypes@__FrameHandler4@@SAPEBU_s_ESTypeList@@PEAUFuncInfo4@FH4@@@Z 00000001400958e0 f i libvcruntime:frame.obj
 0001:000948e4       ?getLastEntry@HandlerMap4@FH4@@QEAAPEAUHandlerType4@2@XZ 00000001400958e4 f i libvcruntime:frame.obj
 0001:00094948       ?getLastEntry@HandlerMap@__FrameHandler3@@QEAAPEBU_s_HandlerType@@XZ 0000000140095948 f i libvcruntime:frame.obj
 0001:00094960       ?getMagicNum@__FrameHandler3@@SAIPEBU_s_FuncInfo@@@Z 0000000140095960 f i libvcruntime:frame.obj
 0001:0009496c       ?getMagicNum@__FrameHandler4@@SAIPEAUFuncInfo4@FH4@@@Z 000000014009596c f i libvcruntime:frame.obj
 0001:00094974       ?getNumTryBlocks@TryBlockMap4@FH4@@QEAAIXZ 0000000140095974 f i libvcruntime:frame.obj
 0001:00094978       ?getNumTryBlocks@TryBlockMap@__FrameHandler3@@QEAAIXZ 0000000140095978 f i libvcruntime:frame.obj
 0001:00094980       ?getStartStop@UWMap4@FH4@@QEAAXHHAEAViterator@12@0@Z 0000000140095980 f i libvcruntime:frame.obj
 0001:00094a84       ?getStateFromIterators@UWMap4@FH4@@SAHAEBViterator@12@H0H0@Z 0000000140095a84 f i libvcruntime:frame.obj
 0001:00094b60       ?isEHs@__FrameHandler3@@SA_NPEBU_s_FuncInfo@@@Z 0000000140095b60 f i libvcruntime:frame.obj
 0001:00094b68       ?isEHs@__FrameHandler4@@SA_NPEAUFuncInfo4@FH4@@@Z 0000000140095b68 f i libvcruntime:frame.obj
 0001:00094b74       ?isNoExcept@__FrameHandler3@@SA_NPEBU_s_FuncInfo@@@Z 0000000140095b74 f i libvcruntime:frame.obj
 0001:00094b80       ?isNoExcept@__FrameHandler4@@SA_NPEAUFuncInfo4@FH4@@@Z 0000000140095b80 f i libvcruntime:frame.obj
 0001:00094b8c       ?reset@HandlerType4@FH4@@QEAAXXZ 0000000140095b8c f i libvcruntime:frame.obj
 0001:00094ba8       ?resetBuffer@HandlerMap4@FH4@@QEAAXXZ 0000000140095ba8 f i libvcruntime:frame.obj
 0001:00094bb8       ?setBuffer@HandlerMap4@FH4@@QEAAXI@Z 0000000140095bb8 f i libvcruntime:frame.obj
 0001:00094c00       __BuildCatchObject         0000000140095c00 f   libvcruntime:frame.obj
 0001:00094c08       __BuildCatchObjectHelper   0000000140095c08 f   libvcruntime:frame.obj
 0001:00094c10       __TypeMatch                0000000140095c10 f   libvcruntime:frame.obj
 0001:00094c18       __vcrt_EncodePointer       0000000140095c18 f i libvcruntime:frame.obj
 0001:00094c70       _CallSettingFrame          0000000140095c70 f   libvcruntime:handlers.obj
 0001:00094cc0       _CallSettingFrame_LookupContinuationIndex 0000000140095cc0 f   libvcruntime:handlers.obj
 0001:00094d00       _CallSettingFrame_NotifyContinuationAddr 0000000140095d00 f   libvcruntime:handlers.obj
 0001:00094d30       _CallSettingFrameEncoded   0000000140095d30 f   libvcruntime:handlers.obj
 0001:00094d88       calloc                     0000000140095d88 f   libucrt:calloc.obj
 0001:00094d90       free                       0000000140095d90 f   libucrt:free.obj
 0001:00094da8       ??$is_overflow_condition@K@__crt_strtox@@YA_NIK@Z 0000000140095da8 f i libucrt:atox.obj
 0001:00094dd8       ??$is_overflow_condition@_K@__crt_strtox@@YA_NI_K@Z 0000000140095dd8 f i libucrt:atox.obj
 0001:00094e1c       ??$make_c_string_character_source@D$$T@__crt_strtox@@YA?AV?$c_string_character_source@D@0@QEBD$$T@Z 0000000140095e1c f i libucrt:atox.obj
 0001:00094e34       ??$make_c_string_character_source@_W$$T@__crt_strtox@@YA?AV?$c_string_character_source@_W@0@QEB_W$$T@Z 0000000140095e34 f i libucrt:atox.obj
 0001:00094e4c       ??$parse_integer@KV?$c_string_character_source@D@__crt_strtox@@$00@__crt_strtox@@YAKAEAV__crt_cached_ptd_host@@V?$c_string_character_source@D@0@H_N@Z 0000000140095e4c f i libucrt:atox.obj
 0001:000951f4       ??$parse_integer@KV?$c_string_character_source@_W@__crt_strtox@@$00@__crt_strtox@@YAKAEAV__crt_cached_ptd_host@@V?$c_string_character_source@_W@0@H_N@Z 00000001400961f4 f i libucrt:atox.obj
 0001:00095b74       ??$parse_integer@_KV?$c_string_character_source@D@__crt_strtox@@$00@__crt_strtox@@YA_KAEAV__crt_cached_ptd_host@@V?$c_string_character_source@D@0@H_N@Z 0000000140096b74 f i libucrt:atox.obj
 0001:00095f08       ??$parse_integer@_KV?$c_string_character_source@_W@__crt_strtox@@$00@__crt_strtox@@YA_KAEAV__crt_cached_ptd_host@@V?$c_string_character_source@_W@0@H_N@Z 0000000140096f08 f i libucrt:atox.obj
 0001:0009686c       ??$parse_integer_from_string@JD$$T@__crt_strtox@@YAJQEBD$$THQEAU__crt_locale_pointers@@@Z 000000014009786c f i libucrt:atox.obj
 0001:00096958       ??$parse_integer_from_string@J_W$$T@__crt_strtox@@YAJQEB_W$$THQEAU__crt_locale_pointers@@@Z 0000000140097958 f i libucrt:atox.obj
 0001:00096a44       ??$parse_integer_from_string@_JD$$T@__crt_strtox@@YA_JQEBD$$THQEAU__crt_locale_pointers@@@Z 0000000140097a44 f i libucrt:atox.obj
 0001:00096b34       ??$parse_integer_from_string@_J_W$$T@__crt_strtox@@YA_JQEB_W$$THQEAU__crt_locale_pointers@@@Z 0000000140097b34 f i libucrt:atox.obj
 0001:00096c24       ??0?$c_string_character_source@D@__crt_strtox@@QEAA@QEBDQEAPEBD@Z 0000000140097c24 f i libucrt:atox.obj
 0001:00096c3c       ??0?$c_string_character_source@_W@__crt_strtox@@QEAA@QEB_WQEAPEB_W@Z 0000000140097c3c f i libucrt:atox.obj
 0001:00096c54       ??0?$cached@H@__crt_cached_ptd_host@@QEAA@XZ 0000000140097c54 f i libucrt:atox.obj
 0001:00096c60       ??0?$cached@K@__crt_cached_ptd_host@@QEAA@XZ 0000000140097c60 f i libucrt:atox.obj
 0001:00096c70       ??0__crt_cached_ptd_host@@QEAA@QEAU__crt_locale_pointers@@@Z 0000000140097c70 f i libucrt:atox.obj
 0001:00096cc8       ??0__crt_scoped_get_last_error_reset@@QEAA@XZ 0000000140097cc8 f i libucrt:atox.obj
 0001:00096ce8       ??1?$c_string_character_source@D@__crt_strtox@@QEAA@XZ 0000000140097ce8 f i libucrt:atox.obj
 0001:00096cfc       ??1?$c_string_character_source@_W@__crt_strtox@@QEAA@XZ 0000000140097cfc f i libucrt:atox.obj
 0001:00096d10       ??1__crt_cached_ptd_host@@QEAA@XZ 0000000140097d10 f i libucrt:atox.obj
 0001:00096d74       ??1__crt_scoped_get_last_error_reset@@QEAA@XZ 0000000140097d74 f i libucrt:atox.obj
 0001:00096d80       ?check_synchronize_global_state_index@__crt_cached_ptd_host@@AEAA_KAEBV__crt_scoped_get_last_error_reset@@@Z 0000000140097d80 f i libucrt:atox.obj
 0001:00096da0       ?check_synchronize_per_thread_data@__crt_cached_ptd_host@@AEAAPEAU__acrt_ptd@@XZ 0000000140097da0 f i libucrt:atox.obj
 0001:00096e20       ?force_synchronize_global_state_index@__crt_cached_ptd_host@@AEAA_KAEBV__crt_scoped_get_last_error_reset@@@Z 0000000140097e20 f i libucrt:atox.obj
 0001:00096e40       ?force_synchronize_per_thread_data@__crt_cached_ptd_host@@AEAAPEAU__acrt_ptd@@XZ 0000000140097e40 f i libucrt:atox.obj
 0001:00096eac       ?get@?$c_string_character_source@D@__crt_strtox@@QEAADXZ 0000000140097eac f i libucrt:atox.obj
 0001:00096ebc       ?get@?$c_string_character_source@_W@__crt_strtox@@QEAA_WXZ 0000000140097ebc f i libucrt:atox.obj
 0001:00096ed0       ?get_current_state_index@__crt_state_management@@YA_KAEBV__crt_scoped_get_last_error_reset@@@Z 0000000140097ed0 f i libucrt:atox.obj
 0001:00096ee0       ?get_errno@__crt_cached_ptd_host@@QEAA@XZ 0000000140097ee0 f i libucrt:atox.obj
 0001:00096ef0       ?get_locale@__crt_cached_ptd_host@@QEAAPEAU__crt_locale_pointers@@XZ 0000000140097ef0 f i libucrt:atox.obj
 0001:00096f30       ?get_raw_ptd@__crt_cached_ptd_host@@QEAAPEAU__acrt_ptd@@XZ 0000000140097f30 f i libucrt:atox.obj
 0001:00096fb0       ?is_space@__crt_strtox@@YA_NDQEAU__crt_locale_pointers@@@Z 0000000140097fb0 f i libucrt:atox.obj
 0001:00096fd8       ?is_space@__crt_strtox@@YA_N_WPEAU__crt_locale_pointers@@@Z 0000000140097fd8 f i libucrt:atox.obj
 0001:00096ff8       ?maximum_signed_value@__crt_strtox@@YAJK@Z 0000000140097ff8 f i libucrt:atox.obj
 0001:00097000       ?maximum_signed_value@__crt_strtox@@YA_J_K@Z 0000000140098000 f i libucrt:atox.obj
 0001:00097010       ?minimum_signed_value@__crt_strtox@@YAJK@Z 0000000140098010 f i libucrt:atox.obj
 0001:00097018       ?minimum_signed_value@__crt_strtox@@YA_J_K@Z 0000000140098018 f i libucrt:atox.obj
 0001:00097028       ?parse_digit@__crt_strtox@@YAID@Z 0000000140098028 f i libucrt:atox.obj
 0001:00097064       ?parse_digit@__crt_strtox@@YAI_W@Z 0000000140098064 f i libucrt:atox.obj
 0001:0009728c       ?restore_state@?$c_string_character_source@D@__crt_strtox@@QEAA_NQEBD@Z 000000014009828c f i libucrt:atox.obj
 0001:00097294       ?restore_state@?$c_string_character_source@_W@__crt_strtox@@QEAA_NQEB_W@Z 0000000140098294 f i libucrt:atox.obj
 0001:0009729c       ?save_state@?$c_string_character_source@D@__crt_strtox@@QEBAPEBDXZ 000000014009829c f i libucrt:atox.obj
 0001:000972a0       ?save_state@?$c_string_character_source@_W@__crt_strtox@@QEBAPEB_WXZ 00000001400982a0 f i libucrt:atox.obj
 0001:000972a4       ?set@?$cached@H@__crt_cached_ptd_host@@QEAAHH@Z 00000001400982a4 f i libucrt:atox.obj
 0001:000972b0       ?unget@?$c_string_character_source@D@__crt_strtox@@QEAAXD@Z 00000001400982b0 f i libucrt:atox.obj
 0001:000972e4       ?unget@?$c_string_character_source@_W@__crt_strtox@@QEAAX_W@Z 00000001400982e4 f i libucrt:atox.obj
 0001:0009731c       ?unsafe_value@?$cached@H@__crt_cached_ptd_host@@QEAAHXZ 000000014009831c f i libucrt:atox.obj
 0001:00097320       ?unsafe_value@?$cached@K@__crt_cached_ptd_host@@QEAAKXZ 0000000140098320 f i libucrt:atox.obj
 0001:00097330       ?update_locale@__crt_cached_ptd_host@@AEAAXXZ 0000000140098330 f i libucrt:atox.obj
 0001:00097340       ?update_locale_slow@__crt_cached_ptd_host@@AEAAXXZ 0000000140098340 f i libucrt:atox.obj
 0001:000973d4       ?valid@?$cached@H@__crt_cached_ptd_host@@QEBA_NXZ 00000001400983d4 f i libucrt:atox.obj
 0001:000973d8       ?valid@?$cached@K@__crt_cached_ptd_host@@QEBA_NXZ 00000001400983d8 f i libucrt:atox.obj
 0001:000973dc       ?validate@?$c_string_character_source@D@__crt_strtox@@QEBA_NXZ 00000001400983dc f i libucrt:atox.obj
 0001:0009740c       ?validate@?$c_string_character_source@_W@__crt_strtox@@QEBA_NXZ 000000014009840c f i libucrt:atox.obj
 0001:0009743c       ?wide_character_to_digit@__crt_strtox@@YAH_W@Z 000000014009843c f i libucrt:atox.obj
 0001:00097644       __acrt_disable_global_locale_sync 0000000140098644 f i libucrt:atox.obj
 0001:0009764c       __acrt_enable_global_locale_sync 000000014009864c f i libucrt:atox.obj
 0001:00097658       __acrt_get_locale_data_prefix 0000000140098658 f i libucrt:atox.obj
 0001:0009765c       __acrt_locale_changed      000000014009865c f i libucrt:atox.obj
 0001:0009766c       __acrt_locale_get_ctype_array_value 000000014009866c f i libucrt:atox.obj
 0001:0009768c       __ascii_iswalpha           000000014009868c f i libucrt:atox.obj
 0001:000976ac       __ascii_toupper            00000001400986ac f i libucrt:atox.obj
 0001:000976c0       __ascii_towupper           00000001400986c0 f i libucrt:atox.obj
 0001:000976d0       _atoi64                    00000001400986d0 f   libucrt:atox.obj
 0001:000977b0       _atoi64_l                  00000001400987b0 f   libucrt:atox.obj
 0001:0009789c       _atoi_l                    000000014009889c f   libucrt:atox.obj
 0001:00097984       _atol_l                    0000000140098984 f   libucrt:atox.obj
 0001:00097a6c       _atoll_l                   0000000140098a6c f   libucrt:atox.obj
 0001:00097b58       _chvalidchk_l              0000000140098b58 f i libucrt:atox.obj
 0001:00097bd4       _ischartype_l              0000000140098bd4 f i libucrt:atox.obj
 0001:00097c68       _wtoi                      0000000140098c68 f   libucrt:atox.obj
 0001:00097d44       _wtoi64                    0000000140098d44 f   libucrt:atox.obj
 0001:00097e24       _wtoi64_l                  0000000140098e24 f   libucrt:atox.obj
 0001:00097f10       _wtoi_l                    0000000140098f10 f   libucrt:atox.obj
 0001:00097ff8       _wtol                      0000000140098ff8 f   libucrt:atox.obj
 0001:000980d4       _wtol_l                    00000001400990d4 f   libucrt:atox.obj
 0001:000981bc       _wtoll                     00000001400991bc f   libucrt:atox.obj
 0001:0009829c       _wtoll_l                   000000014009929c f   libucrt:atox.obj
 0001:00098388       atoi                       0000000140099388 f   libucrt:atox.obj
 0001:00098464       atol                       0000000140099464 f   libucrt:atox.obj
 0001:00098540       atoll                      0000000140099540 f   libucrt:atox.obj
 0001:00098620       ??$?RPEAU__crt_stdio_stream_data@@@__crt_internal_free_policy@@QEBAXQEBQEAU__crt_stdio_stream_data@@@Z 0000000140099620 f i libucrt:_file.obj
 0001:0009862c       ??0?$__crt_unique_heap_ptr@PEAU__crt_stdio_stream_data@@U__crt_internal_free_policy@@@@QEAA@QEAPEAU__crt_stdio_stream_data@@@Z 000000014009962c f i libucrt:_file.obj
 0001:00098634       ??0__crt_stdio_stream@@QEAA@QEAU_iobuf@@@Z 0000000140099634 f i libucrt:_file.obj
 0001:0009863c       ??1?$__crt_unique_heap_ptr@PEAU__crt_stdio_stream_data@@U__crt_internal_free_policy@@@@QEAA@XZ 000000014009963c f i libucrt:_file.obj
 0001:00098660       ??C__crt_stdio_stream@@QEBAPEAU__crt_stdio_stream_data@@XZ 0000000140099660 f i libucrt:_file.obj
 0001:00098664       ?detach@?$__crt_unique_heap_ptr@PEAU__crt_stdio_stream_data@@U__crt_internal_free_policy@@@@QEAAPEAPEAU__crt_stdio_stream_data@@XZ 0000000140099664 f i libucrt:_file.obj
 0001:00098670       ?release@?$__crt_unique_heap_ptr@PEAU__crt_stdio_stream_data@@U__crt_internal_free_policy@@@@QEAAXXZ 0000000140099670 f i libucrt:_file.obj
 0001:00098694       __acrt_initialize_stdio    0000000140099694 f   libucrt:_file.obj
 0001:000987fc       __acrt_iob_func            00000001400997fc f   libucrt:_file.obj
 0001:00098814       __acrt_uninitialize_stdio  0000000140099814 f   libucrt:_file.obj
 0001:00098888       _get_stream_buffer_pointers 0000000140099888 f   libucrt:_file.obj
 0001:000988e0       _lock_file                 00000001400998e0 f   libucrt:_file.obj
 0001:000988f0       _unlock_file               00000001400998f0 f   libucrt:_file.obj
 0001:00098900       ??$?0AEBV?$stream_output_adapter@D@__crt_stdio_output@@AEB_KAEBQEBDAEAV__crt_cached_ptd_host@@AEBQEAD@?$format_validation_base@DV?$stream_output_adapter@D@__crt_stdio_output@@@__crt_stdio_output@@IEAA@AEBV?$stream_output_adapter@D@1@AEB_KAEBQEBDAEAV__crt_cached_ptd_host@@AEBQEAD@Z 0000000140099900 f i libucrt:output.obj
 0001:0009898c       ??$?0AEBV?$stream_output_adapter@D@__crt_stdio_output@@AEB_KAEBQEBDAEAV__crt_cached_ptd_host@@AEBQEAD@?$positional_parameter_base@DV?$stream_output_adapter@D@__crt_stdio_output@@@__crt_stdio_output@@IEAA@AEBV?$stream_output_adapter@D@1@AEB_KAEBQEBDAEAV__crt_cached_ptd_host@@AEBQEAD@Z 000000014009998c f i libucrt:output.obj
 0001:00098a3c       ??$?0AEBV?$stream_output_adapter@D@__crt_stdio_output@@AEB_KAEBQEBDAEAV__crt_cached_ptd_host@@AEBQEAD@?$standard_base@DV?$stream_output_adapter@D@__crt_stdio_output@@@__crt_stdio_output@@IEAA@AEBV?$stream_output_adapter@D@1@AEB_KAEBQEBDAEAV__crt_cached_ptd_host@@AEBQEAD@Z 0000000140099a3c f i libucrt:output.obj
 0001:00098ac8       ??$?0AEBV?$stream_output_adapter@_W@__crt_stdio_output@@AEB_KAEBQEB_WAEAV__crt_cached_ptd_host@@AEBQEAD@?$format_validation_base@_WV?$stream_output_adapter@_W@__crt_stdio_output@@@__crt_stdio_output@@IEAA@AEBV?$stream_output_adapter@_W@1@AEB_KAEBQEB_WAEAV__crt_cached_ptd_host@@AEBQEAD@Z 0000000140099ac8 f i libucrt:output.obj
 0001:00098b5c       ??$?0AEBV?$stream_output_adapter@_W@__crt_stdio_output@@AEB_KAEBQEB_WAEAV__crt_cached_ptd_host@@AEBQEAD@?$positional_parameter_base@_WV?$stream_output_adapter@_W@__crt_stdio_output@@@__crt_stdio_output@@IEAA@AEBV?$stream_output_adapter@_W@1@AEB_KAEBQEB_WAEAV__crt_cached_ptd_host@@AEBQEAD@Z 0000000140099b5c f i libucrt:output.obj
 0001:00098c14       ??$?0AEBV?$stream_output_adapter@_W@__crt_stdio_output@@AEB_KAEBQEB_WAEAV__crt_cached_ptd_host@@AEBQEAD@?$standard_base@_WV?$stream_output_adapter@_W@__crt_stdio_output@@@__crt_stdio_output@@IEAA@AEBV?$stream_output_adapter@_W@1@AEB_KAEBQEB_WAEAV__crt_cached_ptd_host@@AEBQEAD@Z 0000000140099c14 f i libucrt:output.obj
 0001:00098ca8       ??$?0AEBV?$string_output_adapter@D@__crt_stdio_output@@AEB_KAEBQEBDAEAV__crt_cached_ptd_host@@AEBQEAD@?$format_validation_base@DV?$string_output_adapter@D@__crt_stdio_output@@@__crt_stdio_output@@IEAA@AEBV?$string_output_adapter@D@1@AEB_KAEBQEBDAEAV__crt_cached_ptd_host@@AEBQEAD@Z 0000000140099ca8 f i libucrt:output.obj
 0001:00098d34       ??$?0AEBV?$string_output_adapter@D@__crt_stdio_output@@AEB_KAEBQEBDAEAV__crt_cached_ptd_host@@AEBQEAD@?$positional_parameter_base@DV?$string_output_adapter@D@__crt_stdio_output@@@__crt_stdio_output@@IEAA@AEBV?$string_output_adapter@D@1@AEB_KAEBQEBDAEAV__crt_cached_ptd_host@@AEBQEAD@Z 0000000140099d34 f i libucrt:output.obj
 0001:00098de4       ??$?0AEBV?$string_output_adapter@D@__crt_stdio_output@@AEB_KAEBQEBDAEAV__crt_cached_ptd_host@@AEBQEAD@?$standard_base@DV?$string_output_adapter@D@__crt_stdio_output@@@__crt_stdio_output@@IEAA@AEBV?$string_output_adapter@D@1@AEB_KAEBQEBDAEAV__crt_cached_ptd_host@@AEBQEAD@Z 0000000140099de4 f i libucrt:output.obj
 0001:00098e70       ??$?0AEBV?$string_output_adapter@_W@__crt_stdio_output@@AEB_KAEBQEB_WAEAV__crt_cached_ptd_host@@AEBQEAD@?$format_validation_base@_WV?$string_output_adapter@_W@__crt_stdio_output@@@__crt_stdio_output@@IEAA@AEBV?$string_output_adapter@_W@1@AEB_KAEBQEB_WAEAV__crt_cached_ptd_host@@AEBQEAD@Z 0000000140099e70 f i libucrt:output.obj
 0001:00098f04       ??$?0AEBV?$string_output_adapter@_W@__crt_stdio_output@@AEB_KAEBQEB_WAEAV__crt_cached_ptd_host@@AEBQEAD@?$positional_parameter_base@_WV?$string_output_adapter@_W@__crt_stdio_output@@@__crt_stdio_output@@IEAA@AEBV?$string_output_adapter@_W@1@AEB_KAEBQEB_WAEAV__crt_cached_ptd_host@@AEBQEAD@Z 0000000140099f04 f i libucrt:output.obj
 0001:00098fbc       ??$?0AEBV?$string_output_adapter@_W@__crt_stdio_output@@AEB_KAEBQEB_WAEAV__crt_cached_ptd_host@@AEBQEAD@?$standard_base@_WV?$string_output_adapter@_W@__crt_stdio_output@@@__crt_stdio_output@@IEAA@AEBV?$string_output_adapter@_W@1@AEB_KAEBQEB_WAEAV__crt_cached_ptd_host@@AEBQEAD@Z 0000000140099fbc f i libucrt:output.obj
 0001:00099350       ??$__crt_interlocked_read@J@@YAJPEDJ@Z 000000014009a350 f i libucrt:output.obj
 0001:00099354       ??$_tcstol_internal@DPEAPEAD$0A@@@YAJAEAV__crt_cached_ptd_host@@QEBDQEAPEADH@Z 000000014009a354 f i libucrt:output.obj
 0001:00099390       ??$_tcstol_internal@_WPEAPEA_W$0A@@@YAJAEAV__crt_cached_ptd_host@@QEB_WQEAPEA_WH@Z 000000014009a390 f i libucrt:output.obj
 0001:0009a92c       ??$count@D@formatting_buffer@__crt_stdio_output@@QEBA_KXZ 000000014009b92c f i libucrt:output.obj
 0001:0009a950       ??$count@_W@formatting_buffer@__crt_stdio_output@@QEBA_KXZ 000000014009b950 f i libucrt:output.obj
 0001:0009a974       ??$data@D@formatting_buffer@__crt_stdio_output@@QEAAPEADXZ 000000014009b974 f i libucrt:output.obj
 0001:0009a988       ??$data@_W@formatting_buffer@__crt_stdio_output@@QEAAPEA_WXZ 000000014009b988 f i libucrt:output.obj
 0001:0009a99c       ??$ensure_buffer_is_big_enough@D@formatting_buffer@__crt_stdio_output@@QEAA_N_KAEAV__crt_cached_ptd_host@@@Z 000000014009b99c f i libucrt:output.obj
 0001:0009aa70       ??$ensure_buffer_is_big_enough@_W@formatting_buffer@__crt_stdio_output@@QEAA_N_KAEAV__crt_cached_ptd_host@@@Z 000000014009ba70 f i libucrt:output.obj
 0001:0009ab48       ??$extract_argument_from_va_list@C_J@?$positional_parameter_base@DV?$stream_output_adapter@D@__crt_stdio_output@@@__crt_stdio_output@@IEAA_NAEA_J@Z 000000014009bb48 f i libucrt:output.obj
 0001:0009ac94       ??$extract_argument_from_va_list@C_J@?$positional_parameter_base@DV?$string_output_adapter@D@__crt_stdio_output@@@__crt_stdio_output@@IEAA_NAEA_J@Z 000000014009bc94 f i libucrt:output.obj
 0001:0009ade0       ??$extract_argument_from_va_list@C_J@?$positional_parameter_base@_WV?$stream_output_adapter@_W@__crt_stdio_output@@@__crt_stdio_output@@IEAA_NAEA_J@Z 000000014009bde0 f i libucrt:output.obj
 0001:0009af30       ??$extract_argument_from_va_list@C_J@?$positional_parameter_base@_WV?$string_output_adapter@_W@__crt_stdio_output@@@__crt_stdio_output@@IEAA_NAEA_J@Z 000000014009bf30 f i libucrt:output.obj
 0001:0009b080       ??$extract_argument_from_va_list@C_J@?$standard_base@DV?$stream_output_adapter@D@__crt_stdio_output@@@__crt_stdio_output@@IEAA_NAEA_J@Z 000000014009c080 f i libucrt:output.obj
 0001:0009b09c       ??$extract_argument_from_va_list@C_J@?$standard_base@DV?$string_output_adapter@D@__crt_stdio_output@@@__crt_stdio_output@@IEAA_NAEA_J@Z 000000014009c09c f i libucrt:output.obj
 0001:0009b0b8       ??$extract_argument_from_va_list@C_J@?$standard_base@_WV?$stream_output_adapter@_W@__crt_stdio_output@@@__crt_stdio_output@@IEAA_NAEA_J@Z 000000014009c0b8 f i libucrt:output.obj
 0001:0009b0d4       ??$extract_argument_from_va_list@C_J@?$standard_base@_WV?$string_output_adapter@_W@__crt_stdio_output@@@__crt_stdio_output@@IEAA_NAEA_J@Z 000000014009c0d4 f i libucrt:output.obj
 0001:0009b0f0       ??$extract_argument_from_va_list@E_J@?$positional_parameter_base@DV?$stream_output_adapter@D@__crt_stdio_output@@@__crt_stdio_output@@IEAA_NAEA_J@Z 000000014009c0f0 f i libucrt:output.obj
 0001:0009b23c       ??$extract_argument_from_va_list@E_J@?$positional_parameter_base@DV?$string_output_adapter@D@__crt_stdio_output@@@__crt_stdio_output@@IEAA_NAEA_J@Z 000000014009c23c f i libucrt:output.obj
 0001:0009b388       ??$extract_argument_from_va_list@E_J@?$positional_parameter_base@_WV?$stream_output_adapter@_W@__crt_stdio_output@@@__crt_stdio_output@@IEAA_NAEA_J@Z 000000014009c388 f i libucrt:output.obj
 0001:0009b4d4       ??$extract_argument_from_va_list@E_J@?$positional_parameter_base@_WV?$string_output_adapter@_W@__crt_stdio_output@@@__crt_stdio_output@@IEAA_NAEA_J@Z 000000014009c4d4 f i libucrt:output.obj
 0001:0009b620       ??$extract_argument_from_va_list@E_J@?$standard_base@DV?$stream_output_adapter@D@__crt_stdio_output@@@__crt_stdio_output@@IEAA_NAEA_J@Z 000000014009c620 f i libucrt:output.obj
 0001:0009b63c       ??$extract_argument_from_va_list@E_J@?$standard_base@DV?$string_output_adapter@D@__crt_stdio_output@@@__crt_stdio_output@@IEAA_NAEA_J@Z 000000014009c63c f i libucrt:output.obj
 0001:0009b658       ??$extract_argument_from_va_list@E_J@?$standard_base@_WV?$stream_output_adapter@_W@__crt_stdio_output@@@__crt_stdio_output@@IEAA_NAEA_J@Z 000000014009c658 f i libucrt:output.obj
 0001:0009b674       ??$extract_argument_from_va_list@E_J@?$standard_base@_WV?$string_output_adapter@_W@__crt_stdio_output@@@__crt_stdio_output@@IEAA_NAEA_J@Z 000000014009c674 f i libucrt:output.obj
 0001:0009b690       ??$extract_argument_from_va_list@F_J@?$positional_parameter_base@DV?$stream_output_adapter@D@__crt_stdio_output@@@__crt_stdio_output@@IEAA_NAEA_J@Z 000000014009c690 f i libucrt:output.obj
 0001:0009b7dc       ??$extract_argument_from_va_list@F_J@?$positional_parameter_base@DV?$string_output_adapter@D@__crt_stdio_output@@@__crt_stdio_output@@IEAA_NAEA_J@Z 000000014009c7dc f i libucrt:output.obj
 0001:0009b928       ??$extract_argument_from_va_list@F_J@?$positional_parameter_base@_WV?$stream_output_adapter@_W@__crt_stdio_output@@@__crt_stdio_output@@IEAA_NAEA_J@Z 000000014009c928 f i libucrt:output.obj
 0001:0009ba78       ??$extract_argument_from_va_list@F_J@?$positional_parameter_base@_WV?$string_output_adapter@_W@__crt_stdio_output@@@__crt_stdio_output@@IEAA_NAEA_J@Z 000000014009ca78 f i libucrt:output.obj
 0001:0009bbc8       ??$extract_argument_from_va_list@F_J@?$standard_base@DV?$stream_output_adapter@D@__crt_stdio_output@@@__crt_stdio_output@@IEAA_NAEA_J@Z 000000014009cbc8 f i libucrt:output.obj
 0001:0009bbe4       ??$extract_argument_from_va_list@F_J@?$standard_base@DV?$string_output_adapter@D@__crt_stdio_output@@@__crt_stdio_output@@IEAA_NAEA_J@Z 000000014009cbe4 f i libucrt:output.obj
 0001:0009bc00       ??$extract_argument_from_va_list@F_J@?$standard_base@_WV?$stream_output_adapter@_W@__crt_stdio_output@@@__crt_stdio_output@@IEAA_NAEA_J@Z 000000014009cc00 f i libucrt:output.obj
 0001:0009bc1c       ??$extract_argument_from_va_list@F_J@?$standard_base@_WV?$string_output_adapter@_W@__crt_stdio_output@@@__crt_stdio_output@@IEAA_NAEA_J@Z 000000014009cc1c f i libucrt:output.obj
 0001:0009bc38       ??$extract_argument_from_va_list@GD@?$positional_parameter_base@DV?$stream_output_adapter@D@__crt_stdio_output@@@__crt_stdio_output@@IEAA_NAEAD@Z 000000014009cc38 f i libucrt:output.obj
 0001:0009bd80       ??$extract_argument_from_va_list@GD@?$positional_parameter_base@DV?$string_output_adapter@D@__crt_stdio_output@@@__crt_stdio_output@@IEAA_NAEAD@Z 000000014009cd80 f i libucrt:output.obj
 0001:0009bec8       ??$extract_argument_from_va_list@GD@?$standard_base@DV?$stream_output_adapter@D@__crt_stdio_output@@@__crt_stdio_output@@IEAA_NAEAD@Z 000000014009cec8 f i libucrt:output.obj
 0001:0009bee4       ??$extract_argument_from_va_list@GD@?$standard_base@DV?$string_output_adapter@D@__crt_stdio_output@@@__crt_stdio_output@@IEAA_NAEAD@Z 000000014009cee4 f i libucrt:output.obj
 0001:0009bf00       ??$extract_argument_from_va_list@G_J@?$positional_parameter_base@DV?$stream_output_adapter@D@__crt_stdio_output@@@__crt_stdio_output@@IEAA_NAEA_J@Z 000000014009cf00 f i libucrt:output.obj
 0001:0009c04c       ??$extract_argument_from_va_list@G_J@?$positional_parameter_base@DV?$string_output_adapter@D@__crt_stdio_output@@@__crt_stdio_output@@IEAA_NAEA_J@Z 000000014009d04c f i libucrt:output.obj
 0001:0009c198       ??$extract_argument_from_va_list@G_J@?$positional_parameter_base@_WV?$stream_output_adapter@_W@__crt_stdio_output@@@__crt_stdio_output@@IEAA_NAEA_J@Z 000000014009d198 f i libucrt:output.obj
 0001:0009c2e4       ??$extract_argument_from_va_list@G_J@?$positional_parameter_base@_WV?$string_output_adapter@_W@__crt_stdio_output@@@__crt_stdio_output@@IEAA_NAEA_J@Z 000000014009d2e4 f i libucrt:output.obj
 0001:0009c430       ??$extract_argument_from_va_list@G_J@?$standard_base@DV?$stream_output_adapter@D@__crt_stdio_output@@@__crt_stdio_output@@IEAA_NAEA_J@Z 000000014009d430 f i libucrt:output.obj
 0001:0009c44c       ??$extract_argument_from_va_list@G_J@?$standard_base@DV?$string_output_adapter@D@__crt_stdio_output@@@__crt_stdio_output@@IEAA_NAEA_J@Z 000000014009d44c f i libucrt:output.obj
 0001:0009c468       ??$extract_argument_from_va_list@G_J@?$standard_base@_WV?$stream_output_adapter@_W@__crt_stdio_output@@@__crt_stdio_output@@IEAA_NAEA_J@Z 000000014009d468 f i libucrt:output.obj
 0001:0009c484       ??$extract_argument_from_va_list@G_J@?$standard_base@_WV?$string_output_adapter@_W@__crt_stdio_output@@@__crt_stdio_output@@IEAA_NAEA_J@Z 000000014009d484 f i libucrt:output.obj
 0001:0009c4a0       ??$extract_argument_from_va_list@H_J@?$positional_parameter_base@DV?$stream_output_adapter@D@__crt_stdio_output@@@__crt_stdio_output@@IEAA_NAEA_J@Z 000000014009d4a0 f i libucrt:output.obj
 0001:0009c5e8       ??$extract_argument_from_va_list@H_J@?$positional_parameter_base@DV?$string_output_adapter@D@__crt_stdio_output@@@__crt_stdio_output@@IEAA_NAEA_J@Z 000000014009d5e8 f i libucrt:output.obj
 0001:0009c730       ??$extract_argument_from_va_list@H_J@?$positional_parameter_base@_WV?$stream_output_adapter@_W@__crt_stdio_output@@@__crt_stdio_output@@IEAA_NAEA_J@Z 000000014009d730 f i libucrt:output.obj
 0001:0009c87c       ??$extract_argument_from_va_list@H_J@?$positional_parameter_base@_WV?$string_output_adapter@_W@__crt_stdio_output@@@__crt_stdio_output@@IEAA_NAEA_J@Z 000000014009d87c f i libucrt:output.obj
 0001:0009c9c8       ??$extract_argument_from_va_list@H_J@?$standard_base@DV?$stream_output_adapter@D@__crt_stdio_output@@@__crt_stdio_output@@IEAA_NAEA_J@Z 000000014009d9c8 f i libucrt:output.obj
 0001:0009c9e4       ??$extract_argument_from_va_list@H_J@?$standard_base@DV?$string_output_adapter@D@__crt_stdio_output@@@__crt_stdio_output@@IEAA_NAEA_J@Z 000000014009d9e4 f i libucrt:output.obj
 0001:0009ca00       ??$extract_argument_from_va_list@H_J@?$standard_base@_WV?$stream_output_adapter@_W@__crt_stdio_output@@@__crt_stdio_output@@IEAA_NAEA_J@Z 000000014009da00 f i libucrt:output.obj
 0001:0009ca1c       ??$extract_argument_from_va_list@H_J@?$standard_base@_WV?$string_output_adapter@_W@__crt_stdio_output@@@__crt_stdio_output@@IEAA_NAEA_J@Z 000000014009da1c f i libucrt:output.obj
 0001:0009ca38       ??$extract_argument_from_va_list@I_J@?$positional_parameter_base@DV?$stream_output_adapter@D@__crt_stdio_output@@@__crt_stdio_output@@IEAA_NAEA_J@Z 000000014009da38 f i libucrt:output.obj
 0001:0009cb80       ??$extract_argument_from_va_list@I_J@?$positional_parameter_base@DV?$string_output_adapter@D@__crt_stdio_output@@@__crt_stdio_output@@IEAA_NAEA_J@Z 000000014009db80 f i libucrt:output.obj
 0001:0009ccc8       ??$extract_argument_from_va_list@I_J@?$positional_parameter_base@_WV?$stream_output_adapter@_W@__crt_stdio_output@@@__crt_stdio_output@@IEAA_NAEA_J@Z 000000014009dcc8 f i libucrt:output.obj
 0001:0009ce14       ??$extract_argument_from_va_list@I_J@?$positional_parameter_base@_WV?$string_output_adapter@_W@__crt_stdio_output@@@__crt_stdio_output@@IEAA_NAEA_J@Z 000000014009de14 f i libucrt:output.obj
 0001:0009cf60       ??$extract_argument_from_va_list@I_J@?$standard_base@DV?$stream_output_adapter@D@__crt_stdio_output@@@__crt_stdio_output@@IEAA_NAEA_J@Z 000000014009df60 f i libucrt:output.obj
 0001:0009cf7c       ??$extract_argument_from_va_list@I_J@?$standard_base@DV?$string_output_adapter@D@__crt_stdio_output@@@__crt_stdio_output@@IEAA_NAEA_J@Z 000000014009df7c f i libucrt:output.obj
 0001:0009cf98       ??$extract_argument_from_va_list@I_J@?$standard_base@_WV?$stream_output_adapter@_W@__crt_stdio_output@@@__crt_stdio_output@@IEAA_NAEA_J@Z 000000014009df98 f i libucrt:output.obj
 0001:0009cfb4       ??$extract_argument_from_va_list@I_J@?$standard_base@_WV?$string_output_adapter@_W@__crt_stdio_output@@@__crt_stdio_output@@IEAA_NAEA_J@Z 000000014009dfb4 f i libucrt:output.obj
 0001:0009cfd0       ??$extract_argument_from_va_list@PEADPEAD@?$positional_parameter_base@DV?$stream_output_adapter@D@__crt_stdio_output@@@__crt_stdio_output@@IEAA_NAEAPEAD@Z 000000014009dfd0 f i libucrt:output.obj
 0001:0009d118       ??$extract_argument_from_va_list@PEADPEAD@?$positional_parameter_base@DV?$string_output_adapter@D@__crt_stdio_output@@@__crt_stdio_output@@IEAA_NAEAPEAD@Z 000000014009e118 f i libucrt:output.obj
 0001:0009d260       ??$extract_argument_from_va_list@PEADPEAD@?$positional_parameter_base@_WV?$stream_output_adapter@_W@__crt_stdio_output@@@__crt_stdio_output@@IEAA_NAEAPEAD@Z 000000014009e260 f i libucrt:output.obj
 0001:0009d3ac       ??$extract_argument_from_va_list@PEADPEAD@?$positional_parameter_base@_WV?$string_output_adapter@_W@__crt_stdio_output@@@__crt_stdio_output@@IEAA_NAEAPEAD@Z 000000014009e3ac f i libucrt:output.obj
 0001:0009d4f8       ??$extract_argument_from_va_list@PEADPEAD@?$standard_base@DV?$stream_output_adapter@D@__crt_stdio_output@@@__crt_stdio_output@@IEAA_NAEAPEAD@Z 000000014009e4f8 f i libucrt:output.obj
 0001:0009d514       ??$extract_argument_from_va_list@PEADPEAD@?$standard_base@DV?$string_output_adapter@D@__crt_stdio_output@@@__crt_stdio_output@@IEAA_NAEAPEAD@Z 000000014009e514 f i libucrt:output.obj
 0001:0009d530       ??$extract_argument_from_va_list@PEADPEAD@?$standard_base@_WV?$stream_output_adapter@_W@__crt_stdio_output@@@__crt_stdio_output@@IEAA_NAEAPEAD@Z 000000014009e530 f i libucrt:output.obj
 0001:0009d54c       ??$extract_argument_from_va_list@PEADPEAD@?$standard_base@_WV?$string_output_adapter@_W@__crt_stdio_output@@@__crt_stdio_output@@IEAA_NAEAPEAD@Z 000000014009e54c f i libucrt:output.obj
 0001:0009d568       ??$extract_argument_from_va_list@PEAUansi_string@?1??type_case_Z@?$output_processor@DV?$stream_output_adapter@D@__crt_stdio_output@@V?$format_validation_base@DV?$stream_output_adapter@D@__crt_stdio_output@@@2@@__crt_stdio_output@@AEAA_NXZ@PEAU1?1??234@AEAA_NXZ@@?$standard_base@DV?$stream_output_adapter@D@__crt_stdio_output@@@__crt_stdio_output@@IEAA_NAEAPEAUansi_string@?1??type_case_Z@?$output_processor@DV?$stream_output_adapter@D@__crt_stdio_output@@V?$format_validation_base@DV?$stream_output_adapter@D@__crt_stdio_output@@@2@@1@AEAA_NXZ@@Z 000000014009e568 f i libucrt:output.obj
 0001:0009d584       ??$extract_argument_from_va_list@PEAUansi_string@?1??type_case_Z@?$output_processor@DV?$stream_output_adapter@D@__crt_stdio_output@@V?$positional_parameter_base@DV?$stream_output_adapter@D@__crt_stdio_output@@@2@@__crt_stdio_output@@AEAA_NXZ@PEAU1?1??234@AEAA_NXZ@@?$positional_parameter_base@DV?$stream_output_adapter@D@__crt_stdio_output@@@__crt_stdio_output@@IEAA_NAEAPEAUansi_string@?1??type_case_Z@?$output_processor@DV?$stream_output_adapter@D@__crt_stdio_output@@V?$positional_parameter_base@DV?$stream_output_adapter@D@__crt_stdio_output@@@2@@1@AEAA_NXZ@@Z 000000014009e584 f i libucrt:output.obj
 0001:0009d6cc       ??$extract_argument_from_va_list@PEAUansi_string@?1??type_case_Z@?$output_processor@DV?$stream_output_adapter@D@__crt_stdio_output@@V?$positional_parameter_base@DV?$stream_output_adapter@D@__crt_stdio_output@@@2@@__crt_stdio_output@@AEAA_NXZ@PEAU1?1??234@AEAA_NXZ@@?$standard_base@DV?$stream_output_adapter@D@__crt_stdio_output@@@__crt_stdio_output@@IEAA_NAEAPEAUansi_string@?1??type_case_Z@?$output_processor@DV?$stream_output_adapter@D@__crt_stdio_output@@V?$positional_parameter_base@DV?$stream_output_adapter@D@__crt_stdio_output@@@2@@1@AEAA_NXZ@@Z 000000014009e6cc f i libucrt:output.obj
 0001:0009d6e8       ??$extract_argument_from_va_list@PEAUansi_string@?1??type_case_Z@?$output_processor@DV?$stream_output_adapter@D@__crt_stdio_output@@V?$standard_base@DV?$stream_output_adapter@D@__crt_stdio_output@@@2@@__crt_stdio_output@@AEAA_NXZ@PEAU1?1??234@AEAA_NXZ@@?$standard_base@DV?$stream_output_adapter@D@__crt_stdio_output@@@__crt_stdio_output@@IEAA_NAEAPEAUansi_string@?1??type_case_Z@?$output_processor@DV?$stream_output_adapter@D@__crt_stdio_output@@V?$standard_base@DV?$stream_output_adapter@D@__crt_stdio_output@@@2@@1@AEAA_NXZ@@Z 000000014009e6e8 f i libucrt:output.obj
 0001:0009d704       ??$extract_argument_from_va_list@PEAUansi_string@?1??type_case_Z@?$output_processor@DV?$string_output_adapter@D@__crt_stdio_output@@V?$format_validation_base@DV?$string_output_adapter@D@__crt_stdio_output@@@2@@__crt_stdio_output@@AEAA_NXZ@PEAU1?1??234@AEAA_NXZ@@?$standard_base@DV?$string_output_adapter@D@__crt_stdio_output@@@__crt_stdio_output@@IEAA_NAEAPEAUansi_string@?1??type_case_Z@?$output_processor@DV?$string_output_adapter@D@__crt_stdio_output@@V?$format_validation_base@DV?$string_output_adapter@D@__crt_stdio_output@@@2@@1@AEAA_NXZ@@Z 000000014009e704 f i libucrt:output.obj
 0001:0009d720       ??$extract_argument_from_va_list@PEAUansi_string@?1??type_case_Z@?$output_processor@DV?$string_output_adapter@D@__crt_stdio_output@@V?$positional_parameter_base@DV?$string_output_adapter@D@__crt_stdio_output@@@2@@__crt_stdio_output@@AEAA_NXZ@PEAU1?1??234@AEAA_NXZ@@?$positional_parameter_base@DV?$string_output_adapter@D@__crt_stdio_output@@@__crt_stdio_output@@IEAA_NAEAPEAUansi_string@?1??type_case_Z@?$output_processor@DV?$string_output_adapter@D@__crt_stdio_output@@V?$positional_parameter_base@DV?$string_output_adapter@D@__crt_stdio_output@@@2@@1@AEAA_NXZ@@Z 000000014009e720 f i libucrt:output.obj
 0001:0009d868       ??$extract_argument_from_va_list@PEAUansi_string@?1??type_case_Z@?$output_processor@DV?$string_output_adapter@D@__crt_stdio_output@@V?$positional_parameter_base@DV?$string_output_adapter@D@__crt_stdio_output@@@2@@__crt_stdio_output@@AEAA_NXZ@PEAU1?1??234@AEAA_NXZ@@?$standard_base@DV?$string_output_adapter@D@__crt_stdio_output@@@__crt_stdio_output@@IEAA_NAEAPEAUansi_string@?1??type_case_Z@?$output_processor@DV?$string_output_adapter@D@__crt_stdio_output@@V?$positional_parameter_base@DV?$string_output_adapter@D@__crt_stdio_output@@@2@@1@AEAA_NXZ@@Z 000000014009e868 f i libucrt:output.obj
 0001:0009d884       ??$extract_argument_from_va_list@PEAUansi_string@?1??type_case_Z@?$output_processor@DV?$string_output_adapter@D@__crt_stdio_output@@V?$standard_base@DV?$string_output_adapter@D@__crt_stdio_output@@@2@@__crt_stdio_output@@AEAA_NXZ@PEAU1?1??234@AEAA_NXZ@@?$standard_base@DV?$string_output_adapter@D@__crt_stdio_output@@@__crt_stdio_output@@IEAA_NAEAPEAUansi_string@?1??type_case_Z@?$output_processor@DV?$string_output_adapter@D@__crt_stdio_output@@V?$standard_base@DV?$string_output_adapter@D@__crt_stdio_output@@@2@@1@AEAA_NXZ@@Z 000000014009e884 f i libucrt:output.obj
 0001:0009d8a0       ??$extract_argument_from_va_list@PEAUansi_string@?1??type_case_Z@?$output_processor@_WV?$stream_output_adapter@_W@__crt_stdio_output@@V?$format_validation_base@_WV?$stream_output_adapter@_W@__crt_stdio_output@@@2@@__crt_stdio_output@@AEAA_NXZ@PEAU1?1??234@AEAA_NXZ@@?$standard_base@_WV?$stream_output_adapter@_W@__crt_stdio_output@@@__crt_stdio_output@@IEAA_NAEAPEAUansi_string@?1??type_case_Z@?$output_processor@_WV?$stream_output_adapter@_W@__crt_stdio_output@@V?$format_validation_base@_WV?$stream_output_adapter@_W@__crt_stdio_output@@@2@@1@AEAA_NXZ@@Z 000000014009e8a0 f i libucrt:output.obj
 0001:0009d8bc       ??$extract_argument_from_va_list@PEAUansi_string@?1??type_case_Z@?$output_processor@_WV?$stream_output_adapter@_W@__crt_stdio_output@@V?$positional_parameter_base@_WV?$stream_output_adapter@_W@__crt_stdio_output@@@2@@__crt_stdio_output@@AEAA_NXZ@PEAU1?1??234@AEAA_NXZ@@?$positional_parameter_base@_WV?$stream_output_adapter@_W@__crt_stdio_output@@@__crt_stdio_output@@IEAA_NAEAPEAUansi_string@?1??type_case_Z@?$output_processor@_WV?$stream_output_adapter@_W@__crt_stdio_output@@V?$positional_parameter_base@_WV?$stream_output_adapter@_W@__crt_stdio_output@@@2@@1@AEAA_NXZ@@Z 000000014009e8bc f i libucrt:output.obj
 0001:0009da08       ??$extract_argument_from_va_list@PEAUansi_string@?1??type_case_Z@?$output_processor@_WV?$stream_output_adapter@_W@__crt_stdio_output@@V?$positional_parameter_base@_WV?$stream_output_adapter@_W@__crt_stdio_output@@@2@@__crt_stdio_output@@AEAA_NXZ@PEAU1?1??234@AEAA_NXZ@@?$standard_base@_WV?$stream_output_adapter@_W@__crt_stdio_output@@@__crt_stdio_output@@IEAA_NAEAPEAUansi_string@?1??type_case_Z@?$output_processor@_WV?$stream_output_adapter@_W@__crt_stdio_output@@V?$positional_parameter_base@_WV?$stream_output_adapter@_W@__crt_stdio_output@@@2@@1@AEAA_NXZ@@Z 000000014009ea08 f i libucrt:output.obj
 0001:0009da24       ??$extract_argument_from_va_list@PEAUansi_string@?1??type_case_Z@?$output_processor@_WV?$stream_output_adapter@_W@__crt_stdio_output@@V?$standard_base@_WV?$stream_output_adapter@_W@__crt_stdio_output@@@2@@__crt_stdio_output@@AEAA_NXZ@PEAU1?1??234@AEAA_NXZ@@?$standard_base@_WV?$stream_output_adapter@_W@__crt_stdio_output@@@__crt_stdio_output@@IEAA_NAEAPEAUansi_string@?1??type_case_Z@?$output_processor@_WV?$stream_output_adapter@_W@__crt_stdio_output@@V?$standard_base@_WV?$stream_output_adapter@_W@__crt_stdio_output@@@2@@1@AEAA_NXZ@@Z 000000014009ea24 f i libucrt:output.obj
 0001:0009da40       ??$extract_argument_from_va_list@PEAUansi_string@?1??type_case_Z@?$output_processor@_WV?$string_output_adapter@_W@__crt_stdio_output@@V?$format_validation_base@_WV?$string_output_adapter@_W@__crt_stdio_output@@@2@@__crt_stdio_output@@AEAA_NXZ@PEAU1?1??234@AEAA_NXZ@@?$standard_base@_WV?$string_output_adapter@_W@__crt_stdio_output@@@__crt_stdio_output@@IEAA_NAEAPEAUansi_string@?1??type_case_Z@?$output_processor@_WV?$string_output_adapter@_W@__crt_stdio_output@@V?$format_validation_base@_WV?$string_output_adapter@_W@__crt_stdio_output@@@2@@1@AEAA_NXZ@@Z 000000014009ea40 f i libucrt:output.obj
 0001:0009da5c       ??$extract_argument_from_va_list@PEAUansi_string@?1??type_case_Z@?$output_processor@_WV?$string_output_adapter@_W@__crt_stdio_output@@V?$positional_parameter_base@_WV?$string_output_adapter@_W@__crt_stdio_output@@@2@@__crt_stdio_output@@AEAA_NXZ@PEAU1?1??234@AEAA_NXZ@@?$positional_parameter_base@_WV?$string_output_adapter@_W@__crt_stdio_output@@@__crt_stdio_output@@IEAA_NAEAPEAUansi_string@?1??type_case_Z@?$output_processor@_WV?$string_output_adapter@_W@__crt_stdio_output@@V?$positional_parameter_base@_WV?$string_output_adapter@_W@__crt_stdio_output@@@2@@1@AEAA_NXZ@@Z 000000014009ea5c f i libucrt:output.obj
 0001:0009dba8       ??$extract_argument_from_va_list@PEAUansi_string@?1??type_case_Z@?$output_processor@_WV?$string_output_adapter@_W@__crt_stdio_output@@V?$positional_parameter_base@_WV?$string_output_adapter@_W@__crt_stdio_output@@@2@@__crt_stdio_output@@AEAA_NXZ@PEAU1?1??234@AEAA_NXZ@@?$standard_base@_WV?$string_output_adapter@_W@__crt_stdio_output@@@__crt_stdio_output@@IEAA_NAEAPEAUansi_string@?1??type_case_Z@?$output_processor@_WV?$string_output_adapter@_W@__crt_stdio_output@@V?$positional_parameter_base@_WV?$string_output_adapter@_W@__crt_stdio_output@@@2@@1@AEAA_NXZ@@Z 000000014009eba8 f i libucrt:output.obj
 0001:0009dbc4       ??$extract_argument_from_va_list@PEAUansi_string@?1??type_case_Z@?$output_processor@_WV?$string_output_adapter@_W@__crt_stdio_output@@V?$standard_base@_WV?$string_output_adapter@_W@__crt_stdio_output@@@2@@__crt_stdio_output@@AEAA_NXZ@PEAU1?1??234@AEAA_NXZ@@?$standard_base@_WV?$string_output_adapter@_W@__crt_stdio_output@@@__crt_stdio_output@@IEAA_NAEAPEAUansi_string@?1??type_case_Z@?$output_processor@_WV?$string_output_adapter@_W@__crt_stdio_output@@V?$standard_base@_WV?$string_output_adapter@_W@__crt_stdio_output@@@2@@1@AEAA_NXZ@@Z 000000014009ebc4 f i libucrt:output.obj
 0001:0009dbe0       ??$extract_argument_from_va_list@PEAXPEAX@?$positional_parameter_base@DV?$stream_output_adapter@D@__crt_stdio_output@@@__crt_stdio_output@@IEAA_NAEAPEAX@Z 000000014009ebe0 f i libucrt:output.obj
 0001:0009dd28       ??$extract_argument_from_va_list@PEAXPEAX@?$positional_parameter_base@DV?$string_output_adapter@D@__crt_stdio_output@@@__crt_stdio_output@@IEAA_NAEAPEAX@Z 000000014009ed28 f i libucrt:output.obj
 0001:0009de70       ??$extract_argument_from_va_list@PEAXPEAX@?$positional_parameter_base@_WV?$stream_output_adapter@_W@__crt_stdio_output@@@__crt_stdio_output@@IEAA_NAEAPEAX@Z 000000014009ee70 f i libucrt:output.obj
 0001:0009dfbc       ??$extract_argument_from_va_list@PEAXPEAX@?$positional_parameter_base@_WV?$string_output_adapter@_W@__crt_stdio_output@@@__crt_stdio_output@@IEAA_NAEAPEAX@Z 000000014009efbc f i libucrt:output.obj
 0001:0009e108       ??$extract_argument_from_va_list@PEAXPEAX@?$standard_base@DV?$stream_output_adapter@D@__crt_stdio_output@@@__crt_stdio_output@@IEAA_NAEAPEAX@Z 000000014009f108 f i libucrt:output.obj
 0001:0009e124       ??$extract_argument_from_va_list@PEAXPEAX@?$standard_base@DV?$string_output_adapter@D@__crt_stdio_output@@@__crt_stdio_output@@IEAA_NAEAPEAX@Z 000000014009f124 f i libucrt:output.obj
 0001:0009e140       ??$extract_argument_from_va_list@PEAXPEAX@?$standard_base@_WV?$stream_output_adapter@_W@__crt_stdio_output@@@__crt_stdio_output@@IEAA_NAEAPEAX@Z 000000014009f140 f i libucrt:output.obj
 0001:0009e15c       ??$extract_argument_from_va_list@PEAXPEAX@?$standard_base@_WV?$string_output_adapter@_W@__crt_stdio_output@@@__crt_stdio_output@@IEAA_NAEAPEAX@Z 000000014009f15c f i libucrt:output.obj
 0001:0009e178       ??$extract_argument_from_va_list@U_CRT_DOUBLE@@U1@@?$positional_parameter_base@DV?$stream_output_adapter@D@__crt_stdio_output@@@__crt_stdio_output@@IEAA_NAEAU_CRT_DOUBLE@@@Z 000000014009f178 f i libucrt:output.obj
 0001:0009e2c4       ??$extract_argument_from_va_list@U_CRT_DOUBLE@@U1@@?$positional_parameter_base@DV?$string_output_adapter@D@__crt_stdio_output@@@__crt_stdio_output@@IEAA_NAEAU_CRT_DOUBLE@@@Z 000000014009f2c4 f i libucrt:output.obj
 0001:0009e410       ??$extract_argument_from_va_list@U_CRT_DOUBLE@@U1@@?$positional_parameter_base@_WV?$stream_output_adapter@_W@__crt_stdio_output@@@__crt_stdio_output@@IEAA_NAEAU_CRT_DOUBLE@@@Z 000000014009f410 f i libucrt:output.obj
 0001:0009e55c       ??$extract_argument_from_va_list@U_CRT_DOUBLE@@U1@@?$positional_parameter_base@_WV?$string_output_adapter@_W@__crt_stdio_output@@@__crt_stdio_output@@IEAA_NAEAU_CRT_DOUBLE@@@Z 000000014009f55c f i libucrt:output.obj
 0001:0009e6a8       ??$extract_argument_from_va_list@U_CRT_DOUBLE@@U1@@?$standard_base@DV?$stream_output_adapter@D@__crt_stdio_output@@@__crt_stdio_output@@IEAA_NAEAU_CRT_DOUBLE@@@Z 000000014009f6a8 f i libucrt:output.obj
 0001:0009e6c8       ??$extract_argument_from_va_list@U_CRT_DOUBLE@@U1@@?$standard_base@DV?$string_output_adapter@D@__crt_stdio_output@@@__crt_stdio_output@@IEAA_NAEAU_CRT_DOUBLE@@@Z 000000014009f6c8 f i libucrt:output.obj
 0001:0009e6e8       ??$extract_argument_from_va_list@U_CRT_DOUBLE@@U1@@?$standard_base@_WV?$stream_output_adapter@_W@__crt_stdio_output@@@__crt_stdio_output@@IEAA_NAEAU_CRT_DOUBLE@@@Z 000000014009f6e8 f i libucrt:output.obj
 0001:0009e708       ??$extract_argument_from_va_list@U_CRT_DOUBLE@@U1@@?$standard_base@_WV?$string_output_adapter@_W@__crt_stdio_output@@@__crt_stdio_output@@IEAA_NAEAU_CRT_DOUBLE@@@Z 000000014009f708 f i libucrt:output.obj
 0001:0009e728       ??$extract_argument_from_va_list@_J_J@?$positional_parameter_base@DV?$stream_output_adapter@D@__crt_stdio_output@@@__crt_stdio_output@@IEAA_NAEA_J@Z 000000014009f728 f i libucrt:output.obj
 0001:0009e870       ??$extract_argument_from_va_list@_J_J@?$positional_parameter_base@DV?$string_output_adapter@D@__crt_stdio_output@@@__crt_stdio_output@@IEAA_NAEA_J@Z 000000014009f870 f i libucrt:output.obj
 0001:0009e9b8       ??$extract_argument_from_va_list@_J_J@?$positional_parameter_base@_WV?$stream_output_adapter@_W@__crt_stdio_output@@@__crt_stdio_output@@IEAA_NAEA_J@Z 000000014009f9b8 f i libucrt:output.obj
 0001:0009eb04       ??$extract_argument_from_va_list@_J_J@?$positional_parameter_base@_WV?$string_output_adapter@_W@__crt_stdio_output@@@__crt_stdio_output@@IEAA_NAEA_J@Z 000000014009fb04 f i libucrt:output.obj
 0001:0009ec50       ??$extract_argument_from_va_list@_J_J@?$standard_base@DV?$stream_output_adapter@D@__crt_stdio_output@@@__crt_stdio_output@@IEAA_NAEA_J@Z 000000014009fc50 f i libucrt:output.obj
 0001:0009ec6c       ??$extract_argument_from_va_list@_J_J@?$standard_base@DV?$string_output_adapter@D@__crt_stdio_output@@@__crt_stdio_output@@IEAA_NAEA_J@Z 000000014009fc6c f i libucrt:output.obj
 0001:0009ec88       ??$extract_argument_from_va_list@_J_J@?$standard_base@_WV?$stream_output_adapter@_W@__crt_stdio_output@@@__crt_stdio_output@@IEAA_NAEA_J@Z 000000014009fc88 f i libucrt:output.obj
 0001:0009eca4       ??$extract_argument_from_va_list@_J_J@?$standard_base@_WV?$string_output_adapter@_W@__crt_stdio_output@@@__crt_stdio_output@@IEAA_NAEA_J@Z 000000014009fca4 f i libucrt:output.obj
 0001:0009ecc0       ??$extract_argument_from_va_list@_K_J@?$positional_parameter_base@DV?$stream_output_adapter@D@__crt_stdio_output@@@__crt_stdio_output@@IEAA_NAEA_J@Z 000000014009fcc0 f i libucrt:output.obj
 0001:0009ee08       ??$extract_argument_from_va_list@_K_J@?$positional_parameter_base@DV?$string_output_adapter@D@__crt_stdio_output@@@__crt_stdio_output@@IEAA_NAEA_J@Z 000000014009fe08 f i libucrt:output.obj
 0001:0009ef50       ??$extract_argument_from_va_list@_K_J@?$positional_parameter_base@_WV?$stream_output_adapter@_W@__crt_stdio_output@@@__crt_stdio_output@@IEAA_NAEA_J@Z 000000014009ff50 f i libucrt:output.obj
 0001:0009f09c       ??$extract_argument_from_va_list@_K_J@?$positional_parameter_base@_WV?$string_output_adapter@_W@__crt_stdio_output@@@__crt_stdio_output@@IEAA_NAEA_J@Z 00000001400a009c f i libucrt:output.obj
 0001:0009f1e8       ??$extract_argument_from_va_list@_K_J@?$standard_base@DV?$stream_output_adapter@D@__crt_stdio_output@@@__crt_stdio_output@@IEAA_NAEA_J@Z 00000001400a01e8 f i libucrt:output.obj
 0001:0009f204       ??$extract_argument_from_va_list@_K_J@?$standard_base@DV?$string_output_adapter@D@__crt_stdio_output@@@__crt_stdio_output@@IEAA_NAEA_J@Z 00000001400a0204 f i libucrt:output.obj
 0001:0009f220       ??$extract_argument_from_va_list@_K_J@?$standard_base@_WV?$stream_output_adapter@_W@__crt_stdio_output@@@__crt_stdio_output@@IEAA_NAEA_J@Z 00000001400a0220 f i libucrt:output.obj
 0001:0009f23c       ??$extract_argument_from_va_list@_K_J@?$standard_base@_WV?$string_output_adapter@_W@__crt_stdio_output@@@__crt_stdio_output@@IEAA_NAEA_J@Z 00000001400a023c f i libucrt:output.obj
 0001:0009f258       ??$extract_argument_from_va_list@_W_W@?$positional_parameter_base@DV?$stream_output_adapter@D@__crt_stdio_output@@@__crt_stdio_output@@IEAA_NAEA_W@Z 00000001400a0258 f i libucrt:output.obj
 0001:0009f3a4       ??$extract_argument_from_va_list@_W_W@?$positional_parameter_base@DV?$string_output_adapter@D@__crt_stdio_output@@@__crt_stdio_output@@IEAA_NAEA_W@Z 00000001400a03a4 f i libucrt:output.obj
 0001:0009f4f0       ??$extract_argument_from_va_list@_W_W@?$positional_parameter_base@_WV?$stream_output_adapter@_W@__crt_stdio_output@@@__crt_stdio_output@@IEAA_NAEA_W@Z 00000001400a04f0 f i libucrt:output.obj
 0001:0009f63c       ??$extract_argument_from_va_list@_W_W@?$positional_parameter_base@_WV?$string_output_adapter@_W@__crt_stdio_output@@@__crt_stdio_output@@IEAA_NAEA_W@Z 00000001400a063c f i libucrt:output.obj
 0001:0009f788       ??$extract_argument_from_va_list@_W_W@?$standard_base@DV?$stream_output_adapter@D@__crt_stdio_output@@@__crt_stdio_output@@IEAA_NAEA_W@Z 00000001400a0788 f i libucrt:output.obj
 0001:0009f7a4       ??$extract_argument_from_va_list@_W_W@?$standard_base@DV?$string_output_adapter@D@__crt_stdio_output@@@__crt_stdio_output@@IEAA_NAEA_W@Z 00000001400a07a4 f i libucrt:output.obj
 0001:0009f7c0       ??$extract_argument_from_va_list@_W_W@?$standard_base@_WV?$stream_output_adapter@_W@__crt_stdio_output@@@__crt_stdio_output@@IEAA_NAEA_W@Z 00000001400a07c0 f i libucrt:output.obj
 0001:0009f7dc       ??$extract_argument_from_va_list@_W_W@?$standard_base@_WV?$string_output_adapter@_W@__crt_stdio_output@@@__crt_stdio_output@@IEAA_NAEA_W@Z 00000001400a07dc f i libucrt:output.obj
 0001:0009f7f8       ??$get_parameter_type@D@?$positional_parameter_base@DV?$stream_output_adapter@D@__crt_stdio_output@@@__crt_stdio_output@@CA?AW4parameter_type@01@PEAD@Z 00000001400a07f8 f i libucrt:output.obj
 0001:0009f800       ??$get_parameter_type@D@?$positional_parameter_base@DV?$string_output_adapter@D@__crt_stdio_output@@@__crt_stdio_output@@CA?AW4parameter_type@01@PEAD@Z 00000001400a0800 f i libucrt:output.obj
 0001:0009f808       ??$get_parameter_type@D@?$positional_parameter_base@_WV?$stream_output_adapter@_W@__crt_stdio_output@@@__crt_stdio_output@@CA?AW4parameter_type@01@PEAD@Z 00000001400a0808 f i libucrt:output.obj
 0001:0009f810       ??$get_parameter_type@D@?$positional_parameter_base@_WV?$string_output_adapter@_W@__crt_stdio_output@@@__crt_stdio_output@@CA?AW4parameter_type@01@PEAD@Z 00000001400a0810 f i libucrt:output.obj
 0001:0009f818       ??$get_parameter_type@Uansi_string@?1??type_case_Z@?$output_processor@DV?$stream_output_adapter@D@__crt_stdio_output@@V?$positional_parameter_base@DV?$stream_output_adapter@D@__crt_stdio_output@@@2@@__crt_stdio_output@@AEAA_NXZ@@?$positional_parameter_base@DV?$stream_output_adapter@D@__crt_stdio_output@@@__crt_stdio_output@@CA?AW4parameter_type@01@PEAUansi_string@?1??type_case_Z@?$output_processor@DV?$stream_output_adapter@D@__crt_stdio_output@@V?$positional_parameter_base@DV?$stream_output_adapter@D@__crt_stdio_output@@@2@@1@AEAA_NXZ@@Z 00000001400a0818 f i libucrt:output.obj
 0001:0009f820       ??$get_parameter_type@Uansi_string@?1??type_case_Z@?$output_processor@DV?$string_output_adapter@D@__crt_stdio_output@@V?$positional_parameter_base@DV?$string_output_adapter@D@__crt_stdio_output@@@2@@__crt_stdio_output@@AEAA_NXZ@@?$positional_parameter_base@DV?$string_output_adapter@D@__crt_stdio_output@@@__crt_stdio_output@@CA?AW4parameter_type@01@PEAUansi_string@?1??type_case_Z@?$output_processor@DV?$string_output_adapter@D@__crt_stdio_output@@V?$positional_parameter_base@DV?$string_output_adapter@D@__crt_stdio_output@@@2@@1@AEAA_NXZ@@Z 00000001400a0820 f i libucrt:output.obj
 0001:0009f828       ??$get_parameter_type@Uansi_string@?1??type_case_Z@?$output_processor@_WV?$stream_output_adapter@_W@__crt_stdio_output@@V?$positional_parameter_base@_WV?$stream_output_adapter@_W@__crt_stdio_output@@@2@@__crt_stdio_output@@AEAA_NXZ@@?$positional_parameter_base@_WV?$stream_output_adapter@_W@__crt_stdio_output@@@__crt_stdio_output@@CA?AW4parameter_type@01@PEAUansi_string@?1??type_case_Z@?$output_processor@_WV?$stream_output_adapter@_W@__crt_stdio_output@@V?$positional_parameter_base@_WV?$stream_output_adapter@_W@__crt_stdio_output@@@2@@1@AEAA_NXZ@@Z 00000001400a0828 f i libucrt:output.obj
 0001:0009f830       ??$get_parameter_type@Uansi_string@?1??type_case_Z@?$output_processor@_WV?$string_output_adapter@_W@__crt_stdio_output@@V?$positional_parameter_base@_WV?$string_output_adapter@_W@__crt_stdio_output@@@2@@__crt_stdio_output@@AEAA_NXZ@@?$positional_parameter_base@_WV?$string_output_adapter@_W@__crt_stdio_output@@@__crt_stdio_output@@CA?AW4parameter_type@01@PEAUansi_string@?1??type_case_Z@?$output_processor@_WV?$string_output_adapter@_W@__crt_stdio_output@@V?$positional_parameter_base@_WV?$string_output_adapter@_W@__crt_stdio_output@@@2@@1@AEAA_NXZ@@Z 00000001400a0830 f i libucrt:output.obj
 0001:0009f838       ??$get_parameter_type@X@?$positional_parameter_base@DV?$stream_output_adapter@D@__crt_stdio_output@@@__crt_stdio_output@@CA?AW4parameter_type@01@PEAX@Z 00000001400a0838 f i libucrt:output.obj
 0001:0009f840       ??$get_parameter_type@X@?$positional_parameter_base@DV?$string_output_adapter@D@__crt_stdio_output@@@__crt_stdio_output@@CA?AW4parameter_type@01@PEAX@Z 00000001400a0840 f i libucrt:output.obj
 0001:0009f848       ??$get_parameter_type@X@?$positional_parameter_base@_WV?$stream_output_adapter@_W@__crt_stdio_output@@@__crt_stdio_output@@CA?AW4parameter_type@01@PEAX@Z 00000001400a0848 f i libucrt:output.obj
 0001:0009f850       ??$get_parameter_type@X@?$positional_parameter_base@_WV?$string_output_adapter@_W@__crt_stdio_output@@@__crt_stdio_output@@CA?AW4parameter_type@01@PEAX@Z 00000001400a0850 f i libucrt:output.obj
 0001:0009f858       ??$is_character_specifier@D@?$positional_parameter_base@DV?$stream_output_adapter@D@__crt_stdio_output@@@__crt_stdio_output@@CA_ND@Z 00000001400a0858 f i libucrt:output.obj
 0001:0009f864       ??$is_character_specifier@D@?$positional_parameter_base@DV?$string_output_adapter@D@__crt_stdio_output@@@__crt_stdio_output@@CA_ND@Z 00000001400a0864 f i libucrt:output.obj
 0001:0009f870       ??$is_character_specifier@_W@?$positional_parameter_base@_WV?$stream_output_adapter@_W@__crt_stdio_output@@@__crt_stdio_output@@CA_N_W@Z 00000001400a0870 f i libucrt:output.obj
 0001:0009f884       ??$is_character_specifier@_W@?$positional_parameter_base@_WV?$string_output_adapter@_W@__crt_stdio_output@@@__crt_stdio_output@@CA_N_W@Z 00000001400a0884 f i libucrt:output.obj
 0001:0009f898       ??$is_integral_specifier@D@?$positional_parameter_base@DV?$stream_output_adapter@D@__crt_stdio_output@@@__crt_stdio_output@@CA_ND@Z 00000001400a0898 f i libucrt:output.obj
 0001:0009f8c4       ??$is_integral_specifier@D@?$positional_parameter_base@DV?$string_output_adapter@D@__crt_stdio_output@@@__crt_stdio_output@@CA_ND@Z 00000001400a08c4 f i libucrt:output.obj
 0001:0009f8f0       ??$is_integral_specifier@_W@?$positional_parameter_base@_WV?$stream_output_adapter@_W@__crt_stdio_output@@@__crt_stdio_output@@CA_N_W@Z 00000001400a08f0 f i libucrt:output.obj
 0001:0009f920       ??$is_integral_specifier@_W@?$positional_parameter_base@_WV?$string_output_adapter@_W@__crt_stdio_output@@@__crt_stdio_output@@CA_N_W@Z 00000001400a0920 f i libucrt:output.obj
 0001:0009f950       ??$is_pointer_specifier@D@?$positional_parameter_base@DV?$stream_output_adapter@D@__crt_stdio_output@@@__crt_stdio_output@@CA_ND@Z 00000001400a0950 f i libucrt:output.obj
 0001:0009f958       ??$is_pointer_specifier@D@?$positional_parameter_base@DV?$string_output_adapter@D@__crt_stdio_output@@@__crt_stdio_output@@CA_ND@Z 00000001400a0958 f i libucrt:output.obj
 0001:0009f960       ??$is_pointer_specifier@_W@?$positional_parameter_base@_WV?$stream_output_adapter@_W@__crt_stdio_output@@@__crt_stdio_output@@CA_N_W@Z 00000001400a0960 f i libucrt:output.obj
 0001:0009f96c       ??$is_pointer_specifier@_W@?$positional_parameter_base@_WV?$string_output_adapter@_W@__crt_stdio_output@@@__crt_stdio_output@@CA_N_W@Z 00000001400a096c f i libucrt:output.obj
 0001:0009f978       ??$is_string_specifier@D@?$positional_parameter_base@DV?$stream_output_adapter@D@__crt_stdio_output@@@__crt_stdio_output@@CA_ND@Z 00000001400a0978 f i libucrt:output.obj
 0001:0009f984       ??$is_string_specifier@D@?$positional_parameter_base@DV?$string_output_adapter@D@__crt_stdio_output@@@__crt_stdio_output@@CA_ND@Z 00000001400a0984 f i libucrt:output.obj
 0001:0009f990       ??$is_string_specifier@_W@?$positional_parameter_base@_WV?$stream_output_adapter@_W@__crt_stdio_output@@@__crt_stdio_output@@CA_N_W@Z 00000001400a0990 f i libucrt:output.obj
 0001:0009f9a4       ??$is_string_specifier@_W@?$positional_parameter_base@_WV?$string_output_adapter@_W@__crt_stdio_output@@@__crt_stdio_output@@CA_N_W@Z 00000001400a09a4 f i libucrt:output.obj
 0001:0009f9b8       ??$is_wide_character_specifier@D@__crt_stdio_output@@YA_N_KDW4length_modifier@0@@Z 00000001400a09b8 f i libucrt:output.obj
 0001:0009f9ec       ??$is_wide_character_specifier@_W@__crt_stdio_output@@YA_N_K_WW4length_modifier@0@@Z 00000001400a09ec f i libucrt:output.obj
 0001:0009fa3c       ??$make_c_string_character_source@DPEAPEAD@__crt_strtox@@YA?AV?$c_string_character_source@D@0@QEBDQEAPEAD@Z 00000001400a0a3c f i libucrt:output.obj
 0001:0009fa54       ??$make_c_string_character_source@_WPEAPEA_W@__crt_strtox@@YA?AV?$c_string_character_source@_W@0@QEB_WQEAPEA_W@Z 00000001400a0a54 f i libucrt:output.obj
 0001:0009fa6c       ??$parse_integer@KV?$c_string_character_source@D@__crt_strtox@@$0A@@__crt_strtox@@YAKAEAV__crt_cached_ptd_host@@V?$c_string_character_source@D@0@H_N@Z 00000001400a0a6c f i libucrt:output.obj
 0001:0009fdcc       ??$parse_integer@KV?$c_string_character_source@_W@__crt_strtox@@$0A@@__crt_strtox@@YAKAEAV__crt_cached_ptd_host@@V?$c_string_character_source@_W@0@H_N@Z 00000001400a0dcc f i libucrt:output.obj
 0001:000a0720       ??$peek_va_arg@C@__crt_stdio_output@@YACPEAD@Z 00000001400a1720 f i libucrt:output.obj
 0001:000a0724       ??$peek_va_arg@E@__crt_stdio_output@@YAEPEAD@Z 00000001400a1724 f i libucrt:output.obj
 0001:000a0728       ??$peek_va_arg@F@__crt_stdio_output@@YAFPEAD@Z 00000001400a1728 f i libucrt:output.obj
 0001:000a072c       ??$peek_va_arg@G@__crt_stdio_output@@YAGPEAD@Z 00000001400a172c f i libucrt:output.obj
 0001:000a0730       ??$peek_va_arg@H@__crt_stdio_output@@YAHPEAD@Z 00000001400a1730 f i libucrt:output.obj
 0001:000a0734       ??$peek_va_arg@I@__crt_stdio_output@@YAIPEAD@Z 00000001400a1734 f i libucrt:output.obj
 0001:000a0738       ??$peek_va_arg@PEAD@__crt_stdio_output@@YAPEADPEAD@Z 00000001400a1738 f i libucrt:output.obj
 0001:000a073c       ??$peek_va_arg@PEAUansi_string@?1??type_case_Z@?$output_processor@DV?$stream_output_adapter@D@__crt_stdio_output@@V?$positional_parameter_base@DV?$stream_output_adapter@D@__crt_stdio_output@@@2@@__crt_stdio_output@@AEAA_NXZ@@__crt_stdio_output@@YAPEAUansi_string@?1??type_case_Z@?$output_processor@DV?$stream_output_adapter@D@__crt_stdio_output@@V?$positional_parameter_base@DV?$stream_output_adapter@D@__crt_stdio_output@@@2@@0@AEAA_NXZ@PEAD@Z 00000001400a173c f i libucrt:output.obj
 0001:000a0740       ??$peek_va_arg@PEAUansi_string@?1??type_case_Z@?$output_processor@DV?$string_output_adapter@D@__crt_stdio_output@@V?$positional_parameter_base@DV?$string_output_adapter@D@__crt_stdio_output@@@2@@__crt_stdio_output@@AEAA_NXZ@@__crt_stdio_output@@YAPEAUansi_string@?1??type_case_Z@?$output_processor@DV?$string_output_adapter@D@__crt_stdio_output@@V?$positional_parameter_base@DV?$string_output_adapter@D@__crt_stdio_output@@@2@@0@AEAA_NXZ@PEAD@Z 00000001400a1740 f i libucrt:output.obj
 0001:000a0744       ??$peek_va_arg@PEAUansi_string@?1??type_case_Z@?$output_processor@_WV?$stream_output_adapter@_W@__crt_stdio_output@@V?$positional_parameter_base@_WV?$stream_output_adapter@_W@__crt_stdio_output@@@2@@__crt_stdio_output@@AEAA_NXZ@@__crt_stdio_output@@YAPEAUansi_string@?1??type_case_Z@?$output_processor@_WV?$stream_output_adapter@_W@__crt_stdio_output@@V?$positional_parameter_base@_WV?$stream_output_adapter@_W@__crt_stdio_output@@@2@@0@AEAA_NXZ@PEAD@Z 00000001400a1744 f i libucrt:output.obj
 0001:000a0748       ??$peek_va_arg@PEAUansi_string@?1??type_case_Z@?$output_processor@_WV?$string_output_adapter@_W@__crt_stdio_output@@V?$positional_parameter_base@_WV?$string_output_adapter@_W@__crt_stdio_output@@@2@@__crt_stdio_output@@AEAA_NXZ@@__crt_stdio_output@@YAPEAUansi_string@?1??type_case_Z@?$output_processor@_WV?$string_output_adapter@_W@__crt_stdio_output@@V?$positional_parameter_base@_WV?$string_output_adapter@_W@__crt_stdio_output@@@2@@0@AEAA_NXZ@PEAD@Z 00000001400a1748 f i libucrt:output.obj
 0001:000a074c       ??$peek_va_arg@PEAX@__crt_stdio_output@@YAPEAXPEAD@Z 00000001400a174c f i libucrt:output.obj
 0001:000a0750       ??$peek_va_arg@U_CRT_DOUBLE@@@__crt_stdio_output@@YA?AU_CRT_DOUBLE@@PEAD@Z 00000001400a1750 f i libucrt:output.obj
 0001:000a0754       ??$peek_va_arg@_J@__crt_stdio_output@@YA_JPEAD@Z 00000001400a1754 f i libucrt:output.obj
 0001:000a0758       ??$peek_va_arg@_K@__crt_stdio_output@@YA_KPEAD@Z 00000001400a1758 f i libucrt:output.obj
 0001:000a075c       ??$peek_va_arg@_W@__crt_stdio_output@@YA_WPEAD@Z 00000001400a175c f i libucrt:output.obj
 0001:000a0760       ??$puttc_nolock_internal@AEBDPEAU_iobuf@@AEAV__crt_cached_ptd_host@@@?$__crt_char_traits@D@@SAHAEBD$$QEAPEAU_iobuf@@AEAV__crt_cached_ptd_host@@@Z 00000001400a1760 f i libucrt:output.obj
 0001:000a0770       ??$puttc_nolock_internal@AEB_WPEAU_iobuf@@AEAV__crt_cached_ptd_host@@@?$__crt_char_traits@_W@@SAGAEB_W$$QEAPEAU_iobuf@@AEAV__crt_cached_ptd_host@@@Z 00000001400a1770 f i libucrt:output.obj
 0001:000a0780       ??$read_va_arg@C@__crt_stdio_output@@YACAEAPEAD@Z 00000001400a1780 f i libucrt:output.obj
 0001:000a0790       ??$read_va_arg@E@__crt_stdio_output@@YAEAEAPEAD@Z 00000001400a1790 f i libucrt:output.obj
 0001:000a07a0       ??$read_va_arg@F@__crt_stdio_output@@YAFAEAPEAD@Z 00000001400a17a0 f i libucrt:output.obj
 0001:000a07b4       ??$read_va_arg@G@__crt_stdio_output@@YAGAEAPEAD@Z 00000001400a17b4 f i libucrt:output.obj
 0001:000a07c8       ??$read_va_arg@H@__crt_stdio_output@@YAHAEAPEAD@Z 00000001400a17c8 f i libucrt:output.obj
 0001:000a07d8       ??$read_va_arg@I@__crt_stdio_output@@YAIAEAPEAD@Z 00000001400a17d8 f i libucrt:output.obj
 0001:000a07e8       ??$read_va_arg@PEAD@__crt_stdio_output@@YAPEADAEAPEAD@Z 00000001400a17e8 f i libucrt:output.obj
 0001:000a07fc       ??$read_va_arg@PEAUansi_string@?1??type_case_Z@?$output_processor@DV?$stream_output_adapter@D@__crt_stdio_output@@V?$format_validation_base@DV?$stream_output_adapter@D@__crt_stdio_output@@@2@@__crt_stdio_output@@AEAA_NXZ@@__crt_stdio_output@@YAPEAUansi_string@?1??type_case_Z@?$output_processor@DV?$stream_output_adapter@D@__crt_stdio_output@@V?$format_validation_base@DV?$stream_output_adapter@D@__crt_stdio_output@@@2@@0@AEAA_NXZ@AEAPEAD@Z 00000001400a17fc f i libucrt:output.obj
 0001:000a0810       ??$read_va_arg@PEAUansi_string@?1??type_case_Z@?$output_processor@DV?$stream_output_adapter@D@__crt_stdio_output@@V?$positional_parameter_base@DV?$stream_output_adapter@D@__crt_stdio_output@@@2@@__crt_stdio_output@@AEAA_NXZ@@__crt_stdio_output@@YAPEAUansi_string@?1??type_case_Z@?$output_processor@DV?$stream_output_adapter@D@__crt_stdio_output@@V?$positional_parameter_base@DV?$stream_output_adapter@D@__crt_stdio_output@@@2@@0@AEAA_NXZ@AEAPEAD@Z 00000001400a1810 f i libucrt:output.obj
 0001:000a0824       ??$read_va_arg@PEAUansi_string@?1??type_case_Z@?$output_processor@DV?$stream_output_adapter@D@__crt_stdio_output@@V?$standard_base@DV?$stream_output_adapter@D@__crt_stdio_output@@@2@@__crt_stdio_output@@AEAA_NXZ@@__crt_stdio_output@@YAPEAUansi_string@?1??type_case_Z@?$output_processor@DV?$stream_output_adapter@D@__crt_stdio_output@@V?$standard_base@DV?$stream_output_adapter@D@__crt_stdio_output@@@2@@0@AEAA_NXZ@AEAPEAD@Z 00000001400a1824 f i libucrt:output.obj
 0001:000a0838       ??$read_va_arg@PEAUansi_string@?1??type_case_Z@?$output_processor@DV?$string_output_adapter@D@__crt_stdio_output@@V?$format_validation_base@DV?$string_output_adapter@D@__crt_stdio_output@@@2@@__crt_stdio_output@@AEAA_NXZ@@__crt_stdio_output@@YAPEAUansi_string@?1??type_case_Z@?$output_processor@DV?$string_output_adapter@D@__crt_stdio_output@@V?$format_validation_base@DV?$string_output_adapter@D@__crt_stdio_output@@@2@@0@AEAA_NXZ@AEAPEAD@Z 00000001400a1838 f i libucrt:output.obj
 0001:000a084c       ??$read_va_arg@PEAUansi_string@?1??type_case_Z@?$output_processor@DV?$string_output_adapter@D@__crt_stdio_output@@V?$positional_parameter_base@DV?$string_output_adapter@D@__crt_stdio_output@@@2@@__crt_stdio_output@@AEAA_NXZ@@__crt_stdio_output@@YAPEAUansi_string@?1??type_case_Z@?$output_processor@DV?$string_output_adapter@D@__crt_stdio_output@@V?$positional_parameter_base@DV?$string_output_adapter@D@__crt_stdio_output@@@2@@0@AEAA_NXZ@AEAPEAD@Z 00000001400a184c f i libucrt:output.obj
 0001:000a0860       ??$read_va_arg@PEAUansi_string@?1??type_case_Z@?$output_processor@DV?$string_output_adapter@D@__crt_stdio_output@@V?$standard_base@DV?$string_output_adapter@D@__crt_stdio_output@@@2@@__crt_stdio_output@@AEAA_NXZ@@__crt_stdio_output@@YAPEAUansi_string@?1??type_case_Z@?$output_processor@DV?$string_output_adapter@D@__crt_stdio_output@@V?$standard_base@DV?$string_output_adapter@D@__crt_stdio_output@@@2@@0@AEAA_NXZ@AEAPEAD@Z 00000001400a1860 f i libucrt:output.obj
 0001:000a0874       ??$read_va_arg@PEAUansi_string@?1??type_case_Z@?$output_processor@_WV?$stream_output_adapter@_W@__crt_stdio_output@@V?$format_validation_base@_WV?$stream_output_adapter@_W@__crt_stdio_output@@@2@@__crt_stdio_output@@AEAA_NXZ@@__crt_stdio_output@@YAPEAUansi_string@?1??type_case_Z@?$output_processor@_WV?$stream_output_adapter@_W@__crt_stdio_output@@V?$format_validation_base@_WV?$stream_output_adapter@_W@__crt_stdio_output@@@2@@0@AEAA_NXZ@AEAPEAD@Z 00000001400a1874 f i libucrt:output.obj
 0001:000a0888       ??$read_va_arg@PEAUansi_string@?1??type_case_Z@?$output_processor@_WV?$stream_output_adapter@_W@__crt_stdio_output@@V?$positional_parameter_base@_WV?$stream_output_adapter@_W@__crt_stdio_output@@@2@@__crt_stdio_output@@AEAA_NXZ@@__crt_stdio_output@@YAPEAUansi_string@?1??type_case_Z@?$output_processor@_WV?$stream_output_adapter@_W@__crt_stdio_output@@V?$positional_parameter_base@_WV?$stream_output_adapter@_W@__crt_stdio_output@@@2@@0@AEAA_NXZ@AEAPEAD@Z 00000001400a1888 f i libucrt:output.obj
 0001:000a089c       ??$read_va_arg@PEAUansi_string@?1??type_case_Z@?$output_processor@_WV?$stream_output_adapter@_W@__crt_stdio_output@@V?$standard_base@_WV?$stream_output_adapter@_W@__crt_stdio_output@@@2@@__crt_stdio_output@@AEAA_NXZ@@__crt_stdio_output@@YAPEAUansi_string@?1??type_case_Z@?$output_processor@_WV?$stream_output_adapter@_W@__crt_stdio_output@@V?$standard_base@_WV?$stream_output_adapter@_W@__crt_stdio_output@@@2@@0@AEAA_NXZ@AEAPEAD@Z 00000001400a189c f i libucrt:output.obj
 0001:000a08b0       ??$read_va_arg@PEAUansi_string@?1??type_case_Z@?$output_processor@_WV?$string_output_adapter@_W@__crt_stdio_output@@V?$format_validation_base@_WV?$string_output_adapter@_W@__crt_stdio_output@@@2@@__crt_stdio_output@@AEAA_NXZ@@__crt_stdio_output@@YAPEAUansi_string@?1??type_case_Z@?$output_processor@_WV?$string_output_adapter@_W@__crt_stdio_output@@V?$format_validation_base@_WV?$string_output_adapter@_W@__crt_stdio_output@@@2@@0@AEAA_NXZ@AEAPEAD@Z 00000001400a18b0 f i libucrt:output.obj
 0001:000a08c4       ??$read_va_arg@PEAUansi_string@?1??type_case_Z@?$output_processor@_WV?$string_output_adapter@_W@__crt_stdio_output@@V?$positional_parameter_base@_WV?$string_output_adapter@_W@__crt_stdio_output@@@2@@__crt_stdio_output@@AEAA_NXZ@@__crt_stdio_output@@YAPEAUansi_string@?1??type_case_Z@?$output_processor@_WV?$string_output_adapter@_W@__crt_stdio_output@@V?$positional_parameter_base@_WV?$string_output_adapter@_W@__crt_stdio_output@@@2@@0@AEAA_NXZ@AEAPEAD@Z 00000001400a18c4 f i libucrt:output.obj
 0001:000a08d8       ??$read_va_arg@PEAUansi_string@?1??type_case_Z@?$output_processor@_WV?$string_output_adapter@_W@__crt_stdio_output@@V?$standard_base@_WV?$string_output_adapter@_W@__crt_stdio_output@@@2@@__crt_stdio_output@@AEAA_NXZ@@__crt_stdio_output@@YAPEAUansi_string@?1??type_case_Z@?$output_processor@_WV?$string_output_adapter@_W@__crt_stdio_output@@V?$standard_base@_WV?$string_output_adapter@_W@__crt_stdio_output@@@2@@0@AEAA_NXZ@AEAPEAD@Z 00000001400a18d8 f i libucrt:output.obj
 0001:000a08ec       ??$read_va_arg@PEAX@__crt_stdio_output@@YAPEAXAEAPEAD@Z 00000001400a18ec f i libucrt:output.obj
 0001:000a0900       ??$read_va_arg@U_CRT_DOUBLE@@@__crt_stdio_output@@YA?AU_CRT_DOUBLE@@AEAPEAD@Z 00000001400a1900 f i libucrt:output.obj
 0001:000a0914       ??$read_va_arg@_J@__crt_stdio_output@@YA_JAEAPEAD@Z 00000001400a1914 f i libucrt:output.obj
 0001:000a0928       ??$read_va_arg@_K@__crt_stdio_output@@YA_KAEAPEAD@Z 00000001400a1928 f i libucrt:output.obj
 0001:000a093c       ??$read_va_arg@_W@__crt_stdio_output@@YA_WAEAPEAD@Z 00000001400a193c f i libucrt:output.obj
 0001:000a0950       ??$scratch_count@D@formatting_buffer@__crt_stdio_output@@QEBA_KXZ 00000001400a1950 f i libucrt:output.obj
 0001:000a0974       ??$scratch_data@D@formatting_buffer@__crt_stdio_output@@QEAAPEADXZ 00000001400a1974 f i libucrt:output.obj
 0001:000a09a0       ??$type_case_integer@$07@?$output_processor@DV?$stream_output_adapter@D@__crt_stdio_output@@V?$format_validation_base@DV?$stream_output_adapter@D@__crt_stdio_output@@@2@@__crt_stdio_output@@AEAA_N_N@Z 00000001400a19a0 f i libucrt:output.obj
 0001:000a0c24       ??$type_case_integer@$07@?$output_processor@DV?$stream_output_adapter@D@__crt_stdio_output@@V?$positional_parameter_base@DV?$stream_output_adapter@D@__crt_stdio_output@@@2@@__crt_stdio_output@@AEAA_N_N@Z 00000001400a1c24 f i libucrt:output.obj
 0001:000a0edc       ??$type_case_integer@$07@?$output_processor@DV?$stream_output_adapter@D@__crt_stdio_output@@V?$standard_base@DV?$stream_output_adapter@D@__crt_stdio_output@@@2@@__crt_stdio_output@@AEAA_N_N@Z 00000001400a1edc f i libucrt:output.obj
 0001:000a1160       ??$type_case_integer@$07@?$output_processor@DV?$string_output_adapter@D@__crt_stdio_output@@V?$format_validation_base@DV?$string_output_adapter@D@__crt_stdio_output@@@2@@__crt_stdio_output@@AEAA_N_N@Z 00000001400a2160 f i libucrt:output.obj
 0001:000a13e4       ??$type_case_integer@$07@?$output_processor@DV?$string_output_adapter@D@__crt_stdio_output@@V?$positional_parameter_base@DV?$string_output_adapter@D@__crt_stdio_output@@@2@@__crt_stdio_output@@AEAA_N_N@Z 00000001400a23e4 f i libucrt:output.obj
 0001:000a169c       ??$type_case_integer@$07@?$output_processor@DV?$string_output_adapter@D@__crt_stdio_output@@V?$standard_base@DV?$string_output_adapter@D@__crt_stdio_output@@@2@@__crt_stdio_output@@AEAA_N_N@Z 00000001400a269c f i libucrt:output.obj
 0001:000a1920       ??$type_case_integer@$07@?$output_processor@_WV?$stream_output_adapter@_W@__crt_stdio_output@@V?$format_validation_base@_WV?$stream_output_adapter@_W@__crt_stdio_output@@@2@@__crt_stdio_output@@AEAA_N_N@Z 00000001400a2920 f i libucrt:output.obj
 0001:000a1bac       ??$type_case_integer@$07@?$output_processor@_WV?$stream_output_adapter@_W@__crt_stdio_output@@V?$positional_parameter_base@_WV?$stream_output_adapter@_W@__crt_stdio_output@@@2@@__crt_stdio_output@@AEAA_N_N@Z 00000001400a2bac f i libucrt:output.obj
 0001:000a1e6c       ??$type_case_integer@$07@?$output_processor@_WV?$stream_output_adapter@_W@__crt_stdio_output@@V?$standard_base@_WV?$stream_output_adapter@_W@__crt_stdio_output@@@2@@__crt_stdio_output@@AEAA_N_N@Z 00000001400a2e6c f i libucrt:output.obj
 0001:000a20f8       ??$type_case_integer@$07@?$output_processor@_WV?$string_output_adapter@_W@__crt_stdio_output@@V?$format_validation_base@_WV?$string_output_adapter@_W@__crt_stdio_output@@@2@@__crt_stdio_output@@AEAA_N_N@Z 00000001400a30f8 f i libucrt:output.obj
 0001:000a2384       ??$type_case_integer@$07@?$output_processor@_WV?$string_output_adapter@_W@__crt_stdio_output@@V?$positional_parameter_base@_WV?$string_output_adapter@_W@__crt_stdio_output@@@2@@__crt_stdio_output@@AEAA_N_N@Z 00000001400a3384 f i libucrt:output.obj
 0001:000a2644       ??$type_case_integer@$07@?$output_processor@_WV?$string_output_adapter@_W@__crt_stdio_output@@V?$standard_base@_WV?$string_output_adapter@_W@__crt_stdio_output@@@2@@__crt_stdio_output@@AEAA_N_N@Z 00000001400a3644 f i libucrt:output.obj
 0001:000a28d0       ??$type_case_integer@$09@?$output_processor@DV?$stream_output_adapter@D@__crt_stdio_output@@V?$format_validation_base@DV?$stream_output_adapter@D@__crt_stdio_output@@@2@@__crt_stdio_output@@AEAA_N_N@Z 00000001400a38d0 f i libucrt:output.obj
 0001:000a2b54       ??$type_case_integer@$09@?$output_processor@DV?$stream_output_adapter@D@__crt_stdio_output@@V?$positional_parameter_base@DV?$stream_output_adapter@D@__crt_stdio_output@@@2@@__crt_stdio_output@@AEAA_N_N@Z 00000001400a3b54 f i libucrt:output.obj
 0001:000a2e0c       ??$type_case_integer@$09@?$output_processor@DV?$stream_output_adapter@D@__crt_stdio_output@@V?$standard_base@DV?$stream_output_adapter@D@__crt_stdio_output@@@2@@__crt_stdio_output@@AEAA_N_N@Z 00000001400a3e0c f i libucrt:output.obj
 0001:000a3090       ??$type_case_integer@$09@?$output_processor@DV?$string_output_adapter@D@__crt_stdio_output@@V?$format_validation_base@DV?$string_output_adapter@D@__crt_stdio_output@@@2@@__crt_stdio_output@@AEAA_N_N@Z 00000001400a4090 f i libucrt:output.obj
 0001:000a3314       ??$type_case_integer@$09@?$output_processor@DV?$string_output_adapter@D@__crt_stdio_output@@V?$positional_parameter_base@DV?$string_output_adapter@D@__crt_stdio_output@@@2@@__crt_stdio_output@@AEAA_N_N@Z 00000001400a4314 f i libucrt:output.obj
 0001:000a35cc       ??$type_case_integer@$09@?$output_processor@DV?$string_output_adapter@D@__crt_stdio_output@@V?$standard_base@DV?$string_output_adapter@D@__crt_stdio_output@@@2@@__crt_stdio_output@@AEAA_N_N@Z 00000001400a45cc f i libucrt:output.obj
 0001:000a3850       ??$type_case_integer@$09@?$output_processor@_WV?$stream_output_adapter@_W@__crt_stdio_output@@V?$format_validation_base@_WV?$stream_output_adapter@_W@__crt_stdio_output@@@2@@__crt_stdio_output@@AEAA_N_N@Z 00000001400a4850 f i libucrt:output.obj
 0001:000a3adc       ??$type_case_integer@$09@?$output_processor@_WV?$stream_output_adapter@_W@__crt_stdio_output@@V?$positional_parameter_base@_WV?$stream_output_adapter@_W@__crt_stdio_output@@@2@@__crt_stdio_output@@AEAA_N_N@Z 00000001400a4adc f i libucrt:output.obj
 0001:000a3d9c       ??$type_case_integer@$09@?$output_processor@_WV?$stream_output_adapter@_W@__crt_stdio_output@@V?$standard_base@_WV?$stream_output_adapter@_W@__crt_stdio_output@@@2@@__crt_stdio_output@@AEAA_N_N@Z 00000001400a4d9c f i libucrt:output.obj
 0001:000a4028       ??$type_case_integer@$09@?$output_processor@_WV?$string_output_adapter@_W@__crt_stdio_output@@V?$format_validation_base@_WV?$string_output_adapter@_W@__crt_stdio_output@@@2@@__crt_stdio_output@@AEAA_N_N@Z 00000001400a5028 f i libucrt:output.obj
 0001:000a42b4       ??$type_case_integer@$09@?$output_processor@_WV?$string_output_adapter@_W@__crt_stdio_output@@V?$positional_parameter_base@_WV?$string_output_adapter@_W@__crt_stdio_output@@@2@@__crt_stdio_output@@AEAA_N_N@Z 00000001400a52b4 f i libucrt:output.obj
 0001:000a4574       ??$type_case_integer@$09@?$output_processor@_WV?$string_output_adapter@_W@__crt_stdio_output@@V?$standard_base@_WV?$string_output_adapter@_W@__crt_stdio_output@@@2@@__crt_stdio_output@@AEAA_N_N@Z 00000001400a5574 f i libucrt:output.obj
 0001:000a4800       ??$type_case_integer@$0BA@@?$output_processor@DV?$stream_output_adapter@D@__crt_stdio_output@@V?$format_validation_base@DV?$stream_output_adapter@D@__crt_stdio_output@@@2@@__crt_stdio_output@@AEAA_N_N@Z 00000001400a5800 f i libucrt:output.obj
 0001:000a4a84       ??$type_case_integer@$0BA@@?$output_processor@DV?$stream_output_adapter@D@__crt_stdio_output@@V?$positional_parameter_base@DV?$stream_output_adapter@D@__crt_stdio_output@@@2@@__crt_stdio_output@@AEAA_N_N@Z 00000001400a5a84 f i libucrt:output.obj
 0001:000a4d3c       ??$type_case_integer@$0BA@@?$output_processor@DV?$stream_output_adapter@D@__crt_stdio_output@@V?$standard_base@DV?$stream_output_adapter@D@__crt_stdio_output@@@2@@__crt_stdio_output@@AEAA_N_N@Z 00000001400a5d3c f i libucrt:output.obj
 0001:000a4fc0       ??$type_case_integer@$0BA@@?$output_processor@DV?$string_output_adapter@D@__crt_stdio_output@@V?$format_validation_base@DV?$string_output_adapter@D@__crt_stdio_output@@@2@@__crt_stdio_output@@AEAA_N_N@Z 00000001400a5fc0 f i libucrt:output.obj
 0001:000a5244       ??$type_case_integer@$0BA@@?$output_processor@DV?$string_output_adapter@D@__crt_stdio_output@@V?$positional_parameter_base@DV?$string_output_adapter@D@__crt_stdio_output@@@2@@__crt_stdio_output@@AEAA_N_N@Z 00000001400a6244 f i libucrt:output.obj
 0001:000a54fc       ??$type_case_integer@$0BA@@?$output_processor@DV?$string_output_adapter@D@__crt_stdio_output@@V?$standard_base@DV?$string_output_adapter@D@__crt_stdio_output@@@2@@__crt_stdio_output@@AEAA_N_N@Z 00000001400a64fc f i libucrt:output.obj
 0001:000a5780       ??$type_case_integer@$0BA@@?$output_processor@_WV?$stream_output_adapter@_W@__crt_stdio_output@@V?$format_validation_base@_WV?$stream_output_adapter@_W@__crt_stdio_output@@@2@@__crt_stdio_output@@AEAA_N_N@Z 00000001400a6780 f i libucrt:output.obj
 0001:000a5a0c       ??$type_case_integer@$0BA@@?$output_processor@_WV?$stream_output_adapter@_W@__crt_stdio_output@@V?$positional_parameter_base@_WV?$stream_output_adapter@_W@__crt_stdio_output@@@2@@__crt_stdio_output@@AEAA_N_N@Z 00000001400a6a0c f i libucrt:output.obj
 0001:000a5ccc       ??$type_case_integer@$0BA@@?$output_processor@_WV?$stream_output_adapter@_W@__crt_stdio_output@@V?$standard_base@_WV?$stream_output_adapter@_W@__crt_stdio_output@@@2@@__crt_stdio_output@@AEAA_N_N@Z 00000001400a6ccc f i libucrt:output.obj
 0001:000a5f58       ??$type_case_integer@$0BA@@?$output_processor@_WV?$string_output_adapter@_W@__crt_stdio_output@@V?$format_validation_base@_WV?$string_output_adapter@_W@__crt_stdio_output@@@2@@__crt_stdio_output@@AEAA_N_N@Z 00000001400a6f58 f i libucrt:output.obj
 0001:000a61e4       ??$type_case_integer@$0BA@@?$output_processor@_WV?$string_output_adapter@_W@__crt_stdio_output@@V?$positional_parameter_base@_WV?$string_output_adapter@_W@__crt_stdio_output@@@2@@__crt_stdio_output@@AEAA_N_N@Z 00000001400a71e4 f i libucrt:output.obj
 0001:000a64a4       ??$type_case_integer@$0BA@@?$output_processor@_WV?$string_output_adapter@_W@__crt_stdio_output@@V?$standard_base@_WV?$string_output_adapter@_W@__crt_stdio_output@@@2@@__crt_stdio_output@@AEAA_N_N@Z 00000001400a74a4 f i libucrt:output.obj
 0001:000a6730       ??$type_case_integer_parse_into_buffer@I$07@?$output_processor@DV?$stream_output_adapter@D@__crt_stdio_output@@V?$format_validation_base@DV?$stream_output_adapter@D@__crt_stdio_output@@@2@@__crt_stdio_output@@AEAAXI_N@Z 00000001400a7730 f i libucrt:output.obj
 0001:000a67b8       ??$type_case_integer_parse_into_buffer@I$07@?$output_processor@DV?$stream_output_adapter@D@__crt_stdio_output@@V?$positional_parameter_base@DV?$stream_output_adapter@D@__crt_stdio_output@@@2@@__crt_stdio_output@@AEAAXI_N@Z 00000001400a77b8 f i libucrt:output.obj
 0001:000a6840       ??$type_case_integer_parse_into_buffer@I$07@?$output_processor@DV?$stream_output_adapter@D@__crt_stdio_output@@V?$standard_base@DV?$stream_output_adapter@D@__crt_stdio_output@@@2@@__crt_stdio_output@@AEAAXI_N@Z 00000001400a7840 f i libucrt:output.obj
 0001:000a68c8       ??$type_case_integer_parse_into_buffer@I$07@?$output_processor@DV?$string_output_adapter@D@__crt_stdio_output@@V?$format_validation_base@DV?$string_output_adapter@D@__crt_stdio_output@@@2@@__crt_stdio_output@@AEAAXI_N@Z 00000001400a78c8 f i libucrt:output.obj
 0001:000a6950       ??$type_case_integer_parse_into_buffer@I$07@?$output_processor@DV?$string_output_adapter@D@__crt_stdio_output@@V?$positional_parameter_base@DV?$string_output_adapter@D@__crt_stdio_output@@@2@@__crt_stdio_output@@AEAAXI_N@Z 00000001400a7950 f i libucrt:output.obj
 0001:000a69d8       ??$type_case_integer_parse_into_buffer@I$07@?$output_processor@DV?$string_output_adapter@D@__crt_stdio_output@@V?$standard_base@DV?$string_output_adapter@D@__crt_stdio_output@@@2@@__crt_stdio_output@@AEAAXI_N@Z 00000001400a79d8 f i libucrt:output.obj
 0001:000a6a60       ??$type_case_integer_parse_into_buffer@I$07@?$output_processor@_WV?$stream_output_adapter@_W@__crt_stdio_output@@V?$format_validation_base@_WV?$stream_output_adapter@_W@__crt_stdio_output@@@2@@__crt_stdio_output@@AEAAXI_N@Z 00000001400a7a60 f i libucrt:output.obj
 0001:000a6b08       ??$type_case_integer_parse_into_buffer@I$07@?$output_processor@_WV?$stream_output_adapter@_W@__crt_stdio_output@@V?$positional_parameter_base@_WV?$stream_output_adapter@_W@__crt_stdio_output@@@2@@__crt_stdio_output@@AEAAXI_N@Z 00000001400a7b08 f i libucrt:output.obj
 0001:000a6bb0       ??$type_case_integer_parse_into_buffer@I$07@?$output_processor@_WV?$stream_output_adapter@_W@__crt_stdio_output@@V?$standard_base@_WV?$stream_output_adapter@_W@__crt_stdio_output@@@2@@__crt_stdio_output@@AEAAXI_N@Z 00000001400a7bb0 f i libucrt:output.obj
 0001:000a6c58       ??$type_case_integer_parse_into_buffer@I$07@?$output_processor@_WV?$string_output_adapter@_W@__crt_stdio_output@@V?$format_validation_base@_WV?$string_output_adapter@_W@__crt_stdio_output@@@2@@__crt_stdio_output@@AEAAXI_N@Z 00000001400a7c58 f i libucrt:output.obj
 0001:000a6d00       ??$type_case_integer_parse_into_buffer@I$07@?$output_processor@_WV?$string_output_adapter@_W@__crt_stdio_output@@V?$positional_parameter_base@_WV?$string_output_adapter@_W@__crt_stdio_output@@@2@@__crt_stdio_output@@AEAAXI_N@Z 00000001400a7d00 f i libucrt:output.obj
 0001:000a6da8       ??$type_case_integer_parse_into_buffer@I$07@?$output_processor@_WV?$string_output_adapter@_W@__crt_stdio_output@@V?$standard_base@_WV?$string_output_adapter@_W@__crt_stdio_output@@@2@@__crt_stdio_output@@AEAAXI_N@Z 00000001400a7da8 f i libucrt:output.obj
 0001:000a6e50       ??$type_case_integer_parse_into_buffer@I$09@?$output_processor@DV?$stream_output_adapter@D@__crt_stdio_output@@V?$format_validation_base@DV?$stream_output_adapter@D@__crt_stdio_output@@@2@@__crt_stdio_output@@AEAAXI_N@Z 00000001400a7e50 f i libucrt:output.obj
 0001:000a6f24       ??$type_case_integer_parse_into_buffer@I$09@?$output_processor@DV?$stream_output_adapter@D@__crt_stdio_output@@V?$positional_parameter_base@DV?$stream_output_adapter@D@__crt_stdio_output@@@2@@__crt_stdio_output@@AEAAXI_N@Z 00000001400a7f24 f i libucrt:output.obj
 0001:000a6ff8       ??$type_case_integer_parse_into_buffer@I$09@?$output_processor@DV?$stream_output_adapter@D@__crt_stdio_output@@V?$standard_base@DV?$stream_output_adapter@D@__crt_stdio_output@@@2@@__crt_stdio_output@@AEAAXI_N@Z 00000001400a7ff8 f i libucrt:output.obj
 0001:000a70cc       ??$type_case_integer_parse_into_buffer@I$09@?$output_processor@DV?$string_output_adapter@D@__crt_stdio_output@@V?$format_validation_base@DV?$string_output_adapter@D@__crt_stdio_output@@@2@@__crt_stdio_output@@AEAAXI_N@Z 00000001400a80cc f i libucrt:output.obj
 0001:000a71a0       ??$type_case_integer_parse_into_buffer@I$09@?$output_processor@DV?$string_output_adapter@D@__crt_stdio_output@@V?$positional_parameter_base@DV?$string_output_adapter@D@__crt_stdio_output@@@2@@__crt_stdio_output@@AEAAXI_N@Z 00000001400a81a0 f i libucrt:output.obj
 0001:000a7274       ??$type_case_integer_parse_into_buffer@I$09@?$output_processor@DV?$string_output_adapter@D@__crt_stdio_output@@V?$standard_base@DV?$string_output_adapter@D@__crt_stdio_output@@@2@@__crt_stdio_output@@AEAAXI_N@Z 00000001400a8274 f i libucrt:output.obj
 0001:000a7348       ??$type_case_integer_parse_into_buffer@I$09@?$output_processor@_WV?$stream_output_adapter@_W@__crt_stdio_output@@V?$format_validation_base@_WV?$stream_output_adapter@_W@__crt_stdio_output@@@2@@__crt_stdio_output@@AEAAXI_N@Z 00000001400a8348 f i libucrt:output.obj
 0001:000a7434       ??$type_case_integer_parse_into_buffer@I$09@?$output_processor@_WV?$stream_output_adapter@_W@__crt_stdio_output@@V?$positional_parameter_base@_WV?$stream_output_adapter@_W@__crt_stdio_output@@@2@@__crt_stdio_output@@AEAAXI_N@Z 00000001400a8434 f i libucrt:output.obj
 0001:000a7520       ??$type_case_integer_parse_into_buffer@I$09@?$output_processor@_WV?$stream_output_adapter@_W@__crt_stdio_output@@V?$standard_base@_WV?$stream_output_adapter@_W@__crt_stdio_output@@@2@@__crt_stdio_output@@AEAAXI_N@Z 00000001400a8520 f i libucrt:output.obj
 0001:000a760c       ??$type_case_integer_parse_into_buffer@I$09@?$output_processor@_WV?$string_output_adapter@_W@__crt_stdio_output@@V?$format_validation_base@_WV?$string_output_adapter@_W@__crt_stdio_output@@@2@@__crt_stdio_output@@AEAAXI_N@Z 00000001400a860c f i libucrt:output.obj
 0001:000a76f8       ??$type_case_integer_parse_into_buffer@I$09@?$output_processor@_WV?$string_output_adapter@_W@__crt_stdio_output@@V?$positional_parameter_base@_WV?$string_output_adapter@_W@__crt_stdio_output@@@2@@__crt_stdio_output@@AEAAXI_N@Z 00000001400a86f8 f i libucrt:output.obj
 0001:000a77e4       ??$type_case_integer_parse_into_buffer@I$09@?$output_processor@_WV?$string_output_adapter@_W@__crt_stdio_output@@V?$standard_base@_WV?$string_output_adapter@_W@__crt_stdio_output@@@2@@__crt_stdio_output@@AEAAXI_N@Z 00000001400a87e4 f i libucrt:output.obj
 0001:000a78d0       ??$type_case_integer_parse_into_buffer@I$0BA@@?$output_processor@DV?$stream_output_adapter@D@__crt_stdio_output@@V?$format_validation_base@DV?$stream_output_adapter@D@__crt_stdio_output@@@2@@__crt_stdio_output@@AEAAXI_N@Z 00000001400a88d0 f i libucrt:output.obj
 0001:000a7978       ??$type_case_integer_parse_into_buffer@I$0BA@@?$output_processor@DV?$stream_output_adapter@D@__crt_stdio_output@@V?$positional_parameter_base@DV?$stream_output_adapter@D@__crt_stdio_output@@@2@@__crt_stdio_output@@AEAAXI_N@Z 00000001400a8978 f i libucrt:output.obj
 0001:000a7a20       ??$type_case_integer_parse_into_buffer@I$0BA@@?$output_processor@DV?$stream_output_adapter@D@__crt_stdio_output@@V?$standard_base@DV?$stream_output_adapter@D@__crt_stdio_output@@@2@@__crt_stdio_output@@AEAAXI_N@Z 00000001400a8a20 f i libucrt:output.obj
 0001:000a7ac8       ??$type_case_integer_parse_into_buffer@I$0BA@@?$output_processor@DV?$string_output_adapter@D@__crt_stdio_output@@V?$format_validation_base@DV?$string_output_adapter@D@__crt_stdio_output@@@2@@__crt_stdio_output@@AEAAXI_N@Z 00000001400a8ac8 f i libucrt:output.obj
 0001:000a7b70       ??$type_case_integer_parse_into_buffer@I$0BA@@?$output_processor@DV?$string_output_adapter@D@__crt_stdio_output@@V?$positional_parameter_base@DV?$string_output_adapter@D@__crt_stdio_output@@@2@@__crt_stdio_output@@AEAAXI_N@Z 00000001400a8b70 f i libucrt:output.obj
 0001:000a7c18       ??$type_case_integer_parse_into_buffer@I$0BA@@?$output_processor@DV?$string_output_adapter@D@__crt_stdio_output@@V?$standard_base@DV?$string_output_adapter@D@__crt_stdio_output@@@2@@__crt_stdio_output@@AEAAXI_N@Z 00000001400a8c18 f i libucrt:output.obj
 0001:000a7cc0       ??$type_case_integer_parse_into_buffer@I$0BA@@?$output_processor@_WV?$stream_output_adapter@_W@__crt_stdio_output@@V?$format_validation_base@_WV?$stream_output_adapter@_W@__crt_stdio_output@@@2@@__crt_stdio_output@@AEAAXI_N@Z 00000001400a8cc0 f i libucrt:output.obj
 0001:000a7d88       ??$type_case_integer_parse_into_buffer@I$0BA@@?$output_processor@_WV?$stream_output_adapter@_W@__crt_stdio_output@@V?$positional_parameter_base@_WV?$stream_output_adapter@_W@__crt_stdio_output@@@2@@__crt_stdio_output@@AEAAXI_N@Z 00000001400a8d88 f i libucrt:output.obj
 0001:000a7e50       ??$type_case_integer_parse_into_buffer@I$0BA@@?$output_processor@_WV?$stream_output_adapter@_W@__crt_stdio_output@@V?$standard_base@_WV?$stream_output_adapter@_W@__crt_stdio_output@@@2@@__crt_stdio_output@@AEAAXI_N@Z 00000001400a8e50 f i libucrt:output.obj
 0001:000a7f18       ??$type_case_integer_parse_into_buffer@I$0BA@@?$output_processor@_WV?$string_output_adapter@_W@__crt_stdio_output@@V?$format_validation_base@_WV?$string_output_adapter@_W@__crt_stdio_output@@@2@@__crt_stdio_output@@AEAAXI_N@Z 00000001400a8f18 f i libucrt:output.obj
 0001:000a7fe0       ??$type_case_integer_parse_into_buffer@I$0BA@@?$output_processor@_WV?$string_output_adapter@_W@__crt_stdio_output@@V?$positional_parameter_base@_WV?$string_output_adapter@_W@__crt_stdio_output@@@2@@__crt_stdio_output@@AEAAXI_N@Z 00000001400a8fe0 f i libucrt:output.obj
 0001:000a80a8       ??$type_case_integer_parse_into_buffer@I$0BA@@?$output_processor@_WV?$string_output_adapter@_W@__crt_stdio_output@@V?$standard_base@_WV?$string_output_adapter@_W@__crt_stdio_output@@@2@@__crt_stdio_output@@AEAAXI_N@Z 00000001400a90a8 f i libucrt:output.obj
 0001:000a8170       ??$type_case_integer_parse_into_buffer@_K$07@?$output_processor@DV?$stream_output_adapter@D@__crt_stdio_output@@V?$format_validation_base@DV?$stream_output_adapter@D@__crt_stdio_output@@@2@@__crt_stdio_output@@AEAAX_K_N@Z 00000001400a9170 f i libucrt:output.obj
 0001:000a81f8       ??$type_case_integer_parse_into_buffer@_K$07@?$output_processor@DV?$stream_output_adapter@D@__crt_stdio_output@@V?$positional_parameter_base@DV?$stream_output_adapter@D@__crt_stdio_output@@@2@@__crt_stdio_output@@AEAAX_K_N@Z 00000001400a91f8 f i libucrt:output.obj
 0001:000a8280       ??$type_case_integer_parse_into_buffer@_K$07@?$output_processor@DV?$stream_output_adapter@D@__crt_stdio_output@@V?$standard_base@DV?$stream_output_adapter@D@__crt_stdio_output@@@2@@__crt_stdio_output@@AEAAX_K_N@Z 00000001400a9280 f i libucrt:output.obj
 0001:000a8308       ??$type_case_integer_parse_into_buffer@_K$07@?$output_processor@DV?$string_output_adapter@D@__crt_stdio_output@@V?$format_validation_base@DV?$string_output_adapter@D@__crt_stdio_output@@@2@@__crt_stdio_output@@AEAAX_K_N@Z 00000001400a9308 f i libucrt:output.obj
 0001:000a8390       ??$type_case_integer_parse_into_buffer@_K$07@?$output_processor@DV?$string_output_adapter@D@__crt_stdio_output@@V?$positional_parameter_base@DV?$string_output_adapter@D@__crt_stdio_output@@@2@@__crt_stdio_output@@AEAAX_K_N@Z 00000001400a9390 f i libucrt:output.obj
 0001:000a8418       ??$type_case_integer_parse_into_buffer@_K$07@?$output_processor@DV?$string_output_adapter@D@__crt_stdio_output@@V?$standard_base@DV?$string_output_adapter@D@__crt_stdio_output@@@2@@__crt_stdio_output@@AEAAX_K_N@Z 00000001400a9418 f i libucrt:output.obj
 0001:000a84a0       ??$type_case_integer_parse_into_buffer@_K$07@?$output_processor@_WV?$stream_output_adapter@_W@__crt_stdio_output@@V?$format_validation_base@_WV?$stream_output_adapter@_W@__crt_stdio_output@@@2@@__crt_stdio_output@@AEAAX_K_N@Z 00000001400a94a0 f i libucrt:output.obj
 0001:000a8548       ??$type_case_integer_parse_into_buffer@_K$07@?$output_processor@_WV?$stream_output_adapter@_W@__crt_stdio_output@@V?$positional_parameter_base@_WV?$stream_output_adapter@_W@__crt_stdio_output@@@2@@__crt_stdio_output@@AEAAX_K_N@Z 00000001400a9548 f i libucrt:output.obj
 0001:000a85f0       ??$type_case_integer_parse_into_buffer@_K$07@?$output_processor@_WV?$stream_output_adapter@_W@__crt_stdio_output@@V?$standard_base@_WV?$stream_output_adapter@_W@__crt_stdio_output@@@2@@__crt_stdio_output@@AEAAX_K_N@Z 00000001400a95f0 f i libucrt:output.obj
 0001:000a8698       ??$type_case_integer_parse_into_buffer@_K$07@?$output_processor@_WV?$string_output_adapter@_W@__crt_stdio_output@@V?$format_validation_base@_WV?$string_output_adapter@_W@__crt_stdio_output@@@2@@__crt_stdio_output@@AEAAX_K_N@Z 00000001400a9698 f i libucrt:output.obj
 0001:000a8740       ??$type_case_integer_parse_into_buffer@_K$07@?$output_processor@_WV?$string_output_adapter@_W@__crt_stdio_output@@V?$positional_parameter_base@_WV?$string_output_adapter@_W@__crt_stdio_output@@@2@@__crt_stdio_output@@AEAAX_K_N@Z 00000001400a9740 f i libucrt:output.obj
 0001:000a87e8       ??$type_case_integer_parse_into_buffer@_K$07@?$output_processor@_WV?$string_output_adapter@_W@__crt_stdio_output@@V?$standard_base@_WV?$string_output_adapter@_W@__crt_stdio_output@@@2@@__crt_stdio_output@@AEAAX_K_N@Z 00000001400a97e8 f i libucrt:output.obj
 0001:000a8890       ??$type_case_integer_parse_into_buffer@_K$09@?$output_processor@DV?$stream_output_adapter@D@__crt_stdio_output@@V?$format_validation_base@DV?$stream_output_adapter@D@__crt_stdio_output@@@2@@__crt_stdio_output@@AEAAX_K_N@Z 00000001400a9890 f i libucrt:output.obj
 0001:000a896c       ??$type_case_integer_parse_into_buffer@_K$09@?$output_processor@DV?$stream_output_adapter@D@__crt_stdio_output@@V?$positional_parameter_base@DV?$stream_output_adapter@D@__crt_stdio_output@@@2@@__crt_stdio_output@@AEAAX_K_N@Z 00000001400a996c f i libucrt:output.obj
 0001:000a8a48       ??$type_case_integer_parse_into_buffer@_K$09@?$output_processor@DV?$stream_output_adapter@D@__crt_stdio_output@@V?$standard_base@DV?$stream_output_adapter@D@__crt_stdio_output@@@2@@__crt_stdio_output@@AEAAX_K_N@Z 00000001400a9a48 f i libucrt:output.obj
 0001:000a8b24       ??$type_case_integer_parse_into_buffer@_K$09@?$output_processor@DV?$string_output_adapter@D@__crt_stdio_output@@V?$format_validation_base@DV?$string_output_adapter@D@__crt_stdio_output@@@2@@__crt_stdio_output@@AEAAX_K_N@Z 00000001400a9b24 f i libucrt:output.obj
 0001:000a8c00       ??$type_case_integer_parse_into_buffer@_K$09@?$output_processor@DV?$string_output_adapter@D@__crt_stdio_output@@V?$positional_parameter_base@DV?$string_output_adapter@D@__crt_stdio_output@@@2@@__crt_stdio_output@@AEAAX_K_N@Z 00000001400a9c00 f i libucrt:output.obj
 0001:000a8cdc       ??$type_case_integer_parse_into_buffer@_K$09@?$output_processor@DV?$string_output_adapter@D@__crt_stdio_output@@V?$standard_base@DV?$string_output_adapter@D@__crt_stdio_output@@@2@@__crt_stdio_output@@AEAAX_K_N@Z 00000001400a9cdc f i libucrt:output.obj
 0001:000a8db8       ??$type_case_integer_parse_into_buffer@_K$09@?$output_processor@_WV?$stream_output_adapter@_W@__crt_stdio_output@@V?$format_validation_base@_WV?$stream_output_adapter@_W@__crt_stdio_output@@@2@@__crt_stdio_output@@AEAAX_K_N@Z 00000001400a9db8 f i libucrt:output.obj
 0001:000a8eac       ??$type_case_integer_parse_into_buffer@_K$09@?$output_processor@_WV?$stream_output_adapter@_W@__crt_stdio_output@@V?$positional_parameter_base@_WV?$stream_output_adapter@_W@__crt_stdio_output@@@2@@__crt_stdio_output@@AEAAX_K_N@Z 00000001400a9eac f i libucrt:output.obj
 0001:000a8fa0       ??$type_case_integer_parse_into_buffer@_K$09@?$output_processor@_WV?$stream_output_adapter@_W@__crt_stdio_output@@V?$standard_base@_WV?$stream_output_adapter@_W@__crt_stdio_output@@@2@@__crt_stdio_output@@AEAAX_K_N@Z 00000001400a9fa0 f i libucrt:output.obj
 0001:000a9094       ??$type_case_integer_parse_into_buffer@_K$09@?$output_processor@_WV?$string_output_adapter@_W@__crt_stdio_output@@V?$format_validation_base@_WV?$string_output_adapter@_W@__crt_stdio_output@@@2@@__crt_stdio_output@@AEAAX_K_N@Z 00000001400aa094 f i libucrt:output.obj
 0001:000a9188       ??$type_case_integer_parse_into_buffer@_K$09@?$output_processor@_WV?$string_output_adapter@_W@__crt_stdio_output@@V?$positional_parameter_base@_WV?$string_output_adapter@_W@__crt_stdio_output@@@2@@__crt_stdio_output@@AEAAX_K_N@Z 00000001400aa188 f i libucrt:output.obj
 0001:000a927c       ??$type_case_integer_parse_into_buffer@_K$09@?$output_processor@_WV?$string_output_adapter@_W@__crt_stdio_output@@V?$standard_base@_WV?$string_output_adapter@_W@__crt_stdio_output@@@2@@__crt_stdio_output@@AEAAX_K_N@Z 00000001400aa27c f i libucrt:output.obj
 0001:000a9370       ??$type_case_integer_parse_into_buffer@_K$0BA@@?$output_processor@DV?$stream_output_adapter@D@__crt_stdio_output@@V?$format_validation_base@DV?$stream_output_adapter@D@__crt_stdio_output@@@2@@__crt_stdio_output@@AEAAX_K_N@Z 00000001400aa370 f i libucrt:output.obj
 0001:000a9418       ??$type_case_integer_parse_into_buffer@_K$0BA@@?$output_processor@DV?$stream_output_adapter@D@__crt_stdio_output@@V?$positional_parameter_base@DV?$stream_output_adapter@D@__crt_stdio_output@@@2@@__crt_stdio_output@@AEAAX_K_N@Z 00000001400aa418 f i libucrt:output.obj
 0001:000a94c0       ??$type_case_integer_parse_into_buffer@_K$0BA@@?$output_processor@DV?$stream_output_adapter@D@__crt_stdio_output@@V?$standard_base@DV?$stream_output_adapter@D@__crt_stdio_output@@@2@@__crt_stdio_output@@AEAAX_K_N@Z 00000001400aa4c0 f i libucrt:output.obj
 0001:000a9568       ??$type_case_integer_parse_into_buffer@_K$0BA@@?$output_processor@DV?$string_output_adapter@D@__crt_stdio_output@@V?$format_validation_base@DV?$string_output_adapter@D@__crt_stdio_output@@@2@@__crt_stdio_output@@AEAAX_K_N@Z 00000001400aa568 f i libucrt:output.obj
 0001:000a9610       ??$type_case_integer_parse_into_buffer@_K$0BA@@?$output_processor@DV?$string_output_adapter@D@__crt_stdio_output@@V?$positional_parameter_base@DV?$string_output_adapter@D@__crt_stdio_output@@@2@@__crt_stdio_output@@AEAAX_K_N@Z 00000001400aa610 f i libucrt:output.obj
 0001:000a96b8       ??$type_case_integer_parse_into_buffer@_K$0BA@@?$output_processor@DV?$string_output_adapter@D@__crt_stdio_output@@V?$standard_base@DV?$string_output_adapter@D@__crt_stdio_output@@@2@@__crt_stdio_output@@AEAAX_K_N@Z 00000001400aa6b8 f i libucrt:output.obj
 0001:000a9760       ??$type_case_integer_parse_into_buffer@_K$0BA@@?$output_processor@_WV?$stream_output_adapter@_W@__crt_stdio_output@@V?$format_validation_base@_WV?$stream_output_adapter@_W@__crt_stdio_output@@@2@@__crt_stdio_output@@AEAAX_K_N@Z 00000001400aa760 f i libucrt:output.obj
 0001:000a9828       ??$type_case_integer_parse_into_buffer@_K$0BA@@?$output_processor@_WV?$stream_output_adapter@_W@__crt_stdio_output@@V?$positional_parameter_base@_WV?$stream_output_adapter@_W@__crt_stdio_output@@@2@@__crt_stdio_output@@AEAAX_K_N@Z 00000001400aa828 f i libucrt:output.obj
 0001:000a98f0       ??$type_case_integer_parse_into_buffer@_K$0BA@@?$output_processor@_WV?$stream_output_adapter@_W@__crt_stdio_output@@V?$standard_base@_WV?$stream_output_adapter@_W@__crt_stdio_output@@@2@@__crt_stdio_output@@AEAAX_K_N@Z 00000001400aa8f0 f i libucrt:output.obj
 0001:000a99b8       ??$type_case_integer_parse_into_buffer@_K$0BA@@?$output_processor@_WV?$string_output_adapter@_W@__crt_stdio_output@@V?$format_validation_base@_WV?$string_output_adapter@_W@__crt_stdio_output@@@2@@__crt_stdio_output@@AEAAX_K_N@Z 00000001400aa9b8 f i libucrt:output.obj
 0001:000a9a80       ??$type_case_integer_parse_into_buffer@_K$0BA@@?$output_processor@_WV?$string_output_adapter@_W@__crt_stdio_output@@V?$positional_parameter_base@_WV?$string_output_adapter@_W@__crt_stdio_output@@@2@@__crt_stdio_output@@AEAAX_K_N@Z 00000001400aaa80 f i libucrt:output.obj
 0001:000a9b48       ??$type_case_integer_parse_into_buffer@_K$0BA@@?$output_processor@_WV?$string_output_adapter@_W@__crt_stdio_output@@V?$standard_base@_WV?$string_output_adapter@_W@__crt_stdio_output@@@2@@__crt_stdio_output@@AEAAX_K_N@Z 00000001400aab48 f i libucrt:output.obj
 0001:000a9c10       ??$write_multiple_characters@V?$stream_output_adapter@D@__crt_stdio_output@@D@__crt_stdio_output@@YAXAEBV?$stream_output_adapter@D@0@DHQEAHAEAV__crt_cached_ptd_host@@@Z 00000001400aac10 f i libucrt:output.obj
 0001:000a9cc8       ??$write_multiple_characters@V?$stream_output_adapter@_W@__crt_stdio_output@@D@__crt_stdio_output@@YAXAEBV?$stream_output_adapter@_W@0@DHQEAHAEAV__crt_cached_ptd_host@@@Z 00000001400aacc8 f i libucrt:output.obj
 0001:000a9d84       ??$write_multiple_characters@V?$string_output_adapter@D@__crt_stdio_output@@D@__crt_stdio_output@@YAXAEBV?$string_output_adapter@D@0@DHQEAHAEAV__crt_cached_ptd_host@@@Z 00000001400aad84 f i libucrt:output.obj
 0001:000a9e18       ??$write_multiple_characters@V?$string_output_adapter@_W@__crt_stdio_output@@D@__crt_stdio_output@@YAXAEBV?$string_output_adapter@_W@0@DHQEAHAEAV__crt_cached_ptd_host@@@Z 00000001400aae18 f i libucrt:output.obj
 0001:000aa044       ??0?$common_data@D@__crt_stdio_output@@IEAA@AEAV__crt_cached_ptd_host@@@Z 00000001400ab044 f i libucrt:output.obj
 0001:000aa08c       ??0?$common_data@_W@__crt_stdio_output@@IEAA@AEAV__crt_cached_ptd_host@@@Z 00000001400ab08c f i libucrt:output.obj
 0001:000aa0d8       ??0?$output_adapter_data@DV?$stream_output_adapter@D@__crt_stdio_output@@@__crt_stdio_output@@IEAA@AEBV?$stream_output_adapter@D@1@_KQEBDAEAV__crt_cached_ptd_host@@QEAD@Z 00000001400ab0d8 f i libucrt:output.obj
 0001:000aa150       ??0?$output_adapter_data@DV?$string_output_adapter@D@__crt_stdio_output@@@__crt_stdio_output@@IEAA@AEBV?$string_output_adapter@D@1@_KQEBDAEAV__crt_cached_ptd_host@@QEAD@Z 00000001400ab150 f i libucrt:output.obj
 0001:000aa1c8       ??0?$output_adapter_data@_WV?$stream_output_adapter@_W@__crt_stdio_output@@@__crt_stdio_output@@IEAA@AEBV?$stream_output_adapter@_W@1@_KQEB_WAEAV__crt_cached_ptd_host@@QEAD@Z 00000001400ab1c8 f i libucrt:output.obj
 0001:000aa248       ??0?$output_adapter_data@_WV?$string_output_adapter@_W@__crt_stdio_output@@@__crt_stdio_output@@IEAA@AEBV?$string_output_adapter@_W@1@_KQEB_WAEAV__crt_cached_ptd_host@@QEAD@Z 00000001400ab248 f i libucrt:output.obj
 0001:000aa2c8       ??0?$output_processor@DV?$stream_output_adapter@D@__crt_stdio_output@@V?$format_validation_base@DV?$stream_output_adapter@D@__crt_stdio_output@@@2@@__crt_stdio_output@@QEAA@AEBV?$stream_output_adapter@D@1@_KQEBDAEAV__crt_cached_ptd_host@@QEAD@Z 00000001400ab2c8 f i libucrt:output.obj
 0001:000aa348       ??0?$output_processor@DV?$stream_output_adapter@D@__crt_stdio_output@@V?$positional_parameter_base@DV?$stream_output_adapter@D@__crt_stdio_output@@@2@@__crt_stdio_output@@QEAA@AEBV?$stream_output_adapter@D@1@_KQEBDAEAV__crt_cached_ptd_host@@QEAD@Z 00000001400ab348 f i libucrt:output.obj
 0001:000aa3f0       ??0?$output_processor@DV?$stream_output_adapter@D@__crt_stdio_output@@V?$standard_base@DV?$stream_output_adapter@D@__crt_stdio_output@@@2@@__crt_stdio_output@@QEAA@AEBV?$stream_output_adapter@D@1@_KQEBDAEAV__crt_cached_ptd_host@@QEAD@Z 00000001400ab3f0 f i libucrt:output.obj
 0001:000aa470       ??0?$output_processor@DV?$string_output_adapter@D@__crt_stdio_output@@V?$format_validation_base@DV?$string_output_adapter@D@__crt_stdio_output@@@2@@__crt_stdio_output@@QEAA@AEBV?$string_output_adapter@D@1@_KQEBDAEAV__crt_cached_ptd_host@@QEAD@Z 00000001400ab470 f i libucrt:output.obj
 0001:000aa4f0       ??0?$output_processor@DV?$string_output_adapter@D@__crt_stdio_output@@V?$positional_parameter_base@DV?$string_output_adapter@D@__crt_stdio_output@@@2@@__crt_stdio_output@@QEAA@AEBV?$string_output_adapter@D@1@_KQEBDAEAV__crt_cached_ptd_host@@QEAD@Z 00000001400ab4f0 f i libucrt:output.obj
 0001:000aa598       ??0?$output_processor@DV?$string_output_adapter@D@__crt_stdio_output@@V?$standard_base@DV?$string_output_adapter@D@__crt_stdio_output@@@2@@__crt_stdio_output@@QEAA@AEBV?$string_output_adapter@D@1@_KQEBDAEAV__crt_cached_ptd_host@@QEAD@Z 00000001400ab598 f i libucrt:output.obj
 0001:000aa618       ??0?$output_processor@_WV?$stream_output_adapter@_W@__crt_stdio_output@@V?$format_validation_base@_WV?$stream_output_adapter@_W@__crt_stdio_output@@@2@@__crt_stdio_output@@QEAA@AEBV?$stream_output_adapter@_W@1@_KQEB_WAEAV__crt_cached_ptd_host@@QEAD@Z 00000001400ab618 f i libucrt:output.obj
 0001:000aa6a0       ??0?$output_processor@_WV?$stream_output_adapter@_W@__crt_stdio_output@@V?$positional_parameter_base@_WV?$stream_output_adapter@_W@__crt_stdio_output@@@2@@__crt_stdio_output@@QEAA@AEBV?$stream_output_adapter@_W@1@_KQEB_WAEAV__crt_cached_ptd_host@@QEAD@Z 00000001400ab6a0 f i libucrt:output.obj
 0001:000aa74c       ??0?$output_processor@_WV?$stream_output_adapter@_W@__crt_stdio_output@@V?$standard_base@_WV?$stream_output_adapter@_W@__crt_stdio_output@@@2@@__crt_stdio_output@@QEAA@AEBV?$stream_output_adapter@_W@1@_KQEB_WAEAV__crt_cached_ptd_host@@QEAD@Z 00000001400ab74c f i libucrt:output.obj
 0001:000aa7d4       ??0?$output_processor@_WV?$string_output_adapter@_W@__crt_stdio_output@@V?$format_validation_base@_WV?$string_output_adapter@_W@__crt_stdio_output@@@2@@__crt_stdio_output@@QEAA@AEBV?$string_output_adapter@_W@1@_KQEB_WAEAV__crt_cached_ptd_host@@QEAD@Z 00000001400ab7d4 f i libucrt:output.obj
 0001:000aa85c       ??0?$output_processor@_WV?$string_output_adapter@_W@__crt_stdio_output@@V?$positional_parameter_base@_WV?$string_output_adapter@_W@__crt_stdio_output@@@2@@__crt_stdio_output@@QEAA@AEBV?$string_output_adapter@_W@1@_KQEB_WAEAV__crt_cached_ptd_host@@QEAD@Z 00000001400ab85c f i libucrt:output.obj
 0001:000aa908       ??0?$output_processor@_WV?$string_output_adapter@_W@__crt_stdio_output@@V?$standard_base@_WV?$string_output_adapter@_W@__crt_stdio_output@@@2@@__crt_stdio_output@@QEAA@AEBV?$string_output_adapter@_W@1@_KQEB_WAEAV__crt_cached_ptd_host@@QEAD@Z 00000001400ab908 f i libucrt:output.obj
 0001:000aa990       ??0?$stream_output_adapter@D@__crt_stdio_output@@QEAA@QEAU_iobuf@@@Z 00000001400ab990 f i libucrt:output.obj
 0001:000aa998       ??0?$stream_output_adapter@_W@__crt_stdio_output@@QEAA@QEAU_iobuf@@@Z 00000001400ab998 f i libucrt:output.obj
 0001:000aa9a0       ??0?$string_output_adapter@D@__crt_stdio_output@@QEAA@QEAU?$string_output_adapter_context@D@1@@Z 00000001400ab9a0 f i libucrt:output.obj
 0001:000aa9a8       ??0?$string_output_adapter@_W@__crt_stdio_output@@QEAA@QEAU?$string_output_adapter_context@_W@1@@Z 00000001400ab9a8 f i libucrt:output.obj
 0001:000aa9b0       ??0__acrt_stdio_temporary_buffering_guard@@QEAA@QEAU_iobuf@@AEAV__crt_cached_ptd_host@@@Z 00000001400ab9b0 f i libucrt:output.obj
 0001:000aa9e0       ??0formatting_buffer@__crt_stdio_output@@QEAA@XZ 00000001400ab9e0 f i libucrt:output.obj
 0001:000aa9fc       ??0guard@?$cached@H@__crt_cached_ptd_host@@QEAA@AEAU12@@Z 00000001400ab9fc f i libucrt:output.obj
 0001:000aaa14       ??1?$common_data@D@__crt_stdio_output@@QEAA@XZ 00000001400aba14 f i libucrt:output.obj
 0001:000aaa40       ??1?$common_data@_W@__crt_stdio_output@@QEAA@XZ 00000001400aba40 f i libucrt:output.obj
 0001:000aaa6c       ??1?$format_validation_base@DV?$stream_output_adapter@D@__crt_stdio_output@@@__crt_stdio_output@@QEAA@XZ 00000001400aba6c f i libucrt:output.obj
 0001:000aaa98       ??1?$format_validation_base@DV?$string_output_adapter@D@__crt_stdio_output@@@__crt_stdio_output@@QEAA@XZ 00000001400aba98 f i libucrt:output.obj
 0001:000aaac4       ??1?$format_validation_base@_WV?$stream_output_adapter@_W@__crt_stdio_output@@@__crt_stdio_output@@QEAA@XZ 00000001400abac4 f i libucrt:output.obj
 0001:000aaaf0       ??1?$format_validation_base@_WV?$string_output_adapter@_W@__crt_stdio_output@@@__crt_stdio_output@@QEAA@XZ 00000001400abaf0 f i libucrt:output.obj
 0001:000aab1c       ??1?$output_adapter_data@DV?$stream_output_adapter@D@__crt_stdio_output@@@__crt_stdio_output@@QEAA@XZ 00000001400abb1c f i libucrt:output.obj
 0001:000aab48       ??1?$output_adapter_data@DV?$string_output_adapter@D@__crt_stdio_output@@@__crt_stdio_output@@QEAA@XZ 00000001400abb48 f i libucrt:output.obj
 0001:000aab74       ??1?$output_adapter_data@_WV?$stream_output_adapter@_W@__crt_stdio_output@@@__crt_stdio_output@@QEAA@XZ 00000001400abb74 f i libucrt:output.obj
 0001:000aaba0       ??1?$output_adapter_data@_WV?$string_output_adapter@_W@__crt_stdio_output@@@__crt_stdio_output@@QEAA@XZ 00000001400abba0 f i libucrt:output.obj
 0001:000aabcc       ??1?$output_processor@DV?$stream_output_adapter@D@__crt_stdio_output@@V?$format_validation_base@DV?$stream_output_adapter@D@__crt_stdio_output@@@2@@__crt_stdio_output@@QEAA@XZ 00000001400abbcc f i libucrt:output.obj
 0001:000aabf8       ??1?$output_processor@DV?$stream_output_adapter@D@__crt_stdio_output@@V?$positional_parameter_base@DV?$stream_output_adapter@D@__crt_stdio_output@@@2@@__crt_stdio_output@@QEAA@XZ 00000001400abbf8 f i libucrt:output.obj
 0001:000aac24       ??1?$output_processor@DV?$stream_output_adapter@D@__crt_stdio_output@@V?$standard_base@DV?$stream_output_adapter@D@__crt_stdio_output@@@2@@__crt_stdio_output@@QEAA@XZ 00000001400abc24 f i libucrt:output.obj
 0001:000aac50       ??1?$output_processor@DV?$string_output_adapter@D@__crt_stdio_output@@V?$format_validation_base@DV?$string_output_adapter@D@__crt_stdio_output@@@2@@__crt_stdio_output@@QEAA@XZ 00000001400abc50 f i libucrt:output.obj
 0001:000aac7c       ??1?$output_processor@DV?$string_output_adapter@D@__crt_stdio_output@@V?$positional_parameter_base@DV?$string_output_adapter@D@__crt_stdio_output@@@2@@__crt_stdio_output@@QEAA@XZ 00000001400abc7c f i libucrt:output.obj
 0001:000aaca8       ??1?$output_processor@DV?$string_output_adapter@D@__crt_stdio_output@@V?$standard_base@DV?$string_output_adapter@D@__crt_stdio_output@@@2@@__crt_stdio_output@@QEAA@XZ 00000001400abca8 f i libucrt:output.obj
 0001:000aacd4       ??1?$output_processor@_WV?$stream_output_adapter@_W@__crt_stdio_output@@V?$format_validation_base@_WV?$stream_output_adapter@_W@__crt_stdio_output@@@2@@__crt_stdio_output@@QEAA@XZ 00000001400abcd4 f i libucrt:output.obj
 0001:000aad00       ??1?$output_processor@_WV?$stream_output_adapter@_W@__crt_stdio_output@@V?$positional_parameter_base@_WV?$stream_output_adapter@_W@__crt_stdio_output@@@2@@__crt_stdio_output@@QEAA@XZ 00000001400abd00 f i libucrt:output.obj
 0001:000aad2c       ??1?$output_processor@_WV?$stream_output_adapter@_W@__crt_stdio_output@@V?$standard_base@_WV?$stream_output_adapter@_W@__crt_stdio_output@@@2@@__crt_stdio_output@@QEAA@XZ 00000001400abd2c f i libucrt:output.obj
 0001:000aad58       ??1?$output_processor@_WV?$string_output_adapter@_W@__crt_stdio_output@@V?$format_validation_base@_WV?$string_output_adapter@_W@__crt_stdio_output@@@2@@__crt_stdio_output@@QEAA@XZ 00000001400abd58 f i libucrt:output.obj
 0001:000aad84       ??1?$output_processor@_WV?$string_output_adapter@_W@__crt_stdio_output@@V?$positional_parameter_base@_WV?$string_output_adapter@_W@__crt_stdio_output@@@2@@__crt_stdio_output@@QEAA@XZ 00000001400abd84 f i libucrt:output.obj
 0001:000aadb0       ??1?$output_processor@_WV?$string_output_adapter@_W@__crt_stdio_output@@V?$standard_base@_WV?$string_output_adapter@_W@__crt_stdio_output@@@2@@__crt_stdio_output@@QEAA@XZ 00000001400abdb0 f i libucrt:output.obj
 0001:000aaddc       ??1?$positional_parameter_base@DV?$stream_output_adapter@D@__crt_stdio_output@@@__crt_stdio_output@@QEAA@XZ 00000001400abddc f i libucrt:output.obj
 0001:000aae08       ??1?$positional_parameter_base@DV?$string_output_adapter@D@__crt_stdio_output@@@__crt_stdio_output@@QEAA@XZ 00000001400abe08 f i libucrt:output.obj
 0001:000aae34       ??1?$positional_parameter_base@_WV?$stream_output_adapter@_W@__crt_stdio_output@@@__crt_stdio_output@@QEAA@XZ 00000001400abe34 f i libucrt:output.obj
 0001:000aae60       ??1?$positional_parameter_base@_WV?$string_output_adapter@_W@__crt_stdio_output@@@__crt_stdio_output@@QEAA@XZ 00000001400abe60 f i libucrt:output.obj
 0001:000aae8c       ??1?$standard_base@DV?$stream_output_adapter@D@__crt_stdio_output@@@__crt_stdio_output@@QEAA@XZ 00000001400abe8c f i libucrt:output.obj
 0001:000aaeb8       ??1?$standard_base@DV?$string_output_adapter@D@__crt_stdio_output@@@__crt_stdio_output@@QEAA@XZ 00000001400abeb8 f i libucrt:output.obj
 0001:000aaee4       ??1?$standard_base@_WV?$stream_output_adapter@_W@__crt_stdio_output@@@__crt_stdio_output@@QEAA@XZ 00000001400abee4 f i libucrt:output.obj
 0001:000aaf10       ??1?$standard_base@_WV?$string_output_adapter@_W@__crt_stdio_output@@@__crt_stdio_output@@QEAA@XZ 00000001400abf10 f i libucrt:output.obj
 0001:000aaf3c       ??1__acrt_stdio_temporary_buffering_guard@@QEAA@XZ 00000001400abf3c f i libucrt:output.obj
 0001:000aaf50       ??1formatting_buffer@__crt_stdio_output@@QEAA@XZ 00000001400abf50 f i libucrt:output.obj
 0001:000aaf7c       ??1guard@?$cached@H@__crt_cached_ptd_host@@QEAA@XZ 00000001400abf7c f i libucrt:output.obj
 0001:000aaf94       ??4?$__crt_unique_heap_ptr@DU__crt_internal_free_policy@@@@QEAAAEAV0@$$QEAV0@@Z 00000001400abf94 f i libucrt:output.obj
 0001:000aafd8       ??A?$spectre_mitigated_lookup_table@Ustate_transition_pair@__crt_stdio_output@@$0IA@@__crt_stdio_output@@QEBAAEBUstate_transition_pair@1@_K@Z 00000001400abfd8 f i libucrt:output.obj
 0001:000ab914       ?__crt_interlocked_read_32@@YAHPEDH@Z 00000001400ac914 f i libucrt:output.obj
 0001:000ab918       ?adjust_hexit@?$output_processor@DV?$stream_output_adapter@D@__crt_stdio_output@@V?$format_validation_base@DV?$stream_output_adapter@D@__crt_stdio_output@@@2@@__crt_stdio_output@@CADH_N@Z 00000001400ac918 f i libucrt:output.obj
 0001:000ab928       ?adjust_hexit@?$output_processor@DV?$stream_output_adapter@D@__crt_stdio_output@@V?$positional_parameter_base@DV?$stream_output_adapter@D@__crt_stdio_output@@@2@@__crt_stdio_output@@CADH_N@Z 00000001400ac928 f i libucrt:output.obj
 0001:000ab938       ?adjust_hexit@?$output_processor@DV?$stream_output_adapter@D@__crt_stdio_output@@V?$standard_base@DV?$stream_output_adapter@D@__crt_stdio_output@@@2@@__crt_stdio_output@@CADH_N@Z 00000001400ac938 f i libucrt:output.obj
 0001:000ab948       ?adjust_hexit@?$output_processor@DV?$string_output_adapter@D@__crt_stdio_output@@V?$format_validation_base@DV?$string_output_adapter@D@__crt_stdio_output@@@2@@__crt_stdio_output@@CADH_N@Z 00000001400ac948 f i libucrt:output.obj
 0001:000ab958       ?adjust_hexit@?$output_processor@DV?$string_output_adapter@D@__crt_stdio_output@@V?$positional_parameter_base@DV?$string_output_adapter@D@__crt_stdio_output@@@2@@__crt_stdio_output@@CADH_N@Z 00000001400ac958 f i libucrt:output.obj
 0001:000ab968       ?adjust_hexit@?$output_processor@DV?$string_output_adapter@D@__crt_stdio_output@@V?$standard_base@DV?$string_output_adapter@D@__crt_stdio_output@@@2@@__crt_stdio_output@@CADH_N@Z 00000001400ac968 f i libucrt:output.obj
 0001:000ab978       ?adjust_hexit@?$output_processor@_WV?$stream_output_adapter@_W@__crt_stdio_output@@V?$format_validation_base@_WV?$stream_output_adapter@_W@__crt_stdio_output@@@2@@__crt_stdio_output@@CADH_N@Z 00000001400ac978 f i libucrt:output.obj
 0001:000ab988       ?adjust_hexit@?$output_processor@_WV?$stream_output_adapter@_W@__crt_stdio_output@@V?$positional_parameter_base@_WV?$stream_output_adapter@_W@__crt_stdio_output@@@2@@__crt_stdio_output@@CADH_N@Z 00000001400ac988 f i libucrt:output.obj
 0001:000ab998       ?adjust_hexit@?$output_processor@_WV?$stream_output_adapter@_W@__crt_stdio_output@@V?$standard_base@_WV?$stream_output_adapter@_W@__crt_stdio_output@@@2@@__crt_stdio_output@@CADH_N@Z 00000001400ac998 f i libucrt:output.obj
 0001:000ab9a8       ?adjust_hexit@?$output_processor@_WV?$string_output_adapter@_W@__crt_stdio_output@@V?$format_validation_base@_WV?$string_output_adapter@_W@__crt_stdio_output@@@2@@__crt_stdio_output@@CADH_N@Z 00000001400ac9a8 f i libucrt:output.obj
 0001:000ab9b8       ?adjust_hexit@?$output_processor@_WV?$string_output_adapter@_W@__crt_stdio_output@@V?$positional_parameter_base@_WV?$string_output_adapter@_W@__crt_stdio_output@@@2@@__crt_stdio_output@@CADH_N@Z 00000001400ac9b8 f i libucrt:output.obj
 0001:000ab9c8       ?adjust_hexit@?$output_processor@_WV?$string_output_adapter@_W@__crt_stdio_output@@V?$standard_base@_WV?$string_output_adapter@_W@__crt_stdio_output@@@2@@__crt_stdio_output@@CADH_N@Z 00000001400ac9c8 f i libucrt:output.obj
 0001:000ab9d8       ?advance_to_next_pass@?$positional_parameter_base@DV?$stream_output_adapter@D@__crt_stdio_output@@@__crt_stdio_output@@IEAA_NXZ 00000001400ac9d8 f i libucrt:output.obj
 0001:000aba40       ?advance_to_next_pass@?$positional_parameter_base@DV?$string_output_adapter@D@__crt_stdio_output@@@__crt_stdio_output@@IEAA_NXZ 00000001400aca40 f i libucrt:output.obj
 0001:000abaa8       ?advance_to_next_pass@?$positional_parameter_base@_WV?$stream_output_adapter@_W@__crt_stdio_output@@@__crt_stdio_output@@IEAA_NXZ 00000001400acaa8 f i libucrt:output.obj
 0001:000abb10       ?advance_to_next_pass@?$positional_parameter_base@_WV?$string_output_adapter@_W@__crt_stdio_output@@@__crt_stdio_output@@IEAA_NXZ 00000001400acb10 f i libucrt:output.obj
 0001:000abb78       ?advance_to_next_pass@?$standard_base@DV?$stream_output_adapter@D@__crt_stdio_output@@@__crt_stdio_output@@IEAA_NXZ 00000001400acb78 f i libucrt:output.obj
 0001:000abb90       ?advance_to_next_pass@?$standard_base@DV?$string_output_adapter@D@__crt_stdio_output@@@__crt_stdio_output@@IEAA_NXZ 00000001400acb90 f i libucrt:output.obj
 0001:000abba8       ?advance_to_next_pass@?$standard_base@_WV?$stream_output_adapter@_W@__crt_stdio_output@@@__crt_stdio_output@@IEAA_NXZ 00000001400acba8 f i libucrt:output.obj
 0001:000abbc0       ?advance_to_next_pass@?$standard_base@_WV?$string_output_adapter@_W@__crt_stdio_output@@@__crt_stdio_output@@IEAA_NXZ 00000001400acbc0 f i libucrt:output.obj
 0001:000abbd8       ?check@?$cached@H@__crt_cached_ptd_host@@QEBA_NH@Z 00000001400acbd8 f i libucrt:output.obj
 0001:000abbec       ?create_guard@?$cached@H@__crt_cached_ptd_host@@QEAA?AVguard@12@XZ 00000001400acbec f i libucrt:output.obj
 0001:000abc04       ?crop_zeroes@__crt_stdio_output@@YAXPEADQEAU__crt_locale_pointers@@@Z 00000001400acc04 f i libucrt:output.obj
 0001:000abc88       ?disable@guard@?$cached@H@__crt_cached_ptd_host@@QEAAXXZ 00000001400acc88 f i libucrt:output.obj
 0001:000abc90       ?enable@guard@?$cached@H@__crt_cached_ptd_host@@QEAAXXZ 00000001400acc90 f i libucrt:output.obj
 0001:000abc98       ?find_next_state@?$output_processor@DV?$stream_output_adapter@D@__crt_stdio_output@@V?$format_validation_base@DV?$stream_output_adapter@D@__crt_stdio_output@@@2@@__crt_stdio_output@@AEBA?AW4state@2@DW432@@Z 00000001400acc98 f i libucrt:output.obj
 0001:000abcdc       ?find_next_state@?$output_processor@DV?$stream_output_adapter@D@__crt_stdio_output@@V?$positional_parameter_base@DV?$stream_output_adapter@D@__crt_stdio_output@@@2@@__crt_stdio_output@@AEBA?AW4state@2@DW432@@Z 00000001400accdc f i libucrt:output.obj
 0001:000abd20       ?find_next_state@?$output_processor@DV?$stream_output_adapter@D@__crt_stdio_output@@V?$standard_base@DV?$stream_output_adapter@D@__crt_stdio_output@@@2@@__crt_stdio_output@@AEBA?AW4state@2@DW432@@Z 00000001400acd20 f i libucrt:output.obj
 0001:000abd64       ?find_next_state@?$output_processor@DV?$string_output_adapter@D@__crt_stdio_output@@V?$format_validation_base@DV?$string_output_adapter@D@__crt_stdio_output@@@2@@__crt_stdio_output@@AEBA?AW4state@2@DW432@@Z 00000001400acd64 f i libucrt:output.obj
 0001:000abda8       ?find_next_state@?$output_processor@DV?$string_output_adapter@D@__crt_stdio_output@@V?$positional_parameter_base@DV?$string_output_adapter@D@__crt_stdio_output@@@2@@__crt_stdio_output@@AEBA?AW4state@2@DW432@@Z 00000001400acda8 f i libucrt:output.obj
 0001:000abdec       ?find_next_state@?$output_processor@DV?$string_output_adapter@D@__crt_stdio_output@@V?$standard_base@DV?$string_output_adapter@D@__crt_stdio_output@@@2@@__crt_stdio_output@@AEBA?AW4state@2@DW432@@Z 00000001400acdec f i libucrt:output.obj
 0001:000abe30       ?find_next_state@?$output_processor@_WV?$stream_output_adapter@_W@__crt_stdio_output@@V?$format_validation_base@_WV?$stream_output_adapter@_W@__crt_stdio_output@@@2@@__crt_stdio_output@@AEBA?AW4state@2@_WW432@@Z 00000001400ace30 f i libucrt:output.obj
 0001:000abe80       ?find_next_state@?$output_processor@_WV?$stream_output_adapter@_W@__crt_stdio_output@@V?$positional_parameter_base@_WV?$stream_output_adapter@_W@__crt_stdio_output@@@2@@__crt_stdio_output@@AEBA?AW4state@2@_WW432@@Z 00000001400ace80 f i libucrt:output.obj
 0001:000abed0       ?find_next_state@?$output_processor@_WV?$stream_output_adapter@_W@__crt_stdio_output@@V?$standard_base@_WV?$stream_output_adapter@_W@__crt_stdio_output@@@2@@__crt_stdio_output@@AEBA?AW4state@2@_WW432@@Z 00000001400aced0 f i libucrt:output.obj
 0001:000abf1c       ?find_next_state@?$output_processor@_WV?$string_output_adapter@_W@__crt_stdio_output@@V?$format_validation_base@_WV?$string_output_adapter@_W@__crt_stdio_output@@@2@@__crt_stdio_output@@AEBA?AW4state@2@_WW432@@Z 00000001400acf1c f i libucrt:output.obj
 0001:000abf6c       ?find_next_state@?$output_processor@_WV?$string_output_adapter@_W@__crt_stdio_output@@V?$positional_parameter_base@_WV?$string_output_adapter@_W@__crt_stdio_output@@@2@@__crt_stdio_output@@AEBA?AW4state@2@_WW432@@Z 00000001400acf6c f i libucrt:output.obj
 0001:000abfbc       ?find_next_state@?$output_processor@_WV?$string_output_adapter@_W@__crt_stdio_output@@V?$standard_base@_WV?$string_output_adapter@_W@__crt_stdio_output@@@2@@__crt_stdio_output@@AEBA?AW4state@2@_WW432@@Z 00000001400acfbc f i libucrt:output.obj
 0001:000ac008       ?force_decimal_point@__crt_stdio_output@@YAXPEADQEAU__crt_locale_pointers@@@Z 00000001400ad008 f i libucrt:output.obj
 0001:000ac080       ?get_flags@__crt_stdio_stream@@QEBAJXZ 00000001400ad080 f i libucrt:output.obj
 0001:000ac08c       ?get_parameter_type@?$positional_parameter_base@DV?$stream_output_adapter@D@__crt_stdio_output@@@__crt_stdio_output@@CA?AW4parameter_type@12@F@Z 00000001400ad08c f i libucrt:output.obj
 0001:000ac094       ?get_parameter_type@?$positional_parameter_base@DV?$stream_output_adapter@D@__crt_stdio_output@@@__crt_stdio_output@@CA?AW4parameter_type@12@G@Z 00000001400ad094 f i libucrt:output.obj
 0001:000ac09c       ?get_parameter_type@?$positional_parameter_base@DV?$stream_output_adapter@D@__crt_stdio_output@@@__crt_stdio_output@@CA?AW4parameter_type@12@H@Z 00000001400ad09c f i libucrt:output.obj
 0001:000ac0a4       ?get_parameter_type@?$positional_parameter_base@DV?$stream_output_adapter@D@__crt_stdio_output@@@__crt_stdio_output@@CA?AW4parameter_type@12@I@Z 00000001400ad0a4 f i libucrt:output.obj
 0001:000ac0ac       ?get_parameter_type@?$positional_parameter_base@DV?$stream_output_adapter@D@__crt_stdio_output@@@__crt_stdio_output@@CA?AW4parameter_type@12@U_CRT_DOUBLE@@@Z 00000001400ad0ac f i libucrt:output.obj
 0001:000ac0b4       ?get_parameter_type@?$positional_parameter_base@DV?$stream_output_adapter@D@__crt_stdio_output@@@__crt_stdio_output@@CA?AW4parameter_type@12@_J@Z 00000001400ad0b4 f i libucrt:output.obj
 0001:000ac0bc       ?get_parameter_type@?$positional_parameter_base@DV?$stream_output_adapter@D@__crt_stdio_output@@@__crt_stdio_output@@CA?AW4parameter_type@12@_K@Z 00000001400ad0bc f i libucrt:output.obj
 0001:000ac0c4       ?get_parameter_type@?$positional_parameter_base@DV?$stream_output_adapter@D@__crt_stdio_output@@@__crt_stdio_output@@CA?AW4parameter_type@12@_W@Z 00000001400ad0c4 f i libucrt:output.obj
 0001:000ac0cc       ?get_parameter_type@?$positional_parameter_base@DV?$string_output_adapter@D@__crt_stdio_output@@@__crt_stdio_output@@CA?AW4parameter_type@12@F@Z 00000001400ad0cc f i libucrt:output.obj
 0001:000ac0d4       ?get_parameter_type@?$positional_parameter_base@DV?$string_output_adapter@D@__crt_stdio_output@@@__crt_stdio_output@@CA?AW4parameter_type@12@G@Z 00000001400ad0d4 f i libucrt:output.obj
 0001:000ac0dc       ?get_parameter_type@?$positional_parameter_base@DV?$string_output_adapter@D@__crt_stdio_output@@@__crt_stdio_output@@CA?AW4parameter_type@12@H@Z 00000001400ad0dc f i libucrt:output.obj
 0001:000ac0e4       ?get_parameter_type@?$positional_parameter_base@DV?$string_output_adapter@D@__crt_stdio_output@@@__crt_stdio_output@@CA?AW4parameter_type@12@I@Z 00000001400ad0e4 f i libucrt:output.obj
 0001:000ac0ec       ?get_parameter_type@?$positional_parameter_base@DV?$string_output_adapter@D@__crt_stdio_output@@@__crt_stdio_output@@CA?AW4parameter_type@12@U_CRT_DOUBLE@@@Z 00000001400ad0ec f i libucrt:output.obj
 0001:000ac0f4       ?get_parameter_type@?$positional_parameter_base@DV?$string_output_adapter@D@__crt_stdio_output@@@__crt_stdio_output@@CA?AW4parameter_type@12@_J@Z 00000001400ad0f4 f i libucrt:output.obj
 0001:000ac0fc       ?get_parameter_type@?$positional_parameter_base@DV?$string_output_adapter@D@__crt_stdio_output@@@__crt_stdio_output@@CA?AW4parameter_type@12@_K@Z 00000001400ad0fc f i libucrt:output.obj
 0001:000ac104       ?get_parameter_type@?$positional_parameter_base@DV?$string_output_adapter@D@__crt_stdio_output@@@__crt_stdio_output@@CA?AW4parameter_type@12@_W@Z 00000001400ad104 f i libucrt:output.obj
 0001:000ac10c       ?get_parameter_type@?$positional_parameter_base@_WV?$stream_output_adapter@_W@__crt_stdio_output@@@__crt_stdio_output@@CA?AW4parameter_type@12@F@Z 00000001400ad10c f i libucrt:output.obj
 0001:000ac114       ?get_parameter_type@?$positional_parameter_base@_WV?$stream_output_adapter@_W@__crt_stdio_output@@@__crt_stdio_output@@CA?AW4parameter_type@12@G@Z 00000001400ad114 f i libucrt:output.obj
 0001:000ac11c       ?get_parameter_type@?$positional_parameter_base@_WV?$stream_output_adapter@_W@__crt_stdio_output@@@__crt_stdio_output@@CA?AW4parameter_type@12@H@Z 00000001400ad11c f i libucrt:output.obj
 0001:000ac124       ?get_parameter_type@?$positional_parameter_base@_WV?$stream_output_adapter@_W@__crt_stdio_output@@@__crt_stdio_output@@CA?AW4parameter_type@12@I@Z 00000001400ad124 f i libucrt:output.obj
 0001:000ac12c       ?get_parameter_type@?$positional_parameter_base@_WV?$stream_output_adapter@_W@__crt_stdio_output@@@__crt_stdio_output@@CA?AW4parameter_type@12@U_CRT_DOUBLE@@@Z 00000001400ad12c f i libucrt:output.obj
 0001:000ac134       ?get_parameter_type@?$positional_parameter_base@_WV?$stream_output_adapter@_W@__crt_stdio_output@@@__crt_stdio_output@@CA?AW4parameter_type@12@_J@Z 00000001400ad134 f i libucrt:output.obj
 0001:000ac13c       ?get_parameter_type@?$positional_parameter_base@_WV?$stream_output_adapter@_W@__crt_stdio_output@@@__crt_stdio_output@@CA?AW4parameter_type@12@_K@Z 00000001400ad13c f i libucrt:output.obj
 0001:000ac144       ?get_parameter_type@?$positional_parameter_base@_WV?$stream_output_adapter@_W@__crt_stdio_output@@@__crt_stdio_output@@CA?AW4parameter_type@12@_W@Z 00000001400ad144 f i libucrt:output.obj
 0001:000ac14c       ?get_parameter_type@?$positional_parameter_base@_WV?$string_output_adapter@_W@__crt_stdio_output@@@__crt_stdio_output@@CA?AW4parameter_type@12@F@Z 00000001400ad14c f i libucrt:output.obj
 0001:000ac154       ?get_parameter_type@?$positional_parameter_base@_WV?$string_output_adapter@_W@__crt_stdio_output@@@__crt_stdio_output@@CA?AW4parameter_type@12@G@Z 00000001400ad154 f i libucrt:output.obj
 0001:000ac15c       ?get_parameter_type@?$positional_parameter_base@_WV?$string_output_adapter@_W@__crt_stdio_output@@@__crt_stdio_output@@CA?AW4parameter_type@12@H@Z 00000001400ad15c f i libucrt:output.obj
 0001:000ac164       ?get_parameter_type@?$positional_parameter_base@_WV?$string_output_adapter@_W@__crt_stdio_output@@@__crt_stdio_output@@CA?AW4parameter_type@12@I@Z 00000001400ad164 f i libucrt:output.obj
 0001:000ac16c       ?get_parameter_type@?$positional_parameter_base@_WV?$string_output_adapter@_W@__crt_stdio_output@@@__crt_stdio_output@@CA?AW4parameter_type@12@U_CRT_DOUBLE@@@Z 00000001400ad16c f i libucrt:output.obj
 0001:000ac174       ?get_parameter_type@?$positional_parameter_base@_WV?$string_output_adapter@_W@__crt_stdio_output@@@__crt_stdio_output@@CA?AW4parameter_type@12@_J@Z 00000001400ad174 f i libucrt:output.obj
 0001:000ac17c       ?get_parameter_type@?$positional_parameter_base@_WV?$string_output_adapter@_W@__crt_stdio_output@@@__crt_stdio_output@@CA?AW4parameter_type@12@_K@Z 00000001400ad17c f i libucrt:output.obj
 0001:000ac184       ?get_parameter_type@?$positional_parameter_base@_WV?$string_output_adapter@_W@__crt_stdio_output@@@__crt_stdio_output@@CA?AW4parameter_type@12@_W@Z 00000001400ad184 f i libucrt:output.obj
 0001:000ac18c       ?has_flag@?$output_processor@DV?$stream_output_adapter@D@__crt_stdio_output@@V?$format_validation_base@DV?$stream_output_adapter@D@__crt_stdio_output@@@2@@__crt_stdio_output@@AEBA_NI@Z 00000001400ad18c f i libucrt:output.obj
 0001:000ac194       ?has_flag@?$output_processor@DV?$stream_output_adapter@D@__crt_stdio_output@@V?$positional_parameter_base@DV?$stream_output_adapter@D@__crt_stdio_output@@@2@@__crt_stdio_output@@AEBA_NI@Z 00000001400ad194 f i libucrt:output.obj
 0001:000ac19c       ?has_flag@?$output_processor@DV?$stream_output_adapter@D@__crt_stdio_output@@V?$standard_base@DV?$stream_output_adapter@D@__crt_stdio_output@@@2@@__crt_stdio_output@@AEBA_NI@Z 00000001400ad19c f i libucrt:output.obj
 0001:000ac1a4       ?has_flag@?$output_processor@DV?$string_output_adapter@D@__crt_stdio_output@@V?$format_validation_base@DV?$string_output_adapter@D@__crt_stdio_output@@@2@@__crt_stdio_output@@AEBA_NI@Z 00000001400ad1a4 f i libucrt:output.obj
 0001:000ac1ac       ?has_flag@?$output_processor@DV?$string_output_adapter@D@__crt_stdio_output@@V?$positional_parameter_base@DV?$string_output_adapter@D@__crt_stdio_output@@@2@@__crt_stdio_output@@AEBA_NI@Z 00000001400ad1ac f i libucrt:output.obj
 0001:000ac1b4       ?has_flag@?$output_processor@DV?$string_output_adapter@D@__crt_stdio_output@@V?$standard_base@DV?$string_output_adapter@D@__crt_stdio_output@@@2@@__crt_stdio_output@@AEBA_NI@Z 00000001400ad1b4 f i libucrt:output.obj
 0001:000ac1bc       ?has_flag@?$output_processor@_WV?$stream_output_adapter@_W@__crt_stdio_output@@V?$format_validation_base@_WV?$stream_output_adapter@_W@__crt_stdio_output@@@2@@__crt_stdio_output@@AEBA_NI@Z 00000001400ad1bc f i libucrt:output.obj
 0001:000ac1c4       ?has_flag@?$output_processor@_WV?$stream_output_adapter@_W@__crt_stdio_output@@V?$positional_parameter_base@_WV?$stream_output_adapter@_W@__crt_stdio_output@@@2@@__crt_stdio_output@@AEBA_NI@Z 00000001400ad1c4 f i libucrt:output.obj
 0001:000ac1cc       ?has_flag@?$output_processor@_WV?$stream_output_adapter@_W@__crt_stdio_output@@V?$standard_base@_WV?$stream_output_adapter@_W@__crt_stdio_output@@@2@@__crt_stdio_output@@AEBA_NI@Z 00000001400ad1cc f i libucrt:output.obj
 0001:000ac1d4       ?has_flag@?$output_processor@_WV?$string_output_adapter@_W@__crt_stdio_output@@V?$format_validation_base@_WV?$string_output_adapter@_W@__crt_stdio_output@@@2@@__crt_stdio_output@@AEBA_NI@Z 00000001400ad1d4 f i libucrt:output.obj
 0001:000ac1dc       ?has_flag@?$output_processor@_WV?$string_output_adapter@_W@__crt_stdio_output@@V?$positional_parameter_base@_WV?$string_output_adapter@_W@__crt_stdio_output@@@2@@__crt_stdio_output@@AEBA_NI@Z 00000001400ad1dc f i libucrt:output.obj
 0001:000ac1e4       ?has_flag@?$output_processor@_WV?$string_output_adapter@_W@__crt_stdio_output@@V?$standard_base@_WV?$string_output_adapter@_W@__crt_stdio_output@@@2@@__crt_stdio_output@@AEBA_NI@Z 00000001400ad1e4 f i libucrt:output.obj
 0001:000ac1ec       ?is_positional_parameter_reappearance_consistent@?$positional_parameter_base@DV?$stream_output_adapter@D@__crt_stdio_output@@@__crt_stdio_output@@AEAA_NAEBUparameter_data@12@W4parameter_type@12@DW4length_modifier@2@@Z 00000001400ad1ec f i libucrt:output.obj
 0001:000ac4b0       ?is_positional_parameter_reappearance_consistent@?$positional_parameter_base@DV?$string_output_adapter@D@__crt_stdio_output@@@__crt_stdio_output@@AEAA_NAEBUparameter_data@12@W4parameter_type@12@DW4length_modifier@2@@Z 00000001400ad4b0 f i libucrt:output.obj
 0001:000ac774       ?is_positional_parameter_reappearance_consistent@?$positional_parameter_base@_WV?$stream_output_adapter@_W@__crt_stdio_output@@@__crt_stdio_output@@AEAA_NAEBUparameter_data@12@W4parameter_type@12@_WW4length_modifier@2@@Z 00000001400ad774 f i libucrt:output.obj
 0001:000ac9f8       ?is_positional_parameter_reappearance_consistent@?$positional_parameter_base@_WV?$string_output_adapter@_W@__crt_stdio_output@@@__crt_stdio_output@@AEAA_NAEBUparameter_data@12@W4parameter_type@12@_WW4length_modifier@2@@Z 00000001400ad9f8 f i libucrt:output.obj
 0001:000acc7c       ?is_string_backed@__crt_stdio_stream@@QEBA_NXZ 00000001400adc7c f i libucrt:output.obj
 0001:000acc8c       ?narrow_null_string@?$output_processor@DV?$stream_output_adapter@D@__crt_stdio_output@@V?$format_validation_base@DV?$stream_output_adapter@D@__crt_stdio_output@@@2@@__crt_stdio_output@@CAPEADXZ 00000001400adc8c f i libucrt:output.obj
 0001:000acc98       ?narrow_null_string@?$output_processor@DV?$stream_output_adapter@D@__crt_stdio_output@@V?$positional_parameter_base@DV?$stream_output_adapter@D@__crt_stdio_output@@@2@@__crt_stdio_output@@CAPEADXZ 00000001400adc98 f i libucrt:output.obj
 0001:000acca4       ?narrow_null_string@?$output_processor@DV?$stream_output_adapter@D@__crt_stdio_output@@V?$standard_base@DV?$stream_output_adapter@D@__crt_stdio_output@@@2@@__crt_stdio_output@@CAPEADXZ 00000001400adca4 f i libucrt:output.obj
 0001:000accb0       ?narrow_null_string@?$output_processor@DV?$string_output_adapter@D@__crt_stdio_output@@V?$format_validation_base@DV?$string_output_adapter@D@__crt_stdio_output@@@2@@__crt_stdio_output@@CAPEADXZ 00000001400adcb0 f i libucrt:output.obj
 0001:000accbc       ?narrow_null_string@?$output_processor@DV?$string_output_adapter@D@__crt_stdio_output@@V?$positional_parameter_base@DV?$string_output_adapter@D@__crt_stdio_output@@@2@@__crt_stdio_output@@CAPEADXZ 00000001400adcbc f i libucrt:output.obj
 0001:000accc8       ?narrow_null_string@?$output_processor@DV?$string_output_adapter@D@__crt_stdio_output@@V?$standard_base@DV?$string_output_adapter@D@__crt_stdio_output@@@2@@__crt_stdio_output@@CAPEADXZ 00000001400adcc8 f i libucrt:output.obj
 0001:000accd4       ?narrow_null_string@?$output_processor@_WV?$stream_output_adapter@_W@__crt_stdio_output@@V?$format_validation_base@_WV?$stream_output_adapter@_W@__crt_stdio_output@@@2@@__crt_stdio_output@@CAPEADXZ 00000001400adcd4 f i libucrt:output.obj
 0001:000acce0       ?narrow_null_string@?$output_processor@_WV?$stream_output_adapter@_W@__crt_stdio_output@@V?$positional_parameter_base@_WV?$stream_output_adapter@_W@__crt_stdio_output@@@2@@__crt_stdio_output@@CAPEADXZ 00000001400adce0 f i libucrt:output.obj
 0001:000accec       ?narrow_null_string@?$output_processor@_WV?$stream_output_adapter@_W@__crt_stdio_output@@V?$standard_base@_WV?$stream_output_adapter@_W@__crt_stdio_output@@@2@@__crt_stdio_output@@CAPEADXZ 00000001400adcec f i libucrt:output.obj
 0001:000accf8       ?narrow_null_string@?$output_processor@_WV?$string_output_adapter@_W@__crt_stdio_output@@V?$format_validation_base@_WV?$string_output_adapter@_W@__crt_stdio_output@@@2@@__crt_stdio_output@@CAPEADXZ 00000001400adcf8 f i libucrt:output.obj
 0001:000acd04       ?narrow_null_string@?$output_processor@_WV?$string_output_adapter@_W@__crt_stdio_output@@V?$positional_parameter_base@_WV?$string_output_adapter@_W@__crt_stdio_output@@@2@@__crt_stdio_output@@CAPEADXZ 00000001400add04 f i libucrt:output.obj
 0001:000acd10       ?narrow_null_string@?$output_processor@_WV?$string_output_adapter@_W@__crt_stdio_output@@V?$standard_base@_WV?$string_output_adapter@_W@__crt_stdio_output@@@2@@__crt_stdio_output@@CAPEADXZ 00000001400add10 f i libucrt:output.obj
 0001:000acd1c       ?parse_int_from_format_string@?$output_processor@DV?$stream_output_adapter@D@__crt_stdio_output@@V?$format_validation_base@DV?$stream_output_adapter@D@__crt_stdio_output@@@2@@__crt_stdio_output@@AEAA_NQEAH@Z 00000001400add1c f i libucrt:output.obj
 0001:000acdcc       ?parse_int_from_format_string@?$output_processor@DV?$stream_output_adapter@D@__crt_stdio_output@@V?$positional_parameter_base@DV?$stream_output_adapter@D@__crt_stdio_output@@@2@@__crt_stdio_output@@AEAA_NQEAH@Z 00000001400addcc f i libucrt:output.obj
 0001:000ace7c       ?parse_int_from_format_string@?$output_processor@DV?$stream_output_adapter@D@__crt_stdio_output@@V?$standard_base@DV?$stream_output_adapter@D@__crt_stdio_output@@@2@@__crt_stdio_output@@AEAA_NQEAH@Z 00000001400ade7c f i libucrt:output.obj
 0001:000acf2c       ?parse_int_from_format_string@?$output_processor@DV?$string_output_adapter@D@__crt_stdio_output@@V?$format_validation_base@DV?$string_output_adapter@D@__crt_stdio_output@@@2@@__crt_stdio_output@@AEAA_NQEAH@Z 00000001400adf2c f i libucrt:output.obj
 0001:000acfdc       ?parse_int_from_format_string@?$output_processor@DV?$string_output_adapter@D@__crt_stdio_output@@V?$positional_parameter_base@DV?$string_output_adapter@D@__crt_stdio_output@@@2@@__crt_stdio_output@@AEAA_NQEAH@Z 00000001400adfdc f i libucrt:output.obj
 0001:000ad08c       ?parse_int_from_format_string@?$output_processor@DV?$string_output_adapter@D@__crt_stdio_output@@V?$standard_base@DV?$string_output_adapter@D@__crt_stdio_output@@@2@@__crt_stdio_output@@AEAA_NQEAH@Z 00000001400ae08c f i libucrt:output.obj
 0001:000ad13c       ?parse_int_from_format_string@?$output_processor@_WV?$stream_output_adapter@_W@__crt_stdio_output@@V?$format_validation_base@_WV?$stream_output_adapter@_W@__crt_stdio_output@@@2@@__crt_stdio_output@@AEAA_NQEAH@Z 00000001400ae13c f i libucrt:output.obj
 0001:000ad1f0       ?parse_int_from_format_string@?$output_processor@_WV?$stream_output_adapter@_W@__crt_stdio_output@@V?$positional_parameter_base@_WV?$stream_output_adapter@_W@__crt_stdio_output@@@2@@__crt_stdio_output@@AEAA_NQEAH@Z 00000001400ae1f0 f i libucrt:output.obj
 0001:000ad2a4       ?parse_int_from_format_string@?$output_processor@_WV?$stream_output_adapter@_W@__crt_stdio_output@@V?$standard_base@_WV?$stream_output_adapter@_W@__crt_stdio_output@@@2@@__crt_stdio_output@@AEAA_NQEAH@Z 00000001400ae2a4 f i libucrt:output.obj
 0001:000ad358       ?parse_int_from_format_string@?$output_processor@_WV?$string_output_adapter@_W@__crt_stdio_output@@V?$format_validation_base@_WV?$string_output_adapter@_W@__crt_stdio_output@@@2@@__crt_stdio_output@@AEAA_NQEAH@Z 00000001400ae358 f i libucrt:output.obj
 0001:000ad40c       ?parse_int_from_format_string@?$output_processor@_WV?$string_output_adapter@_W@__crt_stdio_output@@V?$positional_parameter_base@_WV?$string_output_adapter@_W@__crt_stdio_output@@@2@@__crt_stdio_output@@AEAA_NQEAH@Z 00000001400ae40c f i libucrt:output.obj
 0001:000ad4c0       ?parse_int_from_format_string@?$output_processor@_WV?$string_output_adapter@_W@__crt_stdio_output@@V?$standard_base@_WV?$string_output_adapter@_W@__crt_stdio_output@@@2@@__crt_stdio_output@@AEAA_NQEAH@Z 00000001400ae4c0 f i libucrt:output.obj
 0001:000ad574       ?process@?$output_processor@DV?$stream_output_adapter@D@__crt_stdio_output@@V?$format_validation_base@DV?$stream_output_adapter@D@__crt_stdio_output@@@2@@__crt_stdio_output@@QEAAHXZ 00000001400ae574 f i libucrt:output.obj
 0001:000ad9f8       ?process@?$output_processor@DV?$stream_output_adapter@D@__crt_stdio_output@@V?$positional_parameter_base@DV?$stream_output_adapter@D@__crt_stdio_output@@@2@@__crt_stdio_output@@QEAAHXZ 00000001400ae9f8 f i libucrt:output.obj
 0001:000adf38       ?process@?$output_processor@DV?$stream_output_adapter@D@__crt_stdio_output@@V?$standard_base@DV?$stream_output_adapter@D@__crt_stdio_output@@@2@@__crt_stdio_output@@QEAAHXZ 00000001400aef38 f i libucrt:output.obj
 0001:000ae3b4       ?process@?$output_processor@DV?$string_output_adapter@D@__crt_stdio_output@@V?$format_validation_base@DV?$string_output_adapter@D@__crt_stdio_output@@@2@@__crt_stdio_output@@QEAAHXZ 00000001400af3b4 f i libucrt:output.obj
 0001:000ae818       ?process@?$output_processor@DV?$string_output_adapter@D@__crt_stdio_output@@V?$positional_parameter_base@DV?$string_output_adapter@D@__crt_stdio_output@@@2@@__crt_stdio_output@@QEAAHXZ 00000001400af818 f i libucrt:output.obj
 0001:000aed34       ?process@?$output_processor@DV?$string_output_adapter@D@__crt_stdio_output@@V?$standard_base@DV?$string_output_adapter@D@__crt_stdio_output@@@2@@__crt_stdio_output@@QEAAHXZ 00000001400afd34 f i libucrt:output.obj
 0001:000af194       ?process@?$output_processor@_WV?$stream_output_adapter@_W@__crt_stdio_output@@V?$format_validation_base@_WV?$stream_output_adapter@_W@__crt_stdio_output@@@2@@__crt_stdio_output@@QEAAHXZ 00000001400b0194 f i libucrt:output.obj
 0001:000af528       ?process@?$output_processor@_WV?$stream_output_adapter@_W@__crt_stdio_output@@V?$positional_parameter_base@_WV?$stream_output_adapter@_W@__crt_stdio_output@@@2@@__crt_stdio_output@@QEAAHXZ 00000001400b0528 f i libucrt:output.obj
 0001:000af974       ?process@?$output_processor@_WV?$stream_output_adapter@_W@__crt_stdio_output@@V?$standard_base@_WV?$stream_output_adapter@_W@__crt_stdio_output@@@2@@__crt_stdio_output@@QEAAHXZ 00000001400b0974 f i libucrt:output.obj
 0001:000afcf8       ?process@?$output_processor@_WV?$string_output_adapter@_W@__crt_stdio_output@@V?$format_validation_base@_WV?$string_output_adapter@_W@__crt_stdio_output@@@2@@__crt_stdio_output@@QEAAHXZ 00000001400b0cf8 f i libucrt:output.obj
 0001:000b0084       ?process@?$output_processor@_WV?$string_output_adapter@_W@__crt_stdio_output@@V?$positional_parameter_base@_WV?$string_output_adapter@_W@__crt_stdio_output@@@2@@__crt_stdio_output@@QEAAHXZ 00000001400b1084 f i libucrt:output.obj
 0001:000b04c8       ?process@?$output_processor@_WV?$string_output_adapter@_W@__crt_stdio_output@@V?$standard_base@_WV?$string_output_adapter@_W@__crt_stdio_output@@@2@@__crt_stdio_output@@QEAAHXZ 00000001400b14c8 f i libucrt:output.obj
 0001:000b0854       ?public_stream@__crt_stdio_stream@@QEBAPEAU_iobuf@@XZ 00000001400b1854 f i libucrt:output.obj
 0001:000b0858       ?set_flag@?$output_processor@DV?$stream_output_adapter@D@__crt_stdio_output@@V?$format_validation_base@DV?$stream_output_adapter@D@__crt_stdio_output@@@2@@__crt_stdio_output@@AEAAXI@Z 00000001400b1858 f i libucrt:output.obj
 0001:000b085c       ?set_flag@?$output_processor@DV?$stream_output_adapter@D@__crt_stdio_output@@V?$positional_parameter_base@DV?$stream_output_adapter@D@__crt_stdio_output@@@2@@__crt_stdio_output@@AEAAXI@Z 00000001400b185c f i libucrt:output.obj
 0001:000b0860       ?set_flag@?$output_processor@DV?$stream_output_adapter@D@__crt_stdio_output@@V?$standard_base@DV?$stream_output_adapter@D@__crt_stdio_output@@@2@@__crt_stdio_output@@AEAAXI@Z 00000001400b1860 f i libucrt:output.obj
 0001:000b0864       ?set_flag@?$output_processor@DV?$string_output_adapter@D@__crt_stdio_output@@V?$format_validation_base@DV?$string_output_adapter@D@__crt_stdio_output@@@2@@__crt_stdio_output@@AEAAXI@Z 00000001400b1864 f i libucrt:output.obj
 0001:000b0868       ?set_flag@?$output_processor@DV?$string_output_adapter@D@__crt_stdio_output@@V?$positional_parameter_base@DV?$string_output_adapter@D@__crt_stdio_output@@@2@@__crt_stdio_output@@AEAAXI@Z 00000001400b1868 f i libucrt:output.obj
 0001:000b086c       ?set_flag@?$output_processor@DV?$string_output_adapter@D@__crt_stdio_output@@V?$standard_base@DV?$string_output_adapter@D@__crt_stdio_output@@@2@@__crt_stdio_output@@AEAAXI@Z 00000001400b186c f i libucrt:output.obj
 0001:000b0870       ?set_flag@?$output_processor@_WV?$stream_output_adapter@_W@__crt_stdio_output@@V?$format_validation_base@_WV?$stream_output_adapter@_W@__crt_stdio_output@@@2@@__crt_stdio_output@@AEAAXI@Z 00000001400b1870 f i libucrt:output.obj
 0001:000b0874       ?set_flag@?$output_processor@_WV?$stream_output_adapter@_W@__crt_stdio_output@@V?$positional_parameter_base@_WV?$stream_output_adapter@_W@__crt_stdio_output@@@2@@__crt_stdio_output@@AEAAXI@Z 00000001400b1874 f i libucrt:output.obj
 0001:000b0878       ?set_flag@?$output_processor@_WV?$stream_output_adapter@_W@__crt_stdio_output@@V?$standard_base@_WV?$stream_output_adapter@_W@__crt_stdio_output@@@2@@__crt_stdio_output@@AEAAXI@Z 00000001400b1878 f i libucrt:output.obj
 0001:000b087c       ?set_flag@?$output_processor@_WV?$string_output_adapter@_W@__crt_stdio_output@@V?$format_validation_base@_WV?$string_output_adapter@_W@__crt_stdio_output@@@2@@__crt_stdio_output@@AEAAXI@Z 00000001400b187c f i libucrt:output.obj
 0001:000b0880       ?set_flag@?$output_processor@_WV?$string_output_adapter@_W@__crt_stdio_output@@V?$positional_parameter_base@_WV?$string_output_adapter@_W@__crt_stdio_output@@@2@@__crt_stdio_output@@AEAAXI@Z 00000001400b1880 f i libucrt:output.obj
 0001:000b0884       ?set_flag@?$output_processor@_WV?$string_output_adapter@_W@__crt_stdio_output@@V?$standard_base@_WV?$string_output_adapter@_W@__crt_stdio_output@@@2@@__crt_stdio_output@@AEAAXI@Z 00000001400b1884 f i libucrt:output.obj
 0001:000b0888       ?should_format@?$positional_parameter_base@DV?$stream_output_adapter@D@__crt_stdio_output@@@__crt_stdio_output@@IEAA_NXZ 00000001400b1888 f i libucrt:output.obj
 0001:000b08a8       ?should_format@?$positional_parameter_base@DV?$string_output_adapter@D@__crt_stdio_output@@@__crt_stdio_output@@IEAA_NXZ 00000001400b18a8 f i libucrt:output.obj
 0001:000b08c8       ?should_format@?$positional_parameter_base@_WV?$stream_output_adapter@_W@__crt_stdio_output@@@__crt_stdio_output@@IEAA_NXZ 00000001400b18c8 f i libucrt:output.obj
 0001:000b08e8       ?should_format@?$positional_parameter_base@_WV?$string_output_adapter@_W@__crt_stdio_output@@@__crt_stdio_output@@IEAA_NXZ 00000001400b18e8 f i libucrt:output.obj
 0001:000b0908       ?should_format@?$standard_base@DV?$stream_output_adapter@D@__crt_stdio_output@@@__crt_stdio_output@@IEAA_NXZ 00000001400b1908 f i libucrt:output.obj
 0001:000b090c       ?should_format@?$standard_base@DV?$string_output_adapter@D@__crt_stdio_output@@@__crt_stdio_output@@IEAA_NXZ 00000001400b190c f i libucrt:output.obj
 0001:000b0910       ?should_format@?$standard_base@_WV?$stream_output_adapter@_W@__crt_stdio_output@@@__crt_stdio_output@@IEAA_NXZ 00000001400b1910 f i libucrt:output.obj
 0001:000b0914       ?should_format@?$standard_base@_WV?$string_output_adapter@_W@__crt_stdio_output@@@__crt_stdio_output@@IEAA_NXZ 00000001400b1914 f i libucrt:output.obj
 0001:000b0918       ?should_skip_normal_state_processing@?$positional_parameter_base@DV?$stream_output_adapter@D@__crt_stdio_output@@@__crt_stdio_output@@IEAA_NXZ 00000001400b1918 f i libucrt:output.obj
 0001:000b094c       ?should_skip_normal_state_processing@?$positional_parameter_base@DV?$string_output_adapter@D@__crt_stdio_output@@@__crt_stdio_output@@IEAA_NXZ 00000001400b194c f i libucrt:output.obj
 0001:000b0980       ?should_skip_normal_state_processing@?$positional_parameter_base@_WV?$stream_output_adapter@_W@__crt_stdio_output@@@__crt_stdio_output@@IEAA_NXZ 00000001400b1980 f i libucrt:output.obj
 0001:000b09b4       ?should_skip_normal_state_processing@?$positional_parameter_base@_WV?$string_output_adapter@_W@__crt_stdio_output@@@__crt_stdio_output@@IEAA_NXZ 00000001400b19b4 f i libucrt:output.obj
 0001:000b09e8       ?should_skip_normal_state_processing@?$standard_base@DV?$stream_output_adapter@D@__crt_stdio_output@@@__crt_stdio_output@@IEAA_NXZ 00000001400b19e8 f i libucrt:output.obj
 0001:000b09ec       ?should_skip_normal_state_processing@?$standard_base@DV?$string_output_adapter@D@__crt_stdio_output@@@__crt_stdio_output@@IEAA_NXZ 00000001400b19ec f i libucrt:output.obj
 0001:000b09f0       ?should_skip_normal_state_processing@?$standard_base@_WV?$stream_output_adapter@_W@__crt_stdio_output@@@__crt_stdio_output@@IEAA_NXZ 00000001400b19f0 f i libucrt:output.obj
 0001:000b09f4       ?should_skip_normal_state_processing@?$standard_base@_WV?$string_output_adapter@_W@__crt_stdio_output@@@__crt_stdio_output@@IEAA_NXZ 00000001400b19f4 f i libucrt:output.obj
 0001:000b09f8       ?should_skip_type_state_output@?$positional_parameter_base@DV?$stream_output_adapter@D@__crt_stdio_output@@@__crt_stdio_output@@IEBA_NXZ 00000001400b19f8 f i libucrt:output.obj
 0001:000b0a18       ?should_skip_type_state_output@?$positional_parameter_base@DV?$string_output_adapter@D@__crt_stdio_output@@@__crt_stdio_output@@IEBA_NXZ 00000001400b1a18 f i libucrt:output.obj
 0001:000b0a38       ?should_skip_type_state_output@?$positional_parameter_base@_WV?$stream_output_adapter@_W@__crt_stdio_output@@@__crt_stdio_output@@IEBA_NXZ 00000001400b1a38 f i libucrt:output.obj
 0001:000b0a58       ?should_skip_type_state_output@?$positional_parameter_base@_WV?$string_output_adapter@_W@__crt_stdio_output@@@__crt_stdio_output@@IEBA_NXZ 00000001400b1a58 f i libucrt:output.obj
 0001:000b0a78       ?should_skip_type_state_output@?$standard_base@DV?$stream_output_adapter@D@__crt_stdio_output@@@__crt_stdio_output@@IEBA_NXZ 00000001400b1a78 f i libucrt:output.obj
 0001:000b0a7c       ?should_skip_type_state_output@?$standard_base@DV?$string_output_adapter@D@__crt_stdio_output@@@__crt_stdio_output@@IEBA_NXZ 00000001400b1a7c f i libucrt:output.obj
 0001:000b0a80       ?should_skip_type_state_output@?$standard_base@_WV?$stream_output_adapter@_W@__crt_stdio_output@@@__crt_stdio_output@@IEBA_NXZ 00000001400b1a80 f i libucrt:output.obj
 0001:000b0a84       ?should_skip_type_state_output@?$standard_base@_WV?$string_output_adapter@_W@__crt_stdio_output@@@__crt_stdio_output@@IEBA_NXZ 00000001400b1a84 f i libucrt:output.obj
 0001:000b0a88       ?state_case_dot@?$output_processor@DV?$stream_output_adapter@D@__crt_stdio_output@@V?$format_validation_base@DV?$stream_output_adapter@D@__crt_stdio_output@@@2@@__crt_stdio_output@@AEAA_NXZ 00000001400b1a88 f i libucrt:output.obj
 0001:000b0a90       ?state_case_dot@?$output_processor@DV?$stream_output_adapter@D@__crt_stdio_output@@V?$positional_parameter_base@DV?$stream_output_adapter@D@__crt_stdio_output@@@2@@__crt_stdio_output@@AEAA_NXZ 00000001400b1a90 f i libucrt:output.obj
 0001:000b0a98       ?state_case_dot@?$output_processor@DV?$stream_output_adapter@D@__crt_stdio_output@@V?$standard_base@DV?$stream_output_adapter@D@__crt_stdio_output@@@2@@__crt_stdio_output@@AEAA_NXZ 00000001400b1a98 f i libucrt:output.obj
 0001:000b0aa0       ?state_case_dot@?$output_processor@DV?$string_output_adapter@D@__crt_stdio_output@@V?$format_validation_base@DV?$string_output_adapter@D@__crt_stdio_output@@@2@@__crt_stdio_output@@AEAA_NXZ 00000001400b1aa0 f i libucrt:output.obj
 0001:000b0aa8       ?state_case_dot@?$output_processor@DV?$string_output_adapter@D@__crt_stdio_output@@V?$positional_parameter_base@DV?$string_output_adapter@D@__crt_stdio_output@@@2@@__crt_stdio_output@@AEAA_NXZ 00000001400b1aa8 f i libucrt:output.obj
 0001:000b0ab0       ?state_case_dot@?$output_processor@DV?$string_output_adapter@D@__crt_stdio_output@@V?$standard_base@DV?$string_output_adapter@D@__crt_stdio_output@@@2@@__crt_stdio_output@@AEAA_NXZ 00000001400b1ab0 f i libucrt:output.obj
 0001:000b0ab8       ?state_case_dot@?$output_processor@_WV?$stream_output_adapter@_W@__crt_stdio_output@@V?$format_validation_base@_WV?$stream_output_adapter@_W@__crt_stdio_output@@@2@@__crt_stdio_output@@AEAA_NXZ 00000001400b1ab8 f i libucrt:output.obj
 0001:000b0ac0       ?state_case_dot@?$output_processor@_WV?$stream_output_adapter@_W@__crt_stdio_output@@V?$positional_parameter_base@_WV?$stream_output_adapter@_W@__crt_stdio_output@@@2@@__crt_stdio_output@@AEAA_NXZ 00000001400b1ac0 f i libucrt:output.obj
 0001:000b0ac8       ?state_case_dot@?$output_processor@_WV?$stream_output_adapter@_W@__crt_stdio_output@@V?$standard_base@_WV?$stream_output_adapter@_W@__crt_stdio_output@@@2@@__crt_stdio_output@@AEAA_NXZ 00000001400b1ac8 f i libucrt:output.obj
 0001:000b0ad0       ?state_case_dot@?$output_processor@_WV?$string_output_adapter@_W@__crt_stdio_output@@V?$format_validation_base@_WV?$string_output_adapter@_W@__crt_stdio_output@@@2@@__crt_stdio_output@@AEAA_NXZ 00000001400b1ad0 f i libucrt:output.obj
 0001:000b0ad8       ?state_case_dot@?$output_processor@_WV?$string_output_adapter@_W@__crt_stdio_output@@V?$positional_parameter_base@_WV?$string_output_adapter@_W@__crt_stdio_output@@@2@@__crt_stdio_output@@AEAA_NXZ 00000001400b1ad8 f i libucrt:output.obj
 0001:000b0ae0       ?state_case_dot@?$output_processor@_WV?$string_output_adapter@_W@__crt_stdio_output@@V?$standard_base@_WV?$string_output_adapter@_W@__crt_stdio_output@@@2@@__crt_stdio_output@@AEAA_NXZ 00000001400b1ae0 f i libucrt:output.obj
 0001:000b0ae8       ?state_case_flag@?$output_processor@DV?$stream_output_adapter@D@__crt_stdio_output@@V?$format_validation_base@DV?$stream_output_adapter@D@__crt_stdio_output@@@2@@__crt_stdio_output@@AEAA_NXZ 00000001400b1ae8 f i libucrt:output.obj
 0001:000b0b2c       ?state_case_flag@?$output_processor@DV?$stream_output_adapter@D@__crt_stdio_output@@V?$positional_parameter_base@DV?$stream_output_adapter@D@__crt_stdio_output@@@2@@__crt_stdio_output@@AEAA_NXZ 00000001400b1b2c f i libucrt:output.obj
 0001:000b0b70       ?state_case_flag@?$output_processor@DV?$stream_output_adapter@D@__crt_stdio_output@@V?$standard_base@DV?$stream_output_adapter@D@__crt_stdio_output@@@2@@__crt_stdio_output@@AEAA_NXZ 00000001400b1b70 f i libucrt:output.obj
 0001:000b0bb4       ?state_case_flag@?$output_processor@DV?$string_output_adapter@D@__crt_stdio_output@@V?$format_validation_base@DV?$string_output_adapter@D@__crt_stdio_output@@@2@@__crt_stdio_output@@AEAA_NXZ 00000001400b1bb4 f i libucrt:output.obj
 0001:000b0bf8       ?state_case_flag@?$output_processor@DV?$string_output_adapter@D@__crt_stdio_output@@V?$positional_parameter_base@DV?$string_output_adapter@D@__crt_stdio_output@@@2@@__crt_stdio_output@@AEAA_NXZ 00000001400b1bf8 f i libucrt:output.obj
 0001:000b0c3c       ?state_case_flag@?$output_processor@DV?$string_output_adapter@D@__crt_stdio_output@@V?$standard_base@DV?$string_output_adapter@D@__crt_stdio_output@@@2@@__crt_stdio_output@@AEAA_NXZ 00000001400b1c3c f i libucrt:output.obj
 0001:000b0c80       ?state_case_flag@?$output_processor@_WV?$stream_output_adapter@_W@__crt_stdio_output@@V?$format_validation_base@_WV?$stream_output_adapter@_W@__crt_stdio_output@@@2@@__crt_stdio_output@@AEAA_NXZ 00000001400b1c80 f i libucrt:output.obj
 0001:000b0cd8       ?state_case_flag@?$output_processor@_WV?$stream_output_adapter@_W@__crt_stdio_output@@V?$positional_parameter_base@_WV?$stream_output_adapter@_W@__crt_stdio_output@@@2@@__crt_stdio_output@@AEAA_NXZ 00000001400b1cd8 f i libucrt:output.obj
 0001:000b0d30       ?state_case_flag@?$output_processor@_WV?$stream_output_adapter@_W@__crt_stdio_output@@V?$standard_base@_WV?$stream_output_adapter@_W@__crt_stdio_output@@@2@@__crt_stdio_output@@AEAA_NXZ 00000001400b1d30 f i libucrt:output.obj
 0001:000b0d88       ?state_case_flag@?$output_processor@_WV?$string_output_adapter@_W@__crt_stdio_output@@V?$format_validation_base@_WV?$string_output_adapter@_W@__crt_stdio_output@@@2@@__crt_stdio_output@@AEAA_NXZ 00000001400b1d88 f i libucrt:output.obj
 0001:000b0de0       ?state_case_flag@?$output_processor@_WV?$string_output_adapter@_W@__crt_stdio_output@@V?$positional_parameter_base@_WV?$string_output_adapter@_W@__crt_stdio_output@@@2@@__crt_stdio_output@@AEAA_NXZ 00000001400b1de0 f i libucrt:output.obj
 0001:000b0e38       ?state_case_flag@?$output_processor@_WV?$string_output_adapter@_W@__crt_stdio_output@@V?$standard_base@_WV?$string_output_adapter@_W@__crt_stdio_output@@@2@@__crt_stdio_output@@AEAA_NXZ 00000001400b1e38 f i libucrt:output.obj
 0001:000b0e90       ?state_case_normal@?$output_processor@DV?$stream_output_adapter@D@__crt_stdio_output@@V?$format_validation_base@DV?$stream_output_adapter@D@__crt_stdio_output@@@2@@__crt_stdio_output@@AEAA_NXZ 00000001400b1e90 f i libucrt:output.obj
 0001:000b1038       ?state_case_normal@?$output_processor@DV?$stream_output_adapter@D@__crt_stdio_output@@V?$positional_parameter_base@DV?$stream_output_adapter@D@__crt_stdio_output@@@2@@__crt_stdio_output@@AEAA_NXZ 00000001400b2038 f i libucrt:output.obj
 0001:000b1218       ?state_case_normal@?$output_processor@DV?$stream_output_adapter@D@__crt_stdio_output@@V?$standard_base@DV?$stream_output_adapter@D@__crt_stdio_output@@@2@@__crt_stdio_output@@AEAA_NXZ 00000001400b2218 f i libucrt:output.obj
 0001:000b13c0       ?state_case_normal@?$output_processor@DV?$string_output_adapter@D@__crt_stdio_output@@V?$format_validation_base@DV?$string_output_adapter@D@__crt_stdio_output@@@2@@__crt_stdio_output@@AEAA_NXZ 00000001400b23c0 f i libucrt:output.obj
 0001:000b1560       ?state_case_normal@?$output_processor@DV?$string_output_adapter@D@__crt_stdio_output@@V?$positional_parameter_base@DV?$string_output_adapter@D@__crt_stdio_output@@@2@@__crt_stdio_output@@AEAA_NXZ 00000001400b2560 f i libucrt:output.obj
 0001:000b1734       ?state_case_normal@?$output_processor@DV?$string_output_adapter@D@__crt_stdio_output@@V?$standard_base@DV?$string_output_adapter@D@__crt_stdio_output@@@2@@__crt_stdio_output@@AEAA_NXZ 00000001400b2734 f i libucrt:output.obj
 0001:000b18d4       ?state_case_normal@?$output_processor@_WV?$stream_output_adapter@_W@__crt_stdio_output@@V?$format_validation_base@_WV?$stream_output_adapter@_W@__crt_stdio_output@@@2@@__crt_stdio_output@@AEAA_NXZ 00000001400b28d4 f i libucrt:output.obj
 0001:000b1948       ?state_case_normal@?$output_processor@_WV?$stream_output_adapter@_W@__crt_stdio_output@@V?$positional_parameter_base@_WV?$stream_output_adapter@_W@__crt_stdio_output@@@2@@__crt_stdio_output@@AEAA_NXZ 00000001400b2948 f i libucrt:output.obj
 0001:000b19ec       ?state_case_normal@?$output_processor@_WV?$stream_output_adapter@_W@__crt_stdio_output@@V?$standard_base@_WV?$stream_output_adapter@_W@__crt_stdio_output@@@2@@__crt_stdio_output@@AEAA_NXZ 00000001400b29ec f i libucrt:output.obj
 0001:000b1a60       ?state_case_normal@?$output_processor@_WV?$string_output_adapter@_W@__crt_stdio_output@@V?$format_validation_base@_WV?$string_output_adapter@_W@__crt_stdio_output@@@2@@__crt_stdio_output@@AEAA_NXZ 00000001400b2a60 f i libucrt:output.obj
 0001:000b1acc       ?state_case_normal@?$output_processor@_WV?$string_output_adapter@_W@__crt_stdio_output@@V?$positional_parameter_base@_WV?$string_output_adapter@_W@__crt_stdio_output@@@2@@__crt_stdio_output@@AEAA_NXZ 00000001400b2acc f i libucrt:output.obj
 0001:000b1b64       ?state_case_normal@?$output_processor@_WV?$string_output_adapter@_W@__crt_stdio_output@@V?$standard_base@_WV?$string_output_adapter@_W@__crt_stdio_output@@@2@@__crt_stdio_output@@AEAA_NXZ 00000001400b2b64 f i libucrt:output.obj
 0001:000b1bd0       ?state_case_normal_common@?$output_processor@DV?$stream_output_adapter@D@__crt_stdio_output@@V?$format_validation_base@DV?$stream_output_adapter@D@__crt_stdio_output@@@2@@__crt_stdio_output@@AEAA_NXZ 00000001400b2bd0 f i libucrt:output.obj
 0001:000b1d44       ?state_case_normal_common@?$output_processor@DV?$stream_output_adapter@D@__crt_stdio_output@@V?$positional_parameter_base@DV?$stream_output_adapter@D@__crt_stdio_output@@@2@@__crt_stdio_output@@AEAA_NXZ 00000001400b2d44 f i libucrt:output.obj
 0001:000b1eb8       ?state_case_normal_common@?$output_processor@DV?$stream_output_adapter@D@__crt_stdio_output@@V?$standard_base@DV?$stream_output_adapter@D@__crt_stdio_output@@@2@@__crt_stdio_output@@AEAA_NXZ 00000001400b2eb8 f i libucrt:output.obj
 0001:000b202c       ?state_case_normal_common@?$output_processor@DV?$string_output_adapter@D@__crt_stdio_output@@V?$format_validation_base@DV?$string_output_adapter@D@__crt_stdio_output@@@2@@__crt_stdio_output@@AEAA_NXZ 00000001400b302c f i libucrt:output.obj
 0001:000b2198       ?state_case_normal_common@?$output_processor@DV?$string_output_adapter@D@__crt_stdio_output@@V?$positional_parameter_base@DV?$string_output_adapter@D@__crt_stdio_output@@@2@@__crt_stdio_output@@AEAA_NXZ 00000001400b3198 f i libucrt:output.obj
 0001:000b2304       ?state_case_normal_common@?$output_processor@DV?$string_output_adapter@D@__crt_stdio_output@@V?$standard_base@DV?$string_output_adapter@D@__crt_stdio_output@@@2@@__crt_stdio_output@@AEAA_NXZ 00000001400b3304 f i libucrt:output.obj
 0001:000b2470       ?state_case_normal_common@?$output_processor@_WV?$stream_output_adapter@_W@__crt_stdio_output@@V?$format_validation_base@_WV?$stream_output_adapter@_W@__crt_stdio_output@@@2@@__crt_stdio_output@@AEAA_NXZ 00000001400b3470 f i libucrt:output.obj
 0001:000b24e4       ?state_case_normal_common@?$output_processor@_WV?$stream_output_adapter@_W@__crt_stdio_output@@V?$positional_parameter_base@_WV?$stream_output_adapter@_W@__crt_stdio_output@@@2@@__crt_stdio_output@@AEAA_NXZ 00000001400b34e4 f i libucrt:output.obj
 0001:000b2558       ?state_case_normal_common@?$output_processor@_WV?$stream_output_adapter@_W@__crt_stdio_output@@V?$standard_base@_WV?$stream_output_adapter@_W@__crt_stdio_output@@@2@@__crt_stdio_output@@AEAA_NXZ 00000001400b3558 f i libucrt:output.obj
 0001:000b25cc       ?state_case_normal_common@?$output_processor@_WV?$string_output_adapter@_W@__crt_stdio_output@@V?$format_validation_base@_WV?$string_output_adapter@_W@__crt_stdio_output@@@2@@__crt_stdio_output@@AEAA_NXZ 00000001400b35cc f i libucrt:output.obj
 0001:000b2638       ?state_case_normal_common@?$output_processor@_WV?$string_output_adapter@_W@__crt_stdio_output@@V?$positional_parameter_base@_WV?$string_output_adapter@_W@__crt_stdio_output@@@2@@__crt_stdio_output@@AEAA_NXZ 00000001400b3638 f i libucrt:output.obj
 0001:000b26a4       ?state_case_normal_common@?$output_processor@_WV?$string_output_adapter@_W@__crt_stdio_output@@V?$standard_base@_WV?$string_output_adapter@_W@__crt_stdio_output@@@2@@__crt_stdio_output@@AEAA_NXZ 00000001400b36a4 f i libucrt:output.obj
 0001:000b2710       ?state_case_normal_tchar@?$output_processor@DV?$stream_output_adapter@D@__crt_stdio_output@@V?$format_validation_base@DV?$stream_output_adapter@D@__crt_stdio_output@@@2@@__crt_stdio_output@@AEAA_ND@Z 00000001400b3710 f i libucrt:output.obj
 0001:000b2824       ?state_case_normal_tchar@?$output_processor@DV?$stream_output_adapter@D@__crt_stdio_output@@V?$positional_parameter_base@DV?$stream_output_adapter@D@__crt_stdio_output@@@2@@__crt_stdio_output@@AEAA_ND@Z 00000001400b3824 f i libucrt:output.obj
 0001:000b2938       ?state_case_normal_tchar@?$output_processor@DV?$stream_output_adapter@D@__crt_stdio_output@@V?$standard_base@DV?$stream_output_adapter@D@__crt_stdio_output@@@2@@__crt_stdio_output@@AEAA_ND@Z 00000001400b3938 f i libucrt:output.obj
 0001:000b2a4c       ?state_case_normal_tchar@?$output_processor@DV?$string_output_adapter@D@__crt_stdio_output@@V?$format_validation_base@DV?$string_output_adapter@D@__crt_stdio_output@@@2@@__crt_stdio_output@@AEAA_ND@Z 00000001400b3a4c f i libucrt:output.obj
 0001:000b2b60       ?state_case_normal_tchar@?$output_processor@DV?$string_output_adapter@D@__crt_stdio_output@@V?$positional_parameter_base@DV?$string_output_adapter@D@__crt_stdio_output@@@2@@__crt_stdio_output@@AEAA_ND@Z 00000001400b3b60 f i libucrt:output.obj
 0001:000b2c74       ?state_case_normal_tchar@?$output_processor@DV?$string_output_adapter@D@__crt_stdio_output@@V?$standard_base@DV?$string_output_adapter@D@__crt_stdio_output@@@2@@__crt_stdio_output@@AEAA_ND@Z 00000001400b3c74 f i libucrt:output.obj
 0001:000b2d88       ?state_case_normal_tchar@?$output_processor@_WV?$stream_output_adapter@_W@__crt_stdio_output@@V?$format_validation_base@_WV?$stream_output_adapter@_W@__crt_stdio_output@@@2@@__crt_stdio_output@@AEAA_N_W@Z 00000001400b3d88 f i libucrt:output.obj
 0001:000b2d90       ?state_case_normal_tchar@?$output_processor@_WV?$stream_output_adapter@_W@__crt_stdio_output@@V?$positional_parameter_base@_WV?$stream_output_adapter@_W@__crt_stdio_output@@@2@@__crt_stdio_output@@AEAA_N_W@Z 00000001400b3d90 f i libucrt:output.obj
 0001:000b2d98       ?state_case_normal_tchar@?$output_processor@_WV?$stream_output_adapter@_W@__crt_stdio_output@@V?$standard_base@_WV?$stream_output_adapter@_W@__crt_stdio_output@@@2@@__crt_stdio_output@@AEAA_N_W@Z 00000001400b3d98 f i libucrt:output.obj
 0001:000b2da0       ?state_case_normal_tchar@?$output_processor@_WV?$string_output_adapter@_W@__crt_stdio_output@@V?$format_validation_base@_WV?$string_output_adapter@_W@__crt_stdio_output@@@2@@__crt_stdio_output@@AEAA_N_W@Z 00000001400b3da0 f i libucrt:output.obj
 0001:000b2da8       ?state_case_normal_tchar@?$output_processor@_WV?$string_output_adapter@_W@__crt_stdio_output@@V?$positional_parameter_base@_WV?$string_output_adapter@_W@__crt_stdio_output@@@2@@__crt_stdio_output@@AEAA_N_W@Z 00000001400b3da8 f i libucrt:output.obj
 0001:000b2db0       ?state_case_normal_tchar@?$output_processor@_WV?$string_output_adapter@_W@__crt_stdio_output@@V?$standard_base@_WV?$string_output_adapter@_W@__crt_stdio_output@@@2@@__crt_stdio_output@@AEAA_N_W@Z 00000001400b3db0 f i libucrt:output.obj
 0001:000b2db8       ?state_case_percent@?$output_processor@DV?$stream_output_adapter@D@__crt_stdio_output@@V?$format_validation_base@DV?$stream_output_adapter@D@__crt_stdio_output@@@2@@__crt_stdio_output@@AEAA_NXZ 00000001400b3db8 f i libucrt:output.obj
 0001:000b2dd4       ?state_case_percent@?$output_processor@DV?$stream_output_adapter@D@__crt_stdio_output@@V?$positional_parameter_base@DV?$stream_output_adapter@D@__crt_stdio_output@@@2@@__crt_stdio_output@@AEAA_NXZ 00000001400b3dd4 f i libucrt:output.obj
 0001:000b2df0       ?state_case_percent@?$output_processor@DV?$stream_output_adapter@D@__crt_stdio_output@@V?$standard_base@DV?$stream_output_adapter@D@__crt_stdio_output@@@2@@__crt_stdio_output@@AEAA_NXZ 00000001400b3df0 f i libucrt:output.obj
 0001:000b2e0c       ?state_case_percent@?$output_processor@DV?$string_output_adapter@D@__crt_stdio_output@@V?$format_validation_base@DV?$string_output_adapter@D@__crt_stdio_output@@@2@@__crt_stdio_output@@AEAA_NXZ 00000001400b3e0c f i libucrt:output.obj
 0001:000b2e28       ?state_case_percent@?$output_processor@DV?$string_output_adapter@D@__crt_stdio_output@@V?$positional_parameter_base@DV?$string_output_adapter@D@__crt_stdio_output@@@2@@__crt_stdio_output@@AEAA_NXZ 00000001400b3e28 f i libucrt:output.obj
 0001:000b2e44       ?state_case_percent@?$output_processor@DV?$string_output_adapter@D@__crt_stdio_output@@V?$standard_base@DV?$string_output_adapter@D@__crt_stdio_output@@@2@@__crt_stdio_output@@AEAA_NXZ 00000001400b3e44 f i libucrt:output.obj
 0001:000b2e60       ?state_case_percent@?$output_processor@_WV?$stream_output_adapter@_W@__crt_stdio_output@@V?$format_validation_base@_WV?$stream_output_adapter@_W@__crt_stdio_output@@@2@@__crt_stdio_output@@AEAA_NXZ 00000001400b3e60 f i libucrt:output.obj
 0001:000b2e7c       ?state_case_percent@?$output_processor@_WV?$stream_output_adapter@_W@__crt_stdio_output@@V?$positional_parameter_base@_WV?$stream_output_adapter@_W@__crt_stdio_output@@@2@@__crt_stdio_output@@AEAA_NXZ 00000001400b3e7c f i libucrt:output.obj
 0001:000b2e98       ?state_case_percent@?$output_processor@_WV?$stream_output_adapter@_W@__crt_stdio_output@@V?$standard_base@_WV?$stream_output_adapter@_W@__crt_stdio_output@@@2@@__crt_stdio_output@@AEAA_NXZ 00000001400b3e98 f i libucrt:output.obj
 0001:000b2eb4       ?state_case_percent@?$output_processor@_WV?$string_output_adapter@_W@__crt_stdio_output@@V?$format_validation_base@_WV?$string_output_adapter@_W@__crt_stdio_output@@@2@@__crt_stdio_output@@AEAA_NXZ 00000001400b3eb4 f i libucrt:output.obj
 0001:000b2ed0       ?state_case_percent@?$output_processor@_WV?$string_output_adapter@_W@__crt_stdio_output@@V?$positional_parameter_base@_WV?$string_output_adapter@_W@__crt_stdio_output@@@2@@__crt_stdio_output@@AEAA_NXZ 00000001400b3ed0 f i libucrt:output.obj
 0001:000b2eec       ?state_case_percent@?$output_processor@_WV?$string_output_adapter@_W@__crt_stdio_output@@V?$standard_base@_WV?$string_output_adapter@_W@__crt_stdio_output@@@2@@__crt_stdio_output@@AEAA_NXZ 00000001400b3eec f i libucrt:output.obj
 0001:000b2f08       ?state_case_precision@?$output_processor@DV?$stream_output_adapter@D@__crt_stdio_output@@V?$format_validation_base@DV?$stream_output_adapter@D@__crt_stdio_output@@@2@@__crt_stdio_output@@AEAA_NXZ 00000001400b3f08 f i libucrt:output.obj
 0001:000b2f44       ?state_case_precision@?$output_processor@DV?$stream_output_adapter@D@__crt_stdio_output@@V?$positional_parameter_base@DV?$stream_output_adapter@D@__crt_stdio_output@@@2@@__crt_stdio_output@@AEAA_NXZ 00000001400b3f44 f i libucrt:output.obj
 0001:000b2fa0       ?state_case_precision@?$output_processor@DV?$stream_output_adapter@D@__crt_stdio_output@@V?$standard_base@DV?$stream_output_adapter@D@__crt_stdio_output@@@2@@__crt_stdio_output@@AEAA_NXZ 00000001400b3fa0 f i libucrt:output.obj
 0001:000b2fdc       ?state_case_precision@?$output_processor@DV?$string_output_adapter@D@__crt_stdio_output@@V?$format_validation_base@DV?$string_output_adapter@D@__crt_stdio_output@@@2@@__crt_stdio_output@@AEAA_NXZ 00000001400b3fdc f i libucrt:output.obj
 0001:000b3018       ?state_case_precision@?$output_processor@DV?$string_output_adapter@D@__crt_stdio_output@@V?$positional_parameter_base@DV?$string_output_adapter@D@__crt_stdio_output@@@2@@__crt_stdio_output@@AEAA_NXZ 00000001400b4018 f i libucrt:output.obj
 0001:000b3074       ?state_case_precision@?$output_processor@DV?$string_output_adapter@D@__crt_stdio_output@@V?$standard_base@DV?$string_output_adapter@D@__crt_stdio_output@@@2@@__crt_stdio_output@@AEAA_NXZ 00000001400b4074 f i libucrt:output.obj
 0001:000b30b0       ?state_case_precision@?$output_processor@_WV?$stream_output_adapter@_W@__crt_stdio_output@@V?$format_validation_base@_WV?$stream_output_adapter@_W@__crt_stdio_output@@@2@@__crt_stdio_output@@AEAA_NXZ 00000001400b40b0 f i libucrt:output.obj
 0001:000b30f0       ?state_case_precision@?$output_processor@_WV?$stream_output_adapter@_W@__crt_stdio_output@@V?$positional_parameter_base@_WV?$stream_output_adapter@_W@__crt_stdio_output@@@2@@__crt_stdio_output@@AEAA_NXZ 00000001400b40f0 f i libucrt:output.obj
 0001:000b3150       ?state_case_precision@?$output_processor@_WV?$stream_output_adapter@_W@__crt_stdio_output@@V?$standard_base@_WV?$stream_output_adapter@_W@__crt_stdio_output@@@2@@__crt_stdio_output@@AEAA_NXZ 00000001400b4150 f i libucrt:output.obj
 0001:000b3190       ?state_case_precision@?$output_processor@_WV?$string_output_adapter@_W@__crt_stdio_output@@V?$format_validation_base@_WV?$string_output_adapter@_W@__crt_stdio_output@@@2@@__crt_stdio_output@@AEAA_NXZ 00000001400b4190 f i libucrt:output.obj
 0001:000b31d0       ?state_case_precision@?$output_processor@_WV?$string_output_adapter@_W@__crt_stdio_output@@V?$positional_parameter_base@_WV?$string_output_adapter@_W@__crt_stdio_output@@@2@@__crt_stdio_output@@AEAA_NXZ 00000001400b41d0 f i libucrt:output.obj
 0001:000b3230       ?state_case_precision@?$output_processor@_WV?$string_output_adapter@_W@__crt_stdio_output@@V?$standard_base@_WV?$string_output_adapter@_W@__crt_stdio_output@@@2@@__crt_stdio_output@@AEAA_NXZ 00000001400b4230 f i libucrt:output.obj
 0001:000b3270       ?state_case_size@?$output_processor@DV?$stream_output_adapter@D@__crt_stdio_output@@V?$format_validation_base@DV?$stream_output_adapter@D@__crt_stdio_output@@@2@@__crt_stdio_output@@AEAA_NXZ 00000001400b4270 f i libucrt:output.obj
 0001:000b3458       ?state_case_size@?$output_processor@DV?$stream_output_adapter@D@__crt_stdio_output@@V?$positional_parameter_base@DV?$stream_output_adapter@D@__crt_stdio_output@@@2@@__crt_stdio_output@@AEAA_NXZ 00000001400b4458 f i libucrt:output.obj
 0001:000b3640       ?state_case_size@?$output_processor@DV?$stream_output_adapter@D@__crt_stdio_output@@V?$standard_base@DV?$stream_output_adapter@D@__crt_stdio_output@@@2@@__crt_stdio_output@@AEAA_NXZ 00000001400b4640 f i libucrt:output.obj
 0001:000b3828       ?state_case_size@?$output_processor@DV?$string_output_adapter@D@__crt_stdio_output@@V?$format_validation_base@DV?$string_output_adapter@D@__crt_stdio_output@@@2@@__crt_stdio_output@@AEAA_NXZ 00000001400b4828 f i libucrt:output.obj
 0001:000b3a10       ?state_case_size@?$output_processor@DV?$string_output_adapter@D@__crt_stdio_output@@V?$positional_parameter_base@DV?$string_output_adapter@D@__crt_stdio_output@@@2@@__crt_stdio_output@@AEAA_NXZ 00000001400b4a10 f i libucrt:output.obj
 0001:000b3bf8       ?state_case_size@?$output_processor@DV?$string_output_adapter@D@__crt_stdio_output@@V?$standard_base@DV?$string_output_adapter@D@__crt_stdio_output@@@2@@__crt_stdio_output@@AEAA_NXZ 00000001400b4bf8 f i libucrt:output.obj
 0001:000b3de0       ?state_case_size@?$output_processor@_WV?$stream_output_adapter@_W@__crt_stdio_output@@V?$format_validation_base@_WV?$stream_output_adapter@_W@__crt_stdio_output@@@2@@__crt_stdio_output@@AEAA_NXZ 00000001400b4de0 f i libucrt:output.obj
 0001:000b3ff8       ?state_case_size@?$output_processor@_WV?$stream_output_adapter@_W@__crt_stdio_output@@V?$positional_parameter_base@_WV?$stream_output_adapter@_W@__crt_stdio_output@@@2@@__crt_stdio_output@@AEAA_NXZ 00000001400b4ff8 f i libucrt:output.obj
 0001:000b4210       ?state_case_size@?$output_processor@_WV?$stream_output_adapter@_W@__crt_stdio_output@@V?$standard_base@_WV?$stream_output_adapter@_W@__crt_stdio_output@@@2@@__crt_stdio_output@@AEAA_NXZ 00000001400b5210 f i libucrt:output.obj
 0001:000b4428       ?state_case_size@?$output_processor@_WV?$string_output_adapter@_W@__crt_stdio_output@@V?$format_validation_base@_WV?$string_output_adapter@_W@__crt_stdio_output@@@2@@__crt_stdio_output@@AEAA_NXZ 00000001400b5428 f i libucrt:output.obj
 0001:000b4640       ?state_case_size@?$output_processor@_WV?$string_output_adapter@_W@__crt_stdio_output@@V?$positional_parameter_base@_WV?$string_output_adapter@_W@__crt_stdio_output@@@2@@__crt_stdio_output@@AEAA_NXZ 00000001400b5640 f i libucrt:output.obj
 0001:000b4858       ?state_case_size@?$output_processor@_WV?$string_output_adapter@_W@__crt_stdio_output@@V?$standard_base@_WV?$string_output_adapter@_W@__crt_stdio_output@@@2@@__crt_stdio_output@@AEAA_NXZ 00000001400b5858 f i libucrt:output.obj
 0001:000b4a70       ?state_case_type@?$output_processor@DV?$stream_output_adapter@D@__crt_stdio_output@@V?$format_validation_base@DV?$stream_output_adapter@D@__crt_stdio_output@@@2@@__crt_stdio_output@@AEAA_NXZ 00000001400b5a70 f i libucrt:output.obj
 0001:000b4fb4       ?state_case_type@?$output_processor@DV?$stream_output_adapter@D@__crt_stdio_output@@V?$positional_parameter_base@DV?$stream_output_adapter@D@__crt_stdio_output@@@2@@__crt_stdio_output@@AEAA_NXZ 00000001400b5fb4 f i libucrt:output.obj
 0001:000b5534       ?state_case_type@?$output_processor@DV?$stream_output_adapter@D@__crt_stdio_output@@V?$standard_base@DV?$stream_output_adapter@D@__crt_stdio_output@@@2@@__crt_stdio_output@@AEAA_NXZ 00000001400b6534 f i libucrt:output.obj
 0001:000b5a78       ?state_case_type@?$output_processor@DV?$string_output_adapter@D@__crt_stdio_output@@V?$format_validation_base@DV?$string_output_adapter@D@__crt_stdio_output@@@2@@__crt_stdio_output@@AEAA_NXZ 00000001400b6a78 f i libucrt:output.obj
 0001:000b5f7c       ?state_case_type@?$output_processor@DV?$string_output_adapter@D@__crt_stdio_output@@V?$positional_parameter_base@DV?$string_output_adapter@D@__crt_stdio_output@@@2@@__crt_stdio_output@@AEAA_NXZ 00000001400b6f7c f i libucrt:output.obj
 0001:000b6498       ?state_case_type@?$output_processor@DV?$string_output_adapter@D@__crt_stdio_output@@V?$standard_base@DV?$string_output_adapter@D@__crt_stdio_output@@@2@@__crt_stdio_output@@AEAA_NXZ 00000001400b7498 f i libucrt:output.obj
 0001:000b699c       ?state_case_type@?$output_processor@_WV?$stream_output_adapter@_W@__crt_stdio_output@@V?$format_validation_base@_WV?$stream_output_adapter@_W@__crt_stdio_output@@@2@@__crt_stdio_output@@AEAA_NXZ 00000001400b799c f i libucrt:output.obj
 0001:000b6f90       ?state_case_type@?$output_processor@_WV?$stream_output_adapter@_W@__crt_stdio_output@@V?$positional_parameter_base@_WV?$stream_output_adapter@_W@__crt_stdio_output@@@2@@__crt_stdio_output@@AEAA_NXZ 00000001400b7f90 f i libucrt:output.obj
 0001:000b75a0       ?state_case_type@?$output_processor@_WV?$stream_output_adapter@_W@__crt_stdio_output@@V?$standard_base@_WV?$stream_output_adapter@_W@__crt_stdio_output@@@2@@__crt_stdio_output@@AEAA_NXZ 00000001400b85a0 f i libucrt:output.obj
 0001:000b7b94       ?state_case_type@?$output_processor@_WV?$string_output_adapter@_W@__crt_stdio_output@@V?$format_validation_base@_WV?$string_output_adapter@_W@__crt_stdio_output@@@2@@__crt_stdio_output@@AEAA_NXZ 00000001400b8b94 f i libucrt:output.obj
 0001:000b8114       ?state_case_type@?$output_processor@_WV?$string_output_adapter@_W@__crt_stdio_output@@V?$positional_parameter_base@_WV?$string_output_adapter@_W@__crt_stdio_output@@@2@@__crt_stdio_output@@AEAA_NXZ 00000001400b9114 f i libucrt:output.obj
 0001:000b86c8       ?state_case_type@?$output_processor@_WV?$string_output_adapter@_W@__crt_stdio_output@@V?$standard_base@_WV?$string_output_adapter@_W@__crt_stdio_output@@@2@@__crt_stdio_output@@AEAA_NXZ 00000001400b96c8 f i libucrt:output.obj
 0001:000b8c48       ?state_case_width@?$output_processor@DV?$stream_output_adapter@D@__crt_stdio_output@@V?$format_validation_base@DV?$stream_output_adapter@D@__crt_stdio_output@@@2@@__crt_stdio_output@@AEAA_NXZ 00000001400b9c48 f i libucrt:output.obj
 0001:000b8c88       ?state_case_width@?$output_processor@DV?$stream_output_adapter@D@__crt_stdio_output@@V?$positional_parameter_base@DV?$stream_output_adapter@D@__crt_stdio_output@@@2@@__crt_stdio_output@@AEAA_NXZ 00000001400b9c88 f i libucrt:output.obj
 0001:000b8cec       ?state_case_width@?$output_processor@DV?$stream_output_adapter@D@__crt_stdio_output@@V?$standard_base@DV?$stream_output_adapter@D@__crt_stdio_output@@@2@@__crt_stdio_output@@AEAA_NXZ 00000001400b9cec f i libucrt:output.obj
 0001:000b8d2c       ?state_case_width@?$output_processor@DV?$string_output_adapter@D@__crt_stdio_output@@V?$format_validation_base@DV?$string_output_adapter@D@__crt_stdio_output@@@2@@__crt_stdio_output@@AEAA_NXZ 00000001400b9d2c f i libucrt:output.obj
 0001:000b8d6c       ?state_case_width@?$output_processor@DV?$string_output_adapter@D@__crt_stdio_output@@V?$positional_parameter_base@DV?$string_output_adapter@D@__crt_stdio_output@@@2@@__crt_stdio_output@@AEAA_NXZ 00000001400b9d6c f i libucrt:output.obj
 0001:000b8dd0       ?state_case_width@?$output_processor@DV?$string_output_adapter@D@__crt_stdio_output@@V?$standard_base@DV?$string_output_adapter@D@__crt_stdio_output@@@2@@__crt_stdio_output@@AEAA_NXZ 00000001400b9dd0 f i libucrt:output.obj
 0001:000b8e10       ?state_case_width@?$output_processor@_WV?$stream_output_adapter@_W@__crt_stdio_output@@V?$format_validation_base@_WV?$stream_output_adapter@_W@__crt_stdio_output@@@2@@__crt_stdio_output@@AEAA_NXZ 00000001400b9e10 f i libucrt:output.obj
 0001:000b8e50       ?state_case_width@?$output_processor@_WV?$stream_output_adapter@_W@__crt_stdio_output@@V?$positional_parameter_base@_WV?$stream_output_adapter@_W@__crt_stdio_output@@@2@@__crt_stdio_output@@AEAA_NXZ 00000001400b9e50 f i libucrt:output.obj
 0001:000b8eb8       ?state_case_width@?$output_processor@_WV?$stream_output_adapter@_W@__crt_stdio_output@@V?$standard_base@_WV?$stream_output_adapter@_W@__crt_stdio_output@@@2@@__crt_stdio_output@@AEAA_NXZ 00000001400b9eb8 f i libucrt:output.obj
 0001:000b8ef8       ?state_case_width@?$output_processor@_WV?$string_output_adapter@_W@__crt_stdio_output@@V?$format_validation_base@_WV?$string_output_adapter@_W@__crt_stdio_output@@@2@@__crt_stdio_output@@AEAA_NXZ 00000001400b9ef8 f i libucrt:output.obj
 0001:000b8f38       ?state_case_width@?$output_processor@_WV?$string_output_adapter@_W@__crt_stdio_output@@V?$positional_parameter_base@_WV?$string_output_adapter@_W@__crt_stdio_output@@@2@@__crt_stdio_output@@AEAA_NXZ 00000001400b9f38 f i libucrt:output.obj
 0001:000b8fa0       ?state_case_width@?$output_processor@_WV?$string_output_adapter@_W@__crt_stdio_output@@V?$standard_base@_WV?$string_output_adapter@_W@__crt_stdio_output@@@2@@__crt_stdio_output@@AEAA_NXZ 00000001400b9fa0 f i libucrt:output.obj
 0001:000b8fe0       ?state_count@?$format_validation_base@DV?$stream_output_adapter@D@__crt_stdio_output@@@__crt_stdio_output@@KAIXZ 00000001400b9fe0 f i libucrt:output.obj
 0001:000b8fe8       ?state_count@?$format_validation_base@DV?$string_output_adapter@D@__crt_stdio_output@@@__crt_stdio_output@@KAIXZ 00000001400b9fe8 f i libucrt:output.obj
 0001:000b8ff0       ?state_count@?$format_validation_base@_WV?$stream_output_adapter@_W@__crt_stdio_output@@@__crt_stdio_output@@KAIXZ 00000001400b9ff0 f i libucrt:output.obj
 0001:000b8ff8       ?state_count@?$format_validation_base@_WV?$string_output_adapter@_W@__crt_stdio_output@@@__crt_stdio_output@@KAIXZ 00000001400b9ff8 f i libucrt:output.obj
 0001:000b9000       ?state_count@?$standard_base@DV?$stream_output_adapter@D@__crt_stdio_output@@@__crt_stdio_output@@KAIXZ 00000001400ba000 f i libucrt:output.obj
 0001:000b9008       ?state_count@?$standard_base@DV?$string_output_adapter@D@__crt_stdio_output@@@__crt_stdio_output@@KAIXZ 00000001400ba008 f i libucrt:output.obj
 0001:000b9010       ?state_count@?$standard_base@_WV?$stream_output_adapter@_W@__crt_stdio_output@@@__crt_stdio_output@@KAIXZ 00000001400ba010 f i libucrt:output.obj
 0001:000b9018       ?state_count@?$standard_base@_WV?$string_output_adapter@_W@__crt_stdio_output@@@__crt_stdio_output@@KAIXZ 00000001400ba018 f i libucrt:output.obj
 0001:000b9020       ?state_transition_table@?$format_validation_base@DV?$stream_output_adapter@D@__crt_stdio_output@@@__crt_stdio_output@@KAAEBV?$spectre_mitigated_lookup_table@Ustate_transition_pair@__crt_stdio_output@@$0IA@@2@XZ 00000001400ba020 f i libucrt:output.obj
 0001:000b902c       ?state_transition_table@?$format_validation_base@DV?$string_output_adapter@D@__crt_stdio_output@@@__crt_stdio_output@@KAAEBV?$spectre_mitigated_lookup_table@Ustate_transition_pair@__crt_stdio_output@@$0IA@@2@XZ 00000001400ba02c f i libucrt:output.obj
 0001:000b9038       ?state_transition_table@?$format_validation_base@_WV?$stream_output_adapter@_W@__crt_stdio_output@@@__crt_stdio_output@@KAAEBV?$spectre_mitigated_lookup_table@Ustate_transition_pair@__crt_stdio_output@@$0IA@@2@XZ 00000001400ba038 f i libucrt:output.obj
 0001:000b9044       ?state_transition_table@?$format_validation_base@_WV?$string_output_adapter@_W@__crt_stdio_output@@@__crt_stdio_output@@KAAEBV?$spectre_mitigated_lookup_table@Ustate_transition_pair@__crt_stdio_output@@$0IA@@2@XZ 00000001400ba044 f i libucrt:output.obj
 0001:000b9050       ?state_transition_table@?$standard_base@DV?$stream_output_adapter@D@__crt_stdio_output@@@__crt_stdio_output@@KAAEBV?$spectre_mitigated_lookup_table@Ustate_transition_pair@__crt_stdio_output@@$0IA@@2@XZ 00000001400ba050 f i libucrt:output.obj
 0001:000b905c       ?state_transition_table@?$standard_base@DV?$string_output_adapter@D@__crt_stdio_output@@@__crt_stdio_output@@KAAEBV?$spectre_mitigated_lookup_table@Ustate_transition_pair@__crt_stdio_output@@$0IA@@2@XZ 00000001400ba05c f i libucrt:output.obj
 0001:000b9068       ?state_transition_table@?$standard_base@_WV?$stream_output_adapter@_W@__crt_stdio_output@@@__crt_stdio_output@@KAAEBV?$spectre_mitigated_lookup_table@Ustate_transition_pair@__crt_stdio_output@@$0IA@@2@XZ 00000001400ba068 f i libucrt:output.obj
 0001:000b9074       ?state_transition_table@?$standard_base@_WV?$string_output_adapter@_W@__crt_stdio_output@@@__crt_stdio_output@@KAAEBV?$spectre_mitigated_lookup_table@Ustate_transition_pair@__crt_stdio_output@@$0IA@@2@XZ 00000001400ba074 f i libucrt:output.obj
 0001:000b9080       ?tchar_string@?$common_data@D@__crt_stdio_output@@IEAAAEAPEADD@Z 00000001400ba080 f i libucrt:output.obj
 0001:000b9088       ?tchar_string@?$common_data@D@__crt_stdio_output@@IEAAAEAPEADXZ 00000001400ba088 f i libucrt:output.obj
 0001:000b9090       ?tchar_string@?$common_data@_W@__crt_stdio_output@@IEAAAEAPEA_WXZ 00000001400ba090 f i libucrt:output.obj
 0001:000b9098       ?tchar_string@?$common_data@_W@__crt_stdio_output@@IEAAAEAPEA_W_W@Z 00000001400ba098 f i libucrt:output.obj
 0001:000b90a0       ?to_integer_size@__crt_stdio_output@@YA_KW4length_modifier@1@@Z 00000001400ba0a0 f i libucrt:output.obj
 0001:000b90f8       ?type_case_X@?$output_processor@DV?$stream_output_adapter@D@__crt_stdio_output@@V?$format_validation_base@DV?$stream_output_adapter@D@__crt_stdio_output@@@2@@__crt_stdio_output@@AEAA_NXZ 00000001400ba0f8 f i libucrt:output.obj
 0001:000b9100       ?type_case_X@?$output_processor@DV?$stream_output_adapter@D@__crt_stdio_output@@V?$positional_parameter_base@DV?$stream_output_adapter@D@__crt_stdio_output@@@2@@__crt_stdio_output@@AEAA_NXZ 00000001400ba100 f i libucrt:output.obj
 0001:000b9108       ?type_case_X@?$output_processor@DV?$stream_output_adapter@D@__crt_stdio_output@@V?$standard_base@DV?$stream_output_adapter@D@__crt_stdio_output@@@2@@__crt_stdio_output@@AEAA_NXZ 00000001400ba108 f i libucrt:output.obj
 0001:000b9110       ?type_case_X@?$output_processor@DV?$string_output_adapter@D@__crt_stdio_output@@V?$format_validation_base@DV?$string_output_adapter@D@__crt_stdio_output@@@2@@__crt_stdio_output@@AEAA_NXZ 00000001400ba110 f i libucrt:output.obj
 0001:000b9118       ?type_case_X@?$output_processor@DV?$string_output_adapter@D@__crt_stdio_output@@V?$positional_parameter_base@DV?$string_output_adapter@D@__crt_stdio_output@@@2@@__crt_stdio_output@@AEAA_NXZ 00000001400ba118 f i libucrt:output.obj
 0001:000b9120       ?type_case_X@?$output_processor@DV?$string_output_adapter@D@__crt_stdio_output@@V?$standard_base@DV?$string_output_adapter@D@__crt_stdio_output@@@2@@__crt_stdio_output@@AEAA_NXZ 00000001400ba120 f i libucrt:output.obj
 0001:000b9128       ?type_case_X@?$output_processor@_WV?$stream_output_adapter@_W@__crt_stdio_output@@V?$format_validation_base@_WV?$stream_output_adapter@_W@__crt_stdio_output@@@2@@__crt_stdio_output@@AEAA_NXZ 00000001400ba128 f i libucrt:output.obj
 0001:000b9130       ?type_case_X@?$output_processor@_WV?$stream_output_adapter@_W@__crt_stdio_output@@V?$positional_parameter_base@_WV?$stream_output_adapter@_W@__crt_stdio_output@@@2@@__crt_stdio_output@@AEAA_NXZ 00000001400ba130 f i libucrt:output.obj
 0001:000b9138       ?type_case_X@?$output_processor@_WV?$stream_output_adapter@_W@__crt_stdio_output@@V?$standard_base@_WV?$stream_output_adapter@_W@__crt_stdio_output@@@2@@__crt_stdio_output@@AEAA_NXZ 00000001400ba138 f i libucrt:output.obj
 0001:000b9140       ?type_case_X@?$output_processor@_WV?$string_output_adapter@_W@__crt_stdio_output@@V?$format_validation_base@_WV?$string_output_adapter@_W@__crt_stdio_output@@@2@@__crt_stdio_output@@AEAA_NXZ 00000001400ba140 f i libucrt:output.obj
 0001:000b9148       ?type_case_X@?$output_processor@_WV?$string_output_adapter@_W@__crt_stdio_output@@V?$positional_parameter_base@_WV?$string_output_adapter@_W@__crt_stdio_output@@@2@@__crt_stdio_output@@AEAA_NXZ 00000001400ba148 f i libucrt:output.obj
 0001:000b9150       ?type_case_X@?$output_processor@_WV?$string_output_adapter@_W@__crt_stdio_output@@V?$standard_base@_WV?$string_output_adapter@_W@__crt_stdio_output@@@2@@__crt_stdio_output@@AEAA_NXZ 00000001400ba150 f i libucrt:output.obj
 0001:000b9158       ?type_case_Z@?$output_processor@DV?$stream_output_adapter@D@__crt_stdio_output@@V?$format_validation_base@DV?$stream_output_adapter@D@__crt_stdio_output@@@2@@__crt_stdio_output@@AEAA_NXZ 00000001400ba158 f i libucrt:output.obj
 0001:000b91f4       ?type_case_Z@?$output_processor@DV?$stream_output_adapter@D@__crt_stdio_output@@V?$positional_parameter_base@DV?$stream_output_adapter@D@__crt_stdio_output@@@2@@__crt_stdio_output@@AEAA_NXZ 00000001400ba1f4 f i libucrt:output.obj
 0001:000b92c4       ?type_case_Z@?$output_processor@DV?$stream_output_adapter@D@__crt_stdio_output@@V?$standard_base@DV?$stream_output_adapter@D@__crt_stdio_output@@@2@@__crt_stdio_output@@AEAA_NXZ 00000001400ba2c4 f i libucrt:output.obj
 0001:000b9360       ?type_case_Z@?$output_processor@DV?$string_output_adapter@D@__crt_stdio_output@@V?$format_validation_base@DV?$string_output_adapter@D@__crt_stdio_output@@@2@@__crt_stdio_output@@AEAA_NXZ 00000001400ba360 f i libucrt:output.obj
 0001:000b93fc       ?type_case_Z@?$output_processor@DV?$string_output_adapter@D@__crt_stdio_output@@V?$positional_parameter_base@DV?$string_output_adapter@D@__crt_stdio_output@@@2@@__crt_stdio_output@@AEAA_NXZ 00000001400ba3fc f i libucrt:output.obj
 0001:000b94cc       ?type_case_Z@?$output_processor@DV?$string_output_adapter@D@__crt_stdio_output@@V?$standard_base@DV?$string_output_adapter@D@__crt_stdio_output@@@2@@__crt_stdio_output@@AEAA_NXZ 00000001400ba4cc f i libucrt:output.obj
 0001:000b9568       ?type_case_Z@?$output_processor@_WV?$stream_output_adapter@_W@__crt_stdio_output@@V?$format_validation_base@_WV?$stream_output_adapter@_W@__crt_stdio_output@@@2@@__crt_stdio_output@@AEAA_NXZ 00000001400ba568 f i libucrt:output.obj
 0001:000b9604       ?type_case_Z@?$output_processor@_WV?$stream_output_adapter@_W@__crt_stdio_output@@V?$positional_parameter_base@_WV?$stream_output_adapter@_W@__crt_stdio_output@@@2@@__crt_stdio_output@@AEAA_NXZ 00000001400ba604 f i libucrt:output.obj
 0001:000b96c0       ?type_case_Z@?$output_processor@_WV?$stream_output_adapter@_W@__crt_stdio_output@@V?$standard_base@_WV?$stream_output_adapter@_W@__crt_stdio_output@@@2@@__crt_stdio_output@@AEAA_NXZ 00000001400ba6c0 f i libucrt:output.obj
 0001:000b975c       ?type_case_Z@?$output_processor@_WV?$string_output_adapter@_W@__crt_stdio_output@@V?$format_validation_base@_WV?$string_output_adapter@_W@__crt_stdio_output@@@2@@__crt_stdio_output@@AEAA_NXZ 00000001400ba75c f i libucrt:output.obj
 0001:000b97f8       ?type_case_Z@?$output_processor@_WV?$string_output_adapter@_W@__crt_stdio_output@@V?$positional_parameter_base@_WV?$string_output_adapter@_W@__crt_stdio_output@@@2@@__crt_stdio_output@@AEAA_NXZ 00000001400ba7f8 f i libucrt:output.obj
 0001:000b98b4       ?type_case_Z@?$output_processor@_WV?$string_output_adapter@_W@__crt_stdio_output@@V?$standard_base@_WV?$string_output_adapter@_W@__crt_stdio_output@@@2@@__crt_stdio_output@@AEAA_NXZ 00000001400ba8b4 f i libucrt:output.obj
 0001:000b9950       ?type_case_a@?$output_processor@DV?$stream_output_adapter@D@__crt_stdio_output@@V?$format_validation_base@DV?$stream_output_adapter@D@__crt_stdio_output@@@2@@__crt_stdio_output@@AEAA_NXZ 00000001400ba950 f i libucrt:output.obj
 0001:000b9c38       ?type_case_a@?$output_processor@DV?$stream_output_adapter@D@__crt_stdio_output@@V?$positional_parameter_base@DV?$stream_output_adapter@D@__crt_stdio_output@@@2@@__crt_stdio_output@@AEAA_NXZ 00000001400bac38 f i libucrt:output.obj
 0001:000b9f54       ?type_case_a@?$output_processor@DV?$stream_output_adapter@D@__crt_stdio_output@@V?$standard_base@DV?$stream_output_adapter@D@__crt_stdio_output@@@2@@__crt_stdio_output@@AEAA_NXZ 00000001400baf54 f i libucrt:output.obj
 0001:000ba23c       ?type_case_a@?$output_processor@DV?$string_output_adapter@D@__crt_stdio_output@@V?$format_validation_base@DV?$string_output_adapter@D@__crt_stdio_output@@@2@@__crt_stdio_output@@AEAA_NXZ 00000001400bb23c f i libucrt:output.obj
 0001:000ba524       ?type_case_a@?$output_processor@DV?$string_output_adapter@D@__crt_stdio_output@@V?$positional_parameter_base@DV?$string_output_adapter@D@__crt_stdio_output@@@2@@__crt_stdio_output@@AEAA_NXZ 00000001400bb524 f i libucrt:output.obj
 0001:000ba840       ?type_case_a@?$output_processor@DV?$string_output_adapter@D@__crt_stdio_output@@V?$standard_base@DV?$string_output_adapter@D@__crt_stdio_output@@@2@@__crt_stdio_output@@AEAA_NXZ 00000001400bb840 f i libucrt:output.obj
 0001:000bab28       ?type_case_a@?$output_processor@_WV?$stream_output_adapter@_W@__crt_stdio_output@@V?$format_validation_base@_WV?$stream_output_adapter@_W@__crt_stdio_output@@@2@@__crt_stdio_output@@AEAA_NXZ 00000001400bbb28 f i libucrt:output.obj
 0001:000bae28       ?type_case_a@?$output_processor@_WV?$stream_output_adapter@_W@__crt_stdio_output@@V?$positional_parameter_base@_WV?$stream_output_adapter@_W@__crt_stdio_output@@@2@@__crt_stdio_output@@AEAA_NXZ 00000001400bbe28 f i libucrt:output.obj
 0001:000bb160       ?type_case_a@?$output_processor@_WV?$stream_output_adapter@_W@__crt_stdio_output@@V?$standard_base@_WV?$stream_output_adapter@_W@__crt_stdio_output@@@2@@__crt_stdio_output@@AEAA_NXZ 00000001400bc160 f i libucrt:output.obj
 0001:000bb460       ?type_case_a@?$output_processor@_WV?$string_output_adapter@_W@__crt_stdio_output@@V?$format_validation_base@_WV?$string_output_adapter@_W@__crt_stdio_output@@@2@@__crt_stdio_output@@AEAA_NXZ 00000001400bc460 f i libucrt:output.obj
 0001:000bb760       ?type_case_a@?$output_processor@_WV?$string_output_adapter@_W@__crt_stdio_output@@V?$positional_parameter_base@_WV?$string_output_adapter@_W@__crt_stdio_output@@@2@@__crt_stdio_output@@AEAA_NXZ 00000001400bc760 f i libucrt:output.obj
 0001:000bba98       ?type_case_a@?$output_processor@_WV?$string_output_adapter@_W@__crt_stdio_output@@V?$standard_base@_WV?$string_output_adapter@_W@__crt_stdio_output@@@2@@__crt_stdio_output@@AEAA_NXZ 00000001400bca98 f i libucrt:output.obj
 0001:000bbd98       ?type_case_c@?$output_processor@DV?$stream_output_adapter@D@__crt_stdio_output@@V?$format_validation_base@DV?$stream_output_adapter@D@__crt_stdio_output@@@2@@__crt_stdio_output@@AEAA_NXZ 00000001400bcd98 f i libucrt:output.obj
 0001:000bbda0       ?type_case_c@?$output_processor@DV?$stream_output_adapter@D@__crt_stdio_output@@V?$positional_parameter_base@DV?$stream_output_adapter@D@__crt_stdio_output@@@2@@__crt_stdio_output@@AEAA_NXZ 00000001400bcda0 f i libucrt:output.obj
 0001:000bbda8       ?type_case_c@?$output_processor@DV?$stream_output_adapter@D@__crt_stdio_output@@V?$standard_base@DV?$stream_output_adapter@D@__crt_stdio_output@@@2@@__crt_stdio_output@@AEAA_NXZ 00000001400bcda8 f i libucrt:output.obj
 0001:000bbdb0       ?type_case_c@?$output_processor@DV?$string_output_adapter@D@__crt_stdio_output@@V?$format_validation_base@DV?$string_output_adapter@D@__crt_stdio_output@@@2@@__crt_stdio_output@@AEAA_NXZ 00000001400bcdb0 f i libucrt:output.obj
 0001:000bbdb8       ?type_case_c@?$output_processor@DV?$string_output_adapter@D@__crt_stdio_output@@V?$positional_parameter_base@DV?$string_output_adapter@D@__crt_stdio_output@@@2@@__crt_stdio_output@@AEAA_NXZ 00000001400bcdb8 f i libucrt:output.obj
 0001:000bbdc0       ?type_case_c@?$output_processor@DV?$string_output_adapter@D@__crt_stdio_output@@V?$standard_base@DV?$string_output_adapter@D@__crt_stdio_output@@@2@@__crt_stdio_output@@AEAA_NXZ 00000001400bcdc0 f i libucrt:output.obj
 0001:000bbdc8       ?type_case_c@?$output_processor@_WV?$stream_output_adapter@_W@__crt_stdio_output@@V?$format_validation_base@_WV?$stream_output_adapter@_W@__crt_stdio_output@@@2@@__crt_stdio_output@@AEAA_NXZ 00000001400bcdc8 f i libucrt:output.obj
 0001:000bbdd0       ?type_case_c@?$output_processor@_WV?$stream_output_adapter@_W@__crt_stdio_output@@V?$positional_parameter_base@_WV?$stream_output_adapter@_W@__crt_stdio_output@@@2@@__crt_stdio_output@@AEAA_NXZ 00000001400bcdd0 f i libucrt:output.obj
 0001:000bbdd8       ?type_case_c@?$output_processor@_WV?$stream_output_adapter@_W@__crt_stdio_output@@V?$standard_base@_WV?$stream_output_adapter@_W@__crt_stdio_output@@@2@@__crt_stdio_output@@AEAA_NXZ 00000001400bcdd8 f i libucrt:output.obj
 0001:000bbde0       ?type_case_c@?$output_processor@_WV?$string_output_adapter@_W@__crt_stdio_output@@V?$format_validation_base@_WV?$string_output_adapter@_W@__crt_stdio_output@@@2@@__crt_stdio_output@@AEAA_NXZ 00000001400bcde0 f i libucrt:output.obj
 0001:000bbde8       ?type_case_c@?$output_processor@_WV?$string_output_adapter@_W@__crt_stdio_output@@V?$positional_parameter_base@_WV?$string_output_adapter@_W@__crt_stdio_output@@@2@@__crt_stdio_output@@AEAA_NXZ 00000001400bcde8 f i libucrt:output.obj
 0001:000bbdf0       ?type_case_c@?$output_processor@_WV?$string_output_adapter@_W@__crt_stdio_output@@V?$standard_base@_WV?$string_output_adapter@_W@__crt_stdio_output@@@2@@__crt_stdio_output@@AEAA_NXZ 00000001400bcdf0 f i libucrt:output.obj
 0001:000bbdf8       ?type_case_c_tchar@?$output_processor@DV?$stream_output_adapter@D@__crt_stdio_output@@V?$format_validation_base@DV?$stream_output_adapter@D@__crt_stdio_output@@@2@@__crt_stdio_output@@AEAA_ND@Z 00000001400bcdf8 f i libucrt:output.obj
 0001:000bbf00       ?type_case_c_tchar@?$output_processor@DV?$stream_output_adapter@D@__crt_stdio_output@@V?$positional_parameter_base@DV?$stream_output_adapter@D@__crt_stdio_output@@@2@@__crt_stdio_output@@AEAA_ND@Z 00000001400bcf00 f i libucrt:output.obj
 0001:000bc060       ?type_case_c_tchar@?$output_processor@DV?$stream_output_adapter@D@__crt_stdio_output@@V?$standard_base@DV?$stream_output_adapter@D@__crt_stdio_output@@@2@@__crt_stdio_output@@AEAA_ND@Z 00000001400bd060 f i libucrt:output.obj
 0001:000bc168       ?type_case_c_tchar@?$output_processor@DV?$string_output_adapter@D@__crt_stdio_output@@V?$format_validation_base@DV?$string_output_adapter@D@__crt_stdio_output@@@2@@__crt_stdio_output@@AEAA_ND@Z 00000001400bd168 f i libucrt:output.obj
 0001:000bc270       ?type_case_c_tchar@?$output_processor@DV?$string_output_adapter@D@__crt_stdio_output@@V?$positional_parameter_base@DV?$string_output_adapter@D@__crt_stdio_output@@@2@@__crt_stdio_output@@AEAA_ND@Z 00000001400bd270 f i libucrt:output.obj
 0001:000bc3d0       ?type_case_c_tchar@?$output_processor@DV?$string_output_adapter@D@__crt_stdio_output@@V?$standard_base@DV?$string_output_adapter@D@__crt_stdio_output@@@2@@__crt_stdio_output@@AEAA_ND@Z 00000001400bd3d0 f i libucrt:output.obj
 0001:000bc4d8       ?type_case_c_tchar@?$output_processor@_WV?$stream_output_adapter@_W@__crt_stdio_output@@V?$format_validation_base@_WV?$stream_output_adapter@_W@__crt_stdio_output@@@2@@__crt_stdio_output@@AEAA_N_W@Z 00000001400bd4d8 f i libucrt:output.obj
 0001:000bc5d0       ?type_case_c_tchar@?$output_processor@_WV?$stream_output_adapter@_W@__crt_stdio_output@@V?$positional_parameter_base@_WV?$stream_output_adapter@_W@__crt_stdio_output@@@2@@__crt_stdio_output@@AEAA_N_W@Z 00000001400bd5d0 f i libucrt:output.obj
 0001:000bc704       ?type_case_c_tchar@?$output_processor@_WV?$stream_output_adapter@_W@__crt_stdio_output@@V?$standard_base@_WV?$stream_output_adapter@_W@__crt_stdio_output@@@2@@__crt_stdio_output@@AEAA_N_W@Z 00000001400bd704 f i libucrt:output.obj
 0001:000bc7fc       ?type_case_c_tchar@?$output_processor@_WV?$string_output_adapter@_W@__crt_stdio_output@@V?$format_validation_base@_WV?$string_output_adapter@_W@__crt_stdio_output@@@2@@__crt_stdio_output@@AEAA_N_W@Z 00000001400bd7fc f i libucrt:output.obj
 0001:000bc8f4       ?type_case_c_tchar@?$output_processor@_WV?$string_output_adapter@_W@__crt_stdio_output@@V?$positional_parameter_base@_WV?$string_output_adapter@_W@__crt_stdio_output@@@2@@__crt_stdio_output@@AEAA_N_W@Z 00000001400bd8f4 f i libucrt:output.obj
 0001:000bca28       ?type_case_c_tchar@?$output_processor@_WV?$string_output_adapter@_W@__crt_stdio_output@@V?$standard_base@_WV?$string_output_adapter@_W@__crt_stdio_output@@@2@@__crt_stdio_output@@AEAA_N_W@Z 00000001400bda28 f i libucrt:output.obj
 0001:000bcb20       ?type_case_d@?$output_processor@DV?$stream_output_adapter@D@__crt_stdio_output@@V?$format_validation_base@DV?$stream_output_adapter@D@__crt_stdio_output@@@2@@__crt_stdio_output@@AEAA_NXZ 00000001400bdb20 f i libucrt:output.obj
 0001:000bcb30       ?type_case_d@?$output_processor@DV?$stream_output_adapter@D@__crt_stdio_output@@V?$positional_parameter_base@DV?$stream_output_adapter@D@__crt_stdio_output@@@2@@__crt_stdio_output@@AEAA_NXZ 00000001400bdb30 f i libucrt:output.obj
 0001:000bcb40       ?type_case_d@?$output_processor@DV?$stream_output_adapter@D@__crt_stdio_output@@V?$standard_base@DV?$stream_output_adapter@D@__crt_stdio_output@@@2@@__crt_stdio_output@@AEAA_NXZ 00000001400bdb40 f i libucrt:output.obj
 0001:000bcb50       ?type_case_d@?$output_processor@DV?$string_output_adapter@D@__crt_stdio_output@@V?$format_validation_base@DV?$string_output_adapter@D@__crt_stdio_output@@@2@@__crt_stdio_output@@AEAA_NXZ 00000001400bdb50 f i libucrt:output.obj
 0001:000bcb60       ?type_case_d@?$output_processor@DV?$string_output_adapter@D@__crt_stdio_output@@V?$positional_parameter_base@DV?$string_output_adapter@D@__crt_stdio_output@@@2@@__crt_stdio_output@@AEAA_NXZ 00000001400bdb60 f i libucrt:output.obj
 0001:000bcb70       ?type_case_d@?$output_processor@DV?$string_output_adapter@D@__crt_stdio_output@@V?$standard_base@DV?$string_output_adapter@D@__crt_stdio_output@@@2@@__crt_stdio_output@@AEAA_NXZ 00000001400bdb70 f i libucrt:output.obj
 0001:000bcb80       ?type_case_d@?$output_processor@_WV?$stream_output_adapter@_W@__crt_stdio_output@@V?$format_validation_base@_WV?$stream_output_adapter@_W@__crt_stdio_output@@@2@@__crt_stdio_output@@AEAA_NXZ 00000001400bdb80 f i libucrt:output.obj
 0001:000bcb90       ?type_case_d@?$output_processor@_WV?$stream_output_adapter@_W@__crt_stdio_output@@V?$positional_parameter_base@_WV?$stream_output_adapter@_W@__crt_stdio_output@@@2@@__crt_stdio_output@@AEAA_NXZ 00000001400bdb90 f i libucrt:output.obj
 0001:000bcba0       ?type_case_d@?$output_processor@_WV?$stream_output_adapter@_W@__crt_stdio_output@@V?$standard_base@_WV?$stream_output_adapter@_W@__crt_stdio_output@@@2@@__crt_stdio_output@@AEAA_NXZ 00000001400bdba0 f i libucrt:output.obj
 0001:000bcbb0       ?type_case_d@?$output_processor@_WV?$string_output_adapter@_W@__crt_stdio_output@@V?$format_validation_base@_WV?$string_output_adapter@_W@__crt_stdio_output@@@2@@__crt_stdio_output@@AEAA_NXZ 00000001400bdbb0 f i libucrt:output.obj
 0001:000bcbc0       ?type_case_d@?$output_processor@_WV?$string_output_adapter@_W@__crt_stdio_output@@V?$positional_parameter_base@_WV?$string_output_adapter@_W@__crt_stdio_output@@@2@@__crt_stdio_output@@AEAA_NXZ 00000001400bdbc0 f i libucrt:output.obj
 0001:000bcbd0       ?type_case_d@?$output_processor@_WV?$string_output_adapter@_W@__crt_stdio_output@@V?$standard_base@_WV?$string_output_adapter@_W@__crt_stdio_output@@@2@@__crt_stdio_output@@AEAA_NXZ 00000001400bdbd0 f i libucrt:output.obj
 0001:000bcbe0       ?type_case_n@?$output_processor@DV?$stream_output_adapter@D@__crt_stdio_output@@V?$format_validation_base@DV?$stream_output_adapter@D@__crt_stdio_output@@@2@@__crt_stdio_output@@AEAA_NXZ 00000001400bdbe0 f i libucrt:output.obj
 0001:000bccc4       ?type_case_n@?$output_processor@DV?$stream_output_adapter@D@__crt_stdio_output@@V?$positional_parameter_base@DV?$stream_output_adapter@D@__crt_stdio_output@@@2@@__crt_stdio_output@@AEAA_NXZ 00000001400bdcc4 f i libucrt:output.obj
 0001:000bcde0       ?type_case_n@?$output_processor@DV?$stream_output_adapter@D@__crt_stdio_output@@V?$standard_base@DV?$stream_output_adapter@D@__crt_stdio_output@@@2@@__crt_stdio_output@@AEAA_NXZ 00000001400bdde0 f i libucrt:output.obj
 0001:000bcec4       ?type_case_n@?$output_processor@DV?$string_output_adapter@D@__crt_stdio_output@@V?$format_validation_base@DV?$string_output_adapter@D@__crt_stdio_output@@@2@@__crt_stdio_output@@AEAA_NXZ 00000001400bdec4 f i libucrt:output.obj
 0001:000bcfa8       ?type_case_n@?$output_processor@DV?$string_output_adapter@D@__crt_stdio_output@@V?$positional_parameter_base@DV?$string_output_adapter@D@__crt_stdio_output@@@2@@__crt_stdio_output@@AEAA_NXZ 00000001400bdfa8 f i libucrt:output.obj
 0001:000bd0c4       ?type_case_n@?$output_processor@DV?$string_output_adapter@D@__crt_stdio_output@@V?$standard_base@DV?$string_output_adapter@D@__crt_stdio_output@@@2@@__crt_stdio_output@@AEAA_NXZ 00000001400be0c4 f i libucrt:output.obj
 0001:000bd1a8       ?type_case_n@?$output_processor@_WV?$stream_output_adapter@_W@__crt_stdio_output@@V?$format_validation_base@_WV?$stream_output_adapter@_W@__crt_stdio_output@@@2@@__crt_stdio_output@@AEAA_NXZ 00000001400be1a8 f i libucrt:output.obj
 0001:000bd28c       ?type_case_n@?$output_processor@_WV?$stream_output_adapter@_W@__crt_stdio_output@@V?$positional_parameter_base@_WV?$stream_output_adapter@_W@__crt_stdio_output@@@2@@__crt_stdio_output@@AEAA_NXZ 00000001400be28c f i libucrt:output.obj
 0001:000bd3a8       ?type_case_n@?$output_processor@_WV?$stream_output_adapter@_W@__crt_stdio_output@@V?$standard_base@_WV?$stream_output_adapter@_W@__crt_stdio_output@@@2@@__crt_stdio_output@@AEAA_NXZ 00000001400be3a8 f i libucrt:output.obj
 0001:000bd48c       ?type_case_n@?$output_processor@_WV?$string_output_adapter@_W@__crt_stdio_output@@V?$format_validation_base@_WV?$string_output_adapter@_W@__crt_stdio_output@@@2@@__crt_stdio_output@@AEAA_NXZ 00000001400be48c f i libucrt:output.obj
 0001:000bd570       ?type_case_n@?$output_processor@_WV?$string_output_adapter@_W@__crt_stdio_output@@V?$positional_parameter_base@_WV?$string_output_adapter@_W@__crt_stdio_output@@@2@@__crt_stdio_output@@AEAA_NXZ 00000001400be570 f i libucrt:output.obj
 0001:000bd68c       ?type_case_n@?$output_processor@_WV?$string_output_adapter@_W@__crt_stdio_output@@V?$standard_base@_WV?$string_output_adapter@_W@__crt_stdio_output@@@2@@__crt_stdio_output@@AEAA_NXZ 00000001400be68c f i libucrt:output.obj
 0001:000bd770       ?type_case_o@?$output_processor@DV?$stream_output_adapter@D@__crt_stdio_output@@V?$format_validation_base@DV?$stream_output_adapter@D@__crt_stdio_output@@@2@@__crt_stdio_output@@AEAA_NXZ 00000001400be770 f i libucrt:output.obj
 0001:000bd790       ?type_case_o@?$output_processor@DV?$stream_output_adapter@D@__crt_stdio_output@@V?$positional_parameter_base@DV?$stream_output_adapter@D@__crt_stdio_output@@@2@@__crt_stdio_output@@AEAA_NXZ 00000001400be790 f i libucrt:output.obj
 0001:000bd7b0       ?type_case_o@?$output_processor@DV?$stream_output_adapter@D@__crt_stdio_output@@V?$standard_base@DV?$stream_output_adapter@D@__crt_stdio_output@@@2@@__crt_stdio_output@@AEAA_NXZ 00000001400be7b0 f i libucrt:output.obj
 0001:000bd7d0       ?type_case_o@?$output_processor@DV?$string_output_adapter@D@__crt_stdio_output@@V?$format_validation_base@DV?$string_output_adapter@D@__crt_stdio_output@@@2@@__crt_stdio_output@@AEAA_NXZ 00000001400be7d0 f i libucrt:output.obj
 0001:000bd7f0       ?type_case_o@?$output_processor@DV?$string_output_adapter@D@__crt_stdio_output@@V?$positional_parameter_base@DV?$string_output_adapter@D@__crt_stdio_output@@@2@@__crt_stdio_output@@AEAA_NXZ 00000001400be7f0 f i libucrt:output.obj
 0001:000bd810       ?type_case_o@?$output_processor@DV?$string_output_adapter@D@__crt_stdio_output@@V?$standard_base@DV?$string_output_adapter@D@__crt_stdio_output@@@2@@__crt_stdio_output@@AEAA_NXZ 00000001400be810 f i libucrt:output.obj
 0001:000bd830       ?type_case_o@?$output_processor@_WV?$stream_output_adapter@_W@__crt_stdio_output@@V?$format_validation_base@_WV?$stream_output_adapter@_W@__crt_stdio_output@@@2@@__crt_stdio_output@@AEAA_NXZ 00000001400be830 f i libucrt:output.obj
 0001:000bd850       ?type_case_o@?$output_processor@_WV?$stream_output_adapter@_W@__crt_stdio_output@@V?$positional_parameter_base@_WV?$stream_output_adapter@_W@__crt_stdio_output@@@2@@__crt_stdio_output@@AEAA_NXZ 00000001400be850 f i libucrt:output.obj
 0001:000bd870       ?type_case_o@?$output_processor@_WV?$stream_output_adapter@_W@__crt_stdio_output@@V?$standard_base@_WV?$stream_output_adapter@_W@__crt_stdio_output@@@2@@__crt_stdio_output@@AEAA_NXZ 00000001400be870 f i libucrt:output.obj
 0001:000bd890       ?type_case_o@?$output_processor@_WV?$string_output_adapter@_W@__crt_stdio_output@@V?$format_validation_base@_WV?$string_output_adapter@_W@__crt_stdio_output@@@2@@__crt_stdio_output@@AEAA_NXZ 00000001400be890 f i libucrt:output.obj
 0001:000bd8b0       ?type_case_o@?$output_processor@_WV?$string_output_adapter@_W@__crt_stdio_output@@V?$positional_parameter_base@_WV?$string_output_adapter@_W@__crt_stdio_output@@@2@@__crt_stdio_output@@AEAA_NXZ 00000001400be8b0 f i libucrt:output.obj
 0001:000bd8d0       ?type_case_o@?$output_processor@_WV?$string_output_adapter@_W@__crt_stdio_output@@V?$standard_base@_WV?$string_output_adapter@_W@__crt_stdio_output@@@2@@__crt_stdio_output@@AEAA_NXZ 00000001400be8d0 f i libucrt:output.obj
 0001:000bd8f0       ?type_case_p@?$output_processor@DV?$stream_output_adapter@D@__crt_stdio_output@@V?$format_validation_base@DV?$stream_output_adapter@D@__crt_stdio_output@@@2@@__crt_stdio_output@@AEAA_NXZ 00000001400be8f0 f i libucrt:output.obj
 0001:000bd90c       ?type_case_p@?$output_processor@DV?$stream_output_adapter@D@__crt_stdio_output@@V?$positional_parameter_base@DV?$stream_output_adapter@D@__crt_stdio_output@@@2@@__crt_stdio_output@@AEAA_NXZ 00000001400be90c f i libucrt:output.obj
 0001:000bd928       ?type_case_p@?$output_processor@DV?$stream_output_adapter@D@__crt_stdio_output@@V?$standard_base@DV?$stream_output_adapter@D@__crt_stdio_output@@@2@@__crt_stdio_output@@AEAA_NXZ 00000001400be928 f i libucrt:output.obj
 0001:000bd944       ?type_case_p@?$output_processor@DV?$string_output_adapter@D@__crt_stdio_output@@V?$format_validation_base@DV?$string_output_adapter@D@__crt_stdio_output@@@2@@__crt_stdio_output@@AEAA_NXZ 00000001400be944 f i libucrt:output.obj
 0001:000bd960       ?type_case_p@?$output_processor@DV?$string_output_adapter@D@__crt_stdio_output@@V?$positional_parameter_base@DV?$string_output_adapter@D@__crt_stdio_output@@@2@@__crt_stdio_output@@AEAA_NXZ 00000001400be960 f i libucrt:output.obj
 0001:000bd97c       ?type_case_p@?$output_processor@DV?$string_output_adapter@D@__crt_stdio_output@@V?$standard_base@DV?$string_output_adapter@D@__crt_stdio_output@@@2@@__crt_stdio_output@@AEAA_NXZ 00000001400be97c f i libucrt:output.obj
 0001:000bd998       ?type_case_p@?$output_processor@_WV?$stream_output_adapter@_W@__crt_stdio_output@@V?$format_validation_base@_WV?$stream_output_adapter@_W@__crt_stdio_output@@@2@@__crt_stdio_output@@AEAA_NXZ 00000001400be998 f i libucrt:output.obj
 0001:000bd9b4       ?type_case_p@?$output_processor@_WV?$stream_output_adapter@_W@__crt_stdio_output@@V?$positional_parameter_base@_WV?$stream_output_adapter@_W@__crt_stdio_output@@@2@@__crt_stdio_output@@AEAA_NXZ 00000001400be9b4 f i libucrt:output.obj
 0001:000bd9d0       ?type_case_p@?$output_processor@_WV?$stream_output_adapter@_W@__crt_stdio_output@@V?$standard_base@_WV?$stream_output_adapter@_W@__crt_stdio_output@@@2@@__crt_stdio_output@@AEAA_NXZ 00000001400be9d0 f i libucrt:output.obj
 0001:000bd9ec       ?type_case_p@?$output_processor@_WV?$string_output_adapter@_W@__crt_stdio_output@@V?$format_validation_base@_WV?$string_output_adapter@_W@__crt_stdio_output@@@2@@__crt_stdio_output@@AEAA_NXZ 00000001400be9ec f i libucrt:output.obj
 0001:000bda08       ?type_case_p@?$output_processor@_WV?$string_output_adapter@_W@__crt_stdio_output@@V?$positional_parameter_base@_WV?$string_output_adapter@_W@__crt_stdio_output@@@2@@__crt_stdio_output@@AEAA_NXZ 00000001400bea08 f i libucrt:output.obj
 0001:000bda24       ?type_case_p@?$output_processor@_WV?$string_output_adapter@_W@__crt_stdio_output@@V?$standard_base@_WV?$string_output_adapter@_W@__crt_stdio_output@@@2@@__crt_stdio_output@@AEAA_NXZ 00000001400bea24 f i libucrt:output.obj
 0001:000bda40       ?type_case_s@?$output_processor@DV?$stream_output_adapter@D@__crt_stdio_output@@V?$format_validation_base@DV?$stream_output_adapter@D@__crt_stdio_output@@@2@@__crt_stdio_output@@AEAA_NXZ 00000001400bea40 f i libucrt:output.obj
 0001:000bdb00       ?type_case_s@?$output_processor@DV?$stream_output_adapter@D@__crt_stdio_output@@V?$positional_parameter_base@DV?$stream_output_adapter@D@__crt_stdio_output@@@2@@__crt_stdio_output@@AEAA_NXZ 00000001400beb00 f i libucrt:output.obj
 0001:000bdbec       ?type_case_s@?$output_processor@DV?$stream_output_adapter@D@__crt_stdio_output@@V?$standard_base@DV?$stream_output_adapter@D@__crt_stdio_output@@@2@@__crt_stdio_output@@AEAA_NXZ 00000001400bebec f i libucrt:output.obj
 0001:000bdcac       ?type_case_s@?$output_processor@DV?$string_output_adapter@D@__crt_stdio_output@@V?$format_validation_base@DV?$string_output_adapter@D@__crt_stdio_output@@@2@@__crt_stdio_output@@AEAA_NXZ 00000001400becac f i libucrt:output.obj
 0001:000bdd6c       ?type_case_s@?$output_processor@DV?$string_output_adapter@D@__crt_stdio_output@@V?$positional_parameter_base@DV?$string_output_adapter@D@__crt_stdio_output@@@2@@__crt_stdio_output@@AEAA_NXZ 00000001400bed6c f i libucrt:output.obj
 0001:000bde58       ?type_case_s@?$output_processor@DV?$string_output_adapter@D@__crt_stdio_output@@V?$standard_base@DV?$string_output_adapter@D@__crt_stdio_output@@@2@@__crt_stdio_output@@AEAA_NXZ 00000001400bee58 f i libucrt:output.obj
 0001:000bdf18       ?type_case_s@?$output_processor@_WV?$stream_output_adapter@_W@__crt_stdio_output@@V?$format_validation_base@_WV?$stream_output_adapter@_W@__crt_stdio_output@@@2@@__crt_stdio_output@@AEAA_NXZ 00000001400bef18 f i libucrt:output.obj
 0001:000bdfdc       ?type_case_s@?$output_processor@_WV?$stream_output_adapter@_W@__crt_stdio_output@@V?$positional_parameter_base@_WV?$stream_output_adapter@_W@__crt_stdio_output@@@2@@__crt_stdio_output@@AEAA_NXZ 00000001400befdc f i libucrt:output.obj
 0001:000be0c0       ?type_case_s@?$output_processor@_WV?$stream_output_adapter@_W@__crt_stdio_output@@V?$standard_base@_WV?$stream_output_adapter@_W@__crt_stdio_output@@@2@@__crt_stdio_output@@AEAA_NXZ 00000001400bf0c0 f i libucrt:output.obj
 0001:000be184       ?type_case_s@?$output_processor@_WV?$string_output_adapter@_W@__crt_stdio_output@@V?$format_validation_base@_WV?$string_output_adapter@_W@__crt_stdio_output@@@2@@__crt_stdio_output@@AEAA_NXZ 00000001400bf184 f i libucrt:output.obj
 0001:000be248       ?type_case_s@?$output_processor@_WV?$string_output_adapter@_W@__crt_stdio_output@@V?$positional_parameter_base@_WV?$string_output_adapter@_W@__crt_stdio_output@@@2@@__crt_stdio_output@@AEAA_NXZ 00000001400bf248 f i libucrt:output.obj
 0001:000be32c       ?type_case_s@?$output_processor@_WV?$string_output_adapter@_W@__crt_stdio_output@@V?$standard_base@_WV?$string_output_adapter@_W@__crt_stdio_output@@@2@@__crt_stdio_output@@AEAA_NXZ 00000001400bf32c f i libucrt:output.obj
 0001:000be3f0       ?type_case_s_compute_narrow_string_length@?$output_processor@DV?$stream_output_adapter@D@__crt_stdio_output@@V?$format_validation_base@DV?$stream_output_adapter@D@__crt_stdio_output@@@2@@__crt_stdio_output@@AEAAHHD@Z 00000001400bf3f0 f i libucrt:output.obj
 0001:000be400       ?type_case_s_compute_narrow_string_length@?$output_processor@DV?$stream_output_adapter@D@__crt_stdio_output@@V?$positional_parameter_base@DV?$stream_output_adapter@D@__crt_stdio_output@@@2@@__crt_stdio_output@@AEAAHHD@Z 00000001400bf400 f i libucrt:output.obj
 0001:000be410       ?type_case_s_compute_narrow_string_length@?$output_processor@DV?$stream_output_adapter@D@__crt_stdio_output@@V?$standard_base@DV?$stream_output_adapter@D@__crt_stdio_output@@@2@@__crt_stdio_output@@AEAAHHD@Z 00000001400bf410 f i libucrt:output.obj
 0001:000be420       ?type_case_s_compute_narrow_string_length@?$output_processor@DV?$string_output_adapter@D@__crt_stdio_output@@V?$format_validation_base@DV?$string_output_adapter@D@__crt_stdio_output@@@2@@__crt_stdio_output@@AEAAHHD@Z 00000001400bf420 f i libucrt:output.obj
 0001:000be430       ?type_case_s_compute_narrow_string_length@?$output_processor@DV?$string_output_adapter@D@__crt_stdio_output@@V?$positional_parameter_base@DV?$string_output_adapter@D@__crt_stdio_output@@@2@@__crt_stdio_output@@AEAAHHD@Z 00000001400bf430 f i libucrt:output.obj
 0001:000be440       ?type_case_s_compute_narrow_string_length@?$output_processor@DV?$string_output_adapter@D@__crt_stdio_output@@V?$standard_base@DV?$string_output_adapter@D@__crt_stdio_output@@@2@@__crt_stdio_output@@AEAAHHD@Z 00000001400bf440 f i libucrt:output.obj
 0001:000be450       ?type_case_s_compute_narrow_string_length@?$output_processor@_WV?$stream_output_adapter@_W@__crt_stdio_output@@V?$format_validation_base@_WV?$stream_output_adapter@_W@__crt_stdio_output@@@2@@__crt_stdio_output@@AEAAHH_W@Z 00000001400bf450 f i libucrt:output.obj
 0001:000be4e0       ?type_case_s_compute_narrow_string_length@?$output_processor@_WV?$stream_output_adapter@_W@__crt_stdio_output@@V?$positional_parameter_base@_WV?$stream_output_adapter@_W@__crt_stdio_output@@@2@@__crt_stdio_output@@AEAAHH_W@Z 00000001400bf4e0 f i libucrt:output.obj
 0001:000be570       ?type_case_s_compute_narrow_string_length@?$output_processor@_WV?$stream_output_adapter@_W@__crt_stdio_output@@V?$standard_base@_WV?$stream_output_adapter@_W@__crt_stdio_output@@@2@@__crt_stdio_output@@AEAAHH_W@Z 00000001400bf570 f i libucrt:output.obj
 0001:000be600       ?type_case_s_compute_narrow_string_length@?$output_processor@_WV?$string_output_adapter@_W@__crt_stdio_output@@V?$format_validation_base@_WV?$string_output_adapter@_W@__crt_stdio_output@@@2@@__crt_stdio_output@@AEAAHH_W@Z 00000001400bf600 f i libucrt:output.obj
 0001:000be690       ?type_case_s_compute_narrow_string_length@?$output_processor@_WV?$string_output_adapter@_W@__crt_stdio_output@@V?$positional_parameter_base@_WV?$string_output_adapter@_W@__crt_stdio_output@@@2@@__crt_stdio_output@@AEAAHH_W@Z 00000001400bf690 f i libucrt:output.obj
 0001:000be720       ?type_case_s_compute_narrow_string_length@?$output_processor@_WV?$string_output_adapter@_W@__crt_stdio_output@@V?$standard_base@_WV?$string_output_adapter@_W@__crt_stdio_output@@@2@@__crt_stdio_output@@AEAAHH_W@Z 00000001400bf720 f i libucrt:output.obj
 0001:000be7b0       ?type_case_u@?$output_processor@DV?$stream_output_adapter@D@__crt_stdio_output@@V?$format_validation_base@DV?$stream_output_adapter@D@__crt_stdio_output@@@2@@__crt_stdio_output@@AEAA_NXZ 00000001400bf7b0 f i libucrt:output.obj
 0001:000be7b8       ?type_case_u@?$output_processor@DV?$stream_output_adapter@D@__crt_stdio_output@@V?$positional_parameter_base@DV?$stream_output_adapter@D@__crt_stdio_output@@@2@@__crt_stdio_output@@AEAA_NXZ 00000001400bf7b8 f i libucrt:output.obj
 0001:000be7c0       ?type_case_u@?$output_processor@DV?$stream_output_adapter@D@__crt_stdio_output@@V?$standard_base@DV?$stream_output_adapter@D@__crt_stdio_output@@@2@@__crt_stdio_output@@AEAA_NXZ 00000001400bf7c0 f i libucrt:output.obj
 0001:000be7c8       ?type_case_u@?$output_processor@DV?$string_output_adapter@D@__crt_stdio_output@@V?$format_validation_base@DV?$string_output_adapter@D@__crt_stdio_output@@@2@@__crt_stdio_output@@AEAA_NXZ 00000001400bf7c8 f i libucrt:output.obj
 0001:000be7d0       ?type_case_u@?$output_processor@DV?$string_output_adapter@D@__crt_stdio_output@@V?$positional_parameter_base@DV?$string_output_adapter@D@__crt_stdio_output@@@2@@__crt_stdio_output@@AEAA_NXZ 00000001400bf7d0 f i libucrt:output.obj
 0001:000be7d8       ?type_case_u@?$output_processor@DV?$string_output_adapter@D@__crt_stdio_output@@V?$standard_base@DV?$string_output_adapter@D@__crt_stdio_output@@@2@@__crt_stdio_output@@AEAA_NXZ 00000001400bf7d8 f i libucrt:output.obj
 0001:000be7e0       ?type_case_u@?$output_processor@_WV?$stream_output_adapter@_W@__crt_stdio_output@@V?$format_validation_base@_WV?$stream_output_adapter@_W@__crt_stdio_output@@@2@@__crt_stdio_output@@AEAA_NXZ 00000001400bf7e0 f i libucrt:output.obj
 0001:000be7e8       ?type_case_u@?$output_processor@_WV?$stream_output_adapter@_W@__crt_stdio_output@@V?$positional_parameter_base@_WV?$stream_output_adapter@_W@__crt_stdio_output@@@2@@__crt_stdio_output@@AEAA_NXZ 00000001400bf7e8 f i libucrt:output.obj
 0001:000be7f0       ?type_case_u@?$output_processor@_WV?$stream_output_adapter@_W@__crt_stdio_output@@V?$standard_base@_WV?$stream_output_adapter@_W@__crt_stdio_output@@@2@@__crt_stdio_output@@AEAA_NXZ 00000001400bf7f0 f i libucrt:output.obj
 0001:000be7f8       ?type_case_u@?$output_processor@_WV?$string_output_adapter@_W@__crt_stdio_output@@V?$format_validation_base@_WV?$string_output_adapter@_W@__crt_stdio_output@@@2@@__crt_stdio_output@@AEAA_NXZ 00000001400bf7f8 f i libucrt:output.obj
 0001:000be800       ?type_case_u@?$output_processor@_WV?$string_output_adapter@_W@__crt_stdio_output@@V?$positional_parameter_base@_WV?$string_output_adapter@_W@__crt_stdio_output@@@2@@__crt_stdio_output@@AEAA_NXZ 00000001400bf800 f i libucrt:output.obj
 0001:000be808       ?type_case_u@?$output_processor@_WV?$string_output_adapter@_W@__crt_stdio_output@@V?$standard_base@_WV?$string_output_adapter@_W@__crt_stdio_output@@@2@@__crt_stdio_output@@AEAA_NXZ 00000001400bf808 f i libucrt:output.obj
 0001:000be810       ?type_case_x@?$output_processor@DV?$stream_output_adapter@D@__crt_stdio_output@@V?$format_validation_base@DV?$stream_output_adapter@D@__crt_stdio_output@@@2@@__crt_stdio_output@@AEAA_NXZ 00000001400bf810 f i libucrt:output.obj
 0001:000be818       ?type_case_x@?$output_processor@DV?$stream_output_adapter@D@__crt_stdio_output@@V?$positional_parameter_base@DV?$stream_output_adapter@D@__crt_stdio_output@@@2@@__crt_stdio_output@@AEAA_NXZ 00000001400bf818 f i libucrt:output.obj
 0001:000be820       ?type_case_x@?$output_processor@DV?$stream_output_adapter@D@__crt_stdio_output@@V?$standard_base@DV?$stream_output_adapter@D@__crt_stdio_output@@@2@@__crt_stdio_output@@AEAA_NXZ 00000001400bf820 f i libucrt:output.obj
 0001:000be828       ?type_case_x@?$output_processor@DV?$string_output_adapter@D@__crt_stdio_output@@V?$format_validation_base@DV?$string_output_adapter@D@__crt_stdio_output@@@2@@__crt_stdio_output@@AEAA_NXZ 00000001400bf828 f i libucrt:output.obj
 0001:000be830       ?type_case_x@?$output_processor@DV?$string_output_adapter@D@__crt_stdio_output@@V?$positional_parameter_base@DV?$string_output_adapter@D@__crt_stdio_output@@@2@@__crt_stdio_output@@AEAA_NXZ 00000001400bf830 f i libucrt:output.obj
 0001:000be838       ?type_case_x@?$output_processor@DV?$string_output_adapter@D@__crt_stdio_output@@V?$standard_base@DV?$string_output_adapter@D@__crt_stdio_output@@@2@@__crt_stdio_output@@AEAA_NXZ 00000001400bf838 f i libucrt:output.obj
 0001:000be840       ?type_case_x@?$output_processor@_WV?$stream_output_adapter@_W@__crt_stdio_output@@V?$format_validation_base@_WV?$stream_output_adapter@_W@__crt_stdio_output@@@2@@__crt_stdio_output@@AEAA_NXZ 00000001400bf840 f i libucrt:output.obj
 0001:000be848       ?type_case_x@?$output_processor@_WV?$stream_output_adapter@_W@__crt_stdio_output@@V?$positional_parameter_base@_WV?$stream_output_adapter@_W@__crt_stdio_output@@@2@@__crt_stdio_output@@AEAA_NXZ 00000001400bf848 f i libucrt:output.obj
 0001:000be850       ?type_case_x@?$output_processor@_WV?$stream_output_adapter@_W@__crt_stdio_output@@V?$standard_base@_WV?$stream_output_adapter@_W@__crt_stdio_output@@@2@@__crt_stdio_output@@AEAA_NXZ 00000001400bf850 f i libucrt:output.obj
 0001:000be858       ?type_case_x@?$output_processor@_WV?$string_output_adapter@_W@__crt_stdio_output@@V?$format_validation_base@_WV?$string_output_adapter@_W@__crt_stdio_output@@@2@@__crt_stdio_output@@AEAA_NXZ 00000001400bf858 f i libucrt:output.obj
 0001:000be860       ?type_case_x@?$output_processor@_WV?$string_output_adapter@_W@__crt_stdio_output@@V?$positional_parameter_base@_WV?$string_output_adapter@_W@__crt_stdio_output@@@2@@__crt_stdio_output@@AEAA_NXZ 00000001400bf860 f i libucrt:output.obj
 0001:000be868       ?type_case_x@?$output_processor@_WV?$string_output_adapter@_W@__crt_stdio_output@@V?$standard_base@_WV?$string_output_adapter@_W@__crt_stdio_output@@@2@@__crt_stdio_output@@AEAA_NXZ 00000001400bf868 f i libucrt:output.obj
 0001:000be870       ?unset_flag@?$output_processor@DV?$stream_output_adapter@D@__crt_stdio_output@@V?$format_validation_base@DV?$stream_output_adapter@D@__crt_stdio_output@@@2@@__crt_stdio_output@@AEAAXI@Z 00000001400bf870 f i libucrt:output.obj
 0001:000be878       ?unset_flag@?$output_processor@DV?$stream_output_adapter@D@__crt_stdio_output@@V?$positional_parameter_base@DV?$stream_output_adapter@D@__crt_stdio_output@@@2@@__crt_stdio_output@@AEAAXI@Z 00000001400bf878 f i libucrt:output.obj
 0001:000be880       ?unset_flag@?$output_processor@DV?$stream_output_adapter@D@__crt_stdio_output@@V?$standard_base@DV?$stream_output_adapter@D@__crt_stdio_output@@@2@@__crt_stdio_output@@AEAAXI@Z 00000001400bf880 f i libucrt:output.obj
 0001:000be888       ?unset_flag@?$output_processor@DV?$string_output_adapter@D@__crt_stdio_output@@V?$format_validation_base@DV?$string_output_adapter@D@__crt_stdio_output@@@2@@__crt_stdio_output@@AEAAXI@Z 00000001400bf888 f i libucrt:output.obj
 0001:000be890       ?unset_flag@?$output_processor@DV?$string_output_adapter@D@__crt_stdio_output@@V?$positional_parameter_base@DV?$string_output_adapter@D@__crt_stdio_output@@@2@@__crt_stdio_output@@AEAAXI@Z 00000001400bf890 f i libucrt:output.obj
 0001:000be898       ?unset_flag@?$output_processor@DV?$string_output_adapter@D@__crt_stdio_output@@V?$standard_base@DV?$string_output_adapter@D@__crt_stdio_output@@@2@@__crt_stdio_output@@AEAAXI@Z 00000001400bf898 f i libucrt:output.obj
 0001:000be8a0       ?unset_flag@?$output_processor@_WV?$stream_output_adapter@_W@__crt_stdio_output@@V?$format_validation_base@_WV?$stream_output_adapter@_W@__crt_stdio_output@@@2@@__crt_stdio_output@@AEAAXI@Z 00000001400bf8a0 f i libucrt:output.obj
 0001:000be8a8       ?unset_flag@?$output_processor@_WV?$stream_output_adapter@_W@__crt_stdio_output@@V?$positional_parameter_base@_WV?$stream_output_adapter@_W@__crt_stdio_output@@@2@@__crt_stdio_output@@AEAAXI@Z 00000001400bf8a8 f i libucrt:output.obj
 0001:000be8b0       ?unset_flag@?$output_processor@_WV?$stream_output_adapter@_W@__crt_stdio_output@@V?$standard_base@_WV?$stream_output_adapter@_W@__crt_stdio_output@@@2@@__crt_stdio_output@@AEAAXI@Z 00000001400bf8b0 f i libucrt:output.obj
 0001:000be8b8       ?unset_flag@?$output_processor@_WV?$string_output_adapter@_W@__crt_stdio_output@@V?$format_validation_base@_WV?$string_output_adapter@_W@__crt_stdio_output@@@2@@__crt_stdio_output@@AEAAXI@Z 00000001400bf8b8 f i libucrt:output.obj
 0001:000be8c0       ?unset_flag@?$output_processor@_WV?$string_output_adapter@_W@__crt_stdio_output@@V?$positional_parameter_base@_WV?$string_output_adapter@_W@__crt_stdio_output@@@2@@__crt_stdio_output@@AEAAXI@Z 00000001400bf8c0 f i libucrt:output.obj
 0001:000be8c8       ?unset_flag@?$output_processor@_WV?$string_output_adapter@_W@__crt_stdio_output@@V?$standard_base@_WV?$string_output_adapter@_W@__crt_stdio_output@@@2@@__crt_stdio_output@@AEAAXI@Z 00000001400bf8c8 f i libucrt:output.obj
 0001:000be8d0       ?update_field_width@?$positional_parameter_base@DV?$stream_output_adapter@D@__crt_stdio_output@@@__crt_stdio_output@@IEAA_NXZ 00000001400bf8d0 f i libucrt:output.obj
 0001:000bea9c       ?update_field_width@?$positional_parameter_base@DV?$string_output_adapter@D@__crt_stdio_output@@@__crt_stdio_output@@IEAA_NXZ 00000001400bfa9c f i libucrt:output.obj
 0001:000bec68       ?update_field_width@?$positional_parameter_base@_WV?$stream_output_adapter@_W@__crt_stdio_output@@@__crt_stdio_output@@IEAA_NXZ 00000001400bfc68 f i libucrt:output.obj
 0001:000bee38       ?update_field_width@?$positional_parameter_base@_WV?$string_output_adapter@_W@__crt_stdio_output@@@__crt_stdio_output@@IEAA_NXZ 00000001400bfe38 f i libucrt:output.obj
 0001:000bf008       ?update_field_width@?$standard_base@DV?$stream_output_adapter@D@__crt_stdio_output@@@__crt_stdio_output@@IEAA_NXZ 00000001400c0008 f i libucrt:output.obj
 0001:000bf024       ?update_field_width@?$standard_base@DV?$string_output_adapter@D@__crt_stdio_output@@@__crt_stdio_output@@IEAA_NXZ 00000001400c0024 f i libucrt:output.obj
 0001:000bf040       ?update_field_width@?$standard_base@_WV?$stream_output_adapter@_W@__crt_stdio_output@@@__crt_stdio_output@@IEAA_NXZ 00000001400c0040 f i libucrt:output.obj
 0001:000bf05c       ?update_field_width@?$standard_base@_WV?$string_output_adapter@_W@__crt_stdio_output@@@__crt_stdio_output@@IEAA_NXZ 00000001400c005c f i libucrt:output.obj
 0001:000bf078       ?update_precision@?$positional_parameter_base@DV?$stream_output_adapter@D@__crt_stdio_output@@@__crt_stdio_output@@IEAA_NXZ 00000001400c0078 f i libucrt:output.obj
 0001:000bf244       ?update_precision@?$positional_parameter_base@DV?$string_output_adapter@D@__crt_stdio_output@@@__crt_stdio_output@@IEAA_NXZ 00000001400c0244 f i libucrt:output.obj
 0001:000bf410       ?update_precision@?$positional_parameter_base@_WV?$stream_output_adapter@_W@__crt_stdio_output@@@__crt_stdio_output@@IEAA_NXZ 00000001400c0410 f i libucrt:output.obj
 0001:000bf5e0       ?update_precision@?$positional_parameter_base@_WV?$string_output_adapter@_W@__crt_stdio_output@@@__crt_stdio_output@@IEAA_NXZ 00000001400c05e0 f i libucrt:output.obj
 0001:000bf7b0       ?update_precision@?$standard_base@DV?$stream_output_adapter@D@__crt_stdio_output@@@__crt_stdio_output@@IEAA_NXZ 00000001400c07b0 f i libucrt:output.obj
 0001:000bf7cc       ?update_precision@?$standard_base@DV?$string_output_adapter@D@__crt_stdio_output@@@__crt_stdio_output@@IEAA_NXZ 00000001400c07cc f i libucrt:output.obj
 0001:000bf7e8       ?update_precision@?$standard_base@_WV?$stream_output_adapter@_W@__crt_stdio_output@@@__crt_stdio_output@@IEAA_NXZ 00000001400c07e8 f i libucrt:output.obj
 0001:000bf804       ?update_precision@?$standard_base@_WV?$string_output_adapter@_W@__crt_stdio_output@@@__crt_stdio_output@@IEAA_NXZ 00000001400c0804 f i libucrt:output.obj
 0001:000bf820       ?valid@__crt_stdio_stream@@QEBA_NXZ 00000001400c0820 f i libucrt:output.obj
 0001:000bf82c       ?validate@?$stream_output_adapter@D@__crt_stdio_output@@QEBA_NAEAV__crt_cached_ptd_host@@@Z 00000001400c082c f i libucrt:output.obj
 0001:000bf87c       ?validate@?$stream_output_adapter@_W@__crt_stdio_output@@QEBA_NAEAV__crt_cached_ptd_host@@@Z 00000001400c087c f i libucrt:output.obj
 0001:000bf8c4       ?validate@?$string_output_adapter@D@__crt_stdio_output@@QEBA_NAEAV__crt_cached_ptd_host@@@Z 00000001400c08c4 f i libucrt:output.obj
 0001:000bf90c       ?validate@?$string_output_adapter@_W@__crt_stdio_output@@QEBA_NAEAV__crt_cached_ptd_host@@@Z 00000001400c090c f i libucrt:output.obj
 0001:000bf954       ?validate_and_store_parameter_data@?$positional_parameter_base@DV?$stream_output_adapter@D@__crt_stdio_output@@@__crt_stdio_output@@AEAA_NAEAUparameter_data@12@W4parameter_type@12@DW4length_modifier@2@@Z 00000001400c0954 f i libucrt:output.obj
 0001:000bf9d0       ?validate_and_store_parameter_data@?$positional_parameter_base@DV?$string_output_adapter@D@__crt_stdio_output@@@__crt_stdio_output@@AEAA_NAEAUparameter_data@12@W4parameter_type@12@DW4length_modifier@2@@Z 00000001400c09d0 f i libucrt:output.obj
 0001:000bfa4c       ?validate_and_store_parameter_data@?$positional_parameter_base@_WV?$stream_output_adapter@_W@__crt_stdio_output@@@__crt_stdio_output@@AEAA_NAEAUparameter_data@12@W4parameter_type@12@_WW4length_modifier@2@@Z 00000001400c0a4c f i libucrt:output.obj
 0001:000bfac8       ?validate_and_store_parameter_data@?$positional_parameter_base@_WV?$string_output_adapter@_W@__crt_stdio_output@@@__crt_stdio_output@@AEAA_NAEAUparameter_data@12@W4parameter_type@12@_WW4length_modifier@2@@Z 00000001400c0ac8 f i libucrt:output.obj
 0001:000bfb44       ?validate_and_update_state_at_beginning_of_format_character@?$positional_parameter_base@DV?$stream_output_adapter@D@__crt_stdio_output@@@__crt_stdio_output@@IEAA_NXZ 00000001400c0b44 f i libucrt:output.obj
 0001:000bfcd8       ?validate_and_update_state_at_beginning_of_format_character@?$positional_parameter_base@DV?$string_output_adapter@D@__crt_stdio_output@@@__crt_stdio_output@@IEAA_NXZ 00000001400c0cd8 f i libucrt:output.obj
 0001:000bfe6c       ?validate_and_update_state_at_beginning_of_format_character@?$positional_parameter_base@_WV?$stream_output_adapter@_W@__crt_stdio_output@@@__crt_stdio_output@@IEAA_NXZ 00000001400c0e6c f i libucrt:output.obj
 0001:000c0010       ?validate_and_update_state_at_beginning_of_format_character@?$positional_parameter_base@_WV?$string_output_adapter@_W@__crt_stdio_output@@@__crt_stdio_output@@IEAA_NXZ 00000001400c1010 f i libucrt:output.obj
 0001:000c01b4       ?validate_and_update_state_at_beginning_of_format_character@?$standard_base@DV?$stream_output_adapter@D@__crt_stdio_output@@@__crt_stdio_output@@IEAA_NXZ 00000001400c11b4 f i libucrt:output.obj
 0001:000c01b8       ?validate_and_update_state_at_beginning_of_format_character@?$standard_base@DV?$string_output_adapter@D@__crt_stdio_output@@@__crt_stdio_output@@IEAA_NXZ 00000001400c11b8 f i libucrt:output.obj
 0001:000c01bc       ?validate_and_update_state_at_beginning_of_format_character@?$standard_base@_WV?$stream_output_adapter@_W@__crt_stdio_output@@@__crt_stdio_output@@IEAA_NXZ 00000001400c11bc f i libucrt:output.obj
 0001:000c01c0       ?validate_and_update_state_at_beginning_of_format_character@?$standard_base@_WV?$string_output_adapter@_W@__crt_stdio_output@@@__crt_stdio_output@@IEAA_NXZ 00000001400c11c0 f i libucrt:output.obj
 0001:000c01c4       ?validate_and_update_state_at_end_of_format_string@?$format_validation_base@DV?$stream_output_adapter@D@__crt_stdio_output@@@__crt_stdio_output@@IEAA_NXZ 00000001400c11c4 f i libucrt:output.obj
 0001:000c021c       ?validate_and_update_state_at_end_of_format_string@?$format_validation_base@DV?$string_output_adapter@D@__crt_stdio_output@@@__crt_stdio_output@@IEAA_NXZ 00000001400c121c f i libucrt:output.obj
 0001:000c0274       ?validate_and_update_state_at_end_of_format_string@?$format_validation_base@_WV?$stream_output_adapter@_W@__crt_stdio_output@@@__crt_stdio_output@@IEAA_NXZ 00000001400c1274 f i libucrt:output.obj
 0001:000c02cc       ?validate_and_update_state_at_end_of_format_string@?$format_validation_base@_WV?$string_output_adapter@_W@__crt_stdio_output@@@__crt_stdio_output@@IEAA_NXZ 00000001400c12cc f i libucrt:output.obj
 0001:000c0324       ?validate_and_update_state_at_end_of_format_string@?$positional_parameter_base@DV?$stream_output_adapter@D@__crt_stdio_output@@@__crt_stdio_output@@IEAA_NXZ 00000001400c1324 f i libucrt:output.obj
 0001:000c0408       ?validate_and_update_state_at_end_of_format_string@?$positional_parameter_base@DV?$string_output_adapter@D@__crt_stdio_output@@@__crt_stdio_output@@IEAA_NXZ 00000001400c1408 f i libucrt:output.obj
 0001:000c04ec       ?validate_and_update_state_at_end_of_format_string@?$positional_parameter_base@_WV?$stream_output_adapter@_W@__crt_stdio_output@@@__crt_stdio_output@@IEAA_NXZ 00000001400c14ec f i libucrt:output.obj
 0001:000c05d0       ?validate_and_update_state_at_end_of_format_string@?$positional_parameter_base@_WV?$string_output_adapter@_W@__crt_stdio_output@@@__crt_stdio_output@@IEAA_NXZ 00000001400c15d0 f i libucrt:output.obj
 0001:000c06b4       ?validate_and_update_state_at_end_of_format_string@?$standard_base@DV?$stream_output_adapter@D@__crt_stdio_output@@@__crt_stdio_output@@IEBA_NXZ 00000001400c16b4 f i libucrt:output.obj
 0001:000c06b8       ?validate_and_update_state_at_end_of_format_string@?$standard_base@DV?$string_output_adapter@D@__crt_stdio_output@@@__crt_stdio_output@@IEBA_NXZ 00000001400c16b8 f i libucrt:output.obj
 0001:000c06bc       ?validate_and_update_state_at_end_of_format_string@?$standard_base@_WV?$stream_output_adapter@_W@__crt_stdio_output@@@__crt_stdio_output@@IEBA_NXZ 00000001400c16bc f i libucrt:output.obj
 0001:000c06c0       ?validate_and_update_state_at_end_of_format_string@?$standard_base@_WV?$string_output_adapter@_W@__crt_stdio_output@@@__crt_stdio_output@@IEBA_NXZ 00000001400c16c0 f i libucrt:output.obj
 0001:000c06c4       ?validate_state_for_type_case_a@?$positional_parameter_base@DV?$stream_output_adapter@D@__crt_stdio_output@@@__crt_stdio_output@@IEAA_NXZ 00000001400c16c4 f i libucrt:output.obj
 0001:000c07e0       ?validate_state_for_type_case_a@?$positional_parameter_base@DV?$string_output_adapter@D@__crt_stdio_output@@@__crt_stdio_output@@IEAA_NXZ 00000001400c17e0 f i libucrt:output.obj
 0001:000c08fc       ?validate_state_for_type_case_a@?$positional_parameter_base@_WV?$stream_output_adapter@_W@__crt_stdio_output@@@__crt_stdio_output@@IEAA_NXZ 00000001400c18fc f i libucrt:output.obj
 0001:000c0a1c       ?validate_state_for_type_case_a@?$positional_parameter_base@_WV?$string_output_adapter@_W@__crt_stdio_output@@@__crt_stdio_output@@IEAA_NXZ 00000001400c1a1c f i libucrt:output.obj
 0001:000c0b3c       ?validate_state_for_type_case_a@?$standard_base@DV?$stream_output_adapter@D@__crt_stdio_output@@@__crt_stdio_output@@IEBA_NXZ 00000001400c1b3c f i libucrt:output.obj
 0001:000c0b40       ?validate_state_for_type_case_a@?$standard_base@DV?$string_output_adapter@D@__crt_stdio_output@@@__crt_stdio_output@@IEBA_NXZ 00000001400c1b40 f i libucrt:output.obj
 0001:000c0b44       ?validate_state_for_type_case_a@?$standard_base@_WV?$stream_output_adapter@_W@__crt_stdio_output@@@__crt_stdio_output@@IEBA_NXZ 00000001400c1b44 f i libucrt:output.obj
 0001:000c0b48       ?validate_state_for_type_case_a@?$standard_base@_WV?$string_output_adapter@_W@__crt_stdio_output@@@__crt_stdio_output@@IEBA_NXZ 00000001400c1b48 f i libucrt:output.obj
 0001:000c0b4c       ?validate_stream_is_ansi_if_required@?$__acrt_stdio_char_traits@D@@SA_NQEAU_iobuf@@@Z 00000001400c1b4c f i libucrt:output.obj
 0001:000c0c10       ?validate_stream_is_ansi_if_required@?$__acrt_stdio_char_traits@_W@@SA_NQEAU_iobuf@@@Z 00000001400c1c10 f i libucrt:output.obj
 0001:000c0c14       ?wide_null_string@?$output_processor@DV?$stream_output_adapter@D@__crt_stdio_output@@V?$format_validation_base@DV?$stream_output_adapter@D@__crt_stdio_output@@@2@@__crt_stdio_output@@CAPEA_WXZ 00000001400c1c14 f i libucrt:output.obj
 0001:000c0c20       ?wide_null_string@?$output_processor@DV?$stream_output_adapter@D@__crt_stdio_output@@V?$positional_parameter_base@DV?$stream_output_adapter@D@__crt_stdio_output@@@2@@__crt_stdio_output@@CAPEA_WXZ 00000001400c1c20 f i libucrt:output.obj
 0001:000c0c2c       ?wide_null_string@?$output_processor@DV?$stream_output_adapter@D@__crt_stdio_output@@V?$standard_base@DV?$stream_output_adapter@D@__crt_stdio_output@@@2@@__crt_stdio_output@@CAPEA_WXZ 00000001400c1c2c f i libucrt:output.obj
 0001:000c0c38       ?wide_null_string@?$output_processor@DV?$string_output_adapter@D@__crt_stdio_output@@V?$format_validation_base@DV?$string_output_adapter@D@__crt_stdio_output@@@2@@__crt_stdio_output@@CAPEA_WXZ 00000001400c1c38 f i libucrt:output.obj
 0001:000c0c44       ?wide_null_string@?$output_processor@DV?$string_output_adapter@D@__crt_stdio_output@@V?$positional_parameter_base@DV?$string_output_adapter@D@__crt_stdio_output@@@2@@__crt_stdio_output@@CAPEA_WXZ 00000001400c1c44 f i libucrt:output.obj
 0001:000c0c50       ?wide_null_string@?$output_processor@DV?$string_output_adapter@D@__crt_stdio_output@@V?$standard_base@DV?$string_output_adapter@D@__crt_stdio_output@@@2@@__crt_stdio_output@@CAPEA_WXZ 00000001400c1c50 f i libucrt:output.obj
 0001:000c0c5c       ?wide_null_string@?$output_processor@_WV?$stream_output_adapter@_W@__crt_stdio_output@@V?$format_validation_base@_WV?$stream_output_adapter@_W@__crt_stdio_output@@@2@@__crt_stdio_output@@CAPEA_WXZ 00000001400c1c5c f i libucrt:output.obj
 0001:000c0c68       ?wide_null_string@?$output_processor@_WV?$stream_output_adapter@_W@__crt_stdio_output@@V?$positional_parameter_base@_WV?$stream_output_adapter@_W@__crt_stdio_output@@@2@@__crt_stdio_output@@CAPEA_WXZ 00000001400c1c68 f i libucrt:output.obj
 0001:000c0c74       ?wide_null_string@?$output_processor@_WV?$stream_output_adapter@_W@__crt_stdio_output@@V?$standard_base@_WV?$stream_output_adapter@_W@__crt_stdio_output@@@2@@__crt_stdio_output@@CAPEA_WXZ 00000001400c1c74 f i libucrt:output.obj
 0001:000c0c80       ?wide_null_string@?$output_processor@_WV?$string_output_adapter@_W@__crt_stdio_output@@V?$format_validation_base@_WV?$string_output_adapter@_W@__crt_stdio_output@@@2@@__crt_stdio_output@@CAPEA_WXZ 00000001400c1c80 f i libucrt:output.obj
 0001:000c0c8c       ?wide_null_string@?$output_processor@_WV?$string_output_adapter@_W@__crt_stdio_output@@V?$positional_parameter_base@_WV?$string_output_adapter@_W@__crt_stdio_output@@@2@@__crt_stdio_output@@CAPEA_WXZ 00000001400c1c8c f i libucrt:output.obj
 0001:000c0c98       ?wide_null_string@?$output_processor@_WV?$string_output_adapter@_W@__crt_stdio_output@@V?$standard_base@_WV?$string_output_adapter@_W@__crt_stdio_output@@@2@@__crt_stdio_output@@CAPEA_WXZ 00000001400c1c98 f i libucrt:output.obj
 0001:000c0ca4       ?write_character@?$output_adapter_common@DV?$stream_output_adapter@D@__crt_stdio_output@@@__crt_stdio_output@@QEBAXDQEAHAEAV__crt_cached_ptd_host@@@Z 00000001400c1ca4 f i libucrt:output.obj
 0001:000c0d04       ?write_character@?$output_adapter_common@_WV?$stream_output_adapter@_W@__crt_stdio_output@@@__crt_stdio_output@@QEBAX_WQEAHAEAV__crt_cached_ptd_host@@@Z 00000001400c1d04 f i libucrt:output.obj
 0001:000c0d68       ?write_character@?$string_output_adapter@D@__crt_stdio_output@@QEBA_NDQEAHAEAV__crt_cached_ptd_host@@@Z 00000001400c1d68 f i libucrt:output.obj
 0001:000c0dc0       ?write_character@?$string_output_adapter@_W@__crt_stdio_output@@QEBA_N_WQEAHAEAV__crt_cached_ptd_host@@@Z 00000001400c1dc0 f i libucrt:output.obj
 0001:000c0e1c       ?write_character_without_count_update@?$stream_output_adapter@D@__crt_stdio_output@@QEBA_NDAEAV__crt_cached_ptd_host@@@Z 00000001400c1e1c f i libucrt:output.obj
 0001:000c0e6c       ?write_character_without_count_update@?$stream_output_adapter@_W@__crt_stdio_output@@QEBA_N_WAEAV__crt_cached_ptd_host@@@Z 00000001400c1e6c f i libucrt:output.obj
 0001:000c0ec0       ?write_stored_string_tchar@?$output_processor@DV?$stream_output_adapter@D@__crt_stdio_output@@V?$format_validation_base@DV?$stream_output_adapter@D@__crt_stdio_output@@@2@@__crt_stdio_output@@AEAA_ND@Z 00000001400c1ec0 f i libucrt:output.obj
 0001:000c1040       ?write_stored_string_tchar@?$output_processor@DV?$stream_output_adapter@D@__crt_stdio_output@@V?$positional_parameter_base@DV?$stream_output_adapter@D@__crt_stdio_output@@@2@@__crt_stdio_output@@AEAA_ND@Z 00000001400c2040 f i libucrt:output.obj
 0001:000c11c0       ?write_stored_string_tchar@?$output_processor@DV?$stream_output_adapter@D@__crt_stdio_output@@V?$standard_base@DV?$stream_output_adapter@D@__crt_stdio_output@@@2@@__crt_stdio_output@@AEAA_ND@Z 00000001400c21c0 f i libucrt:output.obj
 0001:000c1340       ?write_stored_string_tchar@?$output_processor@DV?$string_output_adapter@D@__crt_stdio_output@@V?$format_validation_base@DV?$string_output_adapter@D@__crt_stdio_output@@@2@@__crt_stdio_output@@AEAA_ND@Z 00000001400c2340 f i libucrt:output.obj
 0001:000c1460       ?write_stored_string_tchar@?$output_processor@DV?$string_output_adapter@D@__crt_stdio_output@@V?$positional_parameter_base@DV?$string_output_adapter@D@__crt_stdio_output@@@2@@__crt_stdio_output@@AEAA_ND@Z 00000001400c2460 f i libucrt:output.obj
 0001:000c1580       ?write_stored_string_tchar@?$output_processor@DV?$string_output_adapter@D@__crt_stdio_output@@V?$standard_base@DV?$string_output_adapter@D@__crt_stdio_output@@@2@@__crt_stdio_output@@AEAA_ND@Z 00000001400c2580 f i libucrt:output.obj
 0001:000c16a0       ?write_stored_string_tchar@?$output_processor@_WV?$stream_output_adapter@_W@__crt_stdio_output@@V?$format_validation_base@_WV?$stream_output_adapter@_W@__crt_stdio_output@@@2@@__crt_stdio_output@@AEAA_N_W@Z 00000001400c26a0 f i libucrt:output.obj
 0001:000c1824       ?write_stored_string_tchar@?$output_processor@_WV?$stream_output_adapter@_W@__crt_stdio_output@@V?$positional_parameter_base@_WV?$stream_output_adapter@_W@__crt_stdio_output@@@2@@__crt_stdio_output@@AEAA_N_W@Z 00000001400c2824 f i libucrt:output.obj
 0001:000c19a8       ?write_stored_string_tchar@?$output_processor@_WV?$stream_output_adapter@_W@__crt_stdio_output@@V?$standard_base@_WV?$stream_output_adapter@_W@__crt_stdio_output@@@2@@__crt_stdio_output@@AEAA_N_W@Z 00000001400c29a8 f i libucrt:output.obj
 0001:000c1b2c       ?write_stored_string_tchar@?$output_processor@_WV?$string_output_adapter@_W@__crt_stdio_output@@V?$format_validation_base@_WV?$string_output_adapter@_W@__crt_stdio_output@@@2@@__crt_stdio_output@@AEAA_N_W@Z 00000001400c2b2c f i libucrt:output.obj
 0001:000c1c84       ?write_stored_string_tchar@?$output_processor@_WV?$string_output_adapter@_W@__crt_stdio_output@@V?$positional_parameter_base@_WV?$string_output_adapter@_W@__crt_stdio_output@@@2@@__crt_stdio_output@@AEAA_N_W@Z 00000001400c2c84 f i libucrt:output.obj
 0001:000c1ddc       ?write_stored_string_tchar@?$output_processor@_WV?$string_output_adapter@_W@__crt_stdio_output@@V?$standard_base@_WV?$string_output_adapter@_W@__crt_stdio_output@@@2@@__crt_stdio_output@@AEAA_N_W@Z 00000001400c2ddc f i libucrt:output.obj
 0001:000c1f34       ?write_string@?$stream_output_adapter@D@__crt_stdio_output@@QEBAXQEBDHQEAHAEAV__crt_cached_ptd_host@@@Z 00000001400c2f34 f i libucrt:output.obj
 0001:000c1f64       ?write_string@?$stream_output_adapter@_W@__crt_stdio_output@@QEBAXQEB_WHQEAHAEAV__crt_cached_ptd_host@@@Z 00000001400c2f64 f i libucrt:output.obj
 0001:000c1f94       ?write_string@?$string_output_adapter@D@__crt_stdio_output@@QEBAXQEBDHQEAHAEAV__crt_cached_ptd_host@@@Z 00000001400c2f94 f i libucrt:output.obj
 0001:000c2060       ?write_string@?$string_output_adapter@_W@__crt_stdio_output@@QEBAXQEB_WHQEAHAEAV__crt_cached_ptd_host@@@Z 00000001400c3060 f i libucrt:output.obj
 0001:000c2130       ?write_string_impl@?$output_adapter_common@DV?$stream_output_adapter@D@__crt_stdio_output@@@__crt_stdio_output@@IEBAXQEBDHQEAHAEAV__crt_cached_ptd_host@@@Z 00000001400c3130 f i libucrt:output.obj
 0001:000c2230       ?write_string_impl@?$output_adapter_common@_WV?$stream_output_adapter@_W@__crt_stdio_output@@@__crt_stdio_output@@IEBAXQEB_WHQEAHAEAV__crt_cached_ptd_host@@@Z 00000001400c3230 f i libucrt:output.obj
 0001:000c2344       __acrt_isleadbyte_l_noupdate 00000001400c3344 f i libucrt:output.obj
 0001:000c2370       __stdio_common_vfprintf    00000001400c3370 f   libucrt:output.obj
 0001:000c24e0       __stdio_common_vfprintf_p  00000001400c34e0 f   libucrt:output.obj
 0001:000c2650       __stdio_common_vfprintf_s  00000001400c3650 f   libucrt:output.obj
 0001:000c27c0       __stdio_common_vfwprintf   00000001400c37c0 f   libucrt:output.obj
 0001:000c2930       __stdio_common_vfwprintf_p 00000001400c3930 f   libucrt:output.obj
 0001:000c2aa0       __stdio_common_vfwprintf_s 00000001400c3aa0 f   libucrt:output.obj
 0001:000c2c10       __stdio_common_vsnprintf_s 00000001400c3c10 f   libucrt:output.obj
 0001:000c2e5c       __stdio_common_vsnwprintf_s 00000001400c3e5c f   libucrt:output.obj
 0001:000c30ac       __stdio_common_vsprintf    00000001400c40ac f   libucrt:output.obj
 0001:000c3394       __stdio_common_vsprintf_p  00000001400c4394 f   libucrt:output.obj
 0001:000c3478       __stdio_common_vsprintf_s  00000001400c4478 f   libucrt:output.obj
 0001:000c35d0       __stdio_common_vswprintf   00000001400c45d0 f   libucrt:output.obj
 0001:000c38c0       __stdio_common_vswprintf_p 00000001400c48c0 f   libucrt:output.obj
 0001:000c39a4       __stdio_common_vswprintf_s 00000001400c49a4 f   libucrt:output.obj
 0001:000c3afc       _ctype_fast_check_internal 00000001400c4afc f i libucrt:output.obj
 0001:000c3b14       _isdigit_fast_internal     00000001400c4b14 f i libucrt:output.obj
 0001:000c3b30       _tolower_fast_internal     00000001400c4b30 f i libucrt:output.obj
 0001:000c3b48       malloc                     00000001400c4b48 f   libucrt:malloc.obj
 0001:000c3b50       realloc                    00000001400c4b50 f   libucrt:realloc.obj
 0001:000c3b58       _abs64                     00000001400c4b58 f   libucrt:abs.obj
 0001:000c3b68       abs                        00000001400c4b68 f   libucrt:abs.obj
 0001:000c3b74       floorf                     00000001400c4b74 f   libucrt:floorf.obj
 0001:000c3c10       ??$?RE@__crt_internal_free_policy@@QEBAXQEBE@Z 00000001400c4c10 f i libucrt:input.obj
 0001:000c3d1c       ??$assemble_floating_point_ind@M@__crt_strtox@@YAXAEAM@Z 00000001400c4d1c f i libucrt:input.obj
 0001:000c3d24       ??$assemble_floating_point_ind@N@__crt_strtox@@YAXAEAN@Z 00000001400c4d24 f i libucrt:input.obj
 0001:000c3d38       ??$assemble_floating_point_infinity@M@__crt_strtox@@YAX_NAEAM@Z 00000001400c4d38 f i libucrt:input.obj
 0001:000c3d4c       ??$assemble_floating_point_infinity@N@__crt_strtox@@YAX_NAEAN@Z 00000001400c4d4c f i libucrt:input.obj
 0001:000c3d6c       ??$assemble_floating_point_qnan@M@__crt_strtox@@YAX_NAEAM@Z 00000001400c4d6c f i libucrt:input.obj
 0001:000c3d80       ??$assemble_floating_point_qnan@N@__crt_strtox@@YAX_NAEAN@Z 00000001400c4d80 f i libucrt:input.obj
 0001:000c3da0       ??$assemble_floating_point_snan@M@__crt_strtox@@YAX_NAEAM@Z 00000001400c4da0 f i libucrt:input.obj
 0001:000c3db4       ??$assemble_floating_point_snan@N@__crt_strtox@@YAX_NAEAN@Z 00000001400c4db4 f i libucrt:input.obj
 0001:000c3dd4       ??$assemble_floating_point_value_t@M@__crt_strtox@@YA?AW4SLD_STATUS@@_NH_KAEAM@Z 00000001400c4dd4 f i libucrt:input.obj
 0001:000c3e04       ??$assemble_floating_point_value_t@N@__crt_strtox@@YA?AW4SLD_STATUS@@_NH_KAEAN@Z 00000001400c4e04 f i libucrt:input.obj
 0001:000c3e44       ??$assemble_floating_point_zero@M@__crt_strtox@@YAX_NAEAM@Z 00000001400c4e44 f i libucrt:input.obj
 0001:000c3e50       ??$assemble_floating_point_zero@N@__crt_strtox@@YAX_NAEAN@Z 00000001400c4e50 f i libucrt:input.obj
 0001:000c427c       ??$convert_decimal_string_to_floating_type@M@__crt_strtox@@YA?AW4SLD_STATUS@@AEBUfloating_point_string@0@AEAM@Z 00000001400c527c f i libucrt:input.obj
 0001:000c42a0       ??$convert_decimal_string_to_floating_type@N@__crt_strtox@@YA?AW4SLD_STATUS@@AEBUfloating_point_string@0@AEAN@Z 00000001400c52a0 f i libucrt:input.obj
 0001:000c42c4       ??$convert_hexadecimal_string_to_floating_type@M@__crt_strtox@@YA?AW4SLD_STATUS@@AEBUfloating_point_string@0@AEAM@Z 00000001400c52c4 f i libucrt:input.obj
 0001:000c42e8       ??$convert_hexadecimal_string_to_floating_type@N@__crt_strtox@@YA?AW4SLD_STATUS@@AEBUfloating_point_string@0@AEAN@Z 00000001400c52e8 f i libucrt:input.obj
 0001:000c430c       ??$fill_buffer@D@?$input_processor@DV?$stream_input_adapter@D@__crt_stdio_input@@@__crt_stdio_input@@CAXQEFAD_K1@Z 00000001400c530c f i libucrt:input.obj
 0001:000c4310       ??$fill_buffer@D@?$input_processor@DV?$string_input_adapter@D@__crt_stdio_input@@@__crt_stdio_input@@CAXQEFAD_K1@Z 00000001400c5310 f i libucrt:input.obj
 0001:000c4314       ??$fill_buffer@D@?$input_processor@_WV?$stream_input_adapter@_W@__crt_stdio_input@@@__crt_stdio_input@@CAXQEFAD_K1@Z 00000001400c5314 f i libucrt:input.obj
 0001:000c4318       ??$fill_buffer@D@?$input_processor@_WV?$string_input_adapter@_W@__crt_stdio_input@@@__crt_stdio_input@@CAXQEFAD_K1@Z 00000001400c5318 f i libucrt:input.obj
 0001:000c431c       ??$fill_buffer@_W@?$input_processor@DV?$stream_input_adapter@D@__crt_stdio_input@@@__crt_stdio_input@@CAXQEFA_W_K1@Z 00000001400c531c f i libucrt:input.obj
 0001:000c4320       ??$fill_buffer@_W@?$input_processor@DV?$string_input_adapter@D@__crt_stdio_input@@@__crt_stdio_input@@CAXQEFA_W_K1@Z 00000001400c5320 f i libucrt:input.obj
 0001:000c4324       ??$fill_buffer@_W@?$input_processor@_WV?$stream_input_adapter@_W@__crt_stdio_input@@@__crt_stdio_input@@CAXQEFA_W_K1@Z 00000001400c5324 f i libucrt:input.obj
 0001:000c4328       ??$fill_buffer@_W@?$input_processor@_WV?$string_input_adapter@_W@__crt_stdio_input@@@__crt_stdio_input@@CAXQEFA_W_K1@Z 00000001400c5328 f i libucrt:input.obj
 0001:000c432c       ??$getc_nolock@PEAU_iobuf@@@?$__crt_char_traits@D@@SAH$$QEAPEAU_iobuf@@@Z 00000001400c532c f i libucrt:input.obj
 0001:000c4338       ??$getc_nolock@PEAU_iobuf@@@?$__crt_char_traits@_W@@SAG$$QEAPEAU_iobuf@@@Z 00000001400c5338 f i libucrt:input.obj
 0001:000c4344       ??$istspace@AEBE@?$__crt_char_traits@D@@SAHAEBE@Z 00000001400c5344 f i libucrt:input.obj
 0001:000c4350       ??$istspace@AEB_W@?$__crt_char_traits@_W@@SAHAEB_W@Z 00000001400c5350 f i libucrt:input.obj
 0001:000c4360       ??$make_input_adapter_character_source@V?$stream_input_adapter@D@__crt_stdio_input@@@__crt_strtox@@YA?AV?$input_adapter_character_source@V?$stream_input_adapter@D@__crt_stdio_input@@@0@QEAV?$stream_input_adapter@D@__crt_stdio_input@@_KQEA_N@Z 00000001400c5360 f i libucrt:input.obj
 0001:000c4384       ??$make_input_adapter_character_source@V?$stream_input_adapter@_W@__crt_stdio_input@@@__crt_strtox@@YA?AV?$input_adapter_character_source@V?$stream_input_adapter@_W@__crt_stdio_input@@@0@QEAV?$stream_input_adapter@_W@__crt_stdio_input@@_KQEA_N@Z 00000001400c5384 f i libucrt:input.obj
 0001:000c43a8       ??$make_input_adapter_character_source@V?$string_input_adapter@D@__crt_stdio_input@@@__crt_strtox@@YA?AV?$input_adapter_character_source@V?$string_input_adapter@D@__crt_stdio_input@@@0@QEAV?$string_input_adapter@D@__crt_stdio_input@@_KQEA_N@Z 00000001400c53a8 f i libucrt:input.obj
 0001:000c43cc       ??$make_input_adapter_character_source@V?$string_input_adapter@_W@__crt_stdio_input@@@__crt_strtox@@YA?AV?$input_adapter_character_source@V?$string_input_adapter@_W@__crt_stdio_input@@@0@QEAV?$string_input_adapter@_W@__crt_stdio_input@@_KQEA_N@Z 00000001400c53cc f i libucrt:input.obj
 0001:000c43f0       ??$parse_floating_point@V?$input_adapter_character_source@V?$stream_input_adapter@D@__crt_stdio_input@@@__crt_strtox@@M@__crt_strtox@@YA?AW4SLD_STATUS@@QEAU__crt_locale_pointers@@V?$input_adapter_character_source@V?$stream_input_adapter@D@__crt_stdio_input@@@0@QEAM@Z 00000001400c53f0 f i libucrt:input.obj
 0001:000c44c0       ??$parse_floating_point@V?$input_adapter_character_source@V?$stream_input_adapter@D@__crt_stdio_input@@@__crt_strtox@@N@__crt_strtox@@YA?AW4SLD_STATUS@@QEAU__crt_locale_pointers@@V?$input_adapter_character_source@V?$stream_input_adapter@D@__crt_stdio_input@@@0@QEAN@Z 00000001400c54c0 f i libucrt:input.obj
 0001:000c4590       ??$parse_floating_point@V?$input_adapter_character_source@V?$stream_input_adapter@_W@__crt_stdio_input@@@__crt_strtox@@M@__crt_strtox@@YA?AW4SLD_STATUS@@QEAU__crt_locale_pointers@@V?$input_adapter_character_source@V?$stream_input_adapter@_W@__crt_stdio_input@@@0@QEAM@Z 00000001400c5590 f i libucrt:input.obj
 0001:000c4660       ??$parse_floating_point@V?$input_adapter_character_source@V?$stream_input_adapter@_W@__crt_stdio_input@@@__crt_strtox@@N@__crt_strtox@@YA?AW4SLD_STATUS@@QEAU__crt_locale_pointers@@V?$input_adapter_character_source@V?$stream_input_adapter@_W@__crt_stdio_input@@@0@QEAN@Z 00000001400c5660 f i libucrt:input.obj
 0001:000c4730       ??$parse_floating_point@V?$input_adapter_character_source@V?$string_input_adapter@D@__crt_stdio_input@@@__crt_strtox@@M@__crt_strtox@@YA?AW4SLD_STATUS@@QEAU__crt_locale_pointers@@V?$input_adapter_character_source@V?$string_input_adapter@D@__crt_stdio_input@@@0@QEAM@Z 00000001400c5730 f i libucrt:input.obj
 0001:000c4800       ??$parse_floating_point@V?$input_adapter_character_source@V?$string_input_adapter@D@__crt_stdio_input@@@__crt_strtox@@N@__crt_strtox@@YA?AW4SLD_STATUS@@QEAU__crt_locale_pointers@@V?$input_adapter_character_source@V?$string_input_adapter@D@__crt_stdio_input@@@0@QEAN@Z 00000001400c5800 f i libucrt:input.obj
 0001:000c48d0       ??$parse_floating_point@V?$input_adapter_character_source@V?$string_input_adapter@_W@__crt_stdio_input@@@__crt_strtox@@M@__crt_strtox@@YA?AW4SLD_STATUS@@QEAU__crt_locale_pointers@@V?$input_adapter_character_source@V?$string_input_adapter@_W@__crt_stdio_input@@@0@QEAM@Z 00000001400c58d0 f i libucrt:input.obj
 0001:000c49a0       ??$parse_floating_point@V?$input_adapter_character_source@V?$string_input_adapter@_W@__crt_stdio_input@@@__crt_strtox@@N@__crt_strtox@@YA?AW4SLD_STATUS@@QEAU__crt_locale_pointers@@V?$input_adapter_character_source@V?$string_input_adapter@_W@__crt_stdio_input@@@0@QEAN@Z 00000001400c59a0 f i libucrt:input.obj
 0001:000c4a70       ??$parse_floating_point_from_source@V?$input_adapter_character_source@V?$stream_input_adapter@D@__crt_stdio_input@@@__crt_strtox@@@__crt_strtox@@YA?AW4floating_point_parse_result@0@QEAU__crt_locale_pointers@@AEAV?$input_adapter_character_source@V?$stream_input_adapter@D@__crt_stdio_input@@@0@AEAUfloating_point_string@0@@Z 00000001400c5a70 f i libucrt:input.obj
 0001:000c5444       ??$parse_floating_point_from_source@V?$input_adapter_character_source@V?$stream_input_adapter@_W@__crt_stdio_input@@@__crt_strtox@@@__crt_strtox@@YA?AW4floating_point_parse_result@0@QEAU__crt_locale_pointers@@AEAV?$input_adapter_character_source@V?$stream_input_adapter@_W@__crt_stdio_input@@@0@AEAUfloating_point_string@0@@Z 00000001400c6444 f i libucrt:input.obj
 0001:000c6904       ??$parse_floating_point_from_source@V?$input_adapter_character_source@V?$string_input_adapter@D@__crt_stdio_input@@@__crt_strtox@@@__crt_strtox@@YA?AW4floating_point_parse_result@0@QEAU__crt_locale_pointers@@AEAV?$input_adapter_character_source@V?$string_input_adapter@D@__crt_stdio_input@@@0@AEAUfloating_point_string@0@@Z 00000001400c7904 f i libucrt:input.obj
 0001:000c729c       ??$parse_floating_point_from_source@V?$input_adapter_character_source@V?$string_input_adapter@_W@__crt_stdio_input@@@__crt_strtox@@@__crt_strtox@@YA?AW4floating_point_parse_result@0@QEAU__crt_locale_pointers@@AEAV?$input_adapter_character_source@V?$string_input_adapter@_W@__crt_stdio_input@@@0@AEAUfloating_point_string@0@@Z 00000001400c829c f i libucrt:input.obj
 0001:000c872c       ??$parse_floating_point_possible_infinity@DV?$input_adapter_character_source@V?$stream_input_adapter@D@__crt_stdio_input@@@__crt_strtox@@_K@__crt_strtox@@YA?AW4floating_point_parse_result@0@AEADAEAV?$input_adapter_character_source@V?$stream_input_adapter@D@__crt_stdio_input@@@0@_K@Z 00000001400c972c f i libucrt:input.obj
 0001:000c8974       ??$parse_floating_point_possible_infinity@DV?$input_adapter_character_source@V?$string_input_adapter@D@__crt_stdio_input@@@__crt_strtox@@_K@__crt_strtox@@YA?AW4floating_point_parse_result@0@AEADAEAV?$input_adapter_character_source@V?$string_input_adapter@D@__crt_stdio_input@@@0@_K@Z 00000001400c9974 f i libucrt:input.obj
 0001:000c8b8c       ??$parse_floating_point_possible_infinity@_WV?$input_adapter_character_source@V?$stream_input_adapter@_W@__crt_stdio_input@@@__crt_strtox@@_K@__crt_strtox@@YA?AW4floating_point_parse_result@0@AEA_WAEAV?$input_adapter_character_source@V?$stream_input_adapter@_W@__crt_stdio_input@@@0@_K@Z 00000001400c9b8c f i libucrt:input.obj
 0001:000c8e28       ??$parse_floating_point_possible_infinity@_WV?$input_adapter_character_source@V?$string_input_adapter@_W@__crt_stdio_input@@@__crt_strtox@@_K@__crt_strtox@@YA?AW4floating_point_parse_result@0@AEA_WAEAV?$input_adapter_character_source@V?$string_input_adapter@_W@__crt_stdio_input@@@0@_K@Z 00000001400c9e28 f i libucrt:input.obj
 0001:000c90a8       ??$parse_floating_point_possible_nan@DV?$input_adapter_character_source@V?$stream_input_adapter@D@__crt_stdio_input@@@__crt_strtox@@_K@__crt_strtox@@YA?AW4floating_point_parse_result@0@AEADAEAV?$input_adapter_character_source@V?$stream_input_adapter@D@__crt_stdio_input@@@0@_K@Z 00000001400ca0a8 f i libucrt:input.obj
 0001:000c93b8       ??$parse_floating_point_possible_nan@DV?$input_adapter_character_source@V?$string_input_adapter@D@__crt_stdio_input@@@__crt_strtox@@_K@__crt_strtox@@YA?AW4floating_point_parse_result@0@AEADAEAV?$input_adapter_character_source@V?$string_input_adapter@D@__crt_stdio_input@@@0@_K@Z 00000001400ca3b8 f i libucrt:input.obj
 0001:000c96b0       ??$parse_floating_point_possible_nan@_WV?$input_adapter_character_source@V?$stream_input_adapter@_W@__crt_stdio_input@@@__crt_strtox@@_K@__crt_strtox@@YA?AW4floating_point_parse_result@0@AEA_WAEAV?$input_adapter_character_source@V?$stream_input_adapter@_W@__crt_stdio_input@@@0@_K@Z 00000001400ca6b0 f i libucrt:input.obj
 0001:000c9a20       ??$parse_floating_point_possible_nan@_WV?$input_adapter_character_source@V?$string_input_adapter@_W@__crt_stdio_input@@@__crt_strtox@@_K@__crt_strtox@@YA?AW4floating_point_parse_result@0@AEA_WAEAV?$input_adapter_character_source@V?$string_input_adapter@_W@__crt_stdio_input@@@0@_K@Z 00000001400caa20 f i libucrt:input.obj
 0001:000c9d94       ??$parse_floating_point_possible_nan_is_ind@DV?$input_adapter_character_source@V?$stream_input_adapter@D@__crt_stdio_input@@@__crt_strtox@@@__crt_strtox@@YA_NAEADAEAV?$input_adapter_character_source@V?$stream_input_adapter@D@__crt_stdio_input@@@0@@Z 00000001400cad94 f i libucrt:input.obj
 0001:000c9e50       ??$parse_floating_point_possible_nan_is_ind@DV?$input_adapter_character_source@V?$string_input_adapter@D@__crt_stdio_input@@@__crt_strtox@@@__crt_strtox@@YA_NAEADAEAV?$input_adapter_character_source@V?$string_input_adapter@D@__crt_stdio_input@@@0@@Z 00000001400cae50 f i libucrt:input.obj
 0001:000c9ee8       ??$parse_floating_point_possible_nan_is_ind@_WV?$input_adapter_character_source@V?$stream_input_adapter@_W@__crt_stdio_input@@@__crt_strtox@@@__crt_strtox@@YA_NAEA_WAEAV?$input_adapter_character_source@V?$stream_input_adapter@_W@__crt_stdio_input@@@0@@Z 00000001400caee8 f i libucrt:input.obj
 0001:000c9fb8       ??$parse_floating_point_possible_nan_is_ind@_WV?$input_adapter_character_source@V?$string_input_adapter@_W@__crt_stdio_input@@@__crt_strtox@@@__crt_strtox@@YA_NAEA_WAEAV?$input_adapter_character_source@V?$string_input_adapter@_W@__crt_stdio_input@@@0@@Z 00000001400cafb8 f i libucrt:input.obj
 0001:000ca06c       ??$parse_floating_point_possible_nan_is_snan@DV?$input_adapter_character_source@V?$stream_input_adapter@D@__crt_stdio_input@@@__crt_strtox@@@__crt_strtox@@YA_NAEADAEAV?$input_adapter_character_source@V?$stream_input_adapter@D@__crt_stdio_input@@@0@@Z 00000001400cb06c f i libucrt:input.obj
 0001:000ca128       ??$parse_floating_point_possible_nan_is_snan@DV?$input_adapter_character_source@V?$string_input_adapter@D@__crt_stdio_input@@@__crt_strtox@@@__crt_strtox@@YA_NAEADAEAV?$input_adapter_character_source@V?$string_input_adapter@D@__crt_stdio_input@@@0@@Z 00000001400cb128 f i libucrt:input.obj
 0001:000ca1c0       ??$parse_floating_point_possible_nan_is_snan@_WV?$input_adapter_character_source@V?$stream_input_adapter@_W@__crt_stdio_input@@@__crt_strtox@@@__crt_strtox@@YA_NAEA_WAEAV?$input_adapter_character_source@V?$stream_input_adapter@_W@__crt_stdio_input@@@0@@Z 00000001400cb1c0 f i libucrt:input.obj
 0001:000ca290       ??$parse_floating_point_possible_nan_is_snan@_WV?$input_adapter_character_source@V?$string_input_adapter@_W@__crt_stdio_input@@@__crt_strtox@@@__crt_strtox@@YA_NAEA_WAEAV?$input_adapter_character_source@V?$string_input_adapter@_W@__crt_stdio_input@@@0@@Z 00000001400cb290 f i libucrt:input.obj
 0001:000ca344       ??$parse_floating_point_write_result@M@__crt_strtox@@YA?AW4SLD_STATUS@@W4floating_point_parse_result@0@AEBUfloating_point_string@0@QEAM@Z 00000001400cb344 f i libucrt:input.obj
 0001:000ca510       ??$parse_floating_point_write_result@N@__crt_strtox@@YA?AW4SLD_STATUS@@W4floating_point_parse_result@0@AEBUfloating_point_string@0@QEAN@Z 00000001400cb510 f i libucrt:input.obj
 0001:000ca768       ??$parse_integer@_KV?$input_adapter_character_source@V?$stream_input_adapter@D@__crt_stdio_input@@@__crt_strtox@@$00@__crt_strtox@@YA_KAEAV__crt_cached_ptd_host@@V?$input_adapter_character_source@V?$stream_input_adapter@D@__crt_stdio_input@@@0@H_N@Z 00000001400cb768 f i libucrt:input.obj
 0001:000caca4       ??$parse_integer@_KV?$input_adapter_character_source@V?$stream_input_adapter@D@__crt_stdio_input@@@__crt_strtox@@@__crt_strtox@@YA_KQEAU__crt_locale_pointers@@V?$input_adapter_character_source@V?$stream_input_adapter@D@__crt_stdio_input@@@0@H_N@Z 00000001400cbca4 f i libucrt:input.obj
 0001:000cade4       ??$parse_integer@_KV?$input_adapter_character_source@V?$stream_input_adapter@_W@__crt_stdio_input@@@__crt_strtox@@$00@__crt_strtox@@YA_KAEAV__crt_cached_ptd_host@@V?$input_adapter_character_source@V?$stream_input_adapter@_W@__crt_stdio_input@@@0@H_N@Z 00000001400cbde4 f i libucrt:input.obj
 0001:000cb934       ??$parse_integer@_KV?$input_adapter_character_source@V?$stream_input_adapter@_W@__crt_stdio_input@@@__crt_strtox@@@__crt_strtox@@YA_KQEAU__crt_locale_pointers@@V?$input_adapter_character_source@V?$stream_input_adapter@_W@__crt_stdio_input@@@0@H_N@Z 00000001400cc934 f i libucrt:input.obj
 0001:000cba74       ??$parse_integer@_KV?$input_adapter_character_source@V?$string_input_adapter@D@__crt_stdio_input@@@__crt_strtox@@$00@__crt_strtox@@YA_KAEAV__crt_cached_ptd_host@@V?$input_adapter_character_source@V?$string_input_adapter@D@__crt_stdio_input@@@0@H_N@Z 00000001400cca74 f i libucrt:input.obj
 0001:000cbfbc       ??$parse_integer@_KV?$input_adapter_character_source@V?$string_input_adapter@D@__crt_stdio_input@@@__crt_strtox@@@__crt_strtox@@YA_KQEAU__crt_locale_pointers@@V?$input_adapter_character_source@V?$string_input_adapter@D@__crt_stdio_input@@@0@H_N@Z 00000001400ccfbc f i libucrt:input.obj
 0001:000cc0fc       ??$parse_integer@_KV?$input_adapter_character_source@V?$string_input_adapter@_W@__crt_stdio_input@@@__crt_strtox@@$00@__crt_strtox@@YA_KAEAV__crt_cached_ptd_host@@V?$input_adapter_character_source@V?$string_input_adapter@_W@__crt_stdio_input@@@0@H_N@Z 00000001400cd0fc f i libucrt:input.obj
 0001:000ccc70       ??$parse_integer@_KV?$input_adapter_character_source@V?$string_input_adapter@_W@__crt_stdio_input@@@__crt_strtox@@@__crt_strtox@@YA_KQEAU__crt_locale_pointers@@V?$input_adapter_character_source@V?$string_input_adapter@_W@__crt_stdio_input@@@0@H_N@Z 00000001400cdc70 f i libucrt:input.obj
 0001:000ccdb0       ??$parse_next_characters_from_source@DV?$input_adapter_character_source@V?$stream_input_adapter@D@__crt_stdio_input@@@__crt_strtox@@@__crt_strtox@@YA_NQEBD0_KAEADAEAV?$input_adapter_character_source@V?$stream_input_adapter@D@__crt_stdio_input@@@0@@Z 00000001400cddb0 f i libucrt:input.obj
 0001:000cce88       ??$parse_next_characters_from_source@DV?$input_adapter_character_source@V?$string_input_adapter@D@__crt_stdio_input@@@__crt_strtox@@@__crt_strtox@@YA_NQEBD0_KAEADAEAV?$input_adapter_character_source@V?$string_input_adapter@D@__crt_stdio_input@@@0@@Z 00000001400cde88 f i libucrt:input.obj
 0001:000ccf2c       ??$parse_next_characters_from_source@_WV?$input_adapter_character_source@V?$stream_input_adapter@_W@__crt_stdio_input@@@__crt_strtox@@@__crt_strtox@@YA_NQEB_W0_KAEA_WAEAV?$input_adapter_character_source@V?$stream_input_adapter@_W@__crt_stdio_input@@@0@@Z 00000001400cdf2c f i libucrt:input.obj
 0001:000cd014       ??$parse_next_characters_from_source@_WV?$input_adapter_character_source@V?$string_input_adapter@_W@__crt_stdio_input@@@__crt_strtox@@@__crt_strtox@@YA_NQEB_W0_KAEA_WAEAV?$input_adapter_character_source@V?$string_input_adapter@_W@__crt_stdio_input@@@0@@Z 00000001400ce014 f i libucrt:input.obj
 0001:000cd0dc       ??$process_floating_point_specifier_t@M@?$input_processor@DV?$stream_input_adapter@D@__crt_stdio_input@@@__crt_stdio_input@@AEAA_NXZ 00000001400ce0dc f i libucrt:input.obj
 0001:000cd1a4       ??$process_floating_point_specifier_t@M@?$input_processor@DV?$string_input_adapter@D@__crt_stdio_input@@@__crt_stdio_input@@AEAA_NXZ 00000001400ce1a4 f i libucrt:input.obj
 0001:000cd274       ??$process_floating_point_specifier_t@M@?$input_processor@_WV?$stream_input_adapter@_W@__crt_stdio_input@@@__crt_stdio_input@@AEAA_NXZ 00000001400ce274 f i libucrt:input.obj
 0001:000cd33c       ??$process_floating_point_specifier_t@M@?$input_processor@_WV?$string_input_adapter@_W@__crt_stdio_input@@@__crt_stdio_input@@AEAA_NXZ 00000001400ce33c f i libucrt:input.obj
 0001:000cd404       ??$process_floating_point_specifier_t@N@?$input_processor@DV?$stream_input_adapter@D@__crt_stdio_input@@@__crt_stdio_input@@AEAA_NXZ 00000001400ce404 f i libucrt:input.obj
 0001:000cd4d0       ??$process_floating_point_specifier_t@N@?$input_processor@DV?$string_input_adapter@D@__crt_stdio_input@@@__crt_stdio_input@@AEAA_NXZ 00000001400ce4d0 f i libucrt:input.obj
 0001:000cd5a0       ??$process_floating_point_specifier_t@N@?$input_processor@_WV?$stream_input_adapter@_W@__crt_stdio_input@@@__crt_stdio_input@@AEAA_NXZ 00000001400ce5a0 f i libucrt:input.obj
 0001:000cd66c       ??$process_floating_point_specifier_t@N@?$input_processor@_WV?$string_input_adapter@_W@__crt_stdio_input@@@__crt_stdio_input@@AEAA_NXZ 00000001400ce66c f i libucrt:input.obj
 0001:000cd738       ??$process_string_specifier_tchar@D@?$input_processor@DV?$stream_input_adapter@D@__crt_stdio_input@@@__crt_stdio_input@@AEAA_NW4conversion_mode@1@D@Z 00000001400ce738 f i libucrt:input.obj
 0001:000cd92c       ??$process_string_specifier_tchar@D@?$input_processor@DV?$string_input_adapter@D@__crt_stdio_input@@@__crt_stdio_input@@AEAA_NW4conversion_mode@1@D@Z 00000001400ce92c f i libucrt:input.obj
 0001:000cdb4c       ??$process_string_specifier_tchar@D@?$input_processor@_WV?$stream_input_adapter@_W@__crt_stdio_input@@@__crt_stdio_input@@AEAA_NW4conversion_mode@1@D@Z 00000001400ceb4c f i libucrt:input.obj
 0001:000cdd8c       ??$process_string_specifier_tchar@D@?$input_processor@_WV?$string_input_adapter@_W@__crt_stdio_input@@@__crt_stdio_input@@AEAA_NW4conversion_mode@1@D@Z 00000001400ced8c f i libucrt:input.obj
 0001:000cdfe0       ??$process_string_specifier_tchar@_W@?$input_processor@DV?$stream_input_adapter@D@__crt_stdio_input@@@__crt_stdio_input@@AEAA_NW4conversion_mode@1@_W@Z 00000001400cefe0 f i libucrt:input.obj
 0001:000ce224       ??$process_string_specifier_tchar@_W@?$input_processor@DV?$string_input_adapter@D@__crt_stdio_input@@@__crt_stdio_input@@AEAA_NW4conversion_mode@1@_W@Z 00000001400cf224 f i libucrt:input.obj
 0001:000ce47c       ??$process_string_specifier_tchar@_W@?$input_processor@_WV?$stream_input_adapter@_W@__crt_stdio_input@@@__crt_stdio_input@@AEAA_NW4conversion_mode@1@_W@Z 00000001400cf47c f i libucrt:input.obj
 0001:000ce6a4       ??$process_string_specifier_tchar@_W@?$input_processor@_WV?$string_input_adapter@_W@__crt_stdio_input@@@__crt_stdio_input@@AEAA_NW4conversion_mode@1@_W@Z 00000001400cf6a4 f i libucrt:input.obj
 0001:000ce8dc       ??$reset_buffer@D@?$input_processor@DV?$stream_input_adapter@D@__crt_stdio_input@@@__crt_stdio_input@@CAXQEFAD_K@Z 00000001400cf8dc f i libucrt:input.obj
 0001:000ce8e8       ??$reset_buffer@D@?$input_processor@DV?$string_input_adapter@D@__crt_stdio_input@@@__crt_stdio_input@@CAXQEFAD_K@Z 00000001400cf8e8 f i libucrt:input.obj
 0001:000ce8f4       ??$reset_buffer@D@?$input_processor@_WV?$stream_input_adapter@_W@__crt_stdio_input@@@__crt_stdio_input@@CAXQEFAD_K@Z 00000001400cf8f4 f i libucrt:input.obj
 0001:000ce900       ??$reset_buffer@D@?$input_processor@_WV?$string_input_adapter@_W@__crt_stdio_input@@@__crt_stdio_input@@CAXQEFAD_K@Z 00000001400cf900 f i libucrt:input.obj
 0001:000ce90c       ??$reset_buffer@_W@?$input_processor@DV?$stream_input_adapter@D@__crt_stdio_input@@@__crt_stdio_input@@CAXQEFA_W_K@Z 00000001400cf90c f i libucrt:input.obj
 0001:000ce91c       ??$reset_buffer@_W@?$input_processor@DV?$string_input_adapter@D@__crt_stdio_input@@@__crt_stdio_input@@CAXQEFA_W_K@Z 00000001400cf91c f i libucrt:input.obj
 0001:000ce92c       ??$reset_buffer@_W@?$input_processor@_WV?$stream_input_adapter@_W@__crt_stdio_input@@@__crt_stdio_input@@CAXQEFA_W_K@Z 00000001400cf92c f i libucrt:input.obj
 0001:000ce93c       ??$reset_buffer@_W@?$input_processor@_WV?$string_input_adapter@_W@__crt_stdio_input@@@__crt_stdio_input@@CAXQEFA_W_K@Z 00000001400cf93c f i libucrt:input.obj
 0001:000ce94c       ??$skip_whitespace@Vstream_input_adapter@__crt_stdio_input@@D@__crt_stdio_input@@YAHAEAV?$stream_input_adapter@D@0@QEAU__crt_locale_pointers@@@Z 00000001400cf94c f i libucrt:input.obj
 0001:000ce9b0       ??$skip_whitespace@Vstream_input_adapter@__crt_stdio_input@@_W@__crt_stdio_input@@YAGAEAV?$stream_input_adapter@_W@0@QEAU__crt_locale_pointers@@@Z 00000001400cf9b0 f i libucrt:input.obj
 0001:000cea08       ??$skip_whitespace@Vstring_input_adapter@__crt_stdio_input@@D@__crt_stdio_input@@YAHAEAV?$string_input_adapter@D@0@QEAU__crt_locale_pointers@@@Z 00000001400cfa08 f i libucrt:input.obj
 0001:000cea70       ??$skip_whitespace@Vstring_input_adapter@__crt_stdio_input@@_W@__crt_stdio_input@@YAGAEAV?$string_input_adapter@_W@0@QEAU__crt_locale_pointers@@@Z 00000001400cfa70 f i libucrt:input.obj
 0001:000ceae0       ??$tcsnlen@AEBQEBDAEB_K@?$__crt_char_traits@D@@SA_KAEBQEBDAEB_K@Z 00000001400cfae0 f i libucrt:input.obj
 0001:000ceaf0       ??$tcsnlen@AEBQEB_WAEB_K@?$__crt_char_traits@_W@@SA_KAEBQEB_WAEB_K@Z 00000001400cfaf0 f i libucrt:input.obj
 0001:000ceb00       ??$tcstoull@PEBDPEAPEADH@?$__crt_char_traits@D@@SA_K$$QEAPEBD$$QEAPEAPEAD$$QEAH@Z 00000001400cfb00 f i libucrt:input.obj
 0001:000ceb14       ??$tcstoull@PEB_WPEAPEA_WH@?$__crt_char_traits@_W@@SA_K$$QEAPEB_W$$QEAPEAPEA_W$$QEAH@Z 00000001400cfb14 f i libucrt:input.obj
 0001:000ceb28       ??$ungettc_nolock@AEBGPEAU_iobuf@@@?$__crt_char_traits@_W@@SAGAEBG$$QEAPEAU_iobuf@@@Z 00000001400cfb28 f i libucrt:input.obj
 0001:000ceb38       ??$ungettc_nolock@AEBHPEAU_iobuf@@@?$__crt_char_traits@D@@SAHAEBH$$QEAPEAU_iobuf@@@Z 00000001400cfb38 f i libucrt:input.obj
 0001:000ceb44       ??$write_floating_point@M@?$input_processor@DV?$stream_input_adapter@D@__crt_stdio_input@@@__crt_stdio_input@@AEAA_NAEBM@Z 00000001400cfb44 f i libucrt:input.obj
 0001:000ceb88       ??$write_floating_point@M@?$input_processor@DV?$string_input_adapter@D@__crt_stdio_input@@@__crt_stdio_input@@AEAA_NAEBM@Z 00000001400cfb88 f i libucrt:input.obj
 0001:000cebd4       ??$write_floating_point@M@?$input_processor@_WV?$stream_input_adapter@_W@__crt_stdio_input@@@__crt_stdio_input@@AEAA_NAEBM@Z 00000001400cfbd4 f i libucrt:input.obj
 0001:000cec18       ??$write_floating_point@M@?$input_processor@_WV?$string_input_adapter@_W@__crt_stdio_input@@@__crt_stdio_input@@AEAA_NAEBM@Z 00000001400cfc18 f i libucrt:input.obj
 0001:000cec5c       ??$write_floating_point@N@?$input_processor@DV?$stream_input_adapter@D@__crt_stdio_input@@@__crt_stdio_input@@AEAA_NAEBN@Z 00000001400cfc5c f i libucrt:input.obj
 0001:000ceca4       ??$write_floating_point@N@?$input_processor@DV?$string_input_adapter@D@__crt_stdio_input@@@__crt_stdio_input@@AEAA_NAEBN@Z 00000001400cfca4 f i libucrt:input.obj
 0001:000cecf4       ??$write_floating_point@N@?$input_processor@_WV?$stream_input_adapter@_W@__crt_stdio_input@@@__crt_stdio_input@@AEAA_NAEBN@Z 00000001400cfcf4 f i libucrt:input.obj
 0001:000ced3c       ??$write_floating_point@N@?$input_processor@_WV?$string_input_adapter@_W@__crt_stdio_input@@@__crt_stdio_input@@AEAA_NAEBN@Z 00000001400cfd3c f i libucrt:input.obj
 0001:000ced90       ??0<lambda_1232a416a9149be513dc40db5f8b835d>@@QEAA@AEAV?$input_adapter_character_source@V?$stream_input_adapter@D@__crt_stdio_input@@@__crt_strtox@@AEADAEA_K@Z 00000001400cfd90 f i libucrt:input.obj
 0001:000cedb0       ??0<lambda_156378f40168adef48d7ddfcff3a1264>@@QEAA@AEAV?$input_adapter_character_source@V?$stream_input_adapter@D@__crt_stdio_input@@@__crt_strtox@@AEADAEA_K@Z 00000001400cfdb0 f i libucrt:input.obj
 0001:000cedd0       ??0<lambda_1db4d925c2db10274e92824f631ccf5d>@@QEAA@AEAV?$input_adapter_character_source@V?$string_input_adapter@D@__crt_stdio_input@@@__crt_strtox@@AEADAEA_K@Z 00000001400cfdd0 f i libucrt:input.obj
 0001:000cede4       ??0<lambda_283d5cd4935f5253d095a945c5771a1b>@@QEAA@AEAV?$input_adapter_character_source@V?$string_input_adapter@_W@__crt_stdio_input@@@__crt_strtox@@AEA_WAEA_K@Z 00000001400cfde4 f i libucrt:input.obj
 0001:000cedf8       ??0<lambda_2869a9057330eafa474e853b0696fc23>@@QEAA@AEAV?$input_adapter_character_source@V?$stream_input_adapter@_W@__crt_stdio_input@@@__crt_strtox@@AEA_WAEA_K@Z 00000001400cfdf8 f i libucrt:input.obj
 0001:000cee0c       ??0<lambda_3fab6266ebbbb6a80db50646f7fd7b75>@@QEAA@AEAV?$input_adapter_character_source@V?$stream_input_adapter@_W@__crt_stdio_input@@@__crt_strtox@@AEA_WAEA_K@Z 00000001400cfe0c f i libucrt:input.obj
 0001:000cee20       ??0<lambda_6c6d19daa7c7d45df7f17119b7c25976>@@QEAA@AEAV?$input_adapter_character_source@V?$stream_input_adapter@_W@__crt_stdio_input@@@__crt_strtox@@AEA_WAEA_K@Z 00000001400cfe20 f i libucrt:input.obj
 0001:000cee34       ??0<lambda_987679f592fad43c4bd3fe4c5bcc8c0e>@@QEAA@AEAV?$input_adapter_character_source@V?$stream_input_adapter@D@__crt_stdio_input@@@__crt_strtox@@AEADAEA_K@Z 00000001400cfe34 f i libucrt:input.obj
 0001:000cee48       ??0<lambda_a9f975f7e8316be0241b8392d74a98d8>@@QEAA@AEAV?$input_adapter_character_source@V?$string_input_adapter@_W@__crt_stdio_input@@@__crt_strtox@@AEA_WAEA_K@Z 00000001400cfe48 f i libucrt:input.obj
 0001:000cee5c       ??0<lambda_ab71cf08e5e7ad30a15505f224e9f7a9>@@QEAA@AEAV?$input_adapter_character_source@V?$string_input_adapter@_W@__crt_stdio_input@@@__crt_strtox@@AEA_WAEA_K@Z 00000001400cfe5c f i libucrt:input.obj
 0001:000cee9c       ??0<lambda_bdd123a27a08a14f93fbf44b617d0736>@@QEAA@AEAV?$input_adapter_character_source@V?$string_input_adapter@D@__crt_stdio_input@@@__crt_strtox@@AEADAEA_K@Z 00000001400cfe9c f i libucrt:input.obj
 0001:000ceebc       ??0<lambda_ee7c83d9f0cd4f1299194e0a8d424b67>@@QEAA@AEAV?$input_adapter_character_source@V?$string_input_adapter@D@__crt_stdio_input@@@__crt_strtox@@AEADAEA_K@Z 00000001400cfebc f i libucrt:input.obj
 0001:000ceefc       ??0?$__crt_unique_heap_ptr@EU__crt_internal_free_policy@@@@QEAA@QEAE@Z 00000001400cfefc f i libucrt:input.obj
 0001:000cef04       ??0?$format_string_parser@D@__crt_stdio_input@@QEAA@_KQEBE@Z 00000001400cff04 f i libucrt:input.obj
 0001:000cef40       ??0?$format_string_parser@_W@__crt_stdio_input@@QEAA@_KQEB_W@Z 00000001400cff40 f i libucrt:input.obj
 0001:000cef74       ??0?$input_adapter_character_source@V?$stream_input_adapter@D@__crt_stdio_input@@@__crt_strtox@@QEAA@$$QEAV01@@Z 00000001400cff74 f i libucrt:input.obj
 0001:000cefac       ??0?$input_adapter_character_source@V?$stream_input_adapter@D@__crt_stdio_input@@@__crt_strtox@@QEAA@QEAV?$stream_input_adapter@D@__crt_stdio_input@@_KQEA_N@Z 00000001400cffac f i libucrt:input.obj
 0001:000cefd0       ??0?$input_adapter_character_source@V?$stream_input_adapter@_W@__crt_stdio_input@@@__crt_strtox@@QEAA@$$QEAV01@@Z 00000001400cffd0 f i libucrt:input.obj
 0001:000cf008       ??0?$input_adapter_character_source@V?$stream_input_adapter@_W@__crt_stdio_input@@@__crt_strtox@@QEAA@QEAV?$stream_input_adapter@_W@__crt_stdio_input@@_KQEA_N@Z 00000001400d0008 f i libucrt:input.obj
 0001:000cf02c       ??0?$input_adapter_character_source@V?$string_input_adapter@D@__crt_stdio_input@@@__crt_strtox@@QEAA@$$QEAV01@@Z 00000001400d002c f i libucrt:input.obj
 0001:000cf064       ??0?$input_adapter_character_source@V?$string_input_adapter@D@__crt_stdio_input@@@__crt_strtox@@QEAA@QEAV?$string_input_adapter@D@__crt_stdio_input@@_KQEA_N@Z 00000001400d0064 f i libucrt:input.obj
 0001:000cf088       ??0?$input_adapter_character_source@V?$string_input_adapter@_W@__crt_stdio_input@@@__crt_strtox@@QEAA@$$QEAV01@@Z 00000001400d0088 f i libucrt:input.obj
 0001:000cf0c0       ??0?$input_adapter_character_source@V?$string_input_adapter@_W@__crt_stdio_input@@@__crt_strtox@@QEAA@QEAV?$string_input_adapter@_W@__crt_stdio_input@@_KQEA_N@Z 00000001400d00c0 f i libucrt:input.obj
 0001:000cf0e4       ??0?$input_processor@DV?$stream_input_adapter@D@__crt_stdio_input@@@__crt_stdio_input@@QEAA@AEBV?$stream_input_adapter@D@1@_KQEBDQEAU__crt_locale_pointers@@QEAD@Z 00000001400d00e4 f i libucrt:input.obj
 0001:000cf150       ??0?$input_processor@DV?$string_input_adapter@D@__crt_stdio_input@@@__crt_stdio_input@@QEAA@AEBV?$string_input_adapter@D@1@_KQEBDQEAU__crt_locale_pointers@@QEAD@Z 00000001400d0150 f i libucrt:input.obj
 0001:000cf1cc       ??0?$input_processor@_WV?$stream_input_adapter@_W@__crt_stdio_input@@@__crt_stdio_input@@QEAA@AEBV?$stream_input_adapter@_W@1@_KQEB_WQEAU__crt_locale_pointers@@QEAD@Z 00000001400d01cc f i libucrt:input.obj
 0001:000cf228       ??0?$input_processor@_WV?$string_input_adapter@_W@__crt_stdio_input@@@__crt_stdio_input@@QEAA@AEBV?$string_input_adapter@_W@1@_KQEB_WQEAU__crt_locale_pointers@@QEAD@Z 00000001400d0228 f i libucrt:input.obj
 0001:000cf290       ??0?$scanset_buffer@E@__crt_stdio_input@@QEAA@XZ 00000001400d0290 f i libucrt:input.obj
 0001:000cf2a4       ??0?$scanset_buffer@_W@__crt_stdio_input@@QEAA@XZ 00000001400d02a4 f i libucrt:input.obj
 0001:000cf2b0       ??0?$scanset_storage@$00@__crt_stdio_input@@QEAA@XZ 00000001400d02b0 f i libucrt:input.obj
 0001:000cf2c4       ??0?$scanset_storage@$01@__crt_stdio_input@@QEAA@XZ 00000001400d02c4 f i libucrt:input.obj
 0001:000cf2d0       ??0?$stream_input_adapter@D@__crt_stdio_input@@QEAA@QEAU_iobuf@@@Z 00000001400d02d0 f i libucrt:input.obj
 0001:000cf2e0       ??0?$stream_input_adapter@_W@__crt_stdio_input@@QEAA@QEAU_iobuf@@@Z 00000001400d02e0 f i libucrt:input.obj
 0001:000cf2f0       ??0?$string_input_adapter@D@__crt_stdio_input@@QEAA@QEBD_K@Z 00000001400d02f0 f i libucrt:input.obj
 0001:000cf308       ??0?$string_input_adapter@_W@__crt_stdio_input@@QEAA@QEB_W_K@Z 00000001400d0308 f i libucrt:input.obj
 0001:000cf320       ??0_LocaleUpdate@@QEAA@QEAU__crt_locale_pointers@@@Z 00000001400d0320 f i libucrt:input.obj
 0001:000cf3f0       ??0big_integer@__crt_strtox@@QEAA@AEBU01@@Z 00000001400d03f0 f i libucrt:input.obj
 0001:000cf430       ??0big_integer@__crt_strtox@@QEAA@XZ 00000001400d0430 f i libucrt:input.obj
 0001:000cf43c       ??0floating_point_value@__crt_strtox@@QEAA@QEAM@Z 00000001400d043c f i libucrt:input.obj
 0001:000cf44c       ??0floating_point_value@__crt_strtox@@QEAA@QEAN@Z 00000001400d044c f i libucrt:input.obj
 0001:000cf45c       ??1?$__crt_unique_heap_ptr@EU__crt_internal_free_policy@@@@QEAA@XZ 00000001400d045c f i libucrt:input.obj
 0001:000cf480       ??1?$format_string_parser@_W@__crt_stdio_input@@QEAA@XZ 00000001400d0480 f i libucrt:input.obj
 0001:000cf4a4       ??1?$input_adapter_character_source@V?$stream_input_adapter@D@__crt_stdio_input@@@__crt_strtox@@QEAA@XZ 00000001400d04a4 f i libucrt:input.obj
 0001:000cf4c0       ??1?$input_adapter_character_source@V?$stream_input_adapter@_W@__crt_stdio_input@@@__crt_strtox@@QEAA@XZ 00000001400d04c0 f i libucrt:input.obj
 0001:000cf4dc       ??1?$input_adapter_character_source@V?$string_input_adapter@D@__crt_stdio_input@@@__crt_strtox@@QEAA@XZ 00000001400d04dc f i libucrt:input.obj
 0001:000cf4f8       ??1?$input_adapter_character_source@V?$string_input_adapter@_W@__crt_stdio_input@@@__crt_strtox@@QEAA@XZ 00000001400d04f8 f i libucrt:input.obj
 0001:000cf514       ??1?$input_processor@_WV?$stream_input_adapter@_W@__crt_stdio_input@@@__crt_stdio_input@@QEAA@XZ 00000001400d0514 f i libucrt:input.obj
 0001:000cf538       ??1?$input_processor@_WV?$string_input_adapter@_W@__crt_stdio_input@@@__crt_stdio_input@@QEAA@XZ 00000001400d0538 f i libucrt:input.obj
 0001:000cf55c       ??1?$scanset_buffer@_W@__crt_stdio_input@@QEAA@XZ 00000001400d055c f i libucrt:input.obj
 0001:000cf580       ??1?$scanset_storage@$01@__crt_stdio_input@@QEAA@XZ 00000001400d0580 f i libucrt:input.obj
 0001:000cf5a4       ??1_LocaleUpdate@@QEAA@XZ  00000001400d05a4 f i libucrt:input.obj
 0001:000cf5bc       ??4?$__crt_unique_heap_ptr@EU__crt_internal_free_policy@@@@QEAAAEAV0@$$QEAV0@@Z 00000001400d05bc f i libucrt:input.obj
 0001:000cf600       ??4big_integer@__crt_strtox@@QEAAAEAU01@AEBU01@@Z 00000001400d0600 f i libucrt:input.obj
 0001:000cf63c       ??B?$__crt_unique_heap_ptr@EU__crt_internal_free_policy@@@@QEBA_NXZ 00000001400d063c f i libucrt:input.obj
 0001:000cf650       ??M__crt_strtox@@YA_NAEBUbig_integer@0@0@Z 00000001400d0650 f i libucrt:input.obj
 0001:000cf698       ??R<lambda_1232a416a9149be513dc40db5f8b835d>@@QEBA@XZ 00000001400d0698 f i libucrt:input.obj
 0001:000cf73c       ??R<lambda_156378f40168adef48d7ddfcff3a1264>@@QEBA@XZ 00000001400d073c f i libucrt:input.obj
 0001:000cf7e0       ??R<lambda_1db4d925c2db10274e92824f631ccf5d>@@QEBA@XZ 00000001400d07e0 f i libucrt:input.obj
 0001:000cf85c       ??R<lambda_283d5cd4935f5253d095a945c5771a1b>@@QEBA@XZ 00000001400d085c f i libucrt:input.obj
 0001:000cf8e4       ??R<lambda_2869a9057330eafa474e853b0696fc23>@@QEBA@XZ 00000001400d08e4 f i libucrt:input.obj
 0001:000cf980       ??R<lambda_3fab6266ebbbb6a80db50646f7fd7b75>@@QEBA@XZ 00000001400d0980 f i libucrt:input.obj
 0001:000cfa1c       ??R<lambda_6c6d19daa7c7d45df7f17119b7c25976>@@QEBA@XZ 00000001400d0a1c f i libucrt:input.obj
 0001:000cfab8       ??R<lambda_987679f592fad43c4bd3fe4c5bcc8c0e>@@QEBA@XZ 00000001400d0ab8 f i libucrt:input.obj
 0001:000cfb50       ??R<lambda_a9f975f7e8316be0241b8392d74a98d8>@@QEBA@XZ 00000001400d0b50 f i libucrt:input.obj
 0001:000cfbd8       ??R<lambda_ab71cf08e5e7ad30a15505f224e9f7a9>@@QEBA@XZ 00000001400d0bd8 f i libucrt:input.obj
 0001:000cfd68       ??R<lambda_bdd123a27a08a14f93fbf44b617d0736>@@QEBA@XZ 00000001400d0d68 f i libucrt:input.obj
 0001:000cfdf0       ??R<lambda_ee7c83d9f0cd4f1299194e0a8d424b67>@@QEBA@XZ 00000001400d0df0 f i libucrt:input.obj
 0001:000cff78       ?GetLocaleT@_LocaleUpdate@@QEAAPEAU__crt_locale_pointers@@XZ 00000001400d0f78 f i libucrt:input.obj
 0001:000cff80       ?accumulate_decimal_digits_into_big_integer@__crt_strtox@@YAXQEBE0AEAUbig_integer@1@@Z 00000001400d0f80 f i libucrt:input.obj
 0001:000d06b0       ?add@__crt_strtox@@YA_NAEAUbig_integer@1@I@Z 00000001400d16b0 f i libucrt:input.obj
 0001:000d0760       ?add_carry@__crt_strtox@@YAIAEAIII@Z 00000001400d1760 f i libucrt:input.obj
 0001:000d0780       ?add_multiply_carry@__crt_strtox@@YAIAEAIIII@Z 00000001400d1780 f i libucrt:input.obj
 0001:000d07a8       ?advance@?$format_string_parser@D@__crt_stdio_input@@QEAA_NXZ 00000001400d17a8 f i libucrt:input.obj
 0001:000d09e0       ?advance@?$format_string_parser@_W@__crt_stdio_input@@QEAA_NXZ 00000001400d19e0 f i libucrt:input.obj
 0001:000d0bd8       ?as_double@floating_point_value@__crt_strtox@@QEBAAEANXZ 00000001400d1bd8 f i libucrt:input.obj
 0001:000d0c20       ?as_float@floating_point_value@__crt_strtox@@QEBAAEAMXZ 00000001400d1c20 f i libucrt:input.obj
 0001:000d0c68       ?assemble_floating_point_infinity@__crt_strtox@@YAX_NAEBVfloating_point_value@1@@Z 00000001400d1c68 f i libucrt:input.obj
 0001:000d0ca4       ?assemble_floating_point_value@__crt_strtox@@YA?AW4SLD_STATUS@@_KH_N1AEBVfloating_point_value@1@@Z 00000001400d1ca4 f i libucrt:input.obj
 0001:000d113c       ?assemble_floating_point_value_from_big_integer@__crt_strtox@@YA?AW4SLD_STATUS@@AEBUbig_integer@1@I_N1AEBVfloating_point_value@1@@Z 00000001400d213c f i libucrt:input.obj
 0001:000d12f4       ?assemble_floating_point_zero@__crt_strtox@@YAX_NAEBVfloating_point_value@1@@Z 00000001400d22f4 f i libucrt:input.obj
 0001:000d1320       ?bit_scan_reverse@__crt_strtox@@YAIAEBUbig_integer@1@@Z 00000001400d2320 f i libucrt:input.obj
 0001:000d1350       ?bit_scan_reverse@__crt_strtox@@YAII@Z 00000001400d2350 f i libucrt:input.obj
 0001:000d1370       ?bit_scan_reverse@__crt_strtox@@YAI_K@Z 00000001400d2370 f i libucrt:input.obj
 0001:000d13a0       ?characters_read@?$stream_input_adapter@D@__crt_stdio_input@@QEBA_KXZ 00000001400d23a0 f i libucrt:input.obj
 0001:000d13a8       ?characters_read@?$stream_input_adapter@_W@__crt_stdio_input@@QEBA_KXZ 00000001400d23a8 f i libucrt:input.obj
 0001:000d13b0       ?characters_read@?$string_input_adapter@D@__crt_stdio_input@@QEBA_KXZ 00000001400d23b0 f i libucrt:input.obj
 0001:000d13bc       ?characters_read@?$string_input_adapter@_W@__crt_stdio_input@@QEBA_KXZ 00000001400d23bc f i libucrt:input.obj
 0001:000d13cc       ?convert_decimal_string_to_floating_type_common@__crt_strtox@@YA?AW4SLD_STATUS@@AEBUfloating_point_string@1@AEBVfloating_point_value@1@@Z 00000001400d23cc f i libucrt:input.obj
